ARM GAS  C:\Users\HENRIC~1\AppData\Local\Temp\cc3hpANX.s 			page 1


   1              		.syntax unified
   2              		.cpu cortex-m3
   3              		.fpu softvfp
   4              		.eabi_attribute 20, 1
   5              		.eabi_attribute 21, 1
   6              		.eabi_attribute 23, 3
   7              		.eabi_attribute 24, 1
   8              		.eabi_attribute 25, 1
   9              		.eabi_attribute 26, 1
  10              		.eabi_attribute 30, 1
  11              		.eabi_attribute 34, 1
  12              		.eabi_attribute 18, 4
  13              		.thumb
  14              		.syntax unified
  15              		.file	"Application.c"
  16              		.text
  17              	.Ltext0:
  18              		.cfi_sections	.debug_frame
  19              		.section	.text._handle_command_help,"ax",%progbits
  20              		.align	2
  21              		.thumb
  22              		.thumb_func
  23              		.type	_handle_command_help, %function
  24              	_handle_command_help:
  25              	.LFB67:
  26              		.file 1 "Application.c"
   1:Application.c **** /**
   2:Application.c ****  * Application
   3:Application.c ****  * @author Curt Henrichs
   4:Application.c ****  * @date 1-11-18
   5:Application.c ****  *
   6:Application.c ****  * Application layer demo program for term project.
   7:Application.c ****  *
   8:Application.c ****  * Demo project consists of a serial terminal, command-line interface to 
   9:Application.c ****  *  - log into device as a user (thereby allocating a set of addresses)
  10:Application.c ****  *  - send short messages (44 characters or less) accross the network bus
  11:Application.c ****  *  - receive short messages on logged in addresses and broadcast address
  12:Application.c ****  *  - generate help menu for explaining commands
  13:Application.c ****  *  - logout of device
  14:Application.c ****  *  - crc option to generate a transmit with or without CRC.
  15:Application.c ****  */
  16:Application.c **** 
  17:Application.c **** //=============================================================================
  18:Application.c **** //                                 Libraries
  19:Application.c **** //=============================================================================
  20:Application.c **** 
  21:Application.c **** #include <stdbool.h>
  22:Application.c **** #include <string.h>
  23:Application.c **** #include <unistd.h>
  24:Application.c **** #include <stdlib.h>
  25:Application.c **** #include <stdio.h>
  26:Application.c **** #include "Application.h"
  27:Application.c **** #include "UserAddressAllocation.h"
  28:Application.c **** #include "DataLinkLayer.h"
  29:Application.c **** #include "Uart.h"
  30:Application.c **** 
  31:Application.c **** //=============================================================================
ARM GAS  C:\Users\HENRIC~1\AppData\Local\Temp\cc3hpANX.s 			page 2


  32:Application.c **** //                          Constant and Macro Definition
  33:Application.c **** //=============================================================================
  34:Application.c **** 
  35:Application.c **** #define UART_RX_BUFFER_SIZE (128)   //! Length of input buffer from UART host
  36:Application.c **** #define UART_TX_BUFFER_SIZE (128)   //! Length of output buffer to UART host
  37:Application.c **** 
  38:Application.c **** /**
  39:Application.c ****  * UART print function abstracts wait behavior
  40:Application.c ****  * @param string is C-String to print
  41:Application.c ****  */
  42:Application.c **** #define _print(str)     do{                                 \
  43:Application.c ****                             while(!uart_tx_ready());        \
  44:Application.c **** 	                        uart_print_str(str);            \
  45:Application.c ****                         }while(0)                           \
  46:Application.c ****                     
  47:Application.c **** 
  48:Application.c **** //=============================================================================
  49:Application.c **** //                               Private Attributes
  50:Application.c **** //=============================================================================
  51:Application.c **** 
  52:Application.c **** /**
  53:Application.c ****  * Currently logged in user, _INVALID_NAME if not logged in
  54:Application.c ****  */
  55:Application.c **** static UserName_e _currentUser;
  56:Application.c **** /**
  57:Application.c ****  * Current CRC Transmit settings, Default is DLL_NO_CRC
  58:Application.c ****  */
  59:Application.c **** static DLL_CRC_Use_e _crc_option;
  60:Application.c **** /**
  61:Application.c ****  * Flag noting that the UART has been connected with host device
  62:Application.c ****  */
  63:Application.c **** static bool _previously_connected;
  64:Application.c **** /**
  65:Application.c ****  * Allocated temporary buffer for transmitting messages to UART host device
  66:Application.c ****  */
  67:Application.c **** static char _uart_txBuffer[UART_TX_BUFFER_SIZE];
  68:Application.c **** /**
  69:Application.c ****  * Allocated temporary buffer for receiving messages from UART host device
  70:Application.c ****  */
  71:Application.c **** static char _uart_rxBuffer[UART_RX_BUFFER_SIZE];
  72:Application.c **** /**
  73:Application.c ****  * Current length of receive buffer, used for tracking between iterations
  74:Application.c ****  */
  75:Application.c **** static uint16_t _uart_rxBuffer_len;
  76:Application.c **** 
  77:Application.c **** //=============================================================================
  78:Application.c **** //                           Private Function Prototypes
  79:Application.c **** //=============================================================================
  80:Application.c **** 
  81:Application.c **** /**
  82:Application.c ****  * Display welcome message on UART Terminal
  83:Application.c ****  */
  84:Application.c **** static void _print_welcome_msg(void);
  85:Application.c **** /**
  86:Application.c ****  * Handle command message from UART host after a newline character received
  87:Application.c ****  */
  88:Application.c **** static void _handle_command(char* user_msg);
ARM GAS  C:\Users\HENRIC~1\AppData\Local\Temp\cc3hpANX.s 			page 3


  89:Application.c **** /**
  90:Application.c ****  * Display help message on UART terminal
  91:Application.c ****  */
  92:Application.c **** static void _handle_command_help(void);
  93:Application.c **** /**
  94:Application.c ****  * Parse command string for login parameters. Display message to user.
  95:Application.c ****  * Updates the logged in user state if successful
  96:Application.c ****  * @param param is string to parse for command parameters
  97:Application.c ****  */
  98:Application.c **** static void _handle_command_login(char* param);
  99:Application.c **** /**
 100:Application.c ****  * Log out current user if a user is logged in. Display a message to user.
 101:Application.c ****  * Updates state of logged in user and settings for transmit CRC.
 102:Application.c ****  */
 103:Application.c **** static void _handle_command_logout(void);
 104:Application.c **** /**
 105:Application.c ****  * Parse command string for message contents. Display message to user.
 106:Application.c ****  * Starts transmission in network stack.
 107:Application.c ****  * @param param is string to parse for command parameters
 108:Application.c ****  */
 109:Application.c **** static void _handle_command_send(char* param);
 110:Application.c **** /**
 111:Application.c ****  * Parse command string for CRC transmission options. Display message to user.
 112:Application.c ****  * Modifies settings for transmit CRC.
 113:Application.c ****  * @param param is string to parse for command parameters
 114:Application.c ****  */
 115:Application.c **** static void _handle_command_crc(char* param);
 116:Application.c **** /**
 117:Application.c ****  * Print error message to user notifying them to log in before using command.
 118:Application.c ****  */
 119:Application.c **** static void _print_not_logged_in_error_msg(void);
 120:Application.c **** /**
 121:Application.c ****  * Print error message to user stating that provided command is invalid.
 122:Application.c ****  */
 123:Application.c **** static void _print_command_not_recognized_error_msg(char* cmd);
 124:Application.c **** /**
 125:Application.c ****  * Function that captures raw data from UART and searches for newline.
 126:Application.c ****  * Will modify _uart_rxBuffer with new contents.
 127:Application.c ****  * @return newline is found.
 128:Application.c ****  */
 129:Application.c **** static bool _uart_receive_data(void);
 130:Application.c **** 
 131:Application.c **** //=============================================================================
 132:Application.c **** //                         Public Function Implementation
 133:Application.c **** //=============================================================================
 134:Application.c **** 
 135:Application.c **** /**
 136:Application.c ****  * Application main function will run demo program for term project
 137:Application.c ****  * @return --ignore
 138:Application.c ****  */
 139:Application.c **** int app_main(void){
 140:Application.c ****     
 141:Application.c ****     //initialize application state
 142:Application.c **** 	_currentUser = _INVALID_NAME;
 143:Application.c ****     _previously_connected = false;
 144:Application.c ****     _uart_rxBuffer_len = 0;
 145:Application.c ****     
ARM GAS  C:\Users\HENRIC~1\AppData\Local\Temp\cc3hpANX.s 			page 4


 146:Application.c ****     //initialize hardware and network stack
 147:Application.c ****     CyGlobalIntEnable; 
 148:Application.c ****     dll_init();
 149:Application.c **** 	user_init();
 150:Application.c ****     uart_init();
 151:Application.c ****     LCD_Start();
 152:Application.c ****     LCD_ClearDisplay();
 153:Application.c ****     LCD_PrintString("Application");
 154:Application.c ****     
 155:Application.c ****     //wait for uart to connect
 156:Application.c ****     while(!uart_update()){/* Wait Loop */}
 157:Application.c **** 
 158:Application.c ****     //application main loop
 159:Application.c **** 	while(1){
 160:Application.c **** 
 161:Application.c **** 		uart_update();
 162:Application.c ****         
 163:Application.c ****         //print welcome message on usbuart configuration change
 164:Application.c ****         if(uart_has_connected() && !_previously_connected){
 165:Application.c ****             _previously_connected = true;  
 166:Application.c ****             _print_welcome_msg();
 167:Application.c ****         }else if(!uart_has_connected()){
 168:Application.c ****             _previously_connected = false;   
 169:Application.c ****         }
 170:Application.c ****         
 171:Application.c ****         //build up user message buffer until enter
 172:Application.c ****         if(uart_has_data()){
 173:Application.c ****             //capture data and handle command on newline
 174:Application.c ****             if(_uart_receive_data()){
 175:Application.c ****                 _handle_command(_uart_rxBuffer);  
 176:Application.c ****                 memset(_uart_rxBuffer,0,sizeof(_uart_rxBuffer));
 177:Application.c ****                 _uart_rxBuffer_len = 0;
 178:Application.c ****                 _print("\n\n>>");
 179:Application.c ****             }
 180:Application.c ****         }
 181:Application.c **** 
 182:Application.c ****         // Network stack has received message, display and refresh current message
 183:Application.c **** 		if(dll_update()){
 184:Application.c ****             
 185:Application.c ****             //Print network received data
 186:Application.c **** 			DLL_Message_t rx_msg;
 187:Application.c **** 			dll_read(&rx_msg);
 188:Application.c **** 			sprintf(_uart_txBuffer,"\n\n\nRx: %d %d",rx_msg.src,rx_msg.dst);
 189:Application.c ****             _print(_uart_txBuffer);
 190:Application.c ****             memcpy(_uart_txBuffer,rx_msg.msg,rx_msg.msg_size);
 191:Application.c ****             _uart_txBuffer[rx_msg.msg_size] = '\n';
 192:Application.c ****             _uart_txBuffer[rx_msg.msg_size+1] = '\0';
 193:Application.c ****             _print(_uart_txBuffer);
 194:Application.c ****             sprintf(_uart_txBuffer,"Rx-CRC: %d, Header: %s, Data: %s\n",rx_msg.use_crc,
 195:Application.c ****                     (rx_msg.failed_header_crc)? "Error" : "Valid", 
 196:Application.c ****                     (rx_msg.failed_data_crc) ? "Error" : "Valid");
 197:Application.c ****             _print(_uart_txBuffer);
 198:Application.c **** 
 199:Application.c ****             //reprint user entered data
 200:Application.c ****             _print("\n\n>>");
 201:Application.c ****             _print(_uart_rxBuffer);
 202:Application.c ****         }
ARM GAS  C:\Users\HENRIC~1\AppData\Local\Temp\cc3hpANX.s 			page 5


 203:Application.c **** 	}
 204:Application.c ****     
 205:Application.c **** 	return 0; /* ignore */
 206:Application.c **** }
 207:Application.c **** 
 208:Application.c **** //=============================================================================
 209:Application.c **** //                         Private Function Implementation
 210:Application.c **** //=============================================================================
 211:Application.c **** 
 212:Application.c **** /**
 213:Application.c ****  * Display welcome message on UART Terminal
 214:Application.c ****  */
 215:Application.c **** static void _print_welcome_msg(void){
 216:Application.c ****     _print("Welcome to the Manchester United Terminal!\n\n");
 217:Application.c ****     _handle_command_help();
 218:Application.c ****     _print("\n\n>>");
 219:Application.c **** }
 220:Application.c **** 
 221:Application.c **** /**
 222:Application.c ****  * Handle command message from UART host after a newline character received
 223:Application.c ****  */
 224:Application.c **** static void _handle_command(char* instr){
 225:Application.c ****     
 226:Application.c ****     char cmd[21];
 227:Application.c ****     int count = sscanf(instr,"%20s",cmd);
 228:Application.c ****     if(count != EOF && count > 0){
 229:Application.c ****         
 230:Application.c ****         //convert command to lowercase
 231:Application.c ****         for(unsigned int i = 0; i < strlen(cmd); i++){
 232:Application.c **** 		    cmd[i] = tolower(cmd[i]);
 233:Application.c **** 	    } 
 234:Application.c ****         
 235:Application.c ****         //parse command tree
 236:Application.c ****     	if(0 == strcmp(cmd,"login")){
 237:Application.c ****             if(strlen(cmd) + 1 < strlen(instr)){
 238:Application.c ****                 _handle_command_login(instr + strlen(cmd) + 1);
 239:Application.c ****             }else{
 240:Application.c ****                 _print("Missing parameters.\n"); 
 241:Application.c ****             }
 242:Application.c ****     	}else if(0 == strcmp(cmd,"help")){
 243:Application.c ****     		_handle_command_help();
 244:Application.c ****     	}else if(0 == strcmp(cmd,"logout")){
 245:Application.c ****             if(_currentUser != _INVALID_NAME){
 246:Application.c ****                 _handle_command_logout();
 247:Application.c ****             }else{
 248:Application.c ****                 _print_not_logged_in_error_msg();
 249:Application.c ****             }
 250:Application.c ****     	}else if(0 == strcmp(cmd,"send")){
 251:Application.c ****             if(_currentUser != _INVALID_NAME){
 252:Application.c ****                 if(strlen(cmd) + 1 < strlen(instr)){
 253:Application.c ****                     _handle_command_send(instr + strlen(cmd) + 1);
 254:Application.c ****                 }else{
 255:Application.c ****                     _print("Missing parameters.\n"); 
 256:Application.c ****                 }
 257:Application.c ****             }else{
 258:Application.c ****                 _print_not_logged_in_error_msg();
 259:Application.c ****             }	
ARM GAS  C:\Users\HENRIC~1\AppData\Local\Temp\cc3hpANX.s 			page 6


 260:Application.c ****     	}else if(0 == strcmp(cmd,"crc")){
 261:Application.c ****             if(_currentUser != _INVALID_NAME){
 262:Application.c ****                 if(strlen(cmd) + 1 < strlen(instr)){
 263:Application.c ****                     _handle_command_crc(instr + strlen(cmd) + 1);
 264:Application.c ****                 }else{
 265:Application.c ****                     _print("Missing parameters.\n"); 
 266:Application.c ****                 }
 267:Application.c ****             }else{
 268:Application.c ****                 _print_not_logged_in_error_msg();   
 269:Application.c ****             }
 270:Application.c ****         }else{
 271:Application.c ****     	    _print_command_not_recognized_error_msg(cmd);
 272:Application.c ****     	}
 273:Application.c ****     }else{
 274:Application.c ****         _print("Command must be supplied.\n"); 
 275:Application.c ****     }
 276:Application.c **** }
 277:Application.c **** 
 278:Application.c **** /**
 279:Application.c ****  * Display help message on UART terminal
 280:Application.c ****  */
 281:Application.c **** static void _handle_command_help(void){
  27              		.loc 1 281 0
  28              		.cfi_startproc
  29              		@ args = 0, pretend = 0, frame = 0
  30              		@ frame_needed = 0, uses_anonymous_args = 0
  31 0000 08B5     		push	{r3, lr}
  32              		.cfi_def_cfa_offset 8
  33              		.cfi_offset 3, -8
  34              		.cfi_offset 14, -4
  35              	.L2:
 282:Application.c ****     _print("To log in: 'login <first name> <last name>' where name is ");
  36              		.loc 1 282 0 discriminator 1
  37 0002 FFF7FEFF 		bl	USBUART_CDCIsReady
  38              	.LVL0:
  39 0006 0028     		cmp	r0, #0
  40 0008 FBD0     		beq	.L2
  41              		.loc 1 282 0 is_stmt 0 discriminator 2
  42 000a 2548     		ldr	r0, .L14
  43 000c FFF7FEFF 		bl	USBUART_PutString
  44              	.LVL1:
  45              	.L3:
 283:Application.c ****     _print("as displayed in 'Interface Standard' manual \n");
  46              		.loc 1 283 0 is_stmt 1 discriminator 1
  47 0010 FFF7FEFF 		bl	USBUART_CDCIsReady
  48              	.LVL2:
  49 0014 0028     		cmp	r0, #0
  50 0016 FBD0     		beq	.L3
  51              		.loc 1 283 0 is_stmt 0 discriminator 2
  52 0018 2248     		ldr	r0, .L14+4
  53 001a FFF7FEFF 		bl	USBUART_PutString
  54              	.LVL3:
  55              	.L4:
 284:Application.c ****     _print("To send a message: 'send <src> <dest> <message>' where ");
  56              		.loc 1 284 0 is_stmt 1 discriminator 1
  57 001e FFF7FEFF 		bl	USBUART_CDCIsReady
  58              	.LVL4:
ARM GAS  C:\Users\HENRIC~1\AppData\Local\Temp\cc3hpANX.s 			page 7


  59 0022 0028     		cmp	r0, #0
  60 0024 FBD0     		beq	.L4
  61              		.loc 1 284 0 is_stmt 0 discriminator 2
  62 0026 2048     		ldr	r0, .L14+8
  63 0028 FFF7FEFF 		bl	USBUART_PutString
  64              	.LVL5:
  65              	.L5:
 285:Application.c ****     _print("<dest> is the destination name or address and <message> ");
  66              		.loc 1 285 0 is_stmt 1 discriminator 1
  67 002c FFF7FEFF 		bl	USBUART_CDCIsReady
  68              	.LVL6:
  69 0030 0028     		cmp	r0, #0
  70 0032 FBD0     		beq	.L5
  71              		.loc 1 285 0 is_stmt 0 discriminator 2
  72 0034 1D48     		ldr	r0, .L14+12
  73 0036 FFF7FEFF 		bl	USBUART_PutString
  74              	.LVL7:
  75              	.L6:
 286:Application.c ****     _print("is the message to send\n");
  76              		.loc 1 286 0 is_stmt 1 discriminator 1
  77 003a FFF7FEFF 		bl	USBUART_CDCIsReady
  78              	.LVL8:
  79 003e 0028     		cmp	r0, #0
  80 0040 FBD0     		beq	.L6
  81              		.loc 1 286 0 is_stmt 0 discriminator 2
  82 0042 1B48     		ldr	r0, .L14+16
  83 0044 FFF7FEFF 		bl	USBUART_PutString
  84              	.LVL9:
  85              	.L7:
 287:Application.c ****     _print("To change CRC transmit settings: 'crc <option>' where ");
  86              		.loc 1 287 0 is_stmt 1 discriminator 1
  87 0048 FFF7FEFF 		bl	USBUART_CDCIsReady
  88              	.LVL10:
  89 004c 0028     		cmp	r0, #0
  90 004e FBD0     		beq	.L7
  91              		.loc 1 287 0 is_stmt 0 discriminator 2
  92 0050 1848     		ldr	r0, .L14+20
  93 0052 FFF7FEFF 		bl	USBUART_PutString
  94              	.LVL11:
  95              	.L8:
 288:Application.c ****     _print("<option> is 0=NO_CRC, 1=HEADER_CRC, 2=DATA_CRC, ");
  96              		.loc 1 288 0 is_stmt 1 discriminator 1
  97 0056 FFF7FEFF 		bl	USBUART_CDCIsReady
  98              	.LVL12:
  99 005a 0028     		cmp	r0, #0
 100 005c FBD0     		beq	.L8
 101              		.loc 1 288 0 is_stmt 0 discriminator 2
 102 005e 1648     		ldr	r0, .L14+24
 103 0060 FFF7FEFF 		bl	USBUART_PutString
 104              	.LVL13:
 105              	.L9:
 289:Application.c ****     _print("3=BOTH_CRC\n");
 106              		.loc 1 289 0 is_stmt 1 discriminator 1
 107 0064 FFF7FEFF 		bl	USBUART_CDCIsReady
 108              	.LVL14:
 109 0068 0028     		cmp	r0, #0
 110 006a FBD0     		beq	.L9
ARM GAS  C:\Users\HENRIC~1\AppData\Local\Temp\cc3hpANX.s 			page 8


 111              		.loc 1 289 0 is_stmt 0 discriminator 2
 112 006c 1348     		ldr	r0, .L14+28
 113 006e FFF7FEFF 		bl	USBUART_PutString
 114              	.LVL15:
 115              	.L10:
 290:Application.c ****     _print("To log out: 'logout'\n");
 116              		.loc 1 290 0 is_stmt 1 discriminator 1
 117 0072 FFF7FEFF 		bl	USBUART_CDCIsReady
 118              	.LVL16:
 119 0076 0028     		cmp	r0, #0
 120 0078 FBD0     		beq	.L10
 121              		.loc 1 290 0 is_stmt 0 discriminator 2
 122 007a 1148     		ldr	r0, .L14+32
 123 007c FFF7FEFF 		bl	USBUART_PutString
 124              	.LVL17:
 125              	.L11:
 291:Application.c ****     _print("To show this list of commands again: 'help'\n");
 126              		.loc 1 291 0 is_stmt 1 discriminator 1
 127 0080 FFF7FEFF 		bl	USBUART_CDCIsReady
 128              	.LVL18:
 129 0084 0028     		cmp	r0, #0
 130 0086 FBD0     		beq	.L11
 131              		.loc 1 291 0 is_stmt 0 discriminator 2
 132 0088 0E48     		ldr	r0, .L14+36
 133 008a FFF7FEFF 		bl	USBUART_PutString
 134              	.LVL19:
 135              	.L12:
 292:Application.c ****     _print("All commands are case-insensitive!\n");
 136              		.loc 1 292 0 is_stmt 1 discriminator 1
 137 008e FFF7FEFF 		bl	USBUART_CDCIsReady
 138              	.LVL20:
 139 0092 0028     		cmp	r0, #0
 140 0094 FBD0     		beq	.L12
 141              		.loc 1 292 0 is_stmt 0 discriminator 2
 142 0096 0C48     		ldr	r0, .L14+40
 143 0098 FFF7FEFF 		bl	USBUART_PutString
 144              	.LVL21:
 145 009c 08BD     		pop	{r3, pc}
 146              	.L15:
 147 009e 00BF     		.align	2
 148              	.L14:
 149 00a0 00000000 		.word	.LC0
 150 00a4 3C000000 		.word	.LC1
 151 00a8 6C000000 		.word	.LC2
 152 00ac A4000000 		.word	.LC3
 153 00b0 E0000000 		.word	.LC4
 154 00b4 F8000000 		.word	.LC5
 155 00b8 30010000 		.word	.LC6
 156 00bc 64010000 		.word	.LC7
 157 00c0 70010000 		.word	.LC8
 158 00c4 88010000 		.word	.LC9
 159 00c8 B8010000 		.word	.LC10
 160              		.cfi_endproc
 161              	.LFE67:
 162              		.size	_handle_command_help, .-_handle_command_help
 163              		.section	.text._print_welcome_msg,"ax",%progbits
 164              		.align	2
ARM GAS  C:\Users\HENRIC~1\AppData\Local\Temp\cc3hpANX.s 			page 9


 165              		.thumb
 166              		.thumb_func
 167              		.type	_print_welcome_msg, %function
 168              	_print_welcome_msg:
 169              	.LFB65:
 215:Application.c ****     _print("Welcome to the Manchester United Terminal!\n\n");
 170              		.loc 1 215 0 is_stmt 1
 171              		.cfi_startproc
 172              		@ args = 0, pretend = 0, frame = 0
 173              		@ frame_needed = 0, uses_anonymous_args = 0
 174 0000 08B5     		push	{r3, lr}
 175              		.cfi_def_cfa_offset 8
 176              		.cfi_offset 3, -8
 177              		.cfi_offset 14, -4
 178              	.L17:
 216:Application.c ****     _handle_command_help();
 179              		.loc 1 216 0 discriminator 1
 180 0002 FFF7FEFF 		bl	USBUART_CDCIsReady
 181              	.LVL22:
 182 0006 0028     		cmp	r0, #0
 183 0008 FBD0     		beq	.L17
 216:Application.c ****     _handle_command_help();
 184              		.loc 1 216 0 is_stmt 0 discriminator 2
 185 000a 0648     		ldr	r0, .L20
 186 000c FFF7FEFF 		bl	USBUART_PutString
 187              	.LVL23:
 217:Application.c ****     _print("\n\n>>");
 188              		.loc 1 217 0 is_stmt 1 discriminator 2
 189 0010 FFF7FEFF 		bl	_handle_command_help
 190              	.LVL24:
 191              	.L18:
 218:Application.c **** }
 192              		.loc 1 218 0 discriminator 1
 193 0014 FFF7FEFF 		bl	USBUART_CDCIsReady
 194              	.LVL25:
 195 0018 0028     		cmp	r0, #0
 196 001a FBD0     		beq	.L18
 218:Application.c **** }
 197              		.loc 1 218 0 is_stmt 0 discriminator 2
 198 001c 0248     		ldr	r0, .L20+4
 199 001e FFF7FEFF 		bl	USBUART_PutString
 200              	.LVL26:
 201 0022 08BD     		pop	{r3, pc}
 202              	.L21:
 203              		.align	2
 204              	.L20:
 205 0024 DC010000 		.word	.LC11
 206 0028 0C020000 		.word	.LC12
 207              		.cfi_endproc
 208              	.LFE65:
 209              		.size	_print_welcome_msg, .-_print_welcome_msg
 210              		.section	.text._print_not_logged_in_error_msg,"ax",%progbits
 211              		.align	2
 212              		.thumb
 213              		.thumb_func
 214              		.type	_print_not_logged_in_error_msg, %function
 215              	_print_not_logged_in_error_msg:
ARM GAS  C:\Users\HENRIC~1\AppData\Local\Temp\cc3hpANX.s 			page 10


 216              	.LFB72:
 293:Application.c **** }
 294:Application.c **** 
 295:Application.c **** /**
 296:Application.c ****  * Parse command string for login parameters. Display message to user.
 297:Application.c ****  * Updates the logged in user state if successful
 298:Application.c ****  * @param param is string to parse for command parameters
 299:Application.c ****  */
 300:Application.c **** static void _handle_command_login(char* param){
 301:Application.c ****     char* name = strtok(param, "\n");
 302:Application.c ****     for(int i = 0; name[i]; i++){
 303:Application.c **** 		name[i] = tolower(name[i]);
 304:Application.c **** 	}
 305:Application.c **** 	_currentUser = user_string_to_id(name);
 306:Application.c **** 	dll_set_user(_currentUser);
 307:Application.c ****     if(_currentUser != _INVALID_NAME){
 308:Application.c **** 	    sprintf(_uart_txBuffer,"Welcome, %s :)\n",user_id_to_string(_currentUser));
 309:Application.c ****         _print(_uart_txBuffer);
 310:Application.c ****     }else{
 311:Application.c ****         sprintf(_uart_txBuffer,"Failed to login user, %s :(\n",name);
 312:Application.c ****         _print(_uart_txBuffer);
 313:Application.c ****     }
 314:Application.c **** }
 315:Application.c **** 
 316:Application.c **** /**
 317:Application.c ****  * Log out current user if a user is logged in. Display a message to user.
 318:Application.c ****  * Updates state of logged in user and settings for transmit CRC.
 319:Application.c ****  */
 320:Application.c **** static void _handle_command_logout(void){
 321:Application.c ****     sprintf(_uart_txBuffer,"Goodbye, %s!\n",user_id_to_string(_currentUser));
 322:Application.c ****     _print(_uart_txBuffer);
 323:Application.c **** 	_currentUser = _INVALID_NAME;
 324:Application.c ****     _crc_option = DLL_NO_CRC;
 325:Application.c **** 	dll_set_user(_currentUser);
 326:Application.c **** }
 327:Application.c **** 
 328:Application.c **** /**
 329:Application.c ****  * Parse command string for message contents. Display message to user.
 330:Application.c ****  * Starts transmission in network stack.
 331:Application.c ****  * @param param is string to parse for command parameters
 332:Application.c ****  */
 333:Application.c **** static void _handle_command_send(char* param){
 334:Application.c **** 
 335:Application.c ****     //parse message frame components
 336:Application.c **** 	uint8_t msgSrc = atoi(strtok(param, " "));
 337:Application.c ****     //source is within proper range, continue parsing
 338:Application.c **** 	if(msgSrc >= 1 && msgSrc <= 3){
 339:Application.c **** 		msgSrc = user_id_to_address(_currentUser,msgSrc-1);
 340:Application.c **** 		uint8_t msgDest = atoi(strtok(NULL, " "));
 341:Application.c ****         //destination is within proper range, continue parsing
 342:Application.c **** 		if(msgDest >= 0 && msgSrc <= 126){
 343:Application.c **** 			char* msgText = strtok(NULL, "\n");
 344:Application.c **** 			uint8_t msgSize = strlen(msgText);
 345:Application.c ****             //all criteria filled, populate and send message
 346:Application.c **** 			if(msgSize >= 1 && msgSize <= 44){
 347:Application.c ****                  
 348:Application.c **** 				//populate message frame
ARM GAS  C:\Users\HENRIC~1\AppData\Local\Temp\cc3hpANX.s 			page 11


 349:Application.c **** 				DLL_Message_t tx_msg;
 350:Application.c ****             	tx_msg.src = msgSrc;
 351:Application.c ****             	tx_msg.dst = msgDest;
 352:Application.c ****             	tx_msg.use_crc = _crc_option;
 353:Application.c ****             	tx_msg.msg_size = msgSize;
 354:Application.c ****                 memcpy(tx_msg.msg,msgText,msgSize);
 355:Application.c **** 				
 356:Application.c **** 				//write message to bus
 357:Application.c ****             	bool result = dll_write(&tx_msg);
 358:Application.c ****                 uart_print_str(result ? "..Success\n" : "..Failed\n");
 359:Application.c **** 			}
 360:Application.c **** 			else{
 361:Application.c **** 			    _print("Selected message is too long.  Maximum message "
 362:Application.c ****                                "length is 44 characters.\n");
 363:Application.c ****             }
 364:Application.c **** 		}
 365:Application.c **** 		else{
 366:Application.c **** 		    _print("Improper destination used.  Value should be an "
 367:Application.c ****                            "integer value between 0 and 126.\n");
 368:Application.c ****         }
 369:Application.c **** 	}
 370:Application.c **** 	else{
 371:Application.c **** 	    _print("Improper source used.  Value should be between 1 and 3 "
 372:Application.c ****                        "corresponding to the addresses of the current user.\n");
 373:Application.c ****     }
 374:Application.c **** }
 375:Application.c **** 
 376:Application.c **** /**
 377:Application.c ****  * Parse command string for CRC transmission options. Display message to user.
 378:Application.c ****  * Modifies settings for transmit CRC.
 379:Application.c ****  * @param param is string to parse for command parameters
 380:Application.c ****  */
 381:Application.c **** static void _handle_command_crc(char* param){
 382:Application.c ****     unsigned int crcOption;
 383:Application.c ****     int count = sscanf(param,"%u",&crcOption);
 384:Application.c ****     if(count != EOF && count > 0){
 385:Application.c ****         if(crcOption < 4){
 386:Application.c ****             _crc_option = (DLL_CRC_Use_e)(crcOption); 
 387:Application.c ****             _print("..OK");
 388:Application.c ****         }else{
 389:Application.c ****             _print("Invalid CRC option requested. Value should be between "
 390:Application.c ****                            "0 to 3. See Help command.\n");
 391:Application.c ****         }
 392:Application.c ****     }else{
 393:Application.c ****         _print("Invalid parameter, refer to documentation for format.\n");
 394:Application.c ****     }
 395:Application.c **** }
 396:Application.c **** 
 397:Application.c **** /**
 398:Application.c ****  * Print error message to user notifying them to log in before using command.
 399:Application.c ****  */
 400:Application.c **** static void _print_not_logged_in_error_msg(void){
 217              		.loc 1 400 0 is_stmt 1
 218              		.cfi_startproc
 219              		@ args = 0, pretend = 0, frame = 0
 220              		@ frame_needed = 0, uses_anonymous_args = 0
 221 0000 08B5     		push	{r3, lr}
ARM GAS  C:\Users\HENRIC~1\AppData\Local\Temp\cc3hpANX.s 			page 12


 222              		.cfi_def_cfa_offset 8
 223              		.cfi_offset 3, -8
 224              		.cfi_offset 14, -4
 225              	.L23:
 401:Application.c ****     _print("No user currently logged in :(\n");
 226              		.loc 1 401 0 discriminator 1
 227 0002 FFF7FEFF 		bl	USBUART_CDCIsReady
 228              	.LVL27:
 229 0006 0028     		cmp	r0, #0
 230 0008 FBD0     		beq	.L23
 231              		.loc 1 401 0 is_stmt 0 discriminator 2
 232 000a 0548     		ldr	r0, .L26
 233 000c FFF7FEFF 		bl	USBUART_PutString
 234              	.LVL28:
 235              	.L24:
 402:Application.c ****     _print("To log in: 'login <first name> <last name>' where name is "
 236              		.loc 1 402 0 is_stmt 1 discriminator 1
 237 0010 FFF7FEFF 		bl	USBUART_CDCIsReady
 238              	.LVL29:
 239 0014 0028     		cmp	r0, #0
 240 0016 FBD0     		beq	.L24
 241              		.loc 1 402 0 is_stmt 0 discriminator 2
 242 0018 0248     		ldr	r0, .L26+4
 243 001a FFF7FEFF 		bl	USBUART_PutString
 244              	.LVL30:
 245 001e 08BD     		pop	{r3, pc}
 246              	.L27:
 247              		.align	2
 248              	.L26:
 249 0020 14020000 		.word	.LC13
 250 0024 34020000 		.word	.LC14
 251              		.cfi_endproc
 252              	.LFE72:
 253              		.size	_print_not_logged_in_error_msg, .-_print_not_logged_in_error_msg
 254              		.section	.text._print_command_not_recognized_error_msg,"ax",%progbits
 255              		.align	2
 256              		.thumb
 257              		.thumb_func
 258              		.type	_print_command_not_recognized_error_msg, %function
 259              	_print_command_not_recognized_error_msg:
 260              	.LFB73:
 403:Application.c ****                    "as displayed in 'Interface Standard' manual \n");
 404:Application.c **** }
 405:Application.c **** 
 406:Application.c **** /**
 407:Application.c ****  * Print error message to user stating that provided command is invalid.
 408:Application.c ****  */
 409:Application.c **** static void _print_command_not_recognized_error_msg(char* cmd){
 261              		.loc 1 409 0 is_stmt 1
 262              		.cfi_startproc
 263              		@ args = 0, pretend = 0, frame = 0
 264              		@ frame_needed = 0, uses_anonymous_args = 0
 265              	.LVL31:
 266 0000 08B5     		push	{r3, lr}
 267              		.cfi_def_cfa_offset 8
 268              		.cfi_offset 3, -8
 269              		.cfi_offset 14, -4
ARM GAS  C:\Users\HENRIC~1\AppData\Local\Temp\cc3hpANX.s 			page 13


 410:Application.c ****     sprintf(_uart_txBuffer,"Command '%s' not recognized.  For a list of "
 270              		.loc 1 410 0
 271 0002 0246     		mov	r2, r0
 272 0004 0549     		ldr	r1, .L31
 273 0006 0648     		ldr	r0, .L31+4
 274              	.LVL32:
 275 0008 FFF7FEFF 		bl	sprintf
 276              	.LVL33:
 277              	.L29:
 411:Application.c ****                           "available commands, type 'help'\n", cmd);
 412:Application.c ****     _print(_uart_txBuffer);
 278              		.loc 1 412 0 discriminator 1
 279 000c FFF7FEFF 		bl	USBUART_CDCIsReady
 280              	.LVL34:
 281 0010 0028     		cmp	r0, #0
 282 0012 FBD0     		beq	.L29
 283              		.loc 1 412 0 is_stmt 0 discriminator 2
 284 0014 0248     		ldr	r0, .L31+4
 285 0016 FFF7FEFF 		bl	USBUART_PutString
 286              	.LVL35:
 287 001a 08BD     		pop	{r3, pc}
 288              	.L32:
 289              		.align	2
 290              	.L31:
 291 001c 9C020000 		.word	.LC15
 292 0020 00000000 		.word	.LANCHOR0
 293              		.cfi_endproc
 294              	.LFE73:
 295              		.size	_print_command_not_recognized_error_msg, .-_print_command_not_recognized_error_msg
 296              		.section	.text._uart_receive_data,"ax",%progbits
 297              		.align	2
 298              		.thumb
 299              		.thumb_func
 300              		.type	_uart_receive_data, %function
 301              	_uart_receive_data:
 302              	.LFB74:
 413:Application.c **** }
 414:Application.c **** 
 415:Application.c **** /**
 416:Application.c ****  * Function that captures raw data from UART and searches for newline.
 417:Application.c ****  * Will modify _uart_rxBuffer with new contents.
 418:Application.c ****  * @return newline is found.
 419:Application.c ****  */
 420:Application.c **** static bool _uart_receive_data(void){
 303              		.loc 1 420 0 is_stmt 1
 304              		.cfi_startproc
 305              		@ args = 0, pretend = 0, frame = 0
 306              		@ frame_needed = 0, uses_anonymous_args = 0
 307 0000 70B5     		push	{r4, r5, r6, lr}
 308              		.cfi_def_cfa_offset 16
 309              		.cfi_offset 4, -16
 310              		.cfi_offset 5, -12
 311              		.cfi_offset 6, -8
 312              		.cfi_offset 14, -4
 313              	.LVL36:
 421:Application.c ****     static char buffer[USBUART_BUFFER_SIZE];
 422:Application.c ****     bool nl_found = false;
ARM GAS  C:\Users\HENRIC~1\AppData\Local\Temp\cc3hpANX.s 			page 14


 423:Application.c ****     uint8_t index = 0;
 424:Application.c ****     char c;
 425:Application.c ****     
 426:Application.c ****     //read data frame from USBUART
 427:Application.c ****     memset(buffer,'\0',sizeof(buffer));
 314              		.loc 1 427 0
 315 0002 2C4C     		ldr	r4, .L44
 316 0004 4025     		movs	r5, #64
 317 0006 2A46     		mov	r2, r5
 318 0008 0021     		movs	r1, #0
 319 000a 2046     		mov	r0, r4
 320 000c FFF7FEFF 		bl	memset
 321              	.LVL37:
 428:Application.c ****     uint16_t buffer_len = uart_read(buffer,sizeof(buffer));
 322              		.loc 1 428 0
 323 0010 2946     		mov	r1, r5
 324 0012 2046     		mov	r0, r4
 325 0014 FFF7FEFF 		bl	uart_read
 326              	.LVL38:
 327 0018 0546     		mov	r5, r0
 328              	.LVL39:
 423:Application.c ****     char c;
 329              		.loc 1 423 0
 330 001a 0024     		movs	r4, #0
 422:Application.c ****     uint8_t index = 0;
 331              		.loc 1 422 0
 332 001c 2646     		mov	r6, r4
 429:Application.c ****     
 430:Application.c ****     //enter characters into receive buffer, until EOL
 431:Application.c ****     while(!nl_found && _uart_rxBuffer_len < (sizeof(_uart_rxBuffer)-1) && index < buffer_len){
 333              		.loc 1 431 0
 334 001e 25E0     		b	.L34
 335              	.LVL40:
 336              	.L40:
 432:Application.c ****         c = buffer[index];
 337              		.loc 1 432 0
 338 0020 254A     		ldr	r2, .L44+4
 339 0022 2244     		add	r2, r2, r4
 340 0024 92F88020 		ldrb	r2, [r2, #128]	@ zero_extendqisi2
 341              	.LVL41:
 433:Application.c ****         index++;
 342              		.loc 1 433 0
 343 0028 0134     		adds	r4, r4, #1
 344              	.LVL42:
 345 002a E4B2     		uxtb	r4, r4
 346              	.LVL43:
 434:Application.c ****         if(c == '\n' || c == '\r'){
 347              		.loc 1 434 0
 348 002c 0A2A     		cmp	r2, #10
 349 002e 01D0     		beq	.L35
 350              		.loc 1 434 0 is_stmt 0 discriminator 1
 351 0030 0D2A     		cmp	r2, #13
 352 0032 09D1     		bne	.L36
 353              	.L35:
 435:Application.c ****             _uart_rxBuffer[_uart_rxBuffer_len] = '\0';
 354              		.loc 1 435 0 is_stmt 1
 355 0034 204A     		ldr	r2, .L44+4
ARM GAS  C:\Users\HENRIC~1\AppData\Local\Temp\cc3hpANX.s 			page 15


 356              	.LVL44:
 357 0036 D118     		adds	r1, r2, r3
 358 0038 0020     		movs	r0, #0
 359 003a 81F8C000 		strb	r0, [r1, #192]
 436:Application.c ****             _uart_rxBuffer_len++;
 360              		.loc 1 436 0
 361 003e 0133     		adds	r3, r3, #1
 362 0040 A2F84031 		strh	r3, [r2, #320]	@ movhi
 363              	.LVL45:
 437:Application.c ****             nl_found = true;
 364              		.loc 1 437 0
 365 0044 0126     		movs	r6, #1
 366 0046 11E0     		b	.L34
 367              	.LVL46:
 368              	.L36:
 438:Application.c ****         }else if(c == 0x1B){ //esc
 369              		.loc 1 438 0
 370 0048 1B2A     		cmp	r2, #27
 371 004a 08D1     		bne	.L38
 439:Application.c ****             _uart_rxBuffer_len = 0;
 372              		.loc 1 439 0
 373 004c 1A48     		ldr	r0, .L44+4
 374 004e 0021     		movs	r1, #0
 375 0050 A0F84011 		strh	r1, [r0, #320]	@ movhi
 440:Application.c ****             memset(_uart_rxBuffer,0,sizeof(_uart_rxBuffer));
 376              		.loc 1 440 0
 377 0054 8022     		movs	r2, #128
 378              	.LVL47:
 379 0056 C030     		adds	r0, r0, #192
 380 0058 FFF7FEFF 		bl	memset
 381              	.LVL48:
 382 005c 06E0     		b	.L34
 383              	.LVL49:
 384              	.L38:
 441:Application.c ****         }else{
 442:Application.c ****             _uart_rxBuffer[_uart_rxBuffer_len] = c;
 385              		.loc 1 442 0
 386 005e 1649     		ldr	r1, .L44+4
 387 0060 C818     		adds	r0, r1, r3
 388 0062 80F8C020 		strb	r2, [r0, #192]
 443:Application.c ****             _uart_rxBuffer_len++;
 389              		.loc 1 443 0
 390 0066 0133     		adds	r3, r3, #1
 391 0068 A1F84031 		strh	r3, [r1, #320]	@ movhi
 392              	.LVL50:
 393              	.L34:
 431:Application.c ****         c = buffer[index];
 394              		.loc 1 431 0
 395 006c 3EB9     		cbnz	r6, .L39
 431:Application.c ****         c = buffer[index];
 396              		.loc 1 431 0 is_stmt 0 discriminator 1
 397 006e 124B     		ldr	r3, .L44+4
 398 0070 B3F84031 		ldrh	r3, [r3, #320]
 399 0074 7E2B     		cmp	r3, #126
 400 0076 02D8     		bhi	.L39
 431:Application.c ****         c = buffer[index];
 401              		.loc 1 431 0 discriminator 2
ARM GAS  C:\Users\HENRIC~1\AppData\Local\Temp\cc3hpANX.s 			page 16


 402 0078 A2B2     		uxth	r2, r4
 403 007a 9542     		cmp	r5, r2
 404 007c D0D8     		bhi	.L40
 405              	.L39:
 444:Application.c ****         }
 445:Application.c ****     }
 446:Application.c ****     
 447:Application.c ****     //buffer full, last character is nul, warn user and discard buffer
 448:Application.c ****     if(_uart_rxBuffer_len >= (sizeof(_uart_rxBuffer)-1)){
 406              		.loc 1 448 0 is_stmt 1
 407 007e 0E4B     		ldr	r3, .L44+4
 408 0080 B3F84031 		ldrh	r3, [r3, #320]
 409 0084 7E2B     		cmp	r3, #126
 410 0086 0ED9     		bls	.L41
 449:Application.c ****         _uart_rxBuffer_len = 0;
 411              		.loc 1 449 0
 412 0088 0B48     		ldr	r0, .L44+4
 413 008a 0021     		movs	r1, #0
 414 008c A0F84011 		strh	r1, [r0, #320]	@ movhi
 450:Application.c ****         memset(_uart_rxBuffer,0,sizeof(_uart_rxBuffer));
 415              		.loc 1 450 0
 416 0090 8022     		movs	r2, #128
 417 0092 C030     		adds	r0, r0, #192
 418 0094 FFF7FEFF 		bl	memset
 419              	.LVL51:
 420              	.L42:
 451:Application.c ****         _print("\nWarning: Discarding buffer due to exceeding size\n");
 421              		.loc 1 451 0 discriminator 1
 422 0098 FFF7FEFF 		bl	USBUART_CDCIsReady
 423              	.LVL52:
 424 009c 0028     		cmp	r0, #0
 425 009e FBD0     		beq	.L42
 426              		.loc 1 451 0 is_stmt 0 discriminator 2
 427 00a0 0648     		ldr	r0, .L44+8
 428 00a2 FFF7FEFF 		bl	USBUART_PutString
 429              	.LVL53:
 430              	.L41:
 452:Application.c ****     }
 453:Application.c ****     
 454:Application.c ****     //echo characters to terminal
 455:Application.c ****     uart_write(buffer,index);
 431              		.loc 1 455 0 is_stmt 1
 432 00a6 2146     		mov	r1, r4
 433 00a8 0248     		ldr	r0, .L44
 434 00aa FFF7FEFF 		bl	uart_write
 435              	.LVL54:
 456:Application.c ****     
 457:Application.c ****     return nl_found;
 458:Application.c **** }
 436              		.loc 1 458 0
 437 00ae 3046     		mov	r0, r6
 438 00b0 70BD     		pop	{r4, r5, r6, pc}
 439              	.LVL55:
 440              	.L45:
 441 00b2 00BF     		.align	2
 442              	.L44:
 443 00b4 80000000 		.word	.LANCHOR0+128
ARM GAS  C:\Users\HENRIC~1\AppData\Local\Temp\cc3hpANX.s 			page 17


 444 00b8 00000000 		.word	.LANCHOR0
 445 00bc EC020000 		.word	.LC16
 446              		.cfi_endproc
 447              	.LFE74:
 448              		.size	_uart_receive_data, .-_uart_receive_data
 449              		.section	.text._handle_command_crc,"ax",%progbits
 450              		.align	2
 451              		.thumb
 452              		.thumb_func
 453              		.type	_handle_command_crc, %function
 454              	_handle_command_crc:
 455              	.LFB71:
 381:Application.c ****     unsigned int crcOption;
 456              		.loc 1 381 0
 457              		.cfi_startproc
 458              		@ args = 0, pretend = 0, frame = 8
 459              		@ frame_needed = 0, uses_anonymous_args = 0
 460              	.LVL56:
 461 0000 00B5     		push	{lr}
 462              		.cfi_def_cfa_offset 4
 463              		.cfi_offset 14, -4
 464 0002 83B0     		sub	sp, sp, #12
 465              		.cfi_def_cfa_offset 16
 383:Application.c ****     if(count != EOF && count > 0){
 466              		.loc 1 383 0
 467 0004 01AA     		add	r2, sp, #4
 468 0006 1249     		ldr	r1, .L52
 469 0008 FFF7FEFF 		bl	sscanf
 470              	.LVL57:
 384:Application.c ****         if(crcOption < 4){
 471              		.loc 1 384 0
 472 000c 0028     		cmp	r0, #0
 473 000e 15DD     		ble	.L47
 385:Application.c ****             _crc_option = (DLL_CRC_Use_e)(crcOption); 
 474              		.loc 1 385 0
 475 0010 019B     		ldr	r3, [sp, #4]
 476 0012 032B     		cmp	r3, #3
 477 0014 0AD8     		bhi	.L48
 386:Application.c ****             _print("..OK");
 478              		.loc 1 386 0
 479 0016 0F4A     		ldr	r2, .L52+4
 480 0018 82F84231 		strb	r3, [r2, #322]
 481              	.LVL58:
 482              	.L49:
 387:Application.c ****         }else{
 483              		.loc 1 387 0 discriminator 1
 484 001c FFF7FEFF 		bl	USBUART_CDCIsReady
 485              	.LVL59:
 486 0020 0028     		cmp	r0, #0
 487 0022 FBD0     		beq	.L49
 387:Application.c ****         }else{
 488              		.loc 1 387 0 is_stmt 0 discriminator 2
 489 0024 0C48     		ldr	r0, .L52+8
 490 0026 FFF7FEFF 		bl	USBUART_PutString
 491              	.LVL60:
 492 002a 0EE0     		b	.L46
 493              	.L48:
ARM GAS  C:\Users\HENRIC~1\AppData\Local\Temp\cc3hpANX.s 			page 18


 389:Application.c ****                            "0 to 3. See Help command.\n");
 494              		.loc 1 389 0 is_stmt 1 discriminator 1
 495 002c FFF7FEFF 		bl	USBUART_CDCIsReady
 496              	.LVL61:
 497 0030 0028     		cmp	r0, #0
 498 0032 FBD0     		beq	.L48
 389:Application.c ****                            "0 to 3. See Help command.\n");
 499              		.loc 1 389 0 is_stmt 0 discriminator 2
 500 0034 0948     		ldr	r0, .L52+12
 501 0036 FFF7FEFF 		bl	USBUART_PutString
 502              	.LVL62:
 503 003a 06E0     		b	.L46
 504              	.L47:
 393:Application.c ****     }
 505              		.loc 1 393 0 is_stmt 1 discriminator 1
 506 003c FFF7FEFF 		bl	USBUART_CDCIsReady
 507              	.LVL63:
 508 0040 0028     		cmp	r0, #0
 509 0042 FBD0     		beq	.L47
 393:Application.c ****     }
 510              		.loc 1 393 0 is_stmt 0 discriminator 2
 511 0044 0648     		ldr	r0, .L52+16
 512 0046 FFF7FEFF 		bl	USBUART_PutString
 513              	.LVL64:
 514              	.L46:
 395:Application.c **** 
 515              		.loc 1 395 0 is_stmt 1
 516 004a 03B0     		add	sp, sp, #12
 517              		.cfi_def_cfa_offset 4
 518              		@ sp needed
 519 004c 5DF804FB 		ldr	pc, [sp], #4
 520              	.L53:
 521              		.align	2
 522              	.L52:
 523 0050 20030000 		.word	.LC17
 524 0054 00000000 		.word	.LANCHOR0
 525 0058 24030000 		.word	.LC18
 526 005c 2C030000 		.word	.LC19
 527 0060 80030000 		.word	.LC20
 528              		.cfi_endproc
 529              	.LFE71:
 530              		.size	_handle_command_crc, .-_handle_command_crc
 531              		.section	.text._handle_command_login,"ax",%progbits
 532              		.align	2
 533              		.thumb
 534              		.thumb_func
 535              		.type	_handle_command_login, %function
 536              	_handle_command_login:
 537              	.LFB68:
 300:Application.c ****     char* name = strtok(param, "\n");
 538              		.loc 1 300 0
 539              		.cfi_startproc
 540              		@ args = 0, pretend = 0, frame = 0
 541              		@ frame_needed = 0, uses_anonymous_args = 0
 542              	.LVL65:
 543 0000 38B5     		push	{r3, r4, r5, lr}
 544              		.cfi_def_cfa_offset 16
ARM GAS  C:\Users\HENRIC~1\AppData\Local\Temp\cc3hpANX.s 			page 19


 545              		.cfi_offset 3, -16
 546              		.cfi_offset 4, -12
 547              		.cfi_offset 5, -8
 548              		.cfi_offset 14, -4
 301:Application.c ****     for(int i = 0; name[i]; i++){
 549              		.loc 1 301 0
 550 0002 1E49     		ldr	r1, .L64
 551 0004 FFF7FEFF 		bl	strtok
 552              	.LVL66:
 553 0008 0446     		mov	r4, r0
 554              	.LVL67:
 555              	.LBB2:
 302:Application.c **** 		name[i] = tolower(name[i]);
 556              		.loc 1 302 0
 557 000a 0022     		movs	r2, #0
 558 000c 0AE0     		b	.L55
 559              	.LVL68:
 560              	.L58:
 561              	.LBB3:
 303:Application.c **** 	}
 562              		.loc 1 303 0
 563 000e 1C49     		ldr	r1, .L64+4
 564 0010 0968     		ldr	r1, [r1]
 565 0012 1944     		add	r1, r1, r3
 566 0014 4978     		ldrb	r1, [r1, #1]	@ zero_extendqisi2
 567 0016 01F00301 		and	r1, r1, #3
 568 001a 0129     		cmp	r1, #1
 569 001c 00D1     		bne	.L57
 303:Application.c **** 	}
 570              		.loc 1 303 0 is_stmt 0 discriminator 1
 571 001e 2033     		adds	r3, r3, #32
 572              	.LVL69:
 573              	.L57:
 574              	.LBE3:
 303:Application.c **** 	}
 575              		.loc 1 303 0 discriminator 4
 576 0020 0370     		strb	r3, [r0]
 302:Application.c **** 		name[i] = tolower(name[i]);
 577              		.loc 1 302 0 is_stmt 1 discriminator 4
 578 0022 0132     		adds	r2, r2, #1
 579              	.LVL70:
 580              	.L55:
 302:Application.c **** 		name[i] = tolower(name[i]);
 581              		.loc 1 302 0 is_stmt 0 discriminator 2
 582 0024 A018     		adds	r0, r4, r2
 583 0026 A35C     		ldrb	r3, [r4, r2]	@ zero_extendqisi2
 584 0028 002B     		cmp	r3, #0
 585 002a F0D1     		bne	.L58
 586              	.LBE2:
 305:Application.c **** 	dll_set_user(_currentUser);
 587              		.loc 1 305 0 is_stmt 1
 588 002c 2046     		mov	r0, r4
 589 002e FFF7FEFF 		bl	user_string_to_id
 590              	.LVL71:
 591 0032 144D     		ldr	r5, .L64+8
 592 0034 85F84301 		strb	r0, [r5, #323]
 306:Application.c ****     if(_currentUser != _INVALID_NAME){
ARM GAS  C:\Users\HENRIC~1\AppData\Local\Temp\cc3hpANX.s 			page 20


 593              		.loc 1 306 0
 594 0038 FFF7FEFF 		bl	dll_set_user
 595              	.LVL72:
 307:Application.c **** 	    sprintf(_uart_txBuffer,"Welcome, %s :)\n",user_id_to_string(_currentUser));
 596              		.loc 1 307 0
 597 003c 95F84301 		ldrb	r0, [r5, #323]	@ zero_extendqisi2
 598 0040 2C28     		cmp	r0, #44
 599 0042 0ED0     		beq	.L59
 308:Application.c ****         _print(_uart_txBuffer);
 600              		.loc 1 308 0
 601 0044 FFF7FEFF 		bl	user_id_to_string
 602              	.LVL73:
 603 0048 0246     		mov	r2, r0
 604 004a 0F49     		ldr	r1, .L64+12
 605 004c 2846     		mov	r0, r5
 606 004e FFF7FEFF 		bl	sprintf
 607              	.LVL74:
 608              	.L60:
 309:Application.c ****     }else{
 609              		.loc 1 309 0 discriminator 1
 610 0052 FFF7FEFF 		bl	USBUART_CDCIsReady
 611              	.LVL75:
 612 0056 0028     		cmp	r0, #0
 613 0058 FBD0     		beq	.L60
 309:Application.c ****     }else{
 614              		.loc 1 309 0 is_stmt 0 discriminator 2
 615 005a 0A48     		ldr	r0, .L64+8
 616 005c FFF7FEFF 		bl	USBUART_PutString
 617              	.LVL76:
 618 0060 38BD     		pop	{r3, r4, r5, pc}
 619              	.LVL77:
 620              	.L59:
 311:Application.c ****         _print(_uart_txBuffer);
 621              		.loc 1 311 0 is_stmt 1
 622 0062 2246     		mov	r2, r4
 623 0064 0949     		ldr	r1, .L64+16
 624 0066 0748     		ldr	r0, .L64+8
 625 0068 FFF7FEFF 		bl	sprintf
 626              	.LVL78:
 627              	.L62:
 312:Application.c ****     }
 628              		.loc 1 312 0 discriminator 1
 629 006c FFF7FEFF 		bl	USBUART_CDCIsReady
 630              	.LVL79:
 631 0070 0028     		cmp	r0, #0
 632 0072 FBD0     		beq	.L62
 312:Application.c ****     }
 633              		.loc 1 312 0 is_stmt 0 discriminator 2
 634 0074 0348     		ldr	r0, .L64+8
 635 0076 FFF7FEFF 		bl	USBUART_PutString
 636              	.LVL80:
 637 007a 38BD     		pop	{r3, r4, r5, pc}
 638              	.LVL81:
 639              	.L65:
 640              		.align	2
 641              	.L64:
 642 007c B8030000 		.word	.LC21
ARM GAS  C:\Users\HENRIC~1\AppData\Local\Temp\cc3hpANX.s 			page 21


 643 0080 00000000 		.word	__ctype_ptr__
 644 0084 00000000 		.word	.LANCHOR0
 645 0088 BC030000 		.word	.LC22
 646 008c CC030000 		.word	.LC23
 647              		.cfi_endproc
 648              	.LFE68:
 649              		.size	_handle_command_login, .-_handle_command_login
 650              		.section	.text._handle_command_logout,"ax",%progbits
 651              		.align	2
 652              		.thumb
 653              		.thumb_func
 654              		.type	_handle_command_logout, %function
 655              	_handle_command_logout:
 656              	.LFB69:
 320:Application.c ****     sprintf(_uart_txBuffer,"Goodbye, %s!\n",user_id_to_string(_currentUser));
 657              		.loc 1 320 0 is_stmt 1
 658              		.cfi_startproc
 659              		@ args = 0, pretend = 0, frame = 0
 660              		@ frame_needed = 0, uses_anonymous_args = 0
 661 0000 10B5     		push	{r4, lr}
 662              		.cfi_def_cfa_offset 8
 663              		.cfi_offset 4, -8
 664              		.cfi_offset 14, -4
 321:Application.c ****     _print(_uart_txBuffer);
 665              		.loc 1 321 0
 666 0002 0D4C     		ldr	r4, .L69
 667 0004 94F84301 		ldrb	r0, [r4, #323]	@ zero_extendqisi2
 668 0008 FFF7FEFF 		bl	user_id_to_string
 669              	.LVL82:
 670 000c 0246     		mov	r2, r0
 671 000e 0B49     		ldr	r1, .L69+4
 672 0010 2046     		mov	r0, r4
 673 0012 FFF7FEFF 		bl	sprintf
 674              	.LVL83:
 675              	.L67:
 322:Application.c **** 	_currentUser = _INVALID_NAME;
 676              		.loc 1 322 0 discriminator 1
 677 0016 FFF7FEFF 		bl	USBUART_CDCIsReady
 678              	.LVL84:
 679 001a 0028     		cmp	r0, #0
 680 001c FBD0     		beq	.L67
 322:Application.c **** 	_currentUser = _INVALID_NAME;
 681              		.loc 1 322 0 is_stmt 0 discriminator 2
 682 001e 064C     		ldr	r4, .L69
 683 0020 2046     		mov	r0, r4
 684 0022 FFF7FEFF 		bl	USBUART_PutString
 685              	.LVL85:
 323:Application.c ****     _crc_option = DLL_NO_CRC;
 686              		.loc 1 323 0 is_stmt 1 discriminator 2
 687 0026 2C20     		movs	r0, #44
 688 0028 84F84301 		strb	r0, [r4, #323]
 324:Application.c **** 	dll_set_user(_currentUser);
 689              		.loc 1 324 0 discriminator 2
 690 002c 0023     		movs	r3, #0
 691 002e 84F84231 		strb	r3, [r4, #322]
 325:Application.c **** }
 692              		.loc 1 325 0 discriminator 2
ARM GAS  C:\Users\HENRIC~1\AppData\Local\Temp\cc3hpANX.s 			page 22


 693 0032 FFF7FEFF 		bl	dll_set_user
 694              	.LVL86:
 695 0036 10BD     		pop	{r4, pc}
 696              	.L70:
 697              		.align	2
 698              	.L69:
 699 0038 00000000 		.word	.LANCHOR0
 700 003c EC030000 		.word	.LC24
 701              		.cfi_endproc
 702              	.LFE69:
 703              		.size	_handle_command_logout, .-_handle_command_logout
 704              		.section	.text._handle_command_send,"ax",%progbits
 705              		.align	2
 706              		.thumb
 707              		.thumb_func
 708              		.type	_handle_command_send, %function
 709              	_handle_command_send:
 710              	.LFB70:
 333:Application.c **** 
 711              		.loc 1 333 0
 712              		.cfi_startproc
 713              		@ args = 0, pretend = 0, frame = 56
 714              		@ frame_needed = 0, uses_anonymous_args = 0
 715              	.LVL87:
 716 0000 70B5     		push	{r4, r5, r6, lr}
 717              		.cfi_def_cfa_offset 16
 718              		.cfi_offset 4, -16
 719              		.cfi_offset 5, -12
 720              		.cfi_offset 6, -8
 721              		.cfi_offset 14, -4
 722 0002 8EB0     		sub	sp, sp, #56
 723              		.cfi_def_cfa_offset 72
 336:Application.c ****     //source is within proper range, continue parsing
 724              		.loc 1 336 0
 725 0004 2B49     		ldr	r1, .L79
 726 0006 FFF7FEFF 		bl	strtok
 727              	.LVL88:
 728 000a FFF7FEFF 		bl	atoi
 729              	.LVL89:
 730 000e C0B2     		uxtb	r0, r0
 731              	.LVL90:
 338:Application.c **** 		msgSrc = user_id_to_address(_currentUser,msgSrc-1);
 732              		.loc 1 338 0
 733 0010 411E     		subs	r1, r0, #1
 734 0012 C9B2     		uxtb	r1, r1
 735 0014 0229     		cmp	r1, #2
 736 0016 44D8     		bhi	.L72
 737              	.LBB4:
 339:Application.c **** 		uint8_t msgDest = atoi(strtok(NULL, " "));
 738              		.loc 1 339 0
 739 0018 274B     		ldr	r3, .L79+4
 740 001a 93F84301 		ldrb	r0, [r3, #323]	@ zero_extendqisi2
 741              	.LVL91:
 742 001e FFF7FEFF 		bl	user_id_to_address
 743              	.LVL92:
 744 0022 0446     		mov	r4, r0
 745              	.LVL93:
ARM GAS  C:\Users\HENRIC~1\AppData\Local\Temp\cc3hpANX.s 			page 23


 340:Application.c ****         //destination is within proper range, continue parsing
 746              		.loc 1 340 0
 747 0024 2349     		ldr	r1, .L79
 748 0026 0020     		movs	r0, #0
 749 0028 FFF7FEFF 		bl	strtok
 750              	.LVL94:
 751 002c FFF7FEFF 		bl	atoi
 752              	.LVL95:
 753 0030 C5B2     		uxtb	r5, r0
 754              	.LVL96:
 342:Application.c **** 			char* msgText = strtok(NULL, "\n");
 755              		.loc 1 342 0
 756 0032 7E2C     		cmp	r4, #126
 757 0034 2DD8     		bhi	.L73
 758              	.LBB5:
 343:Application.c **** 			uint8_t msgSize = strlen(msgText);
 759              		.loc 1 343 0
 760 0036 2149     		ldr	r1, .L79+8
 761 0038 0020     		movs	r0, #0
 762 003a FFF7FEFF 		bl	strtok
 763              	.LVL97:
 764 003e 0646     		mov	r6, r0
 765              	.LVL98:
 344:Application.c ****             //all criteria filled, populate and send message
 766              		.loc 1 344 0
 767 0040 FFF7FEFF 		bl	strlen
 768              	.LVL99:
 769 0044 C2B2     		uxtb	r2, r0
 770              	.LVL100:
 346:Application.c ****                  
 771              		.loc 1 346 0
 772 0046 531E     		subs	r3, r2, #1
 773 0048 DBB2     		uxtb	r3, r3
 774 004a 2B2B     		cmp	r3, #43
 775 004c 19D8     		bhi	.L74
 776              	.LBB6:
 350:Application.c ****             	tx_msg.dst = msgDest;
 777              		.loc 1 350 0
 778 004e 8DF80440 		strb	r4, [sp, #4]
 351:Application.c ****             	tx_msg.use_crc = _crc_option;
 779              		.loc 1 351 0
 780 0052 8DF80550 		strb	r5, [sp, #5]
 352:Application.c ****             	tx_msg.msg_size = msgSize;
 781              		.loc 1 352 0
 782 0056 184B     		ldr	r3, .L79+4
 783 0058 93F84231 		ldrb	r3, [r3, #322]	@ zero_extendqisi2
 784 005c 8DF80630 		strb	r3, [sp, #6]
 353:Application.c ****                 memcpy(tx_msg.msg,msgText,msgSize);
 785              		.loc 1 353 0
 786 0060 8DF83320 		strb	r2, [sp, #51]
 354:Application.c **** 				
 787              		.loc 1 354 0
 788 0064 3146     		mov	r1, r6
 789 0066 0DF10700 		add	r0, sp, #7
 790 006a FFF7FEFF 		bl	memcpy
 791              	.LVL101:
 357:Application.c ****                 uart_print_str(result ? "..Success\n" : "..Failed\n");
ARM GAS  C:\Users\HENRIC~1\AppData\Local\Temp\cc3hpANX.s 			page 24


 792              		.loc 1 357 0
 793 006e 01A8     		add	r0, sp, #4
 794 0070 FFF7FEFF 		bl	dll_write
 795              	.LVL102:
 358:Application.c **** 			}
 796              		.loc 1 358 0
 797 0074 08B1     		cbz	r0, .L77
 798 0076 1248     		ldr	r0, .L79+12
 799              	.LVL103:
 800 0078 00E0     		b	.L75
 801              	.LVL104:
 802              	.L77:
 803 007a 1248     		ldr	r0, .L79+16
 804              	.LVL105:
 805              	.L75:
 358:Application.c **** 			}
 806              		.loc 1 358 0 is_stmt 0 discriminator 4
 807 007c FFF7FEFF 		bl	USBUART_PutString
 808              	.LVL106:
 809              	.LBE6:
 810 0080 16E0     		b	.L71
 811              	.L74:
 361:Application.c ****                                "length is 44 characters.\n");
 812              		.loc 1 361 0 is_stmt 1 discriminator 1
 813 0082 FFF7FEFF 		bl	USBUART_CDCIsReady
 814              	.LVL107:
 815 0086 0028     		cmp	r0, #0
 816 0088 FBD0     		beq	.L74
 361:Application.c ****                                "length is 44 characters.\n");
 817              		.loc 1 361 0 is_stmt 0 discriminator 2
 818 008a 0F48     		ldr	r0, .L79+20
 819 008c FFF7FEFF 		bl	USBUART_PutString
 820              	.LVL108:
 821 0090 0EE0     		b	.L71
 822              	.LVL109:
 823              	.L73:
 824              	.LBE5:
 366:Application.c ****                            "integer value between 0 and 126.\n");
 825              		.loc 1 366 0 is_stmt 1 discriminator 1
 826 0092 FFF7FEFF 		bl	USBUART_CDCIsReady
 827              	.LVL110:
 828 0096 0028     		cmp	r0, #0
 829 0098 FBD0     		beq	.L73
 366:Application.c ****                            "integer value between 0 and 126.\n");
 830              		.loc 1 366 0 is_stmt 0 discriminator 2
 831 009a 0C48     		ldr	r0, .L79+24
 832 009c FFF7FEFF 		bl	USBUART_PutString
 833              	.LVL111:
 834 00a0 06E0     		b	.L71
 835              	.LVL112:
 836              	.L72:
 837              	.LBE4:
 371:Application.c ****                        "corresponding to the addresses of the current user.\n");
 838              		.loc 1 371 0 is_stmt 1 discriminator 1
 839 00a2 FFF7FEFF 		bl	USBUART_CDCIsReady
 840              	.LVL113:
 841 00a6 0028     		cmp	r0, #0
ARM GAS  C:\Users\HENRIC~1\AppData\Local\Temp\cc3hpANX.s 			page 25


 842 00a8 FBD0     		beq	.L72
 371:Application.c ****                        "corresponding to the addresses of the current user.\n");
 843              		.loc 1 371 0 is_stmt 0 discriminator 2
 844 00aa 0948     		ldr	r0, .L79+28
 845 00ac FFF7FEFF 		bl	USBUART_PutString
 846              	.LVL114:
 847              	.L71:
 374:Application.c **** 
 848              		.loc 1 374 0 is_stmt 1
 849 00b0 0EB0     		add	sp, sp, #56
 850              		.cfi_def_cfa_offset 16
 851              		@ sp needed
 852 00b2 70BD     		pop	{r4, r5, r6, pc}
 853              	.L80:
 854              		.align	2
 855              	.L79:
 856 00b4 14040000 		.word	.LC27
 857 00b8 00000000 		.word	.LANCHOR0
 858 00bc B8030000 		.word	.LC21
 859 00c0 FC030000 		.word	.LC25
 860 00c4 08040000 		.word	.LC26
 861 00c8 18040000 		.word	.LC28
 862 00cc 64040000 		.word	.LC29
 863 00d0 B8040000 		.word	.LC30
 864              		.cfi_endproc
 865              	.LFE70:
 866              		.size	_handle_command_send, .-_handle_command_send
 867              		.section	.text._handle_command,"ax",%progbits
 868              		.align	2
 869              		.thumb
 870              		.thumb_func
 871              		.type	_handle_command, %function
 872              	_handle_command:
 873              	.LFB66:
 224:Application.c ****     
 874              		.loc 1 224 0
 875              		.cfi_startproc
 876              		@ args = 0, pretend = 0, frame = 24
 877              		@ frame_needed = 0, uses_anonymous_args = 0
 878              	.LVL115:
 879 0000 70B5     		push	{r4, r5, r6, lr}
 880              		.cfi_def_cfa_offset 16
 881              		.cfi_offset 4, -16
 882              		.cfi_offset 5, -12
 883              		.cfi_offset 6, -8
 884              		.cfi_offset 14, -4
 885 0002 86B0     		sub	sp, sp, #24
 886              		.cfi_def_cfa_offset 40
 887 0004 0546     		mov	r5, r0
 227:Application.c ****     if(count != EOF && count > 0){
 888              		.loc 1 227 0
 889 0006 6A46     		mov	r2, sp
 890 0008 4C49     		ldr	r1, .L101
 891 000a FFF7FEFF 		bl	sscanf
 892              	.LVL116:
 228:Application.c ****         
 893              		.loc 1 228 0
ARM GAS  C:\Users\HENRIC~1\AppData\Local\Temp\cc3hpANX.s 			page 26


 894 000e 0028     		cmp	r0, #0
 895 0010 13DC     		bgt	.L99
 896 0012 8AE0     		b	.L83
 897              	.LVL117:
 898              	.L86:
 899              	.LBB7:
 900              	.LBB8:
 232:Application.c **** 	    } 
 901              		.loc 1 232 0
 902 0014 06AB     		add	r3, sp, #24
 903 0016 2344     		add	r3, r3, r4
 904 0018 13F8183C 		ldrb	r3, [r3, #-24]	@ zero_extendqisi2
 905              	.LVL118:
 906 001c 484A     		ldr	r2, .L101+4
 907 001e 1268     		ldr	r2, [r2]
 908 0020 1A44     		add	r2, r2, r3
 909 0022 5278     		ldrb	r2, [r2, #1]	@ zero_extendqisi2
 910 0024 02F00302 		and	r2, r2, #3
 911 0028 012A     		cmp	r2, #1
 912 002a 00D1     		bne	.L85
 232:Application.c **** 	    } 
 913              		.loc 1 232 0 is_stmt 0 discriminator 1
 914 002c 2033     		adds	r3, r3, #32
 915              	.LVL119:
 916              	.L85:
 917              	.LBE8:
 232:Application.c **** 	    } 
 918              		.loc 1 232 0 discriminator 4
 919 002e 06AA     		add	r2, sp, #24
 920              	.LVL120:
 921 0030 2244     		add	r2, r2, r4
 922              	.LVL121:
 923 0032 02F8183C 		strb	r3, [r2, #-24]
 924              	.LVL122:
 231:Application.c **** 		    cmd[i] = tolower(cmd[i]);
 925              		.loc 1 231 0 is_stmt 1 discriminator 4
 926 0036 0134     		adds	r4, r4, #1
 927              	.LVL123:
 928 0038 00E0     		b	.L82
 929              	.LVL124:
 930              	.L99:
 931              	.LBE7:
 932 003a 0024     		movs	r4, #0
 933              	.LVL125:
 934              	.L82:
 935              	.LBB9:
 231:Application.c **** 		    cmd[i] = tolower(cmd[i]);
 936              		.loc 1 231 0 is_stmt 0 discriminator 2
 937 003c 6846     		mov	r0, sp
 938 003e FFF7FEFF 		bl	strlen
 939              	.LVL126:
 940 0042 0646     		mov	r6, r0
 941 0044 8442     		cmp	r4, r0
 942 0046 E5D3     		bcc	.L86
 943              	.LBE9:
 236:Application.c ****             if(strlen(cmd) + 1 < strlen(instr)){
 944              		.loc 1 236 0 is_stmt 1
ARM GAS  C:\Users\HENRIC~1\AppData\Local\Temp\cc3hpANX.s 			page 27


 945 0048 3E49     		ldr	r1, .L101+8
 946 004a 6846     		mov	r0, sp
 947 004c FFF7FEFF 		bl	strcmp
 948              	.LVL127:
 949 0050 88B9     		cbnz	r0, .L87
 237:Application.c ****                 _handle_command_login(instr + strlen(cmd) + 1);
 950              		.loc 1 237 0
 951 0052 0136     		adds	r6, r6, #1
 952 0054 2846     		mov	r0, r5
 953 0056 FFF7FEFF 		bl	strlen
 954              	.LVL128:
 955 005a 8642     		cmp	r6, r0
 956 005c 03D2     		bcs	.L88
 238:Application.c ****             }else{
 957              		.loc 1 238 0
 958 005e A819     		adds	r0, r5, r6
 959 0060 FFF7FEFF 		bl	_handle_command_login
 960              	.LVL129:
 961 0064 68E0     		b	.L81
 962              	.L88:
 240:Application.c ****             }
 963              		.loc 1 240 0 discriminator 1
 964 0066 FFF7FEFF 		bl	USBUART_CDCIsReady
 965              	.LVL130:
 966 006a 0028     		cmp	r0, #0
 967 006c FBD0     		beq	.L88
 240:Application.c ****             }
 968              		.loc 1 240 0 is_stmt 0 discriminator 2
 969 006e 3648     		ldr	r0, .L101+12
 970 0070 FFF7FEFF 		bl	USBUART_PutString
 971              	.LVL131:
 972 0074 60E0     		b	.L81
 973              	.L87:
 242:Application.c ****     		_handle_command_help();
 974              		.loc 1 242 0 is_stmt 1
 975 0076 3549     		ldr	r1, .L101+16
 976 0078 6846     		mov	r0, sp
 977 007a FFF7FEFF 		bl	strcmp
 978              	.LVL132:
 979 007e 10B9     		cbnz	r0, .L90
 243:Application.c ****     	}else if(0 == strcmp(cmd,"logout")){
 980              		.loc 1 243 0
 981 0080 FFF7FEFF 		bl	_handle_command_help
 982              	.LVL133:
 983 0084 58E0     		b	.L81
 984              	.L90:
 244:Application.c ****             if(_currentUser != _INVALID_NAME){
 985              		.loc 1 244 0
 986 0086 3249     		ldr	r1, .L101+20
 987 0088 6846     		mov	r0, sp
 988 008a FFF7FEFF 		bl	strcmp
 989              	.LVL134:
 990 008e 50B9     		cbnz	r0, .L91
 245:Application.c ****                 _handle_command_logout();
 991              		.loc 1 245 0
 992 0090 304B     		ldr	r3, .L101+24
 993 0092 93F84331 		ldrb	r3, [r3, #323]	@ zero_extendqisi2
ARM GAS  C:\Users\HENRIC~1\AppData\Local\Temp\cc3hpANX.s 			page 28


 994 0096 2C2B     		cmp	r3, #44
 995 0098 02D0     		beq	.L92
 246:Application.c ****             }else{
 996              		.loc 1 246 0
 997 009a FFF7FEFF 		bl	_handle_command_logout
 998              	.LVL135:
 999 009e 4BE0     		b	.L81
 1000              	.L92:
 248:Application.c ****             }
 1001              		.loc 1 248 0
 1002 00a0 FFF7FEFF 		bl	_print_not_logged_in_error_msg
 1003              	.LVL136:
 1004 00a4 48E0     		b	.L81
 1005              	.L91:
 250:Application.c ****             if(_currentUser != _INVALID_NAME){
 1006              		.loc 1 250 0
 1007 00a6 2C49     		ldr	r1, .L101+28
 1008 00a8 6846     		mov	r0, sp
 1009 00aa FFF7FEFF 		bl	strcmp
 1010              	.LVL137:
 1011 00ae C8B9     		cbnz	r0, .L93
 251:Application.c ****                 if(strlen(cmd) + 1 < strlen(instr)){
 1012              		.loc 1 251 0
 1013 00b0 284B     		ldr	r3, .L101+24
 1014 00b2 93F84331 		ldrb	r3, [r3, #323]	@ zero_extendqisi2
 1015 00b6 2C2B     		cmp	r3, #44
 1016 00b8 11D0     		beq	.L94
 252:Application.c ****                     _handle_command_send(instr + strlen(cmd) + 1);
 1017              		.loc 1 252 0
 1018 00ba 0136     		adds	r6, r6, #1
 1019 00bc 2846     		mov	r0, r5
 1020 00be FFF7FEFF 		bl	strlen
 1021              	.LVL138:
 1022 00c2 8642     		cmp	r6, r0
 1023 00c4 03D2     		bcs	.L95
 253:Application.c ****                 }else{
 1024              		.loc 1 253 0
 1025 00c6 A819     		adds	r0, r5, r6
 1026 00c8 FFF7FEFF 		bl	_handle_command_send
 1027              	.LVL139:
 1028 00cc 34E0     		b	.L81
 1029              	.L95:
 255:Application.c ****                 }
 1030              		.loc 1 255 0 discriminator 1
 1031 00ce FFF7FEFF 		bl	USBUART_CDCIsReady
 1032              	.LVL140:
 1033 00d2 0028     		cmp	r0, #0
 1034 00d4 FBD0     		beq	.L95
 255:Application.c ****                 }
 1035              		.loc 1 255 0 is_stmt 0 discriminator 2
 1036 00d6 1C48     		ldr	r0, .L101+12
 1037 00d8 FFF7FEFF 		bl	USBUART_PutString
 1038              	.LVL141:
 1039 00dc 2CE0     		b	.L81
 1040              	.L94:
 258:Application.c ****             }	
 1041              		.loc 1 258 0 is_stmt 1
ARM GAS  C:\Users\HENRIC~1\AppData\Local\Temp\cc3hpANX.s 			page 29


 1042 00de FFF7FEFF 		bl	_print_not_logged_in_error_msg
 1043              	.LVL142:
 1044 00e2 29E0     		b	.L81
 1045              	.L93:
 260:Application.c ****             if(_currentUser != _INVALID_NAME){
 1046              		.loc 1 260 0
 1047 00e4 1D49     		ldr	r1, .L101+32
 1048 00e6 6846     		mov	r0, sp
 1049 00e8 FFF7FEFF 		bl	strcmp
 1050              	.LVL143:
 1051 00ec C8B9     		cbnz	r0, .L96
 261:Application.c ****                 if(strlen(cmd) + 1 < strlen(instr)){
 1052              		.loc 1 261 0
 1053 00ee 194B     		ldr	r3, .L101+24
 1054 00f0 93F84331 		ldrb	r3, [r3, #323]	@ zero_extendqisi2
 1055 00f4 2C2B     		cmp	r3, #44
 1056 00f6 11D0     		beq	.L97
 262:Application.c ****                     _handle_command_crc(instr + strlen(cmd) + 1);
 1057              		.loc 1 262 0
 1058 00f8 0136     		adds	r6, r6, #1
 1059 00fa 2846     		mov	r0, r5
 1060 00fc FFF7FEFF 		bl	strlen
 1061              	.LVL144:
 1062 0100 8642     		cmp	r6, r0
 1063 0102 03D2     		bcs	.L98
 263:Application.c ****                 }else{
 1064              		.loc 1 263 0
 1065 0104 A819     		adds	r0, r5, r6
 1066 0106 FFF7FEFF 		bl	_handle_command_crc
 1067              	.LVL145:
 1068 010a 15E0     		b	.L81
 1069              	.L98:
 265:Application.c ****                 }
 1070              		.loc 1 265 0 discriminator 1
 1071 010c FFF7FEFF 		bl	USBUART_CDCIsReady
 1072              	.LVL146:
 1073 0110 0028     		cmp	r0, #0
 1074 0112 FBD0     		beq	.L98
 265:Application.c ****                 }
 1075              		.loc 1 265 0 is_stmt 0 discriminator 2
 1076 0114 0C48     		ldr	r0, .L101+12
 1077 0116 FFF7FEFF 		bl	USBUART_PutString
 1078              	.LVL147:
 1079 011a 0DE0     		b	.L81
 1080              	.L97:
 268:Application.c ****             }
 1081              		.loc 1 268 0 is_stmt 1
 1082 011c FFF7FEFF 		bl	_print_not_logged_in_error_msg
 1083              	.LVL148:
 1084 0120 0AE0     		b	.L81
 1085              	.L96:
 271:Application.c ****     	}
 1086              		.loc 1 271 0
 1087 0122 6846     		mov	r0, sp
 1088 0124 FFF7FEFF 		bl	_print_command_not_recognized_error_msg
 1089              	.LVL149:
 1090 0128 06E0     		b	.L81
ARM GAS  C:\Users\HENRIC~1\AppData\Local\Temp\cc3hpANX.s 			page 30


 1091              	.LVL150:
 1092              	.L83:
 274:Application.c ****     }
 1093              		.loc 1 274 0 discriminator 1
 1094 012a FFF7FEFF 		bl	USBUART_CDCIsReady
 1095              	.LVL151:
 1096 012e 0028     		cmp	r0, #0
 1097 0130 FBD0     		beq	.L83
 274:Application.c ****     }
 1098              		.loc 1 274 0 is_stmt 0 discriminator 2
 1099 0132 0B48     		ldr	r0, .L101+36
 1100 0134 FFF7FEFF 		bl	USBUART_PutString
 1101              	.LVL152:
 1102              	.L81:
 276:Application.c **** 
 1103              		.loc 1 276 0 is_stmt 1
 1104 0138 06B0     		add	sp, sp, #24
 1105              		.cfi_def_cfa_offset 16
 1106              		@ sp needed
 1107 013a 70BD     		pop	{r4, r5, r6, pc}
 1108              	.LVL153:
 1109              	.L102:
 1110              		.align	2
 1111              	.L101:
 1112 013c 24050000 		.word	.LC31
 1113 0140 00000000 		.word	__ctype_ptr__
 1114 0144 2C050000 		.word	.LC32
 1115 0148 34050000 		.word	.LC33
 1116 014c 4C050000 		.word	.LC34
 1117 0150 54050000 		.word	.LC35
 1118 0154 00000000 		.word	.LANCHOR0
 1119 0158 5C050000 		.word	.LC36
 1120 015c 64050000 		.word	.LC37
 1121 0160 68050000 		.word	.LC38
 1122              		.cfi_endproc
 1123              	.LFE66:
 1124              		.size	_handle_command, .-_handle_command
 1125              		.section	.text.app_main,"ax",%progbits
 1126              		.align	2
 1127              		.global	app_main
 1128              		.thumb
 1129              		.thumb_func
 1130              		.type	app_main, %function
 1131              	app_main:
 1132              	.LFB64:
 139:Application.c ****     
 1133              		.loc 1 139 0
 1134              		.cfi_startproc
 1135              		@ args = 0, pretend = 0, frame = 56
 1136              		@ frame_needed = 0, uses_anonymous_args = 0
 1137 0000 30B5     		push	{r4, r5, lr}
 1138              		.cfi_def_cfa_offset 12
 1139              		.cfi_offset 4, -12
 1140              		.cfi_offset 5, -8
 1141              		.cfi_offset 14, -4
 1142 0002 91B0     		sub	sp, sp, #68
 1143              		.cfi_def_cfa_offset 80
ARM GAS  C:\Users\HENRIC~1\AppData\Local\Temp\cc3hpANX.s 			page 31


 142:Application.c ****     _previously_connected = false;
 1144              		.loc 1 142 0
 1145 0004 504B     		ldr	r3, .L121
 1146 0006 2C22     		movs	r2, #44
 1147 0008 83F84321 		strb	r2, [r3, #323]
 143:Application.c ****     _uart_rxBuffer_len = 0;
 1148              		.loc 1 143 0
 1149 000c 0022     		movs	r2, #0
 1150 000e 83F84421 		strb	r2, [r3, #324]
 144:Application.c ****     
 1151              		.loc 1 144 0
 1152 0012 A3F84021 		strh	r2, [r3, #320]	@ movhi
 147:Application.c ****     dll_init();
 1153              		.loc 1 147 0
 1154              		.syntax unified
 1155              	@ 147 "Application.c" 1
 1156 0016 62B6     		CPSIE   i
 1157              	@ 0 "" 2
 148:Application.c **** 	user_init();
 1158              		.loc 1 148 0
 1159              		.thumb
 1160              		.syntax unified
 1161 0018 FFF7FEFF 		bl	dll_init
 1162              	.LVL154:
 149:Application.c ****     uart_init();
 1163              		.loc 1 149 0
 1164 001c FFF7FEFF 		bl	user_init
 1165              	.LVL155:
 150:Application.c ****     LCD_Start();
 1166              		.loc 1 150 0
 1167 0020 FFF7FEFF 		bl	uart_init
 1168              	.LVL156:
 151:Application.c ****     LCD_ClearDisplay();
 1169              		.loc 1 151 0
 1170 0024 FFF7FEFF 		bl	LCD_Start
 1171              	.LVL157:
 152:Application.c ****     LCD_PrintString("Application");
 1172              		.loc 1 152 0
 1173 0028 0120     		movs	r0, #1
 1174 002a FFF7FEFF 		bl	LCD_WriteControl
 1175              	.LVL158:
 153:Application.c ****     
 1176              		.loc 1 153 0
 1177 002e 4748     		ldr	r0, .L121+4
 1178 0030 FFF7FEFF 		bl	LCD_PrintString
 1179              	.LVL159:
 1180              	.L104:
 156:Application.c **** 
 1181              		.loc 1 156 0 discriminator 1
 1182 0034 FFF7FEFF 		bl	uart_update
 1183              	.LVL160:
 1184 0038 0028     		cmp	r0, #0
 1185 003a FBD0     		beq	.L104
 1186              	.L109:
 161:Application.c ****         
 1187              		.loc 1 161 0
 1188 003c FFF7FEFF 		bl	uart_update
ARM GAS  C:\Users\HENRIC~1\AppData\Local\Temp\cc3hpANX.s 			page 32


 1189              	.LVL161:
 164:Application.c ****             _previously_connected = true;  
 1190              		.loc 1 164 0
 1191 0040 FFF7FEFF 		bl	uart_has_connected
 1192              	.LVL162:
 1193 0044 50B1     		cbz	r0, .L105
 164:Application.c ****             _previously_connected = true;  
 1194              		.loc 1 164 0 is_stmt 0 discriminator 1
 1195 0046 404B     		ldr	r3, .L121
 1196 0048 93F84431 		ldrb	r3, [r3, #324]	@ zero_extendqisi2
 1197 004c 33B9     		cbnz	r3, .L105
 165:Application.c ****             _print_welcome_msg();
 1198              		.loc 1 165 0 is_stmt 1
 1199 004e 0122     		movs	r2, #1
 1200 0050 3D4B     		ldr	r3, .L121
 1201 0052 83F84421 		strb	r2, [r3, #324]
 166:Application.c ****         }else if(!uart_has_connected()){
 1202              		.loc 1 166 0
 1203 0056 FFF7FEFF 		bl	_print_welcome_msg
 1204              	.LVL163:
 1205 005a 06E0     		b	.L106
 1206              	.L105:
 167:Application.c ****             _previously_connected = false;   
 1207              		.loc 1 167 0
 1208 005c FFF7FEFF 		bl	uart_has_connected
 1209              	.LVL164:
 1210 0060 18B9     		cbnz	r0, .L106
 168:Application.c ****         }
 1211              		.loc 1 168 0
 1212 0062 0022     		movs	r2, #0
 1213 0064 384B     		ldr	r3, .L121
 1214 0066 83F84421 		strb	r2, [r3, #324]
 1215              	.L106:
 172:Application.c ****             //capture data and handle command on newline
 1216              		.loc 1 172 0
 1217 006a FFF7FEFF 		bl	uart_has_data
 1218              	.LVL165:
 1219 006e B8B1     		cbz	r0, .L107
 174:Application.c ****                 _handle_command(_uart_rxBuffer);  
 1220              		.loc 1 174 0
 1221 0070 FFF7FEFF 		bl	_uart_receive_data
 1222              	.LVL166:
 1223 0074 A0B1     		cbz	r0, .L107
 175:Application.c ****                 memset(_uart_rxBuffer,0,sizeof(_uart_rxBuffer));
 1224              		.loc 1 175 0
 1225 0076 344C     		ldr	r4, .L121
 1226 0078 04F1C005 		add	r5, r4, #192
 1227 007c 2846     		mov	r0, r5
 1228 007e FFF7FEFF 		bl	_handle_command
 1229              	.LVL167:
 176:Application.c ****                 _uart_rxBuffer_len = 0;
 1230              		.loc 1 176 0
 1231 0082 8022     		movs	r2, #128
 1232 0084 0021     		movs	r1, #0
 1233 0086 2846     		mov	r0, r5
 1234 0088 FFF7FEFF 		bl	memset
 1235              	.LVL168:
ARM GAS  C:\Users\HENRIC~1\AppData\Local\Temp\cc3hpANX.s 			page 33


 177:Application.c ****                 _print("\n\n>>");
 1236              		.loc 1 177 0
 1237 008c 0023     		movs	r3, #0
 1238 008e A4F84031 		strh	r3, [r4, #320]	@ movhi
 1239              	.L108:
 178:Application.c ****             }
 1240              		.loc 1 178 0 discriminator 1
 1241 0092 FFF7FEFF 		bl	USBUART_CDCIsReady
 1242              	.LVL169:
 1243 0096 0028     		cmp	r0, #0
 1244 0098 FBD0     		beq	.L108
 178:Application.c ****             }
 1245              		.loc 1 178 0 is_stmt 0 discriminator 2
 1246 009a 2D48     		ldr	r0, .L121+8
 1247 009c FFF7FEFF 		bl	USBUART_PutString
 1248              	.LVL170:
 1249              	.L107:
 183:Application.c ****             
 1250              		.loc 1 183 0 is_stmt 1
 1251 00a0 FFF7FEFF 		bl	dll_update
 1252              	.LVL171:
 1253 00a4 0028     		cmp	r0, #0
 1254 00a6 C9D0     		beq	.L109
 1255              	.LBB10:
 187:Application.c **** 			sprintf(_uart_txBuffer,"\n\n\nRx: %d %d",rx_msg.src,rx_msg.dst);
 1256              		.loc 1 187 0
 1257 00a8 03A8     		add	r0, sp, #12
 1258 00aa FFF7FEFF 		bl	dll_read
 1259              	.LVL172:
 188:Application.c ****             _print(_uart_txBuffer);
 1260              		.loc 1 188 0
 1261 00ae 9DF80D30 		ldrb	r3, [sp, #13]	@ zero_extendqisi2
 1262 00b2 9DF80C20 		ldrb	r2, [sp, #12]	@ zero_extendqisi2
 1263 00b6 2749     		ldr	r1, .L121+12
 1264 00b8 2348     		ldr	r0, .L121
 1265 00ba FFF7FEFF 		bl	sprintf
 1266              	.LVL173:
 1267              	.L110:
 189:Application.c ****             memcpy(_uart_txBuffer,rx_msg.msg,rx_msg.msg_size);
 1268              		.loc 1 189 0 discriminator 1
 1269 00be FFF7FEFF 		bl	USBUART_CDCIsReady
 1270              	.LVL174:
 1271 00c2 0028     		cmp	r0, #0
 1272 00c4 FBD0     		beq	.L110
 189:Application.c ****             memcpy(_uart_txBuffer,rx_msg.msg,rx_msg.msg_size);
 1273              		.loc 1 189 0 is_stmt 0 discriminator 2
 1274 00c6 204D     		ldr	r5, .L121
 1275 00c8 2846     		mov	r0, r5
 1276 00ca FFF7FEFF 		bl	USBUART_PutString
 1277              	.LVL175:
 190:Application.c ****             _uart_txBuffer[rx_msg.msg_size] = '\n';
 1278              		.loc 1 190 0 is_stmt 1 discriminator 2
 1279 00ce 9DF83B40 		ldrb	r4, [sp, #59]	@ zero_extendqisi2
 1280 00d2 2246     		mov	r2, r4
 1281 00d4 0DF10F01 		add	r1, sp, #15
 1282 00d8 2846     		mov	r0, r5
 1283 00da FFF7FEFF 		bl	memcpy
ARM GAS  C:\Users\HENRIC~1\AppData\Local\Temp\cc3hpANX.s 			page 34


 1284              	.LVL176:
 191:Application.c ****             _uart_txBuffer[rx_msg.msg_size+1] = '\0';
 1285              		.loc 1 191 0 discriminator 2
 1286 00de 0A23     		movs	r3, #10
 1287 00e0 2B55     		strb	r3, [r5, r4]
 192:Application.c ****             _print(_uart_txBuffer);
 1288              		.loc 1 192 0 discriminator 2
 1289 00e2 0134     		adds	r4, r4, #1
 1290 00e4 0023     		movs	r3, #0
 1291 00e6 2B55     		strb	r3, [r5, r4]
 1292              	.L111:
 193:Application.c ****             sprintf(_uart_txBuffer,"Rx-CRC: %d, Header: %s, Data: %s\n",rx_msg.use_crc,
 1293              		.loc 1 193 0 discriminator 1
 1294 00e8 FFF7FEFF 		bl	USBUART_CDCIsReady
 1295              	.LVL177:
 1296 00ec 0028     		cmp	r0, #0
 1297 00ee FBD0     		beq	.L111
 193:Application.c ****             sprintf(_uart_txBuffer,"Rx-CRC: %d, Header: %s, Data: %s\n",rx_msg.use_crc,
 1298              		.loc 1 193 0 is_stmt 0 discriminator 2
 1299 00f0 1548     		ldr	r0, .L121
 1300 00f2 FFF7FEFF 		bl	USBUART_PutString
 1301              	.LVL178:
 194:Application.c ****                     (rx_msg.failed_header_crc)? "Error" : "Valid", 
 1302              		.loc 1 194 0 is_stmt 1 discriminator 2
 1303 00f6 9DF80E20 		ldrb	r2, [sp, #14]	@ zero_extendqisi2
 195:Application.c ****                     (rx_msg.failed_data_crc) ? "Error" : "Valid");
 1304              		.loc 1 195 0 discriminator 2
 1305 00fa 9DF83C30 		ldrb	r3, [sp, #60]	@ zero_extendqisi2
 194:Application.c ****                     (rx_msg.failed_header_crc)? "Error" : "Valid", 
 1306              		.loc 1 194 0 discriminator 2
 1307 00fe 0BB1     		cbz	r3, .L118
 194:Application.c ****                     (rx_msg.failed_header_crc)? "Error" : "Valid", 
 1308              		.loc 1 194 0 is_stmt 0
 1309 0100 154B     		ldr	r3, .L121+16
 1310 0102 00E0     		b	.L112
 1311              	.L118:
 1312 0104 154B     		ldr	r3, .L121+20
 1313              	.L112:
 196:Application.c ****             _print(_uart_txBuffer);
 1314              		.loc 1 196 0 is_stmt 1 discriminator 4
 1315 0106 9DF83D10 		ldrb	r1, [sp, #61]	@ zero_extendqisi2
 194:Application.c ****                     (rx_msg.failed_header_crc)? "Error" : "Valid", 
 1316              		.loc 1 194 0 discriminator 4
 1317 010a 09B1     		cbz	r1, .L119
 194:Application.c ****                     (rx_msg.failed_header_crc)? "Error" : "Valid", 
 1318              		.loc 1 194 0 is_stmt 0
 1319 010c 1249     		ldr	r1, .L121+16
 1320 010e 00E0     		b	.L113
 1321              	.L119:
 1322 0110 1249     		ldr	r1, .L121+20
 1323              	.L113:
 194:Application.c ****                     (rx_msg.failed_header_crc)? "Error" : "Valid", 
 1324              		.loc 1 194 0 discriminator 8
 1325 0112 0091     		str	r1, [sp]
 1326 0114 1249     		ldr	r1, .L121+24
 1327 0116 0C48     		ldr	r0, .L121
 1328 0118 FFF7FEFF 		bl	sprintf
ARM GAS  C:\Users\HENRIC~1\AppData\Local\Temp\cc3hpANX.s 			page 35


 1329              	.LVL179:
 1330              	.L114:
 197:Application.c **** 
 1331              		.loc 1 197 0 is_stmt 1 discriminator 1
 1332 011c FFF7FEFF 		bl	USBUART_CDCIsReady
 1333              	.LVL180:
 1334 0120 0028     		cmp	r0, #0
 1335 0122 FBD0     		beq	.L114
 197:Application.c **** 
 1336              		.loc 1 197 0 is_stmt 0 discriminator 2
 1337 0124 0848     		ldr	r0, .L121
 1338 0126 FFF7FEFF 		bl	USBUART_PutString
 1339              	.LVL181:
 1340              	.L115:
 200:Application.c ****             _print(_uart_rxBuffer);
 1341              		.loc 1 200 0 is_stmt 1 discriminator 1
 1342 012a FFF7FEFF 		bl	USBUART_CDCIsReady
 1343              	.LVL182:
 1344 012e 0028     		cmp	r0, #0
 1345 0130 FBD0     		beq	.L115
 200:Application.c ****             _print(_uart_rxBuffer);
 1346              		.loc 1 200 0 is_stmt 0 discriminator 2
 1347 0132 0748     		ldr	r0, .L121+8
 1348 0134 FFF7FEFF 		bl	USBUART_PutString
 1349              	.LVL183:
 1350              	.L116:
 201:Application.c ****         }
 1351              		.loc 1 201 0 is_stmt 1 discriminator 1
 1352 0138 FFF7FEFF 		bl	USBUART_CDCIsReady
 1353              	.LVL184:
 1354 013c 0028     		cmp	r0, #0
 1355 013e FBD0     		beq	.L116
 201:Application.c ****         }
 1356              		.loc 1 201 0 is_stmt 0 discriminator 2
 1357 0140 0848     		ldr	r0, .L121+28
 1358 0142 FFF7FEFF 		bl	USBUART_PutString
 1359              	.LVL185:
 1360 0146 79E7     		b	.L109
 1361              	.L122:
 1362              		.align	2
 1363              	.L121:
 1364 0148 00000000 		.word	.LANCHOR0
 1365 014c 94050000 		.word	.LC41
 1366 0150 0C020000 		.word	.LC12
 1367 0154 A0050000 		.word	.LC42
 1368 0158 84050000 		.word	.LC39
 1369 015c 8C050000 		.word	.LC40
 1370 0160 B0050000 		.word	.LC43
 1371 0164 C0000000 		.word	.LANCHOR0+192
 1372              	.LBE10:
 1373              		.cfi_endproc
 1374              	.LFE64:
 1375              		.size	app_main, .-app_main
 1376              		.section	.rodata.str1.4,"aMS",%progbits,1
 1377              		.align	2
 1378              	.LC0:
 1379 0000 546F206C 		.ascii	"To log in: 'login <first name> <last name>' where n"
ARM GAS  C:\Users\HENRIC~1\AppData\Local\Temp\cc3hpANX.s 			page 36


 1379      6F672069 
 1379      6E3A2027 
 1379      6C6F6769 
 1379      6E203C66 
 1380 0033 616D6520 		.ascii	"ame is \000"
 1380      69732000 
 1381 003b 00       		.space	1
 1382              	.LC1:
 1383 003c 61732064 		.ascii	"as displayed in 'Interface Standard' manual \012\000"
 1383      6973706C 
 1383      61796564 
 1383      20696E20 
 1383      27496E74 
 1384 006a 0000     		.space	2
 1385              	.LC2:
 1386 006c 546F2073 		.ascii	"To send a message: 'send <src> <dest> <message>' wh"
 1386      656E6420 
 1386      61206D65 
 1386      73736167 
 1386      653A2027 
 1387 009f 65726520 		.ascii	"ere \000"
 1387      00
 1388              	.LC3:
 1389 00a4 3C646573 		.ascii	"<dest> is the destination name or address and <mess"
 1389      743E2069 
 1389      73207468 
 1389      65206465 
 1389      7374696E 
 1390 00d7 6167653E 		.ascii	"age> \000"
 1390      2000
 1391 00dd 000000   		.space	3
 1392              	.LC4:
 1393 00e0 69732074 		.ascii	"is the message to send\012\000"
 1393      6865206D 
 1393      65737361 
 1393      67652074 
 1393      6F207365 
 1394              	.LC5:
 1395 00f8 546F2063 		.ascii	"To change CRC transmit settings: 'crc <option>' whe"
 1395      68616E67 
 1395      65204352 
 1395      43207472 
 1395      616E736D 
 1396 012b 72652000 		.ascii	"re \000"
 1397 012f 00       		.space	1
 1398              	.LC6:
 1399 0130 3C6F7074 		.ascii	"<option> is 0=NO_CRC, 1=HEADER_CRC, 2=DATA_CRC, \000"
 1399      696F6E3E 
 1399      20697320 
 1399      303D4E4F 
 1399      5F435243 
 1400 0161 000000   		.space	3
 1401              	.LC7:
 1402 0164 333D424F 		.ascii	"3=BOTH_CRC\012\000"
 1402      54485F43 
 1402      52430A00 
 1403              	.LC8:
ARM GAS  C:\Users\HENRIC~1\AppData\Local\Temp\cc3hpANX.s 			page 37


 1404 0170 546F206C 		.ascii	"To log out: 'logout'\012\000"
 1404      6F67206F 
 1404      75743A20 
 1404      276C6F67 
 1404      6F757427 
 1405 0186 0000     		.space	2
 1406              	.LC9:
 1407 0188 546F2073 		.ascii	"To show this list of commands again: 'help'\012\000"
 1407      686F7720 
 1407      74686973 
 1407      206C6973 
 1407      74206F66 
 1408 01b5 000000   		.space	3
 1409              	.LC10:
 1410 01b8 416C6C20 		.ascii	"All commands are case-insensitive!\012\000"
 1410      636F6D6D 
 1410      616E6473 
 1410      20617265 
 1410      20636173 
 1411              	.LC11:
 1412 01dc 57656C63 		.ascii	"Welcome to the Manchester United Terminal!\012\012\000"
 1412      6F6D6520 
 1412      746F2074 
 1412      6865204D 
 1412      616E6368 
 1413 0209 000000   		.space	3
 1414              	.LC12:
 1415 020c 0A0A3E3E 		.ascii	"\012\012>>\000"
 1415      00
 1416 0211 000000   		.space	3
 1417              	.LC13:
 1418 0214 4E6F2075 		.ascii	"No user currently logged in :(\012\000"
 1418      73657220 
 1418      63757272 
 1418      656E746C 
 1418      79206C6F 
 1419              	.LC14:
 1420 0234 546F206C 		.ascii	"To log in: 'login <first name> <last name>' where n"
 1420      6F672069 
 1420      6E3A2027 
 1420      6C6F6769 
 1420      6E203C66 
 1421 0267 616D6520 		.ascii	"ame is as displayed in 'Interface Standard' manual "
 1421      69732061 
 1421      73206469 
 1421      73706C61 
 1421      79656420 
 1422 029a 0A00     		.ascii	"\012\000"
 1423              	.LC15:
 1424 029c 436F6D6D 		.ascii	"Command '%s' not recognized.  For a list of availab"
 1424      616E6420 
 1424      27257327 
 1424      206E6F74 
 1424      20726563 
 1425 02cf 6C652063 		.ascii	"le commands, type 'help'\012\000"
 1425      6F6D6D61 
 1425      6E64732C 
ARM GAS  C:\Users\HENRIC~1\AppData\Local\Temp\cc3hpANX.s 			page 38


 1425      20747970 
 1425      65202768 
 1426 02e9 000000   		.space	3
 1427              	.LC16:
 1428 02ec 0A576172 		.ascii	"\012Warning: Discarding buffer due to exceeding siz"
 1428      6E696E67 
 1428      3A204469 
 1428      73636172 
 1428      64696E67 
 1429 031c 650A00   		.ascii	"e\012\000"
 1430 031f 00       		.space	1
 1431              	.LC17:
 1432 0320 257500   		.ascii	"%u\000"
 1433 0323 00       		.space	1
 1434              	.LC18:
 1435 0324 2E2E4F4B 		.ascii	"..OK\000"
 1435      00
 1436 0329 000000   		.space	3
 1437              	.LC19:
 1438 032c 496E7661 		.ascii	"Invalid CRC option requested. Value should be betwe"
 1438      6C696420 
 1438      43524320 
 1438      6F707469 
 1438      6F6E2072 
 1439 035f 656E2030 		.ascii	"en 0 to 3. See Help command.\012\000"
 1439      20746F20 
 1439      332E2053 
 1439      65652048 
 1439      656C7020 
 1440 037d 000000   		.space	3
 1441              	.LC20:
 1442 0380 496E7661 		.ascii	"Invalid parameter, refer to documentation for forma"
 1442      6C696420 
 1442      70617261 
 1442      6D657465 
 1442      722C2072 
 1443 03b3 742E0A00 		.ascii	"t.\012\000"
 1444 03b7 00       		.space	1
 1445              	.LC21:
 1446 03b8 0A00     		.ascii	"\012\000"
 1447 03ba 0000     		.space	2
 1448              	.LC22:
 1449 03bc 57656C63 		.ascii	"Welcome, %s :)\012\000"
 1449      6F6D652C 
 1449      20257320 
 1449      3A290A00 
 1450              	.LC23:
 1451 03cc 4661696C 		.ascii	"Failed to login user, %s :(\012\000"
 1451      65642074 
 1451      6F206C6F 
 1451      67696E20 
 1451      75736572 
 1452 03e9 000000   		.space	3
 1453              	.LC24:
 1454 03ec 476F6F64 		.ascii	"Goodbye, %s!\012\000"
 1454      6279652C 
 1454      20257321 
ARM GAS  C:\Users\HENRIC~1\AppData\Local\Temp\cc3hpANX.s 			page 39


 1454      0A00
 1455 03fa 0000     		.space	2
 1456              	.LC25:
 1457 03fc 2E2E5375 		.ascii	"..Success\012\000"
 1457      63636573 
 1457      730A00
 1458 0407 00       		.space	1
 1459              	.LC26:
 1460 0408 2E2E4661 		.ascii	"..Failed\012\000"
 1460      696C6564 
 1460      0A00
 1461 0412 0000     		.space	2
 1462              	.LC27:
 1463 0414 2000     		.ascii	" \000"
 1464 0416 0000     		.space	2
 1465              	.LC28:
 1466 0418 53656C65 		.ascii	"Selected message is too long.  Maximum message leng"
 1466      63746564 
 1466      206D6573 
 1466      73616765 
 1466      20697320 
 1467 044b 74682069 		.ascii	"th is 44 characters.\012\000"
 1467      73203434 
 1467      20636861 
 1467      72616374 
 1467      6572732E 
 1468 0461 000000   		.space	3
 1469              	.LC29:
 1470 0464 496D7072 		.ascii	"Improper destination used.  Value should be an inte"
 1470      6F706572 
 1470      20646573 
 1470      74696E61 
 1470      74696F6E 
 1471 0497 67657220 		.ascii	"ger value between 0 and 126.\012\000"
 1471      76616C75 
 1471      65206265 
 1471      74776565 
 1471      6E203020 
 1472 04b5 000000   		.space	3
 1473              	.LC30:
 1474 04b8 496D7072 		.ascii	"Improper source used.  Value should be between 1 an"
 1474      6F706572 
 1474      20736F75 
 1474      72636520 
 1474      75736564 
 1475 04eb 64203320 		.ascii	"d 3 corresponding to the addresses of the current u"
 1475      636F7272 
 1475      6573706F 
 1475      6E64696E 
 1475      6720746F 
 1476 051e 7365722E 		.ascii	"ser.\012\000"
 1476      0A00
 1477              	.LC31:
 1478 0524 25323073 		.ascii	"%20s\000"
 1478      00
 1479 0529 000000   		.space	3
 1480              	.LC32:
ARM GAS  C:\Users\HENRIC~1\AppData\Local\Temp\cc3hpANX.s 			page 40


 1481 052c 6C6F6769 		.ascii	"login\000"
 1481      6E00
 1482 0532 0000     		.space	2
 1483              	.LC33:
 1484 0534 4D697373 		.ascii	"Missing parameters.\012\000"
 1484      696E6720 
 1484      70617261 
 1484      6D657465 
 1484      72732E0A 
 1485 0549 000000   		.space	3
 1486              	.LC34:
 1487 054c 68656C70 		.ascii	"help\000"
 1487      00
 1488 0551 000000   		.space	3
 1489              	.LC35:
 1490 0554 6C6F676F 		.ascii	"logout\000"
 1490      757400
 1491 055b 00       		.space	1
 1492              	.LC36:
 1493 055c 73656E64 		.ascii	"send\000"
 1493      00
 1494 0561 000000   		.space	3
 1495              	.LC37:
 1496 0564 63726300 		.ascii	"crc\000"
 1497              	.LC38:
 1498 0568 436F6D6D 		.ascii	"Command must be supplied.\012\000"
 1498      616E6420 
 1498      6D757374 
 1498      20626520 
 1498      73757070 
 1499 0583 00       		.space	1
 1500              	.LC39:
 1501 0584 4572726F 		.ascii	"Error\000"
 1501      7200
 1502 058a 0000     		.space	2
 1503              	.LC40:
 1504 058c 56616C69 		.ascii	"Valid\000"
 1504      6400
 1505 0592 0000     		.space	2
 1506              	.LC41:
 1507 0594 4170706C 		.ascii	"Application\000"
 1507      69636174 
 1507      696F6E00 
 1508              	.LC42:
 1509 05a0 0A0A0A52 		.ascii	"\012\012\012Rx: %d %d\000"
 1509      783A2025 
 1509      64202564 
 1509      00
 1510 05ad 000000   		.space	3
 1511              	.LC43:
 1512 05b0 52782D43 		.ascii	"Rx-CRC: %d, Header: %s, Data: %s\012\000"
 1512      52433A20 
 1512      25642C20 
 1512      48656164 
 1512      65723A20 
 1513              		.bss
 1514              		.align	2
ARM GAS  C:\Users\HENRIC~1\AppData\Local\Temp\cc3hpANX.s 			page 41


 1515              		.set	.LANCHOR0,. + 0
 1516              		.type	_uart_txBuffer, %object
 1517              		.size	_uart_txBuffer, 128
 1518              	_uart_txBuffer:
 1519 0000 00000000 		.space	128
 1519      00000000 
 1519      00000000 
 1519      00000000 
 1519      00000000 
 1520              		.type	buffer.8459, %object
 1521              		.size	buffer.8459, 64
 1522              	buffer.8459:
 1523 0080 00000000 		.space	64
 1523      00000000 
 1523      00000000 
 1523      00000000 
 1523      00000000 
 1524              		.type	_uart_rxBuffer, %object
 1525              		.size	_uart_rxBuffer, 128
 1526              	_uart_rxBuffer:
 1527 00c0 00000000 		.space	128
 1527      00000000 
 1527      00000000 
 1527      00000000 
 1527      00000000 
 1528              		.type	_uart_rxBuffer_len, %object
 1529              		.size	_uart_rxBuffer_len, 2
 1530              	_uart_rxBuffer_len:
 1531 0140 0000     		.space	2
 1532              		.type	_crc_option, %object
 1533              		.size	_crc_option, 1
 1534              	_crc_option:
 1535 0142 00       		.space	1
 1536              		.type	_currentUser, %object
 1537              		.size	_currentUser, 1
 1538              	_currentUser:
 1539 0143 00       		.space	1
 1540              		.type	_previously_connected, %object
 1541              		.size	_previously_connected, 1
 1542              	_previously_connected:
 1543 0144 00       		.space	1
 1544              		.text
 1545              	.Letext0:
 1546              		.file 2 "c:\\program files (x86)\\cypress\\psoc creator\\4.1\\psoc creator\\import\\gnu\\arm\\5.4.
 1547              		.file 3 "c:\\program files (x86)\\cypress\\psoc creator\\4.1\\psoc creator\\import\\gnu\\arm\\5.4.
 1548              		.file 4 "UserAddressAllocation.h"
 1549              		.file 5 "DataLinkLayer.h"
 1550              		.file 6 "c:\\program files (x86)\\cypress\\psoc creator\\4.1\\psoc creator\\import\\gnu\\arm\\5.4.
 1551              		.file 7 "Generated_Source\\PSoC5/core_cm3.h"
 1552              		.file 8 "Generated_Source\\PSoC5/USBUART_cdc.h"
 1553              		.file 9 "c:\\program files (x86)\\cypress\\psoc creator\\4.1\\psoc creator\\import\\gnu\\arm\\5.4.
 1554              		.file 10 "Uart.h"
 1555              		.file 11 "c:\\program files (x86)\\cypress\\psoc creator\\4.1\\psoc creator\\import\\gnu\\arm\\5.4
 1556              		.file 12 "c:\\program files (x86)\\cypress\\psoc creator\\4.1\\psoc creator\\import\\gnu\\arm\\5.4
 1557              		.file 13 "Generated_Source\\PSoC5/LCD.h"