ARM GAS  C:\Users\HENRIC~1\AppData\Local\Temp\ccrLF8Oj.s 			page 1


   1              		.syntax unified
   2              		.cpu cortex-m3
   3              		.fpu softvfp
   4              		.eabi_attribute 20, 1
   5              		.eabi_attribute 21, 1
   6              		.eabi_attribute 23, 3
   7              		.eabi_attribute 24, 1
   8              		.eabi_attribute 25, 1
   9              		.eabi_attribute 26, 1
  10              		.eabi_attribute 30, 1
  11              		.eabi_attribute 34, 1
  12              		.eabi_attribute 18, 4
  13              		.thumb
  14              		.syntax unified
  15              		.file	"ChannelMonitor.c"
  16              		.text
  17              	.Ltext0:
  18              		.cfi_sections	.debug_frame
  19              		.section	.text.cm_idle_isr,"ax",%progbits
  20              		.align	2
  21              		.global	cm_idle_isr
  22              		.thumb
  23              		.thumb_func
  24              		.type	cm_idle_isr, %function
  25              	cm_idle_isr:
  26              	.LFB69:
  27              		.file 1 "ChannelMonitor.c"
   1:ChannelMonitor.c **** /**
   2:ChannelMonitor.c ****  * ChannelMonitor
   3:ChannelMonitor.c ****  * @author Curt Henrichs
   4:ChannelMonitor.c ****  * @date 12-6-2017
   5:ChannelMonitor.c ****  *
   6:ChannelMonitor.c ****  * Channel monitor is intended to run above the physical layer yet have high
   7:ChannelMonitor.c ****  * coupling as the monitor must assess the state of the physical medium as
   8:ChannelMonitor.c ****  * IDLE, BUSY, or COLLISION. This module should be used by higher layers to
   9:ChannelMonitor.c ****  * get this state information.
  10:ChannelMonitor.c ****  *
  11:ChannelMonitor.c ****  * Note at startup the bus starts in INIT state which is an undetermined state
  12:ChannelMonitor.c ****  * on the bus until an interrupt (pin or timer) occurs. It is recommended that
  13:ChannelMonitor.c ****  * transmission is avoided until a known bus state is reached.
  14:ChannelMonitor.c ****  */
  15:ChannelMonitor.c **** 
  16:ChannelMonitor.c **** //=============================================================================
  17:ChannelMonitor.c **** //                                 Libraries
  18:ChannelMonitor.c **** //=============================================================================
  19:ChannelMonitor.c **** 
  20:ChannelMonitor.c **** #include "ChannelMonitor.h"
  21:ChannelMonitor.c **** #include <project.h>
  22:ChannelMonitor.c **** #include "CSMA_CD_Bus.h"
  23:ChannelMonitor.c **** 
  24:ChannelMonitor.c **** //=============================================================================
  25:ChannelMonitor.c **** //                        Constant and Macro Definition
  26:ChannelMonitor.c **** //=============================================================================
  27:ChannelMonitor.c **** 
  28:ChannelMonitor.c **** // 0.6 * 100 <0.1 precision on timer>
  29:ChannelMonitor.c **** #define CM_TIMER_SHORT_PERIOD (525)     //! Time for 1/2 a bit to pass through
  30:ChannelMonitor.c **** // 7.7 * 100 <0.01 precision on timer>   
ARM GAS  C:\Users\HENRIC~1\AppData\Local\Temp\ccrLF8Oj.s 			page 2


  31:ChannelMonitor.c **** #define CM_TIMER_LONG_PERIOD (8150)     //! Time for 7 bits to pass through
  32:ChannelMonitor.c **** 
  33:ChannelMonitor.c **** //=============================================================================
  34:ChannelMonitor.c **** //                          Data Structure Declaration
  35:ChannelMonitor.c **** //=============================================================================
  36:ChannelMonitor.c **** 
  37:ChannelMonitor.c **** /**
  38:ChannelMonitor.c ****  * State machine definition for channel monitor module
  39:ChannelMonitor.c ****  */
  40:ChannelMonitor.c **** typedef struct CM_State_Machine {
  41:ChannelMonitor.c ****     CM_State_e state;                   //! current state of monitor as enum
  42:ChannelMonitor.c ****     CSMA_CD_Edge_e prev_edge;           //! last edge triggered on bus
  43:ChannelMonitor.c **** } CM_State_Machine_t;   
  44:ChannelMonitor.c **** 
  45:ChannelMonitor.c **** /**
  46:ChannelMonitor.c ****  * ISR callback table for collision event. Triggered on collision ISR not on
  47:ChannelMonitor.c ****  * transition to state.
  48:ChannelMonitor.c ****  */
  49:ChannelMonitor.c **** typedef struct CM_Collision_Callback_Table {
  50:ChannelMonitor.c ****     void (*tx)(void);   //! Callback function for transmitter
  51:ChannelMonitor.c ****     void (*rx)(void);   //! Callback function for receiver
  52:ChannelMonitor.c **** } CM_Collision_Callback_Table_t;
  53:ChannelMonitor.c **** 
  54:ChannelMonitor.c **** /**
  55:ChannelMonitor.c ****  * ISR callback table for idle event. Triggered on idle ISR not on transition
  56:ChannelMonitor.c ****  * to sate
  57:ChannelMonitor.c ****  */
  58:ChannelMonitor.c **** typedef struct CM_Idle_Callback_Table {
  59:ChannelMonitor.c ****     void (*tx)(void);   //! Callback function for transmitter
  60:ChannelMonitor.c ****     void (*rx)(void);   //! Callback function for receiver
  61:ChannelMonitor.c **** } CM_Idle_Callback_Table_t;
  62:ChannelMonitor.c **** 
  63:ChannelMonitor.c **** //=============================================================================
  64:ChannelMonitor.c **** //                             Private Attributes
  65:ChannelMonitor.c **** //=============================================================================
  66:ChannelMonitor.c **** 
  67:ChannelMonitor.c **** /**
  68:ChannelMonitor.c ****  * State machine for channel monitor (including interrupt ISRs)
  69:ChannelMonitor.c ****  */
  70:ChannelMonitor.c **** static volatile CM_State_Machine_t _cm_sm;
  71:ChannelMonitor.c **** /**
  72:ChannelMonitor.c ****  * Callback table for collision ISR event (not state change)
  73:ChannelMonitor.c ****  */
  74:ChannelMonitor.c **** static volatile CM_Collision_Callback_Table_t _collision_callback_table;
  75:ChannelMonitor.c **** /**
  76:ChannelMonitor.c ****  * Callback table for idle ISR event (not state change)
  77:ChannelMonitor.c ****  */
  78:ChannelMonitor.c **** static volatile CM_Idle_Callback_Table_t _idle_callback_table;
  79:ChannelMonitor.c **** 
  80:ChannelMonitor.c **** //=============================================================================
  81:ChannelMonitor.c **** //                           Private ISR Prototypes
  82:ChannelMonitor.c **** //=============================================================================
  83:ChannelMonitor.c **** 
  84:ChannelMonitor.c **** /**
  85:ChannelMonitor.c ****  * Callback to be assigned to receive pin ISR table. This function will handle
  86:ChannelMonitor.c ****  * monitor state change logic associated with receiving a level change
  87:ChannelMonitor.c ****  * @param edge is current state change on bus
ARM GAS  C:\Users\HENRIC~1\AppData\Local\Temp\ccrLF8Oj.s 			page 3


  88:ChannelMonitor.c ****  */
  89:ChannelMonitor.c **** void cm_rx_isr_callback(CSMA_CD_Edge_e edge);
  90:ChannelMonitor.c **** /*
  91:ChannelMonitor.c ****  * ISR for channel monitor's timer which is used to detect end of busy and 
  92:ChannelMonitor.c ****  * code violations (collisions).
  93:ChannelMonitor.c ****  */
  94:ChannelMonitor.c **** CY_ISR_PROTO(cm_timer_isr);
  95:ChannelMonitor.c **** /**
  96:ChannelMonitor.c ****  * IDLE ISR passes interrupt to all register callbacks
  97:ChannelMonitor.c ****  */
  98:ChannelMonitor.c **** CY_ISR_PROTO(cm_idle_isr);
  99:ChannelMonitor.c **** /**
 100:ChannelMonitor.c ****  * Collision ISR passes interrupt to all register callbacks
 101:ChannelMonitor.c ****  */
 102:ChannelMonitor.c **** CY_ISR_PROTO(cm_collision_isr);
 103:ChannelMonitor.c **** 
 104:ChannelMonitor.c **** //=============================================================================
 105:ChannelMonitor.c **** //                        Public Function Implementation
 106:ChannelMonitor.c **** //=============================================================================
 107:ChannelMonitor.c **** 
 108:ChannelMonitor.c **** /**
 109:ChannelMonitor.c ****  * Initalize channel monitor hardware and state-machine. Will set the state-
 110:ChannelMonitor.c ****  * machine into the CD_INIT state which waits for the timer to expire before
 111:ChannelMonitor.c ****  * transitioning into IDLE. (See header for detailed documentation)
 112:ChannelMonitor.c ****  */
 113:ChannelMonitor.c **** void cm_init(void){
 114:ChannelMonitor.c ****     _cm_sm.state = CM_STATE_INIT;
 115:ChannelMonitor.c ****     _cm_sm.prev_edge = CSMA_CD_EDGE_UNKNOWN;
 116:ChannelMonitor.c ****     CM_State_Reg_Write(_cm_sm.state);
 117:ChannelMonitor.c ****     
 118:ChannelMonitor.c ****     _collision_callback_table.rx = NULL;
 119:ChannelMonitor.c ****     _collision_callback_table.tx = NULL;
 120:ChannelMonitor.c ****     
 121:ChannelMonitor.c ****     _idle_callback_table.rx = NULL;
 122:ChannelMonitor.c ****     _idle_callback_table.tx = NULL;
 123:ChannelMonitor.c **** 
 124:ChannelMonitor.c ****     CyDelay(100); //needed to let bus settle before starting network 
 125:ChannelMonitor.c ****     
 126:ChannelMonitor.c ****     csma_bus_assign_callback(CSMA_CD_BUS_CH_MONITOR_CALLBACK,cm_rx_isr_callback);
 127:ChannelMonitor.c **** 
 128:ChannelMonitor.c ****     CM_Timer_Start();
 129:ChannelMonitor.c ****     CM_Timer_WritePeriod(CM_TIMER_LONG_PERIOD);
 130:ChannelMonitor.c ****     CM_Timer_int_StartEx(cm_timer_isr);
 131:ChannelMonitor.c ****     CM_Timer_Trigger_Write(1);
 132:ChannelMonitor.c ****     CyDelayUs(1);
 133:ChannelMonitor.c ****     CM_Timer_Trigger_Write(0);
 134:ChannelMonitor.c ****     
 135:ChannelMonitor.c ****     CM_IDLE_int_StartEx(cm_idle_isr);
 136:ChannelMonitor.c ****     CM_COLLISION_int_StartEx(cm_collision_isr);
 137:ChannelMonitor.c **** }
 138:ChannelMonitor.c **** 
 139:ChannelMonitor.c **** /**
 140:ChannelMonitor.c ****  * @return current state from channel monitor, accurate to last bit received
 141:ChannelMonitor.c ****  */
 142:ChannelMonitor.c **** CM_State_e cm_get_bus_state(void){
 143:ChannelMonitor.c ****     return _cm_sm.state;   
 144:ChannelMonitor.c **** }
ARM GAS  C:\Users\HENRIC~1\AppData\Local\Temp\ccrLF8Oj.s 			page 4


 145:ChannelMonitor.c **** 
 146:ChannelMonitor.c **** /**
 147:ChannelMonitor.c ****  * Assign a callback function to collision state interrupt
 148:ChannelMonitor.c ****  * @param name is table entry to place new callback
 149:ChannelMonitor.c ****  * @param fnt is function pointer to callback, NULL is to be cleared
 150:ChannelMonitor.c ****  */
 151:ChannelMonitor.c **** void cm_assign_collision_callback(CM_Collision_Callback_e name, void (*fnt)(void)){
 152:ChannelMonitor.c ****     switch(name){
 153:ChannelMonitor.c ****         case CM_COLLISION_RX_CALLBACK:
 154:ChannelMonitor.c ****             _collision_callback_table.rx = fnt;
 155:ChannelMonitor.c ****             break;
 156:ChannelMonitor.c ****         case CM_COLLISION_TX_CALLBACK:
 157:ChannelMonitor.c ****             _collision_callback_table.tx = fnt;
 158:ChannelMonitor.c ****             break;
 159:ChannelMonitor.c ****     }
 160:ChannelMonitor.c **** }
 161:ChannelMonitor.c **** 
 162:ChannelMonitor.c **** /**
 163:ChannelMonitor.c ****  * Assign a callback function to idle state interrupt
 164:ChannelMonitor.c ****  * @param name is table entry to place new callback
 165:ChannelMonitor.c ****  * @param fnt is function pointer to callback, NULL is to be cleared
 166:ChannelMonitor.c ****  */
 167:ChannelMonitor.c **** void cm_assign_idle_callback(CM_Idle_Callback_e name, void (*fnt)(void)){
 168:ChannelMonitor.c ****     switch(name){
 169:ChannelMonitor.c ****         case CM_IDLE_RX_CALLBACK:
 170:ChannelMonitor.c ****             _idle_callback_table.rx = fnt;
 171:ChannelMonitor.c ****             break;
 172:ChannelMonitor.c ****         case CM_IDLE_TX_CALLBACK:
 173:ChannelMonitor.c ****             _idle_callback_table.tx = fnt;
 174:ChannelMonitor.c ****             break;
 175:ChannelMonitor.c ****     }
 176:ChannelMonitor.c **** }
 177:ChannelMonitor.c **** 
 178:ChannelMonitor.c **** //=============================================================================
 179:ChannelMonitor.c **** //                           Private ISR Implementation
 180:ChannelMonitor.c **** //=============================================================================
 181:ChannelMonitor.c **** 
 182:ChannelMonitor.c **** /**
 183:ChannelMonitor.c ****  * Callback to be assigned to receive pin ISR table. This function will handle
 184:ChannelMonitor.c ****  * monitor state change logic associated with receiving a level change
 185:ChannelMonitor.c ****  * @param edge is current state change on bus
 186:ChannelMonitor.c ****  */
 187:ChannelMonitor.c **** void cm_rx_isr_callback(CSMA_CD_Edge_e edge){
 188:ChannelMonitor.c ****     CM_Timer_Trigger_Write(1);
 189:ChannelMonitor.c ****     if(edge == CSMA_CD_EDGE_RISING){ //rising edge  
 190:ChannelMonitor.c ****         if(_cm_sm.state == CM_STATE_IDLE || _cm_sm.state == CM_STATE_BUSY 
 191:ChannelMonitor.c ****                 ||_cm_sm.state == CM_STATE_INIT){
 192:ChannelMonitor.c ****             _cm_sm.state = CM_STATE_BUSY;
 193:ChannelMonitor.c ****             
 194:ChannelMonitor.c ****             CM_Timer_WritePeriod(CM_TIMER_SHORT_PERIOD);
 195:ChannelMonitor.c ****         }
 196:ChannelMonitor.c ****     }else{ //falling edge
 197:ChannelMonitor.c ****         if(_cm_sm.state == CM_STATE_BUSY || _cm_sm.state == CM_STATE_COLLISION 
 198:ChannelMonitor.c ****                 || _cm_sm.state == CM_STATE_INIT){
 199:ChannelMonitor.c ****             _cm_sm.state = CM_STATE_BUSY;
 200:ChannelMonitor.c ****                     
 201:ChannelMonitor.c ****             CM_Timer_WritePeriod(CM_TIMER_LONG_PERIOD);
ARM GAS  C:\Users\HENRIC~1\AppData\Local\Temp\ccrLF8Oj.s 			page 5


 202:ChannelMonitor.c ****         }
 203:ChannelMonitor.c ****     }
 204:ChannelMonitor.c **** 
 205:ChannelMonitor.c ****     _cm_sm.prev_edge = edge;
 206:ChannelMonitor.c ****     CM_State_Reg_Write(_cm_sm.state);
 207:ChannelMonitor.c ****     CM_Timer_ReadStatusRegister(); 
 208:ChannelMonitor.c ****     CM_Timer_int_ClearPending();
 209:ChannelMonitor.c ****     
 210:ChannelMonitor.c ****     CyDelayUs(1);
 211:ChannelMonitor.c ****     CM_Timer_Trigger_Write(0);
 212:ChannelMonitor.c **** }
 213:ChannelMonitor.c **** 
 214:ChannelMonitor.c **** /*
 215:ChannelMonitor.c ****  * ISR for channel monitor's timer which is used to detect end of busy and 
 216:ChannelMonitor.c ****  * code violations (collisions).
 217:ChannelMonitor.c ****  */
 218:ChannelMonitor.c **** CY_ISR(cm_timer_isr){    
 219:ChannelMonitor.c ****     static volatile uint8_t level;
 220:ChannelMonitor.c ****     level = CSMA_Receive_Level();
 221:ChannelMonitor.c ****     
 222:ChannelMonitor.c ****     //next state
 223:ChannelMonitor.c ****     switch(_cm_sm.state){
 224:ChannelMonitor.c ****         case CM_STATE_INIT:
 225:ChannelMonitor.c ****             _cm_sm.state = (level) ? CM_STATE_BUSY : CM_STATE_IDLE;
 226:ChannelMonitor.c ****             _cm_sm.prev_edge = (level) ? CSMA_CD_EDGE_RISING : CSMA_CD_EDGE_FALLING; 
 227:ChannelMonitor.c ****             if(_cm_sm.state == CM_STATE_BUSY){
 228:ChannelMonitor.c ****                 CM_Timer_WritePeriod(CM_TIMER_SHORT_PERIOD);
 229:ChannelMonitor.c ****                 CM_Timer_Trigger_Write(1);
 230:ChannelMonitor.c ****                 CyDelayUs(1);
 231:ChannelMonitor.c ****                 CM_Timer_Trigger_Write(0);
 232:ChannelMonitor.c ****             }
 233:ChannelMonitor.c ****             break;
 234:ChannelMonitor.c ****         case CM_STATE_IDLE:
 235:ChannelMonitor.c ****             _cm_sm.state = (level) ? CM_STATE_BUSY : CM_STATE_IDLE;
 236:ChannelMonitor.c ****             break;
 237:ChannelMonitor.c ****         case CM_STATE_BUSY:
 238:ChannelMonitor.c ****                 _cm_sm.state = (level) ? CM_STATE_COLLISION : CM_STATE_IDLE;
 239:ChannelMonitor.c ****             break;
 240:ChannelMonitor.c ****         case CM_STATE_COLLISION:
 241:ChannelMonitor.c ****             _cm_sm.state = (level) ? CM_STATE_COLLISION : CM_STATE_BUSY;
 242:ChannelMonitor.c ****             break;
 243:ChannelMonitor.c ****     }
 244:ChannelMonitor.c ****     CM_State_Reg_Write(_cm_sm.state);
 245:ChannelMonitor.c ****     
 246:ChannelMonitor.c ****     //clear interrupt
 247:ChannelMonitor.c ****     CM_Timer_ReadStatusRegister(); 
 248:ChannelMonitor.c ****     CM_Timer_int_ClearPending();
 249:ChannelMonitor.c **** }
 250:ChannelMonitor.c **** 
 251:ChannelMonitor.c **** /**
 252:ChannelMonitor.c ****  * IDLE ISR passes interrupt to all register callbacks
 253:ChannelMonitor.c ****  */
 254:ChannelMonitor.c **** CY_ISR(cm_idle_isr){
  28              		.loc 1 254 0
  29              		.cfi_startproc
  30              		@ args = 0, pretend = 0, frame = 0
  31              		@ frame_needed = 0, uses_anonymous_args = 0
ARM GAS  C:\Users\HENRIC~1\AppData\Local\Temp\ccrLF8Oj.s 			page 6


  32 0000 08B5     		push	{r3, lr}
  33              		.cfi_def_cfa_offset 8
  34              		.cfi_offset 3, -8
  35              		.cfi_offset 14, -4
 255:ChannelMonitor.c ****     if(_idle_callback_table.rx != NULL){
  36              		.loc 1 255 0
  37 0002 064B     		ldr	r3, .L5
  38 0004 5B68     		ldr	r3, [r3, #4]
  39 0006 13B1     		cbz	r3, .L2
 256:ChannelMonitor.c ****         _idle_callback_table.rx();
  40              		.loc 1 256 0
  41 0008 044B     		ldr	r3, .L5
  42 000a 5B68     		ldr	r3, [r3, #4]
  43 000c 9847     		blx	r3
  44              	.LVL0:
  45              	.L2:
 257:ChannelMonitor.c ****     }
 258:ChannelMonitor.c ****     if(_idle_callback_table.tx != NULL){
  46              		.loc 1 258 0
  47 000e 034B     		ldr	r3, .L5
  48 0010 1B68     		ldr	r3, [r3]
  49 0012 13B1     		cbz	r3, .L1
 259:ChannelMonitor.c ****         _idle_callback_table.tx();
  50              		.loc 1 259 0
  51 0014 014B     		ldr	r3, .L5
  52 0016 1B68     		ldr	r3, [r3]
  53 0018 9847     		blx	r3
  54              	.LVL1:
  55              	.L1:
  56 001a 08BD     		pop	{r3, pc}
  57              	.L6:
  58              		.align	2
  59              	.L5:
  60 001c 00000000 		.word	.LANCHOR0
  61              		.cfi_endproc
  62              	.LFE69:
  63              		.size	cm_idle_isr, .-cm_idle_isr
  64              		.section	.text.cm_collision_isr,"ax",%progbits
  65              		.align	2
  66              		.global	cm_collision_isr
  67              		.thumb
  68              		.thumb_func
  69              		.type	cm_collision_isr, %function
  70              	cm_collision_isr:
  71              	.LFB70:
 260:ChannelMonitor.c ****     }
 261:ChannelMonitor.c **** }
 262:ChannelMonitor.c **** 
 263:ChannelMonitor.c **** /**
 264:ChannelMonitor.c ****  * Collision ISR passes interrupt to all register callbacks
 265:ChannelMonitor.c ****  */
 266:ChannelMonitor.c **** CY_ISR(cm_collision_isr){
  72              		.loc 1 266 0
  73              		.cfi_startproc
  74              		@ args = 0, pretend = 0, frame = 0
  75              		@ frame_needed = 0, uses_anonymous_args = 0
  76 0000 08B5     		push	{r3, lr}
ARM GAS  C:\Users\HENRIC~1\AppData\Local\Temp\ccrLF8Oj.s 			page 7


  77              		.cfi_def_cfa_offset 8
  78              		.cfi_offset 3, -8
  79              		.cfi_offset 14, -4
 267:ChannelMonitor.c ****     if(_collision_callback_table.rx != NULL){
  80              		.loc 1 267 0
  81 0002 064B     		ldr	r3, .L11
  82 0004 DB68     		ldr	r3, [r3, #12]
  83 0006 13B1     		cbz	r3, .L8
 268:ChannelMonitor.c ****         _collision_callback_table.rx();
  84              		.loc 1 268 0
  85 0008 044B     		ldr	r3, .L11
  86 000a DB68     		ldr	r3, [r3, #12]
  87 000c 9847     		blx	r3
  88              	.LVL2:
  89              	.L8:
 269:ChannelMonitor.c ****     }
 270:ChannelMonitor.c ****     if(_collision_callback_table.tx != NULL){
  90              		.loc 1 270 0
  91 000e 034B     		ldr	r3, .L11
  92 0010 9B68     		ldr	r3, [r3, #8]
  93 0012 13B1     		cbz	r3, .L7
 271:ChannelMonitor.c ****         _collision_callback_table.tx();
  94              		.loc 1 271 0
  95 0014 014B     		ldr	r3, .L11
  96 0016 9B68     		ldr	r3, [r3, #8]
  97 0018 9847     		blx	r3
  98              	.LVL3:
  99              	.L7:
 100 001a 08BD     		pop	{r3, pc}
 101              	.L12:
 102              		.align	2
 103              	.L11:
 104 001c 00000000 		.word	.LANCHOR0
 105              		.cfi_endproc
 106              	.LFE70:
 107              		.size	cm_collision_isr, .-cm_collision_isr
 108              		.section	.text.cm_rx_isr_callback,"ax",%progbits
 109              		.align	2
 110              		.global	cm_rx_isr_callback
 111              		.thumb
 112              		.thumb_func
 113              		.type	cm_rx_isr_callback, %function
 114              	cm_rx_isr_callback:
 115              	.LFB67:
 187:ChannelMonitor.c ****     CM_Timer_Trigger_Write(1);
 116              		.loc 1 187 0
 117              		.cfi_startproc
 118              		@ args = 0, pretend = 0, frame = 0
 119              		@ frame_needed = 0, uses_anonymous_args = 0
 120              	.LVL4:
 121 0000 10B5     		push	{r4, lr}
 122              		.cfi_def_cfa_offset 8
 123              		.cfi_offset 4, -8
 124              		.cfi_offset 14, -4
 125 0002 0446     		mov	r4, r0
 188:ChannelMonitor.c ****     if(edge == CSMA_CD_EDGE_RISING){ //rising edge  
 126              		.loc 1 188 0
ARM GAS  C:\Users\HENRIC~1\AppData\Local\Temp\ccrLF8Oj.s 			page 8


 127 0004 0120     		movs	r0, #1
 128              	.LVL5:
 129 0006 FFF7FEFF 		bl	CM_Timer_Trigger_Write
 130              	.LVL6:
 189:ChannelMonitor.c ****         if(_cm_sm.state == CM_STATE_IDLE || _cm_sm.state == CM_STATE_BUSY 
 131              		.loc 1 189 0
 132 000a B4B9     		cbnz	r4, .L14
 190:ChannelMonitor.c ****                 ||_cm_sm.state == CM_STATE_INIT){
 133              		.loc 1 190 0
 134 000c 1E4B     		ldr	r3, .L19
 135 000e 1B7C     		ldrb	r3, [r3, #16]	@ zero_extendqisi2
 136 0010 DBB2     		uxtb	r3, r3
 137 0012 012B     		cmp	r3, #1
 138 0014 09D0     		beq	.L15
 190:ChannelMonitor.c ****                 ||_cm_sm.state == CM_STATE_INIT){
 139              		.loc 1 190 0 is_stmt 0 discriminator 1
 140 0016 1C4B     		ldr	r3, .L19
 141 0018 1B7C     		ldrb	r3, [r3, #16]	@ zero_extendqisi2
 142 001a DBB2     		uxtb	r3, r3
 143 001c 022B     		cmp	r3, #2
 144 001e 04D0     		beq	.L15
 191:ChannelMonitor.c ****             _cm_sm.state = CM_STATE_BUSY;
 145              		.loc 1 191 0 is_stmt 1
 146 0020 194B     		ldr	r3, .L19
 147 0022 1B7C     		ldrb	r3, [r3, #16]	@ zero_extendqisi2
 148 0024 13F0FF0F 		tst	r3, #255
 149 0028 1DD1     		bne	.L16
 150              	.L15:
 192:ChannelMonitor.c ****             
 151              		.loc 1 192 0
 152 002a 0222     		movs	r2, #2
 153 002c 164B     		ldr	r3, .L19
 154 002e 1A74     		strb	r2, [r3, #16]
 194:ChannelMonitor.c ****         }
 155              		.loc 1 194 0
 156 0030 40F20D20 		movw	r0, #525
 157 0034 FFF7FEFF 		bl	CM_Timer_WritePeriod
 158              	.LVL7:
 159 0038 15E0     		b	.L16
 160              	.L14:
 197:ChannelMonitor.c ****                 || _cm_sm.state == CM_STATE_INIT){
 161              		.loc 1 197 0
 162 003a 134B     		ldr	r3, .L19
 163 003c 1B7C     		ldrb	r3, [r3, #16]	@ zero_extendqisi2
 164 003e DBB2     		uxtb	r3, r3
 165 0040 022B     		cmp	r3, #2
 166 0042 09D0     		beq	.L17
 197:ChannelMonitor.c ****                 || _cm_sm.state == CM_STATE_INIT){
 167              		.loc 1 197 0 is_stmt 0 discriminator 1
 168 0044 104B     		ldr	r3, .L19
 169 0046 1B7C     		ldrb	r3, [r3, #16]	@ zero_extendqisi2
 170 0048 DBB2     		uxtb	r3, r3
 171 004a 032B     		cmp	r3, #3
 172 004c 04D0     		beq	.L17
 198:ChannelMonitor.c ****             _cm_sm.state = CM_STATE_BUSY;
 173              		.loc 1 198 0 is_stmt 1
 174 004e 0E4B     		ldr	r3, .L19
ARM GAS  C:\Users\HENRIC~1\AppData\Local\Temp\ccrLF8Oj.s 			page 9


 175 0050 1B7C     		ldrb	r3, [r3, #16]	@ zero_extendqisi2
 176 0052 13F0FF0F 		tst	r3, #255
 177 0056 06D1     		bne	.L16
 178              	.L17:
 199:ChannelMonitor.c ****                     
 179              		.loc 1 199 0
 180 0058 0222     		movs	r2, #2
 181 005a 0B4B     		ldr	r3, .L19
 182 005c 1A74     		strb	r2, [r3, #16]
 201:ChannelMonitor.c ****         }
 183              		.loc 1 201 0
 184 005e 41F6D670 		movw	r0, #8150
 185 0062 FFF7FEFF 		bl	CM_Timer_WritePeriod
 186              	.LVL8:
 187              	.L16:
 205:ChannelMonitor.c ****     CM_State_Reg_Write(_cm_sm.state);
 188              		.loc 1 205 0
 189 0066 084B     		ldr	r3, .L19
 190 0068 5C74     		strb	r4, [r3, #17]
 206:ChannelMonitor.c ****     CM_Timer_ReadStatusRegister(); 
 191              		.loc 1 206 0
 192 006a 187C     		ldrb	r0, [r3, #16]	@ zero_extendqisi2
 193 006c FFF7FEFF 		bl	CM_State_Reg_Write
 194              	.LVL9:
 207:ChannelMonitor.c ****     CM_Timer_int_ClearPending();
 195              		.loc 1 207 0
 196 0070 FFF7FEFF 		bl	CM_Timer_ReadStatusRegister
 197              	.LVL10:
 208:ChannelMonitor.c ****     
 198              		.loc 1 208 0
 199 0074 FFF7FEFF 		bl	CM_Timer_int_ClearPending
 200              	.LVL11:
 210:ChannelMonitor.c ****     CM_Timer_Trigger_Write(0);
 201              		.loc 1 210 0
 202 0078 0120     		movs	r0, #1
 203 007a FFF7FEFF 		bl	CyDelayUs
 204              	.LVL12:
 211:ChannelMonitor.c **** }
 205              		.loc 1 211 0
 206 007e 0020     		movs	r0, #0
 207 0080 FFF7FEFF 		bl	CM_Timer_Trigger_Write
 208              	.LVL13:
 209 0084 10BD     		pop	{r4, pc}
 210              	.L20:
 211 0086 00BF     		.align	2
 212              	.L19:
 213 0088 00000000 		.word	.LANCHOR0
 214              		.cfi_endproc
 215              	.LFE67:
 216              		.size	cm_rx_isr_callback, .-cm_rx_isr_callback
 217              		.section	.text.cm_timer_isr,"ax",%progbits
 218              		.align	2
 219              		.global	cm_timer_isr
 220              		.thumb
 221              		.thumb_func
 222              		.type	cm_timer_isr, %function
 223              	cm_timer_isr:
ARM GAS  C:\Users\HENRIC~1\AppData\Local\Temp\ccrLF8Oj.s 			page 10


 224              	.LFB68:
 218:ChannelMonitor.c ****     static volatile uint8_t level;
 225              		.loc 1 218 0
 226              		.cfi_startproc
 227              		@ args = 0, pretend = 0, frame = 0
 228              		@ frame_needed = 0, uses_anonymous_args = 0
 229 0000 08B5     		push	{r3, lr}
 230              		.cfi_def_cfa_offset 8
 231              		.cfi_offset 3, -8
 232              		.cfi_offset 14, -4
 220:ChannelMonitor.c ****     
 233              		.loc 1 220 0
 234 0002 FFF7FEFF 		bl	CSMA_RX_Read
 235              	.LVL14:
 236 0006 2B4B     		ldr	r3, .L37
 237 0008 9874     		strb	r0, [r3, #18]
 223:ChannelMonitor.c ****         case CM_STATE_INIT:
 238              		.loc 1 223 0
 239 000a 1B7C     		ldrb	r3, [r3, #16]	@ zero_extendqisi2
 240 000c DBB2     		uxtb	r3, r3
 241 000e 032B     		cmp	r3, #3
 242 0010 46D8     		bhi	.L22
 243 0012 DFE803F0 		tbb	[pc, r3]
 244              	.L24:
 245 0016 02       		.byte	(.L23-.L24)/2
 246 0017 25       		.byte	(.L25-.L24)/2
 247 0018 30       		.byte	(.L26-.L24)/2
 248 0019 3B       		.byte	(.L27-.L24)/2
 249              		.p2align 1
 250              	.L23:
 225:ChannelMonitor.c ****             _cm_sm.prev_edge = (level) ? CSMA_CD_EDGE_RISING : CSMA_CD_EDGE_FALLING; 
 251              		.loc 1 225 0
 252 001a 264B     		ldr	r3, .L37
 253 001c 9B7C     		ldrb	r3, [r3, #18]	@ zero_extendqisi2
 254 001e 13F0FF0F 		tst	r3, #255
 255 0022 01D0     		beq	.L32
 256 0024 0222     		movs	r2, #2
 257 0026 00E0     		b	.L28
 258              	.L32:
 259 0028 0122     		movs	r2, #1
 260              	.L28:
 225:ChannelMonitor.c ****             _cm_sm.prev_edge = (level) ? CSMA_CD_EDGE_RISING : CSMA_CD_EDGE_FALLING; 
 261              		.loc 1 225 0 is_stmt 0 discriminator 4
 262 002a 224B     		ldr	r3, .L37
 263 002c 1A74     		strb	r2, [r3, #16]
 226:ChannelMonitor.c ****             if(_cm_sm.state == CM_STATE_BUSY){
 264              		.loc 1 226 0 is_stmt 1 discriminator 4
 265 002e 9A7C     		ldrb	r2, [r3, #18]	@ zero_extendqisi2
 266 0030 12F0FF0F 		tst	r2, #255
 267 0034 0CBF     		ite	eq
 268 0036 0122     		moveq	r2, #1
 269 0038 0022     		movne	r2, #0
 270 003a 5A74     		strb	r2, [r3, #17]
 227:ChannelMonitor.c ****                 CM_Timer_WritePeriod(CM_TIMER_SHORT_PERIOD);
 271              		.loc 1 227 0 discriminator 4
 272 003c 1B7C     		ldrb	r3, [r3, #16]	@ zero_extendqisi2
 273 003e DBB2     		uxtb	r3, r3
ARM GAS  C:\Users\HENRIC~1\AppData\Local\Temp\ccrLF8Oj.s 			page 11


 274 0040 022B     		cmp	r3, #2
 275 0042 2DD1     		bne	.L22
 228:ChannelMonitor.c ****                 CM_Timer_Trigger_Write(1);
 276              		.loc 1 228 0
 277 0044 40F20D20 		movw	r0, #525
 278 0048 FFF7FEFF 		bl	CM_Timer_WritePeriod
 279              	.LVL15:
 229:ChannelMonitor.c ****                 CyDelayUs(1);
 280              		.loc 1 229 0
 281 004c 0120     		movs	r0, #1
 282 004e FFF7FEFF 		bl	CM_Timer_Trigger_Write
 283              	.LVL16:
 230:ChannelMonitor.c ****                 CM_Timer_Trigger_Write(0);
 284              		.loc 1 230 0
 285 0052 0120     		movs	r0, #1
 286 0054 FFF7FEFF 		bl	CyDelayUs
 287              	.LVL17:
 231:ChannelMonitor.c ****             }
 288              		.loc 1 231 0
 289 0058 0020     		movs	r0, #0
 290 005a FFF7FEFF 		bl	CM_Timer_Trigger_Write
 291              	.LVL18:
 292 005e 1FE0     		b	.L22
 293              	.L25:
 235:ChannelMonitor.c ****             break;
 294              		.loc 1 235 0
 295 0060 144B     		ldr	r3, .L37
 296 0062 9B7C     		ldrb	r3, [r3, #18]	@ zero_extendqisi2
 297 0064 13F0FF0F 		tst	r3, #255
 298 0068 01D0     		beq	.L33
 299 006a 0222     		movs	r2, #2
 300 006c 00E0     		b	.L29
 301              	.L33:
 302 006e 0122     		movs	r2, #1
 303              	.L29:
 235:ChannelMonitor.c ****             break;
 304              		.loc 1 235 0 is_stmt 0 discriminator 4
 305 0070 104B     		ldr	r3, .L37
 306 0072 1A74     		strb	r2, [r3, #16]
 236:ChannelMonitor.c ****         case CM_STATE_BUSY:
 307              		.loc 1 236 0 is_stmt 1 discriminator 4
 308 0074 14E0     		b	.L22
 309              	.L26:
 238:ChannelMonitor.c ****             break;
 310              		.loc 1 238 0
 311 0076 0F4B     		ldr	r3, .L37
 312 0078 9B7C     		ldrb	r3, [r3, #18]	@ zero_extendqisi2
 313 007a 13F0FF0F 		tst	r3, #255
 314 007e 01D0     		beq	.L34
 315 0080 0322     		movs	r2, #3
 316 0082 00E0     		b	.L30
 317              	.L34:
 318 0084 0122     		movs	r2, #1
 319              	.L30:
 238:ChannelMonitor.c ****             break;
 320              		.loc 1 238 0 is_stmt 0 discriminator 4
 321 0086 0B4B     		ldr	r3, .L37
ARM GAS  C:\Users\HENRIC~1\AppData\Local\Temp\ccrLF8Oj.s 			page 12


 322 0088 1A74     		strb	r2, [r3, #16]
 239:ChannelMonitor.c ****         case CM_STATE_COLLISION:
 323              		.loc 1 239 0 is_stmt 1 discriminator 4
 324 008a 09E0     		b	.L22
 325              	.L27:
 241:ChannelMonitor.c ****             break;
 326              		.loc 1 241 0
 327 008c 094B     		ldr	r3, .L37
 328 008e 9B7C     		ldrb	r3, [r3, #18]	@ zero_extendqisi2
 329 0090 13F0FF0F 		tst	r3, #255
 330 0094 01D0     		beq	.L35
 331 0096 0322     		movs	r2, #3
 332 0098 00E0     		b	.L31
 333              	.L35:
 334 009a 0222     		movs	r2, #2
 335              	.L31:
 241:ChannelMonitor.c ****             break;
 336              		.loc 1 241 0 is_stmt 0 discriminator 4
 337 009c 054B     		ldr	r3, .L37
 338 009e 1A74     		strb	r2, [r3, #16]
 339              	.L22:
 244:ChannelMonitor.c ****     
 340              		.loc 1 244 0 is_stmt 1
 341 00a0 044B     		ldr	r3, .L37
 342 00a2 187C     		ldrb	r0, [r3, #16]	@ zero_extendqisi2
 343 00a4 FFF7FEFF 		bl	CM_State_Reg_Write
 344              	.LVL19:
 247:ChannelMonitor.c ****     CM_Timer_int_ClearPending();
 345              		.loc 1 247 0
 346 00a8 FFF7FEFF 		bl	CM_Timer_ReadStatusRegister
 347              	.LVL20:
 248:ChannelMonitor.c **** }
 348              		.loc 1 248 0
 349 00ac FFF7FEFF 		bl	CM_Timer_int_ClearPending
 350              	.LVL21:
 351 00b0 08BD     		pop	{r3, pc}
 352              	.L38:
 353 00b2 00BF     		.align	2
 354              	.L37:
 355 00b4 00000000 		.word	.LANCHOR0
 356              		.cfi_endproc
 357              	.LFE68:
 358              		.size	cm_timer_isr, .-cm_timer_isr
 359              		.section	.text.cm_init,"ax",%progbits
 360              		.align	2
 361              		.global	cm_init
 362              		.thumb
 363              		.thumb_func
 364              		.type	cm_init, %function
 365              	cm_init:
 366              	.LFB63:
 113:ChannelMonitor.c ****     _cm_sm.state = CM_STATE_INIT;
 367              		.loc 1 113 0
 368              		.cfi_startproc
 369              		@ args = 0, pretend = 0, frame = 0
 370              		@ frame_needed = 0, uses_anonymous_args = 0
 371 0000 38B5     		push	{r3, r4, r5, lr}
ARM GAS  C:\Users\HENRIC~1\AppData\Local\Temp\ccrLF8Oj.s 			page 13


 372              		.cfi_def_cfa_offset 16
 373              		.cfi_offset 3, -16
 374              		.cfi_offset 4, -12
 375              		.cfi_offset 5, -8
 376              		.cfi_offset 14, -4
 114:ChannelMonitor.c ****     _cm_sm.prev_edge = CSMA_CD_EDGE_UNKNOWN;
 377              		.loc 1 114 0
 378 0002 164D     		ldr	r5, .L41
 379 0004 0024     		movs	r4, #0
 380 0006 2C74     		strb	r4, [r5, #16]
 115:ChannelMonitor.c ****     CM_State_Reg_Write(_cm_sm.state);
 381              		.loc 1 115 0
 382 0008 0223     		movs	r3, #2
 383 000a 6B74     		strb	r3, [r5, #17]
 116:ChannelMonitor.c ****     
 384              		.loc 1 116 0
 385 000c 287C     		ldrb	r0, [r5, #16]	@ zero_extendqisi2
 386 000e FFF7FEFF 		bl	CM_State_Reg_Write
 387              	.LVL22:
 118:ChannelMonitor.c ****     _collision_callback_table.tx = NULL;
 388              		.loc 1 118 0
 389 0012 EC60     		str	r4, [r5, #12]
 119:ChannelMonitor.c ****     
 390              		.loc 1 119 0
 391 0014 AC60     		str	r4, [r5, #8]
 121:ChannelMonitor.c ****     _idle_callback_table.tx = NULL;
 392              		.loc 1 121 0
 393 0016 6C60     		str	r4, [r5, #4]
 122:ChannelMonitor.c **** 
 394              		.loc 1 122 0
 395 0018 2C60     		str	r4, [r5]
 124:ChannelMonitor.c ****     
 396              		.loc 1 124 0
 397 001a 6420     		movs	r0, #100
 398 001c FFF7FEFF 		bl	CyDelay
 399              	.LVL23:
 126:ChannelMonitor.c **** 
 400              		.loc 1 126 0
 401 0020 0F49     		ldr	r1, .L41+4
 402 0022 2046     		mov	r0, r4
 403 0024 FFF7FEFF 		bl	csma_bus_assign_callback
 404              	.LVL24:
 128:ChannelMonitor.c ****     CM_Timer_WritePeriod(CM_TIMER_LONG_PERIOD);
 405              		.loc 1 128 0
 406 0028 FFF7FEFF 		bl	CM_Timer_Start
 407              	.LVL25:
 129:ChannelMonitor.c ****     CM_Timer_int_StartEx(cm_timer_isr);
 408              		.loc 1 129 0
 409 002c 41F6D670 		movw	r0, #8150
 410 0030 FFF7FEFF 		bl	CM_Timer_WritePeriod
 411              	.LVL26:
 130:ChannelMonitor.c ****     CM_Timer_Trigger_Write(1);
 412              		.loc 1 130 0
 413 0034 0B48     		ldr	r0, .L41+8
 414 0036 FFF7FEFF 		bl	CM_Timer_int_StartEx
 415              	.LVL27:
 131:ChannelMonitor.c ****     CyDelayUs(1);
ARM GAS  C:\Users\HENRIC~1\AppData\Local\Temp\ccrLF8Oj.s 			page 14


 416              		.loc 1 131 0
 417 003a 0120     		movs	r0, #1
 418 003c FFF7FEFF 		bl	CM_Timer_Trigger_Write
 419              	.LVL28:
 132:ChannelMonitor.c ****     CM_Timer_Trigger_Write(0);
 420              		.loc 1 132 0
 421 0040 0120     		movs	r0, #1
 422 0042 FFF7FEFF 		bl	CyDelayUs
 423              	.LVL29:
 133:ChannelMonitor.c ****     
 424              		.loc 1 133 0
 425 0046 2046     		mov	r0, r4
 426 0048 FFF7FEFF 		bl	CM_Timer_Trigger_Write
 427              	.LVL30:
 135:ChannelMonitor.c ****     CM_COLLISION_int_StartEx(cm_collision_isr);
 428              		.loc 1 135 0
 429 004c 0648     		ldr	r0, .L41+12
 430 004e FFF7FEFF 		bl	CM_IDLE_int_StartEx
 431              	.LVL31:
 136:ChannelMonitor.c **** }
 432              		.loc 1 136 0
 433 0052 0648     		ldr	r0, .L41+16
 434 0054 FFF7FEFF 		bl	CM_COLLISION_int_StartEx
 435              	.LVL32:
 436 0058 38BD     		pop	{r3, r4, r5, pc}
 437              	.L42:
 438 005a 00BF     		.align	2
 439              	.L41:
 440 005c 00000000 		.word	.LANCHOR0
 441 0060 00000000 		.word	cm_rx_isr_callback
 442 0064 00000000 		.word	cm_timer_isr
 443 0068 00000000 		.word	cm_idle_isr
 444 006c 00000000 		.word	cm_collision_isr
 445              		.cfi_endproc
 446              	.LFE63:
 447              		.size	cm_init, .-cm_init
 448              		.section	.text.cm_get_bus_state,"ax",%progbits
 449              		.align	2
 450              		.global	cm_get_bus_state
 451              		.thumb
 452              		.thumb_func
 453              		.type	cm_get_bus_state, %function
 454              	cm_get_bus_state:
 455              	.LFB64:
 142:ChannelMonitor.c ****     return _cm_sm.state;   
 456              		.loc 1 142 0
 457              		.cfi_startproc
 458              		@ args = 0, pretend = 0, frame = 0
 459              		@ frame_needed = 0, uses_anonymous_args = 0
 460              		@ link register save eliminated.
 143:ChannelMonitor.c **** }
 461              		.loc 1 143 0
 462 0000 014B     		ldr	r3, .L44
 463 0002 187C     		ldrb	r0, [r3, #16]	@ zero_extendqisi2
 144:ChannelMonitor.c **** 
 464              		.loc 1 144 0
 465 0004 7047     		bx	lr
ARM GAS  C:\Users\HENRIC~1\AppData\Local\Temp\ccrLF8Oj.s 			page 15


 466              	.L45:
 467 0006 00BF     		.align	2
 468              	.L44:
 469 0008 00000000 		.word	.LANCHOR0
 470              		.cfi_endproc
 471              	.LFE64:
 472              		.size	cm_get_bus_state, .-cm_get_bus_state
 473              		.section	.text.cm_assign_collision_callback,"ax",%progbits
 474              		.align	2
 475              		.global	cm_assign_collision_callback
 476              		.thumb
 477              		.thumb_func
 478              		.type	cm_assign_collision_callback, %function
 479              	cm_assign_collision_callback:
 480              	.LFB65:
 151:ChannelMonitor.c ****     switch(name){
 481              		.loc 1 151 0
 482              		.cfi_startproc
 483              		@ args = 0, pretend = 0, frame = 0
 484              		@ frame_needed = 0, uses_anonymous_args = 0
 485              		@ link register save eliminated.
 486              	.LVL33:
 152:ChannelMonitor.c ****         case CM_COLLISION_RX_CALLBACK:
 487              		.loc 1 152 0
 488 0000 20B1     		cbz	r0, .L48
 489 0002 0128     		cmp	r0, #1
 490 0004 04D1     		bne	.L46
 154:ChannelMonitor.c ****             break;
 491              		.loc 1 154 0
 492 0006 034B     		ldr	r3, .L50
 493 0008 D960     		str	r1, [r3, #12]
 155:ChannelMonitor.c ****         case CM_COLLISION_TX_CALLBACK:
 494              		.loc 1 155 0
 495 000a 7047     		bx	lr
 496              	.L48:
 157:ChannelMonitor.c ****             break;
 497              		.loc 1 157 0
 498 000c 014B     		ldr	r3, .L50
 499 000e 9960     		str	r1, [r3, #8]
 500              	.L46:
 501 0010 7047     		bx	lr
 502              	.L51:
 503 0012 00BF     		.align	2
 504              	.L50:
 505 0014 00000000 		.word	.LANCHOR0
 506              		.cfi_endproc
 507              	.LFE65:
 508              		.size	cm_assign_collision_callback, .-cm_assign_collision_callback
 509              		.section	.text.cm_assign_idle_callback,"ax",%progbits
 510              		.align	2
 511              		.global	cm_assign_idle_callback
 512              		.thumb
 513              		.thumb_func
 514              		.type	cm_assign_idle_callback, %function
 515              	cm_assign_idle_callback:
 516              	.LFB66:
 167:ChannelMonitor.c ****     switch(name){
ARM GAS  C:\Users\HENRIC~1\AppData\Local\Temp\ccrLF8Oj.s 			page 16


 517              		.loc 1 167 0
 518              		.cfi_startproc
 519              		@ args = 0, pretend = 0, frame = 0
 520              		@ frame_needed = 0, uses_anonymous_args = 0
 521              		@ link register save eliminated.
 522              	.LVL34:
 168:ChannelMonitor.c ****         case CM_IDLE_RX_CALLBACK:
 523              		.loc 1 168 0
 524 0000 20B1     		cbz	r0, .L54
 525 0002 0128     		cmp	r0, #1
 526 0004 04D1     		bne	.L52
 170:ChannelMonitor.c ****             break;
 527              		.loc 1 170 0
 528 0006 034B     		ldr	r3, .L56
 529 0008 5960     		str	r1, [r3, #4]
 171:ChannelMonitor.c ****         case CM_IDLE_TX_CALLBACK:
 530              		.loc 1 171 0
 531 000a 7047     		bx	lr
 532              	.L54:
 173:ChannelMonitor.c ****             break;
 533              		.loc 1 173 0
 534 000c 014B     		ldr	r3, .L56
 535 000e 1960     		str	r1, [r3]
 536              	.L52:
 537 0010 7047     		bx	lr
 538              	.L57:
 539 0012 00BF     		.align	2
 540              	.L56:
 541 0014 00000000 		.word	.LANCHOR0
 542              		.cfi_endproc
 543              	.LFE66:
 544              		.size	cm_assign_idle_callback, .-cm_assign_idle_callback
 545              		.bss
 546              		.align	2
 547              		.set	.LANCHOR0,. + 0
 548              		.type	_idle_callback_table, %object
 549              		.size	_idle_callback_table, 8
 550              	_idle_callback_table:
 551 0000 00000000 		.space	8
 551      00000000 
 552              		.type	_collision_callback_table, %object
 553              		.size	_collision_callback_table, 8
 554              	_collision_callback_table:
 555 0008 00000000 		.space	8
 555      00000000 
 556              		.type	_cm_sm, %object
 557              		.size	_cm_sm, 2
 558              	_cm_sm:
 559 0010 0000     		.space	2
 560              		.type	level.6689, %object
 561              		.size	level.6689, 1
 562              	level.6689:
 563 0012 00       		.space	1
 564              		.text
 565              	.Letext0:
 566              		.file 2 "ChannelMonitor.h"
 567              		.file 3 "c:\\program files (x86)\\cypress\\psoc creator\\4.1\\psoc creator\\import\\gnu\\arm\\5.4.
ARM GAS  C:\Users\HENRIC~1\AppData\Local\Temp\ccrLF8Oj.s 			page 17


 568              		.file 4 "c:\\program files (x86)\\cypress\\psoc creator\\4.1\\psoc creator\\import\\gnu\\arm\\5.4.
 569              		.file 5 "CSMA_CD_Bus.h"
 570              		.file 6 "Generated_Source\\PSoC5/CM_Timer_Trigger.h"
 571              		.file 7 "Generated_Source\\PSoC5/CM_Timer.h"
 572              		.file 8 "Generated_Source\\PSoC5/CM_State_Reg.h"
 573              		.file 9 "Generated_Source\\PSoC5/CM_Timer_int.h"
 574              		.file 10 "Generated_Source\\PSoC5/CyLib.h"
 575              		.file 11 "Generated_Source\\PSoC5/CSMA_RX.h"
 576              		.file 12 "Generated_Source\\PSoC5/CM_IDLE_int.h"
 577              		.file 13 "Generated_Source\\PSoC5/CM_COLLISION_int.h"
 578              		.file 14 "Generated_Source\\PSoC5/core_cm3.h"