ARM GAS  C:\Users\HENRIC~1\AppData\Local\Temp\cc95wKhe.s 			page 1


   1              		.syntax unified
   2              		.cpu cortex-m3
   3              		.fpu softvfp
   4              		.eabi_attribute 20, 1
   5              		.eabi_attribute 21, 1
   6              		.eabi_attribute 23, 3
   7              		.eabi_attribute 24, 1
   8              		.eabi_attribute 25, 1
   9              		.eabi_attribute 26, 1
  10              		.eabi_attribute 30, 1
  11              		.eabi_attribute 34, 1
  12              		.eabi_attribute 18, 4
  13              		.thumb
  14              		.syntax unified
  15              		.file	"CSMA_CD_Bus.c"
  16              		.text
  17              	.Ltext0:
  18              		.cfi_sections	.debug_frame
  19              		.section	.text.csma_cd_rx_isr_rising,"ax",%progbits
  20              		.align	2
  21              		.global	csma_cd_rx_isr_rising
  22              		.thumb
  23              		.thumb_func
  24              		.type	csma_cd_rx_isr_rising, %function
  25              	csma_cd_rx_isr_rising:
  26              	.LFB65:
  27              		.file 1 "CSMA_CD_Bus.c"
   1:CSMA_CD_Bus.c **** /**
   2:CSMA_CD_Bus.c ****  * CSMA_CD_Bus
   3:CSMA_CD_Bus.c ****  * @author Curt Henrichs
   4:CSMA_CD_Bus.c ****  * @date 12-6-2017
   5:CSMA_CD_Bus.c ****  *
   6:CSMA_CD_Bus.c ****  * CSMA/CD Bus abstracts the physical hardware pins and interrupts. The
   7:CSMA_CD_Bus.c ****  * interrupt is attached to a callback table that higher physical layer
   8:CSMA_CD_Bus.c ****  * modules can interract with. 
   9:CSMA_CD_Bus.c ****  */
  10:CSMA_CD_Bus.c **** 
  11:CSMA_CD_Bus.c **** //=============================================================================
  12:CSMA_CD_Bus.c **** //                                 Libraries
  13:CSMA_CD_Bus.c **** //=============================================================================
  14:CSMA_CD_Bus.c **** 
  15:CSMA_CD_Bus.c **** #include "CSMA_CD_Bus.h"
  16:CSMA_CD_Bus.c **** 
  17:CSMA_CD_Bus.c **** //=============================================================================
  18:CSMA_CD_Bus.c **** //                          Data Structure Declaration
  19:CSMA_CD_Bus.c **** //=============================================================================
  20:CSMA_CD_Bus.c **** 
  21:CSMA_CD_Bus.c **** /**
  22:CSMA_CD_Bus.c ****  * Callback table maps types defined in header to function pointers for ISR
  23:CSMA_CD_Bus.c ****  */
  24:CSMA_CD_Bus.c **** typedef struct CSMA_CD_Bus_Callback_Table {
  25:CSMA_CD_Bus.c ****     void (*ch_monitor)(CSMA_CD_Edge_e);    //! Callback for channel monitor
  26:CSMA_CD_Bus.c ****     void (*receive)(CSMA_CD_Edge_e);       //! Callback for data collection
  27:CSMA_CD_Bus.c **** } CSMA_CD_Bus_Callback_Table_t;
  28:CSMA_CD_Bus.c **** 
  29:CSMA_CD_Bus.c **** //=============================================================================
  30:CSMA_CD_Bus.c **** //                             Private Attributes
ARM GAS  C:\Users\HENRIC~1\AppData\Local\Temp\cc95wKhe.s 			page 2


  31:CSMA_CD_Bus.c **** //=============================================================================
  32:CSMA_CD_Bus.c **** 
  33:CSMA_CD_Bus.c **** static volatile CSMA_CD_Bus_Callback_Table_t _callback_table; //! ISR table
  34:CSMA_CD_Bus.c **** 
  35:CSMA_CD_Bus.c **** //=============================================================================
  36:CSMA_CD_Bus.c **** //                           Private ISR Prototypes
  37:CSMA_CD_Bus.c **** //=============================================================================
  38:CSMA_CD_Bus.c **** 
  39:CSMA_CD_Bus.c **** /**
  40:CSMA_CD_Bus.c ****  * ISR for receive channel level change. Data line for the networking protocol
  41:CSMA_CD_Bus.c ****  */
  42:CSMA_CD_Bus.c **** CY_ISR_PROTO(csma_cd_rx_isr_rising);
  43:CSMA_CD_Bus.c **** /**
  44:CSMA_CD_Bus.c ****  * ISR for receive channel level change. Data line for the networking protocol
  45:CSMA_CD_Bus.c ****  */
  46:CSMA_CD_Bus.c **** CY_ISR_PROTO(csma_cd_rx_isr_falling);
  47:CSMA_CD_Bus.c **** 
  48:CSMA_CD_Bus.c **** //=============================================================================
  49:CSMA_CD_Bus.c **** //                          Private Function Prototypes
  50:CSMA_CD_Bus.c **** //=============================================================================
  51:CSMA_CD_Bus.c **** 
  52:CSMA_CD_Bus.c **** /**
  53:CSMA_CD_Bus.c ****  * Runs all valid entires in table according to their priority
  54:CSMA_CD_Bus.c ****  * @param edge is edge ISR triggering table
  55:CSMA_CD_Bus.c ****  */
  56:CSMA_CD_Bus.c **** static inline void csma_bus_run_table(CSMA_CD_Edge_e edge);
  57:CSMA_CD_Bus.c **** 
  58:CSMA_CD_Bus.c **** //=============================================================================
  59:CSMA_CD_Bus.c **** //                          Public Function Implementation
  60:CSMA_CD_Bus.c **** //=============================================================================
  61:CSMA_CD_Bus.c **** 
  62:CSMA_CD_Bus.c **** /**
  63:CSMA_CD_Bus.c ****  * Initialization function for physical bus 
  64:CSMA_CD_Bus.c ****  */
  65:CSMA_CD_Bus.c **** void csma_bus_init(void){
  66:CSMA_CD_Bus.c ****     _callback_table.ch_monitor = NULL;
  67:CSMA_CD_Bus.c ****     _callback_table.receive = NULL;
  68:CSMA_CD_Bus.c ****     
  69:CSMA_CD_Bus.c ****     CSMA_RX_int_rising_StartEx(csma_cd_rx_isr_rising);
  70:CSMA_CD_Bus.c ****     CSMA_RX_int_falling_StartEx(csma_cd_rx_isr_falling);
  71:CSMA_CD_Bus.c **** }
  72:CSMA_CD_Bus.c **** 
  73:CSMA_CD_Bus.c **** /**
  74:CSMA_CD_Bus.c ****  * Assign a callback function to interrupt
  75:CSMA_CD_Bus.c ****  * @param name is table entry to place new callback
  76:CSMA_CD_Bus.c ****  * @param fnt is function pointer to callback, NULL if entry is to be cleared
  77:CSMA_CD_Bus.c ****  */
  78:CSMA_CD_Bus.c **** void csma_bus_assign_callback(CSMA_CD_Callback_e name, void (*fnt)(CSMA_CD_Edge_e)){
  79:CSMA_CD_Bus.c ****     switch(name){
  80:CSMA_CD_Bus.c ****         case CSMA_CD_BUS_CH_MONITOR_CALLBACK:
  81:CSMA_CD_Bus.c ****             _callback_table.ch_monitor = fnt;
  82:CSMA_CD_Bus.c ****             break;
  83:CSMA_CD_Bus.c ****         case CSMA_CD_BUS_RECEIVE_CALLBACK:
  84:CSMA_CD_Bus.c ****             _callback_table.receive = fnt;
  85:CSMA_CD_Bus.c ****             break;
  86:CSMA_CD_Bus.c ****     }  
  87:CSMA_CD_Bus.c **** }
ARM GAS  C:\Users\HENRIC~1\AppData\Local\Temp\cc95wKhe.s 			page 3


  88:CSMA_CD_Bus.c **** 
  89:CSMA_CD_Bus.c **** //=============================================================================
  90:CSMA_CD_Bus.c **** //                           Private ISR Implementation
  91:CSMA_CD_Bus.c **** //=============================================================================
  92:CSMA_CD_Bus.c **** 
  93:CSMA_CD_Bus.c **** /**
  94:CSMA_CD_Bus.c ****  * ISR for receive channel level change. Data line for the networking protocol
  95:CSMA_CD_Bus.c ****  */
  96:CSMA_CD_Bus.c **** CY_ISR(csma_cd_rx_isr_rising){
  28              		.loc 1 96 0
  29              		.cfi_startproc
  30              		@ args = 0, pretend = 0, frame = 0
  31              		@ frame_needed = 0, uses_anonymous_args = 0
  32 0000 08B5     		push	{r3, lr}
  33              		.cfi_def_cfa_offset 8
  34              		.cfi_offset 3, -8
  35              		.cfi_offset 14, -4
  36              	.LVL0:
  37              	.LBB6:
  38              	.LBB7:
  97:CSMA_CD_Bus.c ****     csma_bus_run_table(CSMA_CD_EDGE_RISING);
  98:CSMA_CD_Bus.c ****     CSMA_RX_int_rising_ClearPending();
  99:CSMA_CD_Bus.c **** }
 100:CSMA_CD_Bus.c **** 
 101:CSMA_CD_Bus.c **** /**
 102:CSMA_CD_Bus.c ****  * ISR for receive channel level change. Data line for the networking protocol
 103:CSMA_CD_Bus.c ****  */
 104:CSMA_CD_Bus.c **** CY_ISR_PROTO(csma_cd_rx_isr_falling){
 105:CSMA_CD_Bus.c ****     csma_bus_run_table(CSMA_CD_EDGE_FALLING);
 106:CSMA_CD_Bus.c ****     CSMA_RX_int_falling_ClearPending();
 107:CSMA_CD_Bus.c **** }
 108:CSMA_CD_Bus.c **** 
 109:CSMA_CD_Bus.c **** /**
 110:CSMA_CD_Bus.c ****  * Runs all valid entires in table according to their priority
 111:CSMA_CD_Bus.c ****  * @param edge is edge ISR triggering table
 112:CSMA_CD_Bus.c ****  */
 113:CSMA_CD_Bus.c **** static inline void csma_bus_run_table(CSMA_CD_Edge_e edge){
 114:CSMA_CD_Bus.c ****     //run each function in structure according to priority
 115:CSMA_CD_Bus.c ****     if(_callback_table.ch_monitor != NULL){
  39              		.loc 1 115 0
  40 0002 084B     		ldr	r3, .L5
  41 0004 1B68     		ldr	r3, [r3]
  42 0006 1BB1     		cbz	r3, .L2
 116:CSMA_CD_Bus.c ****         _callback_table.ch_monitor(edge);
  43              		.loc 1 116 0
  44 0008 064B     		ldr	r3, .L5
  45 000a 1B68     		ldr	r3, [r3]
  46 000c 0020     		movs	r0, #0
  47 000e 9847     		blx	r3
  48              	.LVL1:
  49              	.L2:
 117:CSMA_CD_Bus.c ****     }
 118:CSMA_CD_Bus.c ****     if(_callback_table.receive != NULL){
  50              		.loc 1 118 0
  51 0010 044B     		ldr	r3, .L5
  52 0012 5B68     		ldr	r3, [r3, #4]
  53 0014 1BB1     		cbz	r3, .L3
ARM GAS  C:\Users\HENRIC~1\AppData\Local\Temp\cc95wKhe.s 			page 4


 119:CSMA_CD_Bus.c ****         _callback_table.receive(edge);
  54              		.loc 1 119 0
  55 0016 034B     		ldr	r3, .L5
  56 0018 5B68     		ldr	r3, [r3, #4]
  57 001a 0020     		movs	r0, #0
  58 001c 9847     		blx	r3
  59              	.LVL2:
  60              	.L3:
  61              	.LBE7:
  62              	.LBE6:
  98:CSMA_CD_Bus.c **** }
  63              		.loc 1 98 0
  64 001e FFF7FEFF 		bl	CSMA_RX_int_rising_ClearPending
  65              	.LVL3:
  66 0022 08BD     		pop	{r3, pc}
  67              	.L6:
  68              		.align	2
  69              	.L5:
  70 0024 00000000 		.word	.LANCHOR0
  71              		.cfi_endproc
  72              	.LFE65:
  73              		.size	csma_cd_rx_isr_rising, .-csma_cd_rx_isr_rising
  74              		.section	.text.csma_cd_rx_isr_falling,"ax",%progbits
  75              		.align	2
  76              		.global	csma_cd_rx_isr_falling
  77              		.thumb
  78              		.thumb_func
  79              		.type	csma_cd_rx_isr_falling, %function
  80              	csma_cd_rx_isr_falling:
  81              	.LFB66:
 104:CSMA_CD_Bus.c ****     csma_bus_run_table(CSMA_CD_EDGE_FALLING);
  82              		.loc 1 104 0
  83              		.cfi_startproc
  84              		@ args = 0, pretend = 0, frame = 0
  85              		@ frame_needed = 0, uses_anonymous_args = 0
  86 0000 08B5     		push	{r3, lr}
  87              		.cfi_def_cfa_offset 8
  88              		.cfi_offset 3, -8
  89              		.cfi_offset 14, -4
  90              	.LVL4:
  91              	.LBB8:
  92              	.LBB9:
 115:CSMA_CD_Bus.c ****         _callback_table.ch_monitor(edge);
  93              		.loc 1 115 0
  94 0002 084B     		ldr	r3, .L11
  95 0004 1B68     		ldr	r3, [r3]
  96 0006 1BB1     		cbz	r3, .L8
 116:CSMA_CD_Bus.c ****     }
  97              		.loc 1 116 0
  98 0008 064B     		ldr	r3, .L11
  99 000a 1B68     		ldr	r3, [r3]
 100 000c 0120     		movs	r0, #1
 101 000e 9847     		blx	r3
 102              	.LVL5:
 103              	.L8:
 118:CSMA_CD_Bus.c ****         _callback_table.receive(edge);
 104              		.loc 1 118 0
ARM GAS  C:\Users\HENRIC~1\AppData\Local\Temp\cc95wKhe.s 			page 5


 105 0010 044B     		ldr	r3, .L11
 106 0012 5B68     		ldr	r3, [r3, #4]
 107 0014 1BB1     		cbz	r3, .L9
 108              		.loc 1 119 0
 109 0016 034B     		ldr	r3, .L11
 110 0018 5B68     		ldr	r3, [r3, #4]
 111 001a 0120     		movs	r0, #1
 112 001c 9847     		blx	r3
 113              	.LVL6:
 114              	.L9:
 115              	.LBE9:
 116              	.LBE8:
 106:CSMA_CD_Bus.c **** }
 117              		.loc 1 106 0
 118 001e FFF7FEFF 		bl	CSMA_RX_int_falling_ClearPending
 119              	.LVL7:
 120 0022 08BD     		pop	{r3, pc}
 121              	.L12:
 122              		.align	2
 123              	.L11:
 124 0024 00000000 		.word	.LANCHOR0
 125              		.cfi_endproc
 126              	.LFE66:
 127              		.size	csma_cd_rx_isr_falling, .-csma_cd_rx_isr_falling
 128              		.section	.text.csma_bus_init,"ax",%progbits
 129              		.align	2
 130              		.global	csma_bus_init
 131              		.thumb
 132              		.thumb_func
 133              		.type	csma_bus_init, %function
 134              	csma_bus_init:
 135              	.LFB63:
  65:CSMA_CD_Bus.c ****     _callback_table.ch_monitor = NULL;
 136              		.loc 1 65 0
 137              		.cfi_startproc
 138              		@ args = 0, pretend = 0, frame = 0
 139              		@ frame_needed = 0, uses_anonymous_args = 0
 140 0000 08B5     		push	{r3, lr}
 141              		.cfi_def_cfa_offset 8
 142              		.cfi_offset 3, -8
 143              		.cfi_offset 14, -4
  66:CSMA_CD_Bus.c ****     _callback_table.receive = NULL;
 144              		.loc 1 66 0
 145 0002 054B     		ldr	r3, .L15
 146 0004 0022     		movs	r2, #0
 147 0006 1A60     		str	r2, [r3]
  67:CSMA_CD_Bus.c ****     
 148              		.loc 1 67 0
 149 0008 5A60     		str	r2, [r3, #4]
  69:CSMA_CD_Bus.c ****     CSMA_RX_int_falling_StartEx(csma_cd_rx_isr_falling);
 150              		.loc 1 69 0
 151 000a 0448     		ldr	r0, .L15+4
 152 000c FFF7FEFF 		bl	CSMA_RX_int_rising_StartEx
 153              	.LVL8:
  70:CSMA_CD_Bus.c **** }
 154              		.loc 1 70 0
 155 0010 0348     		ldr	r0, .L15+8
ARM GAS  C:\Users\HENRIC~1\AppData\Local\Temp\cc95wKhe.s 			page 6


 156 0012 FFF7FEFF 		bl	CSMA_RX_int_falling_StartEx
 157              	.LVL9:
 158 0016 08BD     		pop	{r3, pc}
 159              	.L16:
 160              		.align	2
 161              	.L15:
 162 0018 00000000 		.word	.LANCHOR0
 163 001c 00000000 		.word	csma_cd_rx_isr_rising
 164 0020 00000000 		.word	csma_cd_rx_isr_falling
 165              		.cfi_endproc
 166              	.LFE63:
 167              		.size	csma_bus_init, .-csma_bus_init
 168              		.section	.text.csma_bus_assign_callback,"ax",%progbits
 169              		.align	2
 170              		.global	csma_bus_assign_callback
 171              		.thumb
 172              		.thumb_func
 173              		.type	csma_bus_assign_callback, %function
 174              	csma_bus_assign_callback:
 175              	.LFB64:
  78:CSMA_CD_Bus.c ****     switch(name){
 176              		.loc 1 78 0
 177              		.cfi_startproc
 178              		@ args = 0, pretend = 0, frame = 0
 179              		@ frame_needed = 0, uses_anonymous_args = 0
 180              		@ link register save eliminated.
 181              	.LVL10:
  79:CSMA_CD_Bus.c ****         case CSMA_CD_BUS_CH_MONITOR_CALLBACK:
 182              		.loc 1 79 0
 183 0000 10B1     		cbz	r0, .L19
 184 0002 0128     		cmp	r0, #1
 185 0004 03D0     		beq	.L20
 186 0006 7047     		bx	lr
 187              	.L19:
  81:CSMA_CD_Bus.c ****             break;
 188              		.loc 1 81 0
 189 0008 024B     		ldr	r3, .L21
 190 000a 1960     		str	r1, [r3]
  82:CSMA_CD_Bus.c ****         case CSMA_CD_BUS_RECEIVE_CALLBACK:
 191              		.loc 1 82 0
 192 000c 7047     		bx	lr
 193              	.L20:
  84:CSMA_CD_Bus.c ****             break;
 194              		.loc 1 84 0
 195 000e 014B     		ldr	r3, .L21
 196 0010 5960     		str	r1, [r3, #4]
 197 0012 7047     		bx	lr
 198              	.L22:
 199              		.align	2
 200              	.L21:
 201 0014 00000000 		.word	.LANCHOR0
 202              		.cfi_endproc
 203              	.LFE64:
 204              		.size	csma_bus_assign_callback, .-csma_bus_assign_callback
 205              		.bss
 206              		.align	2
 207              		.set	.LANCHOR0,. + 0
ARM GAS  C:\Users\HENRIC~1\AppData\Local\Temp\cc95wKhe.s 			page 7


 208              		.type	_callback_table, %object
 209              		.size	_callback_table, 8
 210              	_callback_table:
 211 0000 00000000 		.space	8
 211      00000000 
 212              		.text
 213              	.Letext0:
 214              		.file 2 "c:\\program files (x86)\\cypress\\psoc creator\\4.1\\psoc creator\\import\\gnu\\arm\\5.4.
 215              		.file 3 "c:\\program files (x86)\\cypress\\psoc creator\\4.1\\psoc creator\\import\\gnu\\arm\\5.4.
 216              		.file 4 "CSMA_CD_Bus.h"
 217              		.file 5 "Generated_Source\\PSoC5/CSMA_RX_int_rising.h"
 218              		.file 6 "Generated_Source\\PSoC5/CSMA_RX_int_falling.h"
 219              		.file 7 "Generated_Source\\PSoC5/core_cm3.h"