ARM GAS  C:\Users\HENRIC~1\AppData\Local\Temp\cchGb56N.s 			page 1


   1              		.syntax unified
   2              		.cpu cortex-m3
   3              		.fpu softvfp
   4              		.eabi_attribute 20, 1
   5              		.eabi_attribute 21, 1
   6              		.eabi_attribute 23, 3
   7              		.eabi_attribute 24, 1
   8              		.eabi_attribute 25, 1
   9              		.eabi_attribute 26, 1
  10              		.eabi_attribute 30, 1
  11              		.eabi_attribute 34, 1
  12              		.eabi_attribute 18, 4
  13              		.thumb
  14              		.syntax unified
  15              		.file	"Receiver.c"
  16              		.text
  17              	.Ltext0:
  18              		.cfi_sections	.debug_frame
  19              		.section	.text.rx_idle_isr_callback,"ax",%progbits
  20              		.align	2
  21              		.global	rx_idle_isr_callback
  22              		.thumb
  23              		.thumb_func
  24              		.type	rx_idle_isr_callback, %function
  25              	rx_idle_isr_callback:
  26              	.LFB68:
  27              		.file 1 "Receiver.c"
   1:Receiver.c    **** /**
   2:Receiver.c    ****  * Receiver
   3:Receiver.c    ****  * @author Curt Henrichs
   4:Receiver.c    ****  * @date 1-26-18
   5:Receiver.c    ****  *
   6:Receiver.c    ****  * Receiver module handles RZ encoded message clockin from network bus. This
   7:Receiver.c    ****  * module is interrupt driven up to filling buffers. The user must poll the 
   8:Receiver.c    ****  * module for new messages received and copy those messages into their
   9:Receiver.c    ****  * application space.
  10:Receiver.c    ****  *
  11:Receiver.c    ****  * Note that a finite set of buffers are instantiated to collect message data
  12:Receiver.c    ****  * from bus. If these are filled, new data will be lost. Thus message polling 
  13:Receiver.c    ****  * should be performed regularly.
  14:Receiver.c    ****  *
  15:Receiver.c    ****  * Note that this module requires global interrupts to be enabled.
  16:Receiver.c    ****  */
  17:Receiver.c    **** 
  18:Receiver.c    **** //=============================================================================
  19:Receiver.c    **** //                                 Libraries
  20:Receiver.c    **** //=============================================================================
  21:Receiver.c    **** 
  22:Receiver.c    **** #include "Receiver.h"
  23:Receiver.c    **** #include <project.h>
  24:Receiver.c    **** #include "ChannelMonitor.h"
  25:Receiver.c    **** #include "CSMA_CD_Bus.h"
  26:Receiver.c    **** 
  27:Receiver.c    **** #include <string.h>
  28:Receiver.c    **** 
  29:Receiver.c    **** //=============================================================================
  30:Receiver.c    **** //                        Constant and Macro Definition
ARM GAS  C:\Users\HENRIC~1\AppData\Local\Temp\cchGb56N.s 			page 2


  31:Receiver.c    **** //=============================================================================
  32:Receiver.c    **** 
  33:Receiver.c    **** #define RX_TIMER_SHORT_PERIOD   (250)   //! 1/4 of bit period for sync clock
  34:Receiver.c    **** #define RX_TIMER_LONG_PERIOD    (1000)  //! 1 bit period for data clock
  35:Receiver.c    **** 
  36:Receiver.c    **** /**
  37:Receiver.c    ****  * States for interrupt driven state machine that clocks data messages from bus
  38:Receiver.c    ****  */
  39:Receiver.c    **** typedef enum Rx_States {
  40:Receiver.c    ****     RX_WAIT_MSG,    //! Wait until rising edge to start a new message
  41:Receiver.c    ****     RX_WAIT_CHAR,   //! Wait until rising edge to start next character
  42:Receiver.c    ****     RX_CLK_CHAR     //! Clocking data using timer interrupt
  43:Receiver.c    **** } Rx_States_e;
  44:Receiver.c    **** 
  45:Receiver.c    **** //=============================================================================
  46:Receiver.c    **** //                          Data Structure Declaration
  47:Receiver.c    **** //=============================================================================
  48:Receiver.c    **** 
  49:Receiver.c    **** /**
  50:Receiver.c    ****  * Message Buffer Element which captures the stream of characters from the
  51:Receiver.c    ****  * bus. Notes if the data is valid/finished or not yet complete/empty.
  52:Receiver.c    ****  */
  53:Receiver.c    **** typedef struct Rx_Message {
  54:Receiver.c    ****     char buffer[RX_MAX_BUFFER_LENGTH];  //! Message buffer
  55:Receiver.c    ****     uint8_t size;   //! Number of characters received
  56:Receiver.c    ****     bool valid;     //! Data has finished physical transaction (readable)
  57:Receiver.c    **** } Rx_Message_t;
  58:Receiver.c    **** 
  59:Receiver.c    **** /**
  60:Receiver.c    ****  * Character Buffer Element which is captured from the stream of bits 
  61:Receiver.c    ****  * received from physical layer. Note that this is the character clock
  62:Receiver.c    ****  * state-machine as well as the final result.
  63:Receiver.c    ****  */
  64:Receiver.c    **** typedef struct Rx_Char {
  65:Receiver.c    ****     uint8_t value;  //! Working value being clocked in from bus
  66:Receiver.c    ****     uint8_t shift;  //! State and amount to shift bit into place
  67:Receiver.c    **** } Rx_Char_t;
  68:Receiver.c    **** 
  69:Receiver.c    **** /**
  70:Receiver.c    ****  * Interrupt driven state-machine that clocks data messages from physical layer
  71:Receiver.c    ****  * into a message buffer.
  72:Receiver.c    ****  */
  73:Receiver.c    **** typedef struct Rx_State_Machine {
  74:Receiver.c    ****     Rx_States_e state;  //! Current high-level state of the receiver
  75:Receiver.c    ****     Rx_Message_t* msg;  //! Current message buffer being filled
  76:Receiver.c    ****     Rx_Char_t data;     //! Bit to character sub-state machine
  77:Receiver.c    **** } Rx_State_Machine_t;
  78:Receiver.c    **** 
  79:Receiver.c    **** //=============================================================================
  80:Receiver.c    **** //                             Private Attributes
  81:Receiver.c    **** //=============================================================================
  82:Receiver.c    **** 
  83:Receiver.c    **** /**
  84:Receiver.c    ****  * Receiver state-machine use to clock messages from bus
  85:Receiver.c    ****  */
  86:Receiver.c    **** static volatile Rx_State_Machine_t _rx_sm;
  87:Receiver.c    **** /**
ARM GAS  C:\Users\HENRIC~1\AppData\Local\Temp\cchGb56N.s 			page 3


  88:Receiver.c    ****  * Message buffer used to temporarily store message until copied to user code
  89:Receiver.c    ****  */
  90:Receiver.c    **** static Rx_Message_t message_temp_0;
  91:Receiver.c    **** /**
  92:Receiver.c    ****  * Message buffer used to temporarily store message until copied to user code
  93:Receiver.c    ****  */
  94:Receiver.c    **** static Rx_Message_t message_temp_1;
  95:Receiver.c    **** 
  96:Receiver.c    **** //=============================================================================
  97:Receiver.c    **** //                           Private ISR Prototypes
  98:Receiver.c    **** //=============================================================================
  99:Receiver.c    **** 
 100:Receiver.c    **** /**
 101:Receiver.c    ****  * Callback to link receive pin state-change to this module. This is effectivly
 102:Receiver.c    ****  * the rising edge interrupt for the state-machine. 
 103:Receiver.c    ****  *
 104:Receiver.c    ****  * When in waiting for message start, check if a buffer is free
 105:Receiver.c    ****  *      Then start character capture process
 106:Receiver.c    ****  * When in waiting for next character to start
 107:Receiver.c    ****  *      Start character capture process
 108:Receiver.c    ****  * When in character clocking state
 109:Receiver.c    ****  *      Sync clocks with rising edge to prevent drift of sample
 110:Receiver.c    ****  *
 111:Receiver.c    ****  * @param edge is either RISING or FALLING
 112:Receiver.c    ****  */
 113:Receiver.c    **** void rx_rx_isr_callback(CSMA_CD_Edge_e edge);
 114:Receiver.c    **** /**
 115:Receiver.c    ****  * Overflow interrupt on timer used to clock bits in for charater recovery
 116:Receiver.c    ****  * 
 117:Receiver.c    ****  * When in clocking character state
 118:Receiver.c    ****  *      If shift is zero then
 119:Receiver.c    ****  *          store character into buffer
 120:Receiver.c    ****  *          if buffer is full then transition to waiting for next message
 121:Receiver.c    ****  *          else wait for next character to start
 122:Receiver.c    ****  *      If shift is seven then
 123:Receiver.c    ****  *          do not copy bit as this bit is always leading 1 bit of clock sync
 124:Receiver.c    ****  *          stay in character clocking state
 125:Receiver.c    ****  *      Else
 126:Receiver.c    ****  *          copy shifted bit into value, stay in character clocking state
 127:Receiver.c    ****  * Else other states
 128:Receiver.c    ****  *      Disable timer and do nothing
 129:Receiver.c    ****  */
 130:Receiver.c    **** CY_ISR_PROTO(rx_timer_isr);
 131:Receiver.c    **** /**
 132:Receiver.c    ****  * Channel Monitor triggers IDLE state
 133:Receiver.c    ****  *
 134:Receiver.c    ****  * When state is waiting for character
 135:Receiver.c    ****  *      Store buffer for user consuption
 136:Receiver.c    ****  * When state is clocking characters
 137:Receiver.c    ****  *      An error occured somewhere, discard message
 138:Receiver.c    ****  * When state is waiting for message
 139:Receiver.c    ****  *      Do nothing
 140:Receiver.c    ****  */
 141:Receiver.c    **** void rx_idle_isr_callback(void);
 142:Receiver.c    **** /**
 143:Receiver.c    ****  * Channel Monitor triggers COLLISION state
 144:Receiver.c    ****  *
ARM GAS  C:\Users\HENRIC~1\AppData\Local\Temp\cchGb56N.s 			page 4


 145:Receiver.c    ****  * If not in waiting for message state
 146:Receiver.c    ****  *      discard current message as data is invalid
 147:Receiver.c    ****  */
 148:Receiver.c    **** void rx_collision_isr_callback(void);
 149:Receiver.c    **** 
 150:Receiver.c    **** //=============================================================================
 151:Receiver.c    **** //                        Public Function Implementation
 152:Receiver.c    **** //=============================================================================
 153:Receiver.c    **** 
 154:Receiver.c    **** /**
 155:Receiver.c    ****  * Receiver initialization routine sets up message buffers, receive
 156:Receiver.c    ****  * state-machine, and necessary hardware. 
 157:Receiver.c    ****  *
 158:Receiver.c    ****  * Note that this module requires an entry in the bus callback table
 159:Receiver.c    ****  */
 160:Receiver.c    **** void rx_init(void){
 161:Receiver.c    ****     
 162:Receiver.c    ****     //initialize message buffer
 163:Receiver.c    ****     message_temp_0.size = 0;
 164:Receiver.c    ****     message_temp_0.valid = 0;
 165:Receiver.c    ****     message_temp_1.size = 0;
 166:Receiver.c    ****     message_temp_1.valid = 0;
 167:Receiver.c    ****     
 168:Receiver.c    ****     //initialize state machine
 169:Receiver.c    ****     _rx_sm.state = RX_WAIT_MSG;
 170:Receiver.c    ****     _rx_sm.data.value = 0;
 171:Receiver.c    ****     _rx_sm.data.shift = 7;
 172:Receiver.c    ****     _rx_sm.msg = (&message_temp_0);
 173:Receiver.c    ****     
 174:Receiver.c    ****     //initialize hardware
 175:Receiver.c    ****     csma_bus_assign_callback(CSMA_CD_BUS_RECEIVE_CALLBACK,rx_rx_isr_callback);
 176:Receiver.c    ****     
 177:Receiver.c    ****     Rx_Timer_Start();
 178:Receiver.c    ****     Rx_Timer_Trigger_Write(1);
 179:Receiver.c    **** 
 180:Receiver.c    ****     Rx_Timer_int_StartEx(rx_timer_isr);
 181:Receiver.c    ****     cm_assign_collision_callback(CM_COLLISION_RX_CALLBACK,rx_collision_isr_callback);
 182:Receiver.c    ****     cm_assign_idle_callback(CM_IDLE_RX_CALLBACK,rx_idle_isr_callback); 
 183:Receiver.c    **** }
 184:Receiver.c    **** 
 185:Receiver.c    **** /**
 186:Receiver.c    ****  * Receiver checks if a message has been retrieved
 187:Receiver.c    ****  * @return true if a message needs to be read, else false
 188:Receiver.c    ****  */
 189:Receiver.c    **** bool rx_has_data(void){
 190:Receiver.c    ****     return message_temp_0.valid || message_temp_1.valid;
 191:Receiver.c    **** }
 192:Receiver.c    **** 
 193:Receiver.c    **** /**
 194:Receiver.c    ****  * Receiver message copy function. If there exists data to be read, the copy
 195:Receiver.c    ****  * data into provided buffer
 196:Receiver.c    ****  * @param buffer is valid pointer to character buffer to place data
 197:Receiver.c    ****  * @param length is size of buffer passed in as parameter (must be at least 
 198:Receiver.c    ****  *        protocol MAX)
 199:Receiver.c    ****  * @return number of characters copied into buffer
 200:Receiver.c    ****  */
 201:Receiver.c    **** uint8_t rx_buffer(char* buffer, uint8_t length){
ARM GAS  C:\Users\HENRIC~1\AppData\Local\Temp\cchGb56N.s 			page 5


 202:Receiver.c    ****     
 203:Receiver.c    ****     //parameter check
 204:Receiver.c    ****     if(buffer == NULL || length < RX_MAX_BUFFER_LENGTH){
 205:Receiver.c    ****         return 0;
 206:Receiver.c    ****     }
 207:Receiver.c    ****     
 208:Receiver.c    ****     // copy data out of message block
 209:Receiver.c    ****     uint8_t retval = 0;
 210:Receiver.c    ****     if(message_temp_0.valid){
 211:Receiver.c    ****         retval = message_temp_0.size;
 212:Receiver.c    ****         memcpy(buffer,message_temp_0.buffer,message_temp_0.size);
 213:Receiver.c    ****         message_temp_0.size = 0;
 214:Receiver.c    ****         message_temp_0.valid = false;
 215:Receiver.c    ****     }else if(message_temp_1.valid){
 216:Receiver.c    ****         retval = message_temp_1.size;
 217:Receiver.c    ****         memcpy(buffer,message_temp_1.buffer,message_temp_1.size);
 218:Receiver.c    ****         message_temp_1.size = 0;
 219:Receiver.c    ****         message_temp_1.valid = false;
 220:Receiver.c    ****     }
 221:Receiver.c    ****     
 222:Receiver.c    ****     return retval;
 223:Receiver.c    **** }
 224:Receiver.c    **** 
 225:Receiver.c    **** //=============================================================================
 226:Receiver.c    **** //                           Private ISR Implementation
 227:Receiver.c    **** //=============================================================================
 228:Receiver.c    **** 
 229:Receiver.c    **** /**
 230:Receiver.c    ****  * Callback to link receive pin state-change to this module. This is effectivly
 231:Receiver.c    ****  * the rising edge interrupt for the state-machine. 
 232:Receiver.c    ****  *
 233:Receiver.c    ****  * When in waiting for message start, check if a buffer is free
 234:Receiver.c    ****  *      Then start character capture process
 235:Receiver.c    ****  * When in waiting for next character to start
 236:Receiver.c    ****  *      Start character capture process
 237:Receiver.c    ****  * When in character clocking state
 238:Receiver.c    ****  *      Sync clocks with rising edge to prevent drift of sample
 239:Receiver.c    ****  *
 240:Receiver.c    ****  * @param edge is either RISING or FALLING
 241:Receiver.c    ****  */
 242:Receiver.c    **** void rx_rx_isr_callback(CSMA_CD_Edge_e edge){
 243:Receiver.c    ****     if(edge == CSMA_CD_EDGE_RISING){
 244:Receiver.c    ****         bool triggerTimer = false;
 245:Receiver.c    ****         if(_rx_sm.state == RX_WAIT_MSG){
 246:Receiver.c    ****             //assign a free memory block
 247:Receiver.c    ****             if(!message_temp_0.valid){
 248:Receiver.c    ****                 _rx_sm.msg = &message_temp_0;
 249:Receiver.c    ****                 triggerTimer = true;
 250:Receiver.c    ****             }else if(!message_temp_1.valid){
 251:Receiver.c    ****                 triggerTimer = true;
 252:Receiver.c    ****                 _rx_sm.msg = &message_temp_1;
 253:Receiver.c    ****             }
 254:Receiver.c    ****             
 255:Receiver.c    ****             //start clocking data
 256:Receiver.c    ****             if(triggerTimer){
 257:Receiver.c    ****                 _rx_sm.data.shift = 7;
 258:Receiver.c    ****                 _rx_sm.data.value = 0;
ARM GAS  C:\Users\HENRIC~1\AppData\Local\Temp\cchGb56N.s 			page 6


 259:Receiver.c    ****                 _rx_sm.state = RX_CLK_CHAR;
 260:Receiver.c    ****             }
 261:Receiver.c    ****         }else if(_rx_sm.state == RX_WAIT_CHAR){
 262:Receiver.c    ****             //start clocking data
 263:Receiver.c    ****             triggerTimer = true;
 264:Receiver.c    ****             _rx_sm.data.shift = 7;
 265:Receiver.c    ****             _rx_sm.data.value = 0;
 266:Receiver.c    ****             _rx_sm.state = RX_CLK_CHAR;
 267:Receiver.c    ****         }else if(_rx_sm.state == RX_CLK_CHAR){
 268:Receiver.c    ****             // sync bit clock
 269:Receiver.c    ****             triggerTimer = true; 
 270:Receiver.c    ****         }
 271:Receiver.c    ****         
 272:Receiver.c    ****         if(triggerTimer){
 273:Receiver.c    ****             Rx_Timer_Trigger_Write(1);
 274:Receiver.c    ****             Rx_Timer_WritePeriod(RX_TIMER_SHORT_PERIOD);
 275:Receiver.c    ****             
 276:Receiver.c    ****             Rx_Timer_ReadStatusRegister();
 277:Receiver.c    ****             Rx_Timer_int_ClearPending();
 278:Receiver.c    ****             
 279:Receiver.c    ****             CyDelayUs(1);
 280:Receiver.c    ****             Rx_Timer_Trigger_Write(0);
 281:Receiver.c    ****         }
 282:Receiver.c    ****     }  
 283:Receiver.c    **** }
 284:Receiver.c    **** 
 285:Receiver.c    **** /**
 286:Receiver.c    ****  * Overflow interrupt on timer used to clock bits in for charater recovery
 287:Receiver.c    ****  * 
 288:Receiver.c    ****  * When in clocking character state
 289:Receiver.c    ****  *      If shift is zero then
 290:Receiver.c    ****  *          store character into buffer
 291:Receiver.c    ****  *          if buffer is full then transition to waiting for next message
 292:Receiver.c    ****  *          else wait for next character to start
 293:Receiver.c    ****  *      If shift is seven then
 294:Receiver.c    ****  *          do not copy bit as this bit is always leading 1 bit of clock sync
 295:Receiver.c    ****  *          stay in character clocking state
 296:Receiver.c    ****  *      Else
 297:Receiver.c    ****  *          copy shifted bit into value, stay in character clocking state
 298:Receiver.c    ****  * Else other states
 299:Receiver.c    ****  *      Disable timer and do nothing
 300:Receiver.c    ****  */
 301:Receiver.c    **** CY_ISR(rx_timer_isr){
 302:Receiver.c    **** 
 303:Receiver.c    ****     Rx_Timer_ReadStatusRegister();
 304:Receiver.c    ****     Rx_Timer_int_ClearPending();
 305:Receiver.c    ****     
 306:Receiver.c    ****     if(_rx_sm.state == RX_CLK_CHAR){
 307:Receiver.c    ****         
 308:Receiver.c    ****         uint8_t lvl = CSMA_Receive_Level();
 309:Receiver.c    ****         
 310:Receiver.c    ****         if(_rx_sm.data.shift == 7){
 311:Receiver.c    ****             _rx_sm.data.shift--;
 312:Receiver.c    ****         }else if(_rx_sm.data.shift > 0){
 313:Receiver.c    ****             _rx_sm.data.value |= (lvl << _rx_sm.data.shift); 
 314:Receiver.c    ****             _rx_sm.data.shift--;
 315:Receiver.c    ****         }else{
ARM GAS  C:\Users\HENRIC~1\AppData\Local\Temp\cchGb56N.s 			page 7


 316:Receiver.c    ****             _rx_sm.data.value |= lvl;
 317:Receiver.c    ****             
 318:Receiver.c    ****             //store value
 319:Receiver.c    ****             _rx_sm.msg->buffer[_rx_sm.msg->size] = (char)(_rx_sm.data.value);
 320:Receiver.c    ****             _rx_sm.msg->size++;
 321:Receiver.c    ****             
 322:Receiver.c    ****             if(_rx_sm.msg->size >= RX_MAX_BUFFER_LENGTH){
 323:Receiver.c    ****                 //store buffer
 324:Receiver.c    ****                 _rx_sm.state = RX_WAIT_MSG;
 325:Receiver.c    ****                 _rx_sm.msg->valid = true;
 326:Receiver.c    ****             }else{
 327:Receiver.c    ****                 //wait for next character
 328:Receiver.c    ****                 _rx_sm.state = RX_WAIT_CHAR;
 329:Receiver.c    ****             }
 330:Receiver.c    ****         }
 331:Receiver.c    **** 
 332:Receiver.c    ****         Rx_Timer_Trigger_Write(1);
 333:Receiver.c    ****         Rx_Timer_WritePeriod(RX_TIMER_LONG_PERIOD);
 334:Receiver.c    ****         CyDelayUs(1);
 335:Receiver.c    ****         Rx_Timer_Trigger_Write(0);
 336:Receiver.c    ****     }else{
 337:Receiver.c    ****         // should not be clocking data, disable timer
 338:Receiver.c    ****         Rx_Timer_Trigger_Write(1);
 339:Receiver.c    ****     }
 340:Receiver.c    **** }
 341:Receiver.c    **** 
 342:Receiver.c    **** /**
 343:Receiver.c    ****  * Channel Monitor triggers IDLE state
 344:Receiver.c    ****  *
 345:Receiver.c    ****  * When state is waiting for character
 346:Receiver.c    ****  *      Store buffer for user consuption
 347:Receiver.c    ****  * When state is clocking characters
 348:Receiver.c    ****  *      An error occured somewhere, discard message
 349:Receiver.c    ****  * When state is waiting for message
 350:Receiver.c    ****  *      Do nothing
 351:Receiver.c    ****  */
 352:Receiver.c    **** void rx_idle_isr_callback(void){
  28              		.loc 1 352 0
  29              		.cfi_startproc
  30              		@ args = 0, pretend = 0, frame = 0
  31              		@ frame_needed = 0, uses_anonymous_args = 0
  32 0000 08B5     		push	{r3, lr}
  33              		.cfi_def_cfa_offset 8
  34              		.cfi_offset 3, -8
  35              		.cfi_offset 14, -4
 353:Receiver.c    ****     
 354:Receiver.c    ****     if(_rx_sm.state == RX_WAIT_CHAR){
  36              		.loc 1 354 0
  37 0002 134B     		ldr	r3, .L5
  38 0004 1B78     		ldrb	r3, [r3]	@ zero_extendqisi2
  39 0006 DBB2     		uxtb	r3, r3
  40 0008 012B     		cmp	r3, #1
  41 000a 07D1     		bne	.L2
 355:Receiver.c    ****         // store data for application consuption
 356:Receiver.c    ****         _rx_sm.state = RX_WAIT_MSG;
  42              		.loc 1 356 0
  43 000c 104B     		ldr	r3, .L5
ARM GAS  C:\Users\HENRIC~1\AppData\Local\Temp\cchGb56N.s 			page 8


  44 000e 0022     		movs	r2, #0
  45 0010 1A70     		strb	r2, [r3]
 357:Receiver.c    ****         _rx_sm.msg->valid = true;
  46              		.loc 1 357 0
  47 0012 5B68     		ldr	r3, [r3, #4]
  48 0014 0122     		movs	r2, #1
  49 0016 83F83520 		strb	r2, [r3, #53]
  50 001a 10E0     		b	.L3
  51              	.L2:
 358:Receiver.c    ****     }else if(_rx_sm.state == RX_CLK_CHAR){
  52              		.loc 1 358 0
  53 001c 0C4B     		ldr	r3, .L5
  54 001e 1B78     		ldrb	r3, [r3]	@ zero_extendqisi2
  55 0020 DBB2     		uxtb	r3, r3
  56 0022 022B     		cmp	r3, #2
  57 0024 0BD1     		bne	.L3
 359:Receiver.c    ****         // invalid IDLE event, discard message
 360:Receiver.c    ****         _rx_sm.state = RX_WAIT_MSG;
  58              		.loc 1 360 0
  59 0026 0A4B     		ldr	r3, .L5
  60 0028 0022     		movs	r2, #0
  61 002a 1A70     		strb	r2, [r3]
 361:Receiver.c    ****         _rx_sm.msg->valid = false;
  62              		.loc 1 361 0
  63 002c 5968     		ldr	r1, [r3, #4]
  64 002e 81F83520 		strb	r2, [r1, #53]
 362:Receiver.c    ****         _rx_sm.msg->size = 0;
  65              		.loc 1 362 0
  66 0032 5968     		ldr	r1, [r3, #4]
  67 0034 81F83420 		strb	r2, [r1, #52]
 363:Receiver.c    ****         _rx_sm.data.shift = 7;
  68              		.loc 1 363 0
  69 0038 0721     		movs	r1, #7
  70 003a 5972     		strb	r1, [r3, #9]
 364:Receiver.c    ****         _rx_sm.data.value = 0;
  71              		.loc 1 364 0
  72 003c 1A72     		strb	r2, [r3, #8]
  73              	.L3:
 365:Receiver.c    ****     }
 366:Receiver.c    ****     
 367:Receiver.c    ****     // disable timer, until next rising edge
 368:Receiver.c    ****     Rx_Timer_Trigger_Write(1);
  74              		.loc 1 368 0
  75 003e 0120     		movs	r0, #1
  76 0040 FFF7FEFF 		bl	Rx_Timer_Trigger_Write
  77              	.LVL0:
 369:Receiver.c    ****     Rx_Timer_ReadStatusRegister();
  78              		.loc 1 369 0
  79 0044 FFF7FEFF 		bl	Rx_Timer_ReadStatusRegister
  80              	.LVL1:
 370:Receiver.c    ****     Rx_Timer_int_ClearPending();
  81              		.loc 1 370 0
  82 0048 FFF7FEFF 		bl	Rx_Timer_int_ClearPending
  83              	.LVL2:
  84 004c 08BD     		pop	{r3, pc}
  85              	.L6:
  86 004e 00BF     		.align	2
ARM GAS  C:\Users\HENRIC~1\AppData\Local\Temp\cchGb56N.s 			page 9


  87              	.L5:
  88 0050 00000000 		.word	.LANCHOR0
  89              		.cfi_endproc
  90              	.LFE68:
  91              		.size	rx_idle_isr_callback, .-rx_idle_isr_callback
  92              		.section	.text.rx_collision_isr_callback,"ax",%progbits
  93              		.align	2
  94              		.global	rx_collision_isr_callback
  95              		.thumb
  96              		.thumb_func
  97              		.type	rx_collision_isr_callback, %function
  98              	rx_collision_isr_callback:
  99              	.LFB69:
 371:Receiver.c    **** }
 372:Receiver.c    **** 
 373:Receiver.c    **** /**
 374:Receiver.c    ****  * Channel Monitor triggers COLLISION state
 375:Receiver.c    ****  *
 376:Receiver.c    ****  * If not in waiting for message state
 377:Receiver.c    ****  *      discard current message as data is invalid
 378:Receiver.c    ****  */
 379:Receiver.c    **** void rx_collision_isr_callback(void){
 100              		.loc 1 379 0
 101              		.cfi_startproc
 102              		@ args = 0, pretend = 0, frame = 0
 103              		@ frame_needed = 0, uses_anonymous_args = 0
 104 0000 08B5     		push	{r3, lr}
 105              		.cfi_def_cfa_offset 8
 106              		.cfi_offset 3, -8
 107              		.cfi_offset 14, -4
 380:Receiver.c    ****     
 381:Receiver.c    ****     if(_rx_sm.state != RX_WAIT_MSG){
 108              		.loc 1 381 0
 109 0002 0C4B     		ldr	r3, .L10
 110 0004 1B78     		ldrb	r3, [r3]	@ zero_extendqisi2
 111 0006 13F0FF0F 		tst	r3, #255
 112 000a 0BD0     		beq	.L8
 382:Receiver.c    ****         // COLLISION event, discard message
 383:Receiver.c    ****         _rx_sm.state = RX_WAIT_MSG;
 113              		.loc 1 383 0
 114 000c 094B     		ldr	r3, .L10
 115 000e 0022     		movs	r2, #0
 116 0010 1A70     		strb	r2, [r3]
 384:Receiver.c    ****         _rx_sm.msg->valid = false;
 117              		.loc 1 384 0
 118 0012 5968     		ldr	r1, [r3, #4]
 119 0014 81F83520 		strb	r2, [r1, #53]
 385:Receiver.c    ****         _rx_sm.msg->size = 0;
 120              		.loc 1 385 0
 121 0018 5968     		ldr	r1, [r3, #4]
 122 001a 81F83420 		strb	r2, [r1, #52]
 386:Receiver.c    ****         _rx_sm.data.shift = 7;
 123              		.loc 1 386 0
 124 001e 0721     		movs	r1, #7
 125 0020 5972     		strb	r1, [r3, #9]
 387:Receiver.c    ****         _rx_sm.data.value = 0;
 126              		.loc 1 387 0
ARM GAS  C:\Users\HENRIC~1\AppData\Local\Temp\cchGb56N.s 			page 10


 127 0022 1A72     		strb	r2, [r3, #8]
 128              	.L8:
 388:Receiver.c    ****     }
 389:Receiver.c    ****     
 390:Receiver.c    ****     // disable timer, until next rising edge
 391:Receiver.c    ****     Rx_Timer_Trigger_Write(1);
 129              		.loc 1 391 0
 130 0024 0120     		movs	r0, #1
 131 0026 FFF7FEFF 		bl	Rx_Timer_Trigger_Write
 132              	.LVL3:
 392:Receiver.c    ****     Rx_Timer_ReadStatusRegister();
 133              		.loc 1 392 0
 134 002a FFF7FEFF 		bl	Rx_Timer_ReadStatusRegister
 135              	.LVL4:
 393:Receiver.c    ****     Rx_Timer_int_ClearPending();
 136              		.loc 1 393 0
 137 002e FFF7FEFF 		bl	Rx_Timer_int_ClearPending
 138              	.LVL5:
 139 0032 08BD     		pop	{r3, pc}
 140              	.L11:
 141              		.align	2
 142              	.L10:
 143 0034 00000000 		.word	.LANCHOR0
 144              		.cfi_endproc
 145              	.LFE69:
 146              		.size	rx_collision_isr_callback, .-rx_collision_isr_callback
 147              		.section	.text.rx_rx_isr_callback,"ax",%progbits
 148              		.align	2
 149              		.global	rx_rx_isr_callback
 150              		.thumb
 151              		.thumb_func
 152              		.type	rx_rx_isr_callback, %function
 153              	rx_rx_isr_callback:
 154              	.LFB66:
 242:Receiver.c    ****     if(edge == CSMA_CD_EDGE_RISING){
 155              		.loc 1 242 0
 156              		.cfi_startproc
 157              		@ args = 0, pretend = 0, frame = 0
 158              		@ frame_needed = 0, uses_anonymous_args = 0
 159              	.LVL6:
 243:Receiver.c    ****         bool triggerTimer = false;
 160              		.loc 1 243 0
 161 0000 0028     		cmp	r0, #0
 162 0002 4BD1     		bne	.L22
 242:Receiver.c    ****     if(edge == CSMA_CD_EDGE_RISING){
 163              		.loc 1 242 0
 164 0004 08B5     		push	{r3, lr}
 165              		.cfi_def_cfa_offset 8
 166              		.cfi_offset 3, -8
 167              		.cfi_offset 14, -4
 168              	.LVL7:
 169              	.LBB2:
 245:Receiver.c    ****             //assign a free memory block
 170              		.loc 1 245 0
 171 0006 264B     		ldr	r3, .L23
 172 0008 1B78     		ldrb	r3, [r3]	@ zero_extendqisi2
 173 000a 13F0FF0F 		tst	r3, #255
ARM GAS  C:\Users\HENRIC~1\AppData\Local\Temp\cchGb56N.s 			page 11


 174 000e 1DD1     		bne	.L14
 247:Receiver.c    ****                 _rx_sm.msg = &message_temp_0;
 175              		.loc 1 247 0
 176 0010 234B     		ldr	r3, .L23
 177 0012 93F84130 		ldrb	r3, [r3, #65]	@ zero_extendqisi2
 178 0016 2BB9     		cbnz	r3, .L15
 248:Receiver.c    ****                 triggerTimer = true;
 179              		.loc 1 248 0
 180 0018 214B     		ldr	r3, .L23
 181 001a 03F10C02 		add	r2, r3, #12
 182 001e 5A60     		str	r2, [r3, #4]
 183              	.LVL8:
 249:Receiver.c    ****             }else if(!message_temp_1.valid){
 184              		.loc 1 249 0
 185 0020 0123     		movs	r3, #1
 186 0022 0AE0     		b	.L16
 187              	.LVL9:
 188              	.L15:
 250:Receiver.c    ****                 triggerTimer = true;
 189              		.loc 1 250 0
 190 0024 1E4B     		ldr	r3, .L23
 191 0026 93F87930 		ldrb	r3, [r3, #121]	@ zero_extendqisi2
 192 002a 2BB9     		cbnz	r3, .L19
 193              	.LVL10:
 252:Receiver.c    ****             }
 194              		.loc 1 252 0
 195 002c 1C4B     		ldr	r3, .L23
 196 002e 03F14402 		add	r2, r3, #68
 197 0032 5A60     		str	r2, [r3, #4]
 251:Receiver.c    ****                 _rx_sm.msg = &message_temp_1;
 198              		.loc 1 251 0
 199 0034 0123     		movs	r3, #1
 200 0036 00E0     		b	.L16
 201              	.LVL11:
 202              	.L19:
 244:Receiver.c    ****         if(_rx_sm.state == RX_WAIT_MSG){
 203              		.loc 1 244 0
 204 0038 0023     		movs	r3, #0
 205              	.LVL12:
 206              	.L16:
 256:Receiver.c    ****                 _rx_sm.data.shift = 7;
 207              		.loc 1 256 0
 208 003a EBB1     		cbz	r3, .L17
 257:Receiver.c    ****                 _rx_sm.data.value = 0;
 209              		.loc 1 257 0
 210 003c 184A     		ldr	r2, .L23
 211 003e 0721     		movs	r1, #7
 212 0040 5172     		strb	r1, [r2, #9]
 258:Receiver.c    ****                 _rx_sm.state = RX_CLK_CHAR;
 213              		.loc 1 258 0
 214 0042 0021     		movs	r1, #0
 215 0044 1172     		strb	r1, [r2, #8]
 259:Receiver.c    ****             }
 216              		.loc 1 259 0
 217 0046 0221     		movs	r1, #2
 218 0048 1170     		strb	r1, [r2]
 219 004a 15E0     		b	.L17
ARM GAS  C:\Users\HENRIC~1\AppData\Local\Temp\cchGb56N.s 			page 12


 220              	.LVL13:
 221              	.L14:
 261:Receiver.c    ****             //start clocking data
 222              		.loc 1 261 0
 223 004c 144B     		ldr	r3, .L23
 224 004e 1B78     		ldrb	r3, [r3]	@ zero_extendqisi2
 225 0050 DBB2     		uxtb	r3, r3
 226 0052 012B     		cmp	r3, #1
 227 0054 08D1     		bne	.L18
 228              	.LVL14:
 264:Receiver.c    ****             _rx_sm.data.value = 0;
 229              		.loc 1 264 0
 230 0056 124B     		ldr	r3, .L23
 231 0058 0722     		movs	r2, #7
 232 005a 5A72     		strb	r2, [r3, #9]
 265:Receiver.c    ****             _rx_sm.state = RX_CLK_CHAR;
 233              		.loc 1 265 0
 234 005c 0022     		movs	r2, #0
 235 005e 1A72     		strb	r2, [r3, #8]
 266:Receiver.c    ****         }else if(_rx_sm.state == RX_CLK_CHAR){
 236              		.loc 1 266 0
 237 0060 0222     		movs	r2, #2
 238 0062 1A70     		strb	r2, [r3]
 263:Receiver.c    ****             _rx_sm.data.shift = 7;
 239              		.loc 1 263 0
 240 0064 0123     		movs	r3, #1
 241 0066 07E0     		b	.L17
 242              	.LVL15:
 243              	.L18:
 267:Receiver.c    ****             // sync bit clock
 244              		.loc 1 267 0
 245 0068 0D4B     		ldr	r3, .L23
 246 006a 1B78     		ldrb	r3, [r3]	@ zero_extendqisi2
 247 006c DBB2     		uxtb	r3, r3
 248 006e 022B     		cmp	r3, #2
 249 0070 01D0     		beq	.L20
 244:Receiver.c    ****         if(_rx_sm.state == RX_WAIT_MSG){
 250              		.loc 1 244 0
 251 0072 0023     		movs	r3, #0
 252 0074 00E0     		b	.L17
 253              	.L20:
 269:Receiver.c    ****         }
 254              		.loc 1 269 0
 255 0076 0123     		movs	r3, #1
 256              	.LVL16:
 257              	.L17:
 272:Receiver.c    ****             Rx_Timer_Trigger_Write(1);
 258              		.loc 1 272 0
 259 0078 7BB1     		cbz	r3, .L12
 273:Receiver.c    ****             Rx_Timer_WritePeriod(RX_TIMER_SHORT_PERIOD);
 260              		.loc 1 273 0
 261 007a 0120     		movs	r0, #1
 262              	.LVL17:
 263 007c FFF7FEFF 		bl	Rx_Timer_Trigger_Write
 264              	.LVL18:
 274:Receiver.c    ****             
 265              		.loc 1 274 0
ARM GAS  C:\Users\HENRIC~1\AppData\Local\Temp\cchGb56N.s 			page 13


 266 0080 FA20     		movs	r0, #250
 267 0082 FFF7FEFF 		bl	Rx_Timer_WritePeriod
 268              	.LVL19:
 276:Receiver.c    ****             Rx_Timer_int_ClearPending();
 269              		.loc 1 276 0
 270 0086 FFF7FEFF 		bl	Rx_Timer_ReadStatusRegister
 271              	.LVL20:
 277:Receiver.c    ****             
 272              		.loc 1 277 0
 273 008a FFF7FEFF 		bl	Rx_Timer_int_ClearPending
 274              	.LVL21:
 279:Receiver.c    ****             Rx_Timer_Trigger_Write(0);
 275              		.loc 1 279 0
 276 008e 0120     		movs	r0, #1
 277 0090 FFF7FEFF 		bl	CyDelayUs
 278              	.LVL22:
 280:Receiver.c    ****         }
 279              		.loc 1 280 0
 280 0094 0020     		movs	r0, #0
 281 0096 FFF7FEFF 		bl	Rx_Timer_Trigger_Write
 282              	.LVL23:
 283              	.L12:
 284 009a 08BD     		pop	{r3, pc}
 285              	.LVL24:
 286              	.L22:
 287              		.cfi_def_cfa_offset 0
 288              		.cfi_restore 3
 289              		.cfi_restore 14
 290 009c 7047     		bx	lr
 291              	.L24:
 292 009e 00BF     		.align	2
 293              	.L23:
 294 00a0 00000000 		.word	.LANCHOR0
 295              	.LBE2:
 296              		.cfi_endproc
 297              	.LFE66:
 298              		.size	rx_rx_isr_callback, .-rx_rx_isr_callback
 299              		.section	.text.rx_timer_isr,"ax",%progbits
 300              		.align	2
 301              		.global	rx_timer_isr
 302              		.thumb
 303              		.thumb_func
 304              		.type	rx_timer_isr, %function
 305              	rx_timer_isr:
 306              	.LFB67:
 301:Receiver.c    **** 
 307              		.loc 1 301 0
 308              		.cfi_startproc
 309              		@ args = 0, pretend = 0, frame = 0
 310              		@ frame_needed = 0, uses_anonymous_args = 0
 311 0000 08B5     		push	{r3, lr}
 312              		.cfi_def_cfa_offset 8
 313              		.cfi_offset 3, -8
 314              		.cfi_offset 14, -4
 303:Receiver.c    ****     Rx_Timer_int_ClearPending();
 315              		.loc 1 303 0
 316 0002 FFF7FEFF 		bl	Rx_Timer_ReadStatusRegister
ARM GAS  C:\Users\HENRIC~1\AppData\Local\Temp\cchGb56N.s 			page 14


 317              	.LVL25:
 304:Receiver.c    ****     
 318              		.loc 1 304 0
 319 0006 FFF7FEFF 		bl	Rx_Timer_int_ClearPending
 320              	.LVL26:
 306:Receiver.c    ****         
 321              		.loc 1 306 0
 322 000a 2B4B     		ldr	r3, .L33
 323 000c 1B78     		ldrb	r3, [r3]	@ zero_extendqisi2
 324 000e DBB2     		uxtb	r3, r3
 325 0010 022B     		cmp	r3, #2
 326 0012 4DD1     		bne	.L26
 327              	.LBB3:
 308:Receiver.c    ****         
 328              		.loc 1 308 0
 329 0014 FFF7FEFF 		bl	CSMA_RX_Read
 330              	.LVL27:
 310:Receiver.c    ****             _rx_sm.data.shift--;
 331              		.loc 1 310 0
 332 0018 274B     		ldr	r3, .L33
 333 001a 5B7A     		ldrb	r3, [r3, #9]	@ zero_extendqisi2
 334 001c DBB2     		uxtb	r3, r3
 335 001e 072B     		cmp	r3, #7
 336 0020 05D1     		bne	.L27
 311:Receiver.c    ****         }else if(_rx_sm.data.shift > 0){
 337              		.loc 1 311 0
 338 0022 254A     		ldr	r2, .L33
 339 0024 537A     		ldrb	r3, [r2, #9]	@ zero_extendqisi2
 340 0026 013B     		subs	r3, r3, #1
 341 0028 DBB2     		uxtb	r3, r3
 342 002a 5372     		strb	r3, [r2, #9]
 343 002c 32E0     		b	.L28
 344              	.L27:
 312:Receiver.c    ****             _rx_sm.data.value |= (lvl << _rx_sm.data.shift); 
 345              		.loc 1 312 0
 346 002e 224B     		ldr	r3, .L33
 347 0030 5B7A     		ldrb	r3, [r3, #9]	@ zero_extendqisi2
 348 0032 13F0FF0F 		tst	r3, #255
 349 0036 0CD0     		beq	.L29
 313:Receiver.c    ****             _rx_sm.data.shift--;
 350              		.loc 1 313 0
 351 0038 1F4B     		ldr	r3, .L33
 352 003a 5A7A     		ldrb	r2, [r3, #9]	@ zero_extendqisi2
 353 003c D2B2     		uxtb	r2, r2
 354 003e 9040     		lsls	r0, r0, r2
 355              	.LVL28:
 356 0040 1A7A     		ldrb	r2, [r3, #8]	@ zero_extendqisi2
 357 0042 1043     		orrs	r0, r0, r2
 358 0044 C0B2     		uxtb	r0, r0
 359 0046 1872     		strb	r0, [r3, #8]
 314:Receiver.c    ****         }else{
 360              		.loc 1 314 0
 361 0048 5A7A     		ldrb	r2, [r3, #9]	@ zero_extendqisi2
 362 004a 013A     		subs	r2, r2, #1
 363 004c D2B2     		uxtb	r2, r2
 364 004e 5A72     		strb	r2, [r3, #9]
 365 0050 20E0     		b	.L28
ARM GAS  C:\Users\HENRIC~1\AppData\Local\Temp\cchGb56N.s 			page 15


 366              	.LVL29:
 367              	.L29:
 316:Receiver.c    ****             
 368              		.loc 1 316 0
 369 0052 194B     		ldr	r3, .L33
 370 0054 1A7A     		ldrb	r2, [r3, #8]	@ zero_extendqisi2
 371 0056 1043     		orrs	r0, r0, r2
 372              	.LVL30:
 373 0058 C0B2     		uxtb	r0, r0
 374 005a 1872     		strb	r0, [r3, #8]
 319:Receiver.c    ****             _rx_sm.msg->size++;
 375              		.loc 1 319 0
 376 005c 5968     		ldr	r1, [r3, #4]
 377 005e 5A68     		ldr	r2, [r3, #4]
 378 0060 92F83420 		ldrb	r2, [r2, #52]	@ zero_extendqisi2
 379 0064 187A     		ldrb	r0, [r3, #8]	@ zero_extendqisi2
 380 0066 8854     		strb	r0, [r1, r2]
 320:Receiver.c    ****             
 381              		.loc 1 320 0
 382 0068 5968     		ldr	r1, [r3, #4]
 383 006a 91F83420 		ldrb	r2, [r1, #52]	@ zero_extendqisi2
 384 006e 0132     		adds	r2, r2, #1
 385 0070 81F83420 		strb	r2, [r1, #52]
 322:Receiver.c    ****                 //store buffer
 386              		.loc 1 322 0
 387 0074 5B68     		ldr	r3, [r3, #4]
 388 0076 93F83430 		ldrb	r3, [r3, #52]	@ zero_extendqisi2
 389 007a 332B     		cmp	r3, #51
 390 007c 07D9     		bls	.L30
 324:Receiver.c    ****                 _rx_sm.msg->valid = true;
 391              		.loc 1 324 0
 392 007e 0E4B     		ldr	r3, .L33
 393 0080 0022     		movs	r2, #0
 394 0082 1A70     		strb	r2, [r3]
 325:Receiver.c    ****             }else{
 395              		.loc 1 325 0
 396 0084 5B68     		ldr	r3, [r3, #4]
 397 0086 0122     		movs	r2, #1
 398 0088 83F83520 		strb	r2, [r3, #53]
 399 008c 02E0     		b	.L28
 400              	.L30:
 328:Receiver.c    ****             }
 401              		.loc 1 328 0
 402 008e 0122     		movs	r2, #1
 403 0090 094B     		ldr	r3, .L33
 404 0092 1A70     		strb	r2, [r3]
 405              	.L28:
 332:Receiver.c    ****         Rx_Timer_WritePeriod(RX_TIMER_LONG_PERIOD);
 406              		.loc 1 332 0
 407 0094 0120     		movs	r0, #1
 408 0096 FFF7FEFF 		bl	Rx_Timer_Trigger_Write
 409              	.LVL31:
 333:Receiver.c    ****         CyDelayUs(1);
 410              		.loc 1 333 0
 411 009a 4FF47A70 		mov	r0, #1000
 412 009e FFF7FEFF 		bl	Rx_Timer_WritePeriod
 413              	.LVL32:
ARM GAS  C:\Users\HENRIC~1\AppData\Local\Temp\cchGb56N.s 			page 16


 334:Receiver.c    ****         Rx_Timer_Trigger_Write(0);
 414              		.loc 1 334 0
 415 00a2 0120     		movs	r0, #1
 416 00a4 FFF7FEFF 		bl	CyDelayUs
 417              	.LVL33:
 335:Receiver.c    ****     }else{
 418              		.loc 1 335 0
 419 00a8 0020     		movs	r0, #0
 420 00aa FFF7FEFF 		bl	Rx_Timer_Trigger_Write
 421              	.LVL34:
 422              	.LBE3:
 423 00ae 08BD     		pop	{r3, pc}
 424              	.L26:
 338:Receiver.c    ****     }
 425              		.loc 1 338 0
 426 00b0 0120     		movs	r0, #1
 427 00b2 FFF7FEFF 		bl	Rx_Timer_Trigger_Write
 428              	.LVL35:
 429 00b6 08BD     		pop	{r3, pc}
 430              	.L34:
 431              		.align	2
 432              	.L33:
 433 00b8 00000000 		.word	.LANCHOR0
 434              		.cfi_endproc
 435              	.LFE67:
 436              		.size	rx_timer_isr, .-rx_timer_isr
 437              		.section	.text.rx_init,"ax",%progbits
 438              		.align	2
 439              		.global	rx_init
 440              		.thumb
 441              		.thumb_func
 442              		.type	rx_init, %function
 443              	rx_init:
 444              	.LFB63:
 160:Receiver.c    ****     
 445              		.loc 1 160 0
 446              		.cfi_startproc
 447              		@ args = 0, pretend = 0, frame = 0
 448              		@ frame_needed = 0, uses_anonymous_args = 0
 449 0000 08B5     		push	{r3, lr}
 450              		.cfi_def_cfa_offset 8
 451              		.cfi_offset 3, -8
 452              		.cfi_offset 14, -4
 163:Receiver.c    ****     message_temp_0.valid = 0;
 453              		.loc 1 163 0
 454 0002 134B     		ldr	r3, .L37
 455 0004 0022     		movs	r2, #0
 456 0006 83F84020 		strb	r2, [r3, #64]
 164:Receiver.c    ****     message_temp_1.size = 0;
 457              		.loc 1 164 0
 458 000a 83F84120 		strb	r2, [r3, #65]
 165:Receiver.c    ****     message_temp_1.valid = 0;
 459              		.loc 1 165 0
 460 000e 83F87820 		strb	r2, [r3, #120]
 166:Receiver.c    ****     
 461              		.loc 1 166 0
 462 0012 83F87920 		strb	r2, [r3, #121]
ARM GAS  C:\Users\HENRIC~1\AppData\Local\Temp\cchGb56N.s 			page 17


 169:Receiver.c    ****     _rx_sm.data.value = 0;
 463              		.loc 1 169 0
 464 0016 1A70     		strb	r2, [r3]
 170:Receiver.c    ****     _rx_sm.data.shift = 7;
 465              		.loc 1 170 0
 466 0018 1A72     		strb	r2, [r3, #8]
 171:Receiver.c    ****     _rx_sm.msg = (&message_temp_0);
 467              		.loc 1 171 0
 468 001a 0722     		movs	r2, #7
 469 001c 5A72     		strb	r2, [r3, #9]
 172:Receiver.c    ****     
 470              		.loc 1 172 0
 471 001e 03F10C02 		add	r2, r3, #12
 472 0022 5A60     		str	r2, [r3, #4]
 175:Receiver.c    ****     
 473              		.loc 1 175 0
 474 0024 0B49     		ldr	r1, .L37+4
 475 0026 0120     		movs	r0, #1
 476 0028 FFF7FEFF 		bl	csma_bus_assign_callback
 477              	.LVL36:
 177:Receiver.c    ****     Rx_Timer_Trigger_Write(1);
 478              		.loc 1 177 0
 479 002c FFF7FEFF 		bl	Rx_Timer_Start
 480              	.LVL37:
 178:Receiver.c    **** 
 481              		.loc 1 178 0
 482 0030 0120     		movs	r0, #1
 483 0032 FFF7FEFF 		bl	Rx_Timer_Trigger_Write
 484              	.LVL38:
 180:Receiver.c    ****     cm_assign_collision_callback(CM_COLLISION_RX_CALLBACK,rx_collision_isr_callback);
 485              		.loc 1 180 0
 486 0036 0848     		ldr	r0, .L37+8
 487 0038 FFF7FEFF 		bl	Rx_Timer_int_StartEx
 488              	.LVL39:
 181:Receiver.c    ****     cm_assign_idle_callback(CM_IDLE_RX_CALLBACK,rx_idle_isr_callback); 
 489              		.loc 1 181 0
 490 003c 0749     		ldr	r1, .L37+12
 491 003e 0120     		movs	r0, #1
 492 0040 FFF7FEFF 		bl	cm_assign_collision_callback
 493              	.LVL40:
 182:Receiver.c    **** }
 494              		.loc 1 182 0
 495 0044 0649     		ldr	r1, .L37+16
 496 0046 0120     		movs	r0, #1
 497 0048 FFF7FEFF 		bl	cm_assign_idle_callback
 498              	.LVL41:
 499 004c 08BD     		pop	{r3, pc}
 500              	.L38:
 501 004e 00BF     		.align	2
 502              	.L37:
 503 0050 00000000 		.word	.LANCHOR0
 504 0054 00000000 		.word	rx_rx_isr_callback
 505 0058 00000000 		.word	rx_timer_isr
 506 005c 00000000 		.word	rx_collision_isr_callback
 507 0060 00000000 		.word	rx_idle_isr_callback
 508              		.cfi_endproc
 509              	.LFE63:
ARM GAS  C:\Users\HENRIC~1\AppData\Local\Temp\cchGb56N.s 			page 18


 510              		.size	rx_init, .-rx_init
 511              		.section	.text.rx_has_data,"ax",%progbits
 512              		.align	2
 513              		.global	rx_has_data
 514              		.thumb
 515              		.thumb_func
 516              		.type	rx_has_data, %function
 517              	rx_has_data:
 518              	.LFB64:
 189:Receiver.c    ****     return message_temp_0.valid || message_temp_1.valid;
 519              		.loc 1 189 0
 520              		.cfi_startproc
 521              		@ args = 0, pretend = 0, frame = 0
 522              		@ frame_needed = 0, uses_anonymous_args = 0
 523              		@ link register save eliminated.
 190:Receiver.c    **** }
 524              		.loc 1 190 0
 525 0000 064B     		ldr	r3, .L43
 526 0002 93F84130 		ldrb	r3, [r3, #65]	@ zero_extendqisi2
 527 0006 2BB9     		cbnz	r3, .L41
 190:Receiver.c    **** }
 528              		.loc 1 190 0 is_stmt 0 discriminator 2
 529 0008 044B     		ldr	r3, .L43
 530 000a 93F87930 		ldrb	r3, [r3, #121]	@ zero_extendqisi2
 531 000e 1BB1     		cbz	r3, .L42
 190:Receiver.c    **** }
 532              		.loc 1 190 0
 533 0010 0120     		movs	r0, #1
 534 0012 7047     		bx	lr
 535              	.L41:
 536 0014 0120     		movs	r0, #1
 537 0016 7047     		bx	lr
 538              	.L42:
 539 0018 0020     		movs	r0, #0
 191:Receiver.c    **** 
 540              		.loc 1 191 0 is_stmt 1
 541 001a 7047     		bx	lr
 542              	.L44:
 543              		.align	2
 544              	.L43:
 545 001c 00000000 		.word	.LANCHOR0
 546              		.cfi_endproc
 547              	.LFE64:
 548              		.size	rx_has_data, .-rx_has_data
 549              		.section	.text.rx_buffer,"ax",%progbits
 550              		.align	2
 551              		.global	rx_buffer
 552              		.thumb
 553              		.thumb_func
 554              		.type	rx_buffer, %function
 555              	rx_buffer:
 556              	.LFB65:
 201:Receiver.c    ****     
 557              		.loc 1 201 0
 558              		.cfi_startproc
 559              		@ args = 0, pretend = 0, frame = 0
 560              		@ frame_needed = 0, uses_anonymous_args = 0
ARM GAS  C:\Users\HENRIC~1\AppData\Local\Temp\cchGb56N.s 			page 19


 561              	.LVL42:
 204:Receiver.c    ****         return 0;
 562              		.loc 1 204 0
 563 0000 40B3     		cbz	r0, .L48
 201:Receiver.c    ****     
 564              		.loc 1 201 0 discriminator 1
 565 0002 38B5     		push	{r3, r4, r5, lr}
 566              		.cfi_def_cfa_offset 16
 567              		.cfi_offset 3, -16
 568              		.cfi_offset 4, -12
 569              		.cfi_offset 5, -8
 570              		.cfi_offset 14, -4
 204:Receiver.c    ****         return 0;
 571              		.loc 1 204 0 discriminator 1
 572 0004 3329     		cmp	r1, #51
 573 0006 27D9     		bls	.L49
 574              	.LVL43:
 210:Receiver.c    ****         retval = message_temp_0.size;
 575              		.loc 1 210 0
 576 0008 154B     		ldr	r3, .L52
 577 000a 93F84130 		ldrb	r3, [r3, #65]	@ zero_extendqisi2
 578 000e 73B1     		cbz	r3, .L47
 211:Receiver.c    ****         memcpy(buffer,message_temp_0.buffer,message_temp_0.size);
 579              		.loc 1 211 0
 580 0010 134D     		ldr	r5, .L52
 581 0012 95F84040 		ldrb	r4, [r5, #64]	@ zero_extendqisi2
 582              	.LVL44:
 212:Receiver.c    ****         message_temp_0.size = 0;
 583              		.loc 1 212 0
 584 0016 2246     		mov	r2, r4
 585 0018 05F10C01 		add	r1, r5, #12
 586              	.LVL45:
 587 001c FFF7FEFF 		bl	memcpy
 588              	.LVL46:
 213:Receiver.c    ****         message_temp_0.valid = false;
 589              		.loc 1 213 0
 590 0020 0023     		movs	r3, #0
 591 0022 85F84030 		strb	r3, [r5, #64]
 214:Receiver.c    ****     }else if(message_temp_1.valid){
 592              		.loc 1 214 0
 593 0026 85F84130 		strb	r3, [r5, #65]
 211:Receiver.c    ****         memcpy(buffer,message_temp_0.buffer,message_temp_0.size);
 594              		.loc 1 211 0
 595 002a 2046     		mov	r0, r4
 596 002c 38BD     		pop	{r3, r4, r5, pc}
 597              	.LVL47:
 598              	.L47:
 215:Receiver.c    ****         retval = message_temp_1.size;
 599              		.loc 1 215 0
 600 002e 0C4B     		ldr	r3, .L52
 601 0030 93F87930 		ldrb	r3, [r3, #121]	@ zero_extendqisi2
 602 0034 93B1     		cbz	r3, .L50
 216:Receiver.c    ****         memcpy(buffer,message_temp_1.buffer,message_temp_1.size);
 603              		.loc 1 216 0
 604 0036 0A4D     		ldr	r5, .L52
 605 0038 95F87840 		ldrb	r4, [r5, #120]	@ zero_extendqisi2
 606              	.LVL48:
ARM GAS  C:\Users\HENRIC~1\AppData\Local\Temp\cchGb56N.s 			page 20


 217:Receiver.c    ****         message_temp_1.size = 0;
 607              		.loc 1 217 0
 608 003c 2246     		mov	r2, r4
 609 003e 05F14401 		add	r1, r5, #68
 610              	.LVL49:
 611 0042 FFF7FEFF 		bl	memcpy
 612              	.LVL50:
 218:Receiver.c    ****         message_temp_1.valid = false;
 613              		.loc 1 218 0
 614 0046 0023     		movs	r3, #0
 615 0048 85F87830 		strb	r3, [r5, #120]
 219:Receiver.c    ****     }
 616              		.loc 1 219 0
 617 004c 85F87930 		strb	r3, [r5, #121]
 216:Receiver.c    ****         memcpy(buffer,message_temp_1.buffer,message_temp_1.size);
 618              		.loc 1 216 0
 619 0050 2046     		mov	r0, r4
 620 0052 38BD     		pop	{r3, r4, r5, pc}
 621              	.LVL51:
 622              	.L48:
 623              		.cfi_def_cfa_offset 0
 624              		.cfi_restore 3
 625              		.cfi_restore 4
 626              		.cfi_restore 5
 627              		.cfi_restore 14
 205:Receiver.c    ****     }
 628              		.loc 1 205 0
 629 0054 0020     		movs	r0, #0
 630              	.LVL52:
 223:Receiver.c    **** 
 631              		.loc 1 223 0
 632 0056 7047     		bx	lr
 633              	.LVL53:
 634              	.L49:
 635              		.cfi_def_cfa_offset 16
 636              		.cfi_offset 3, -16
 637              		.cfi_offset 4, -12
 638              		.cfi_offset 5, -8
 639              		.cfi_offset 14, -4
 205:Receiver.c    ****     }
 640              		.loc 1 205 0
 641 0058 0020     		movs	r0, #0
 642              	.LVL54:
 643 005a 38BD     		pop	{r3, r4, r5, pc}
 644              	.LVL55:
 645              	.L50:
 209:Receiver.c    ****     if(message_temp_0.valid){
 646              		.loc 1 209 0
 647 005c 0020     		movs	r0, #0
 648              	.LVL56:
 223:Receiver.c    **** 
 649              		.loc 1 223 0
 650 005e 38BD     		pop	{r3, r4, r5, pc}
 651              	.L53:
 652              		.align	2
 653              	.L52:
 654 0060 00000000 		.word	.LANCHOR0
ARM GAS  C:\Users\HENRIC~1\AppData\Local\Temp\cchGb56N.s 			page 21


 655              		.cfi_endproc
 656              	.LFE65:
 657              		.size	rx_buffer, .-rx_buffer
 658              		.bss
 659              		.align	2
 660              		.set	.LANCHOR0,. + 0
 661              		.type	_rx_sm, %object
 662              		.size	_rx_sm, 12
 663              	_rx_sm:
 664 0000 00000000 		.space	12
 664      00000000 
 664      00000000 
 665              		.type	message_temp_0, %object
 666              		.size	message_temp_0, 54
 667              	message_temp_0:
 668 000c 00000000 		.space	54
 668      00000000 
 668      00000000 
 668      00000000 
 668      00000000 
 669 0042 0000     		.space	2
 670              		.type	message_temp_1, %object
 671              		.size	message_temp_1, 54
 672              	message_temp_1:
 673 0044 00000000 		.space	54
 673      00000000 
 673      00000000 
 673      00000000 
 673      00000000 
 674              		.text
 675              	.Letext0:
 676              		.file 2 "c:\\program files (x86)\\cypress\\psoc creator\\4.1\\psoc creator\\import\\gnu\\arm\\5.4.
 677              		.file 3 "c:\\program files (x86)\\cypress\\psoc creator\\4.1\\psoc creator\\import\\gnu\\arm\\5.4.
 678              		.file 4 "ChannelMonitor.h"
 679              		.file 5 "CSMA_CD_Bus.h"
 680              		.file 6 "Generated_Source\\PSoC5/Rx_Timer_Trigger.h"
 681              		.file 7 "Generated_Source\\PSoC5/Rx_Timer.h"
 682              		.file 8 "Generated_Source\\PSoC5/Rx_Timer_int.h"
 683              		.file 9 "Generated_Source\\PSoC5/CyLib.h"
 684              		.file 10 "Generated_Source\\PSoC5/CSMA_RX.h"
 685              		.file 11 "Generated_Source\\PSoC5/core_cm3.h"