ARM GAS  C:\Users\HENRIC~1\AppData\Local\Temp\ccINU9CD.s 			page 1


   1              		.syntax unified
   2              		.cpu cortex-m3
   3              		.fpu softvfp
   4              		.eabi_attribute 20, 1
   5              		.eabi_attribute 21, 1
   6              		.eabi_attribute 23, 3
   7              		.eabi_attribute 24, 1
   8              		.eabi_attribute 25, 1
   9              		.eabi_attribute 26, 1
  10              		.eabi_attribute 30, 1
  11              		.eabi_attribute 34, 1
  12              		.eabi_attribute 18, 4
  13              		.thumb
  14              		.syntax unified
  15              		.file	"UserAddressAllocation.c"
  16              		.text
  17              	.Ltext0:
  18              		.cfi_sections	.debug_frame
  19              		.section	.text.user_init,"ax",%progbits
  20              		.align	2
  21              		.global	user_init
  22              		.thumb
  23              		.thumb_func
  24              		.type	user_init, %function
  25              	user_init:
  26              	.LFB0:
  27              		.file 1 "UserAddressAllocation.c"
   1:UserAddressAllocation.c **** /**
   2:UserAddressAllocation.c ****  * UserAddressAllocation
   3:UserAddressAllocation.c ****  * @author Curt Henrichs
   4:UserAddressAllocation.c ****  * @date 2-3-18
   5:UserAddressAllocation.c ****  *
   6:UserAddressAllocation.c ****  * Defines and initializes a user name lookup table that corresponds to CE4950
   7:UserAddressAllocation.c ****  * Networking 1's class roster for Winter Term 2017-2018 academic year.
   8:UserAddressAllocation.c ****  *
   9:UserAddressAllocation.c ****  * Use the mapping functions to convert from string to user to addresses.
  10:UserAddressAllocation.c ****  */
  11:UserAddressAllocation.c **** 
  12:UserAddressAllocation.c **** //=============================================================================
  13:UserAddressAllocation.c **** //                                 Libraries
  14:UserAddressAllocation.c **** //=============================================================================
  15:UserAddressAllocation.c **** 
  16:UserAddressAllocation.c **** #include "UserAddressAllocation.h"
  17:UserAddressAllocation.c **** 
  18:UserAddressAllocation.c **** #include <string.h>
  19:UserAddressAllocation.c **** 
  20:UserAddressAllocation.c **** //=============================================================================
  21:UserAddressAllocation.c **** //                            Data Structure Declaration
  22:UserAddressAllocation.c **** //=============================================================================
  23:UserAddressAllocation.c ****     
  24:UserAddressAllocation.c **** /**
  25:UserAddressAllocation.c ****  * Username table element captures relevant characteristics for all users of 
  26:UserAddressAllocation.c ****  * network bus.
  27:UserAddressAllocation.c ****  */
  28:UserAddressAllocation.c **** typedef struct User_Info {
  29:UserAddressAllocation.c ****     UserName_e name;    //! Enumerated name used for networking user association
  30:UserAddressAllocation.c ****     const char* str;    //! Stringified identity for application layer
ARM GAS  C:\Users\HENRIC~1\AppData\Local\Temp\ccINU9CD.s 			page 2


  31:UserAddressAllocation.c ****     uint8_t lvl_1_addr; //! First address for user
  32:UserAddressAllocation.c ****     uint8_t lvl_2_addr; //! Second address for user
  33:UserAddressAllocation.c ****     uint8_t lvl_3_addr; //! Third address for user
  34:UserAddressAllocation.c **** } User_Info_t;
  35:UserAddressAllocation.c **** 
  36:UserAddressAllocation.c **** //=============================================================================
  37:UserAddressAllocation.c **** //                                Private Attributes
  38:UserAddressAllocation.c **** //=============================================================================
  39:UserAddressAllocation.c ****     
  40:UserAddressAllocation.c **** /**
  41:UserAddressAllocation.c ****  * Stores all username information.
  42:UserAddressAllocation.c ****  * Initalized during module initalization.
  43:UserAddressAllocation.c ****  */
  44:UserAddressAllocation.c **** static User_Info_t _userTable[_USER_TABLE_SIZE];
  45:UserAddressAllocation.c **** 
  46:UserAddressAllocation.c **** //=============================================================================
  47:UserAddressAllocation.c **** //                          Public Function Iplementation
  48:UserAddressAllocation.c **** //=============================================================================
  49:UserAddressAllocation.c **** 
  50:UserAddressAllocation.c **** /**
  51:UserAddressAllocation.c ****  * Initialization for user table. Must be called before attempting to convert
  52:UserAddressAllocation.c ****  * between username forms.
  53:UserAddressAllocation.c ****  */
  54:UserAddressAllocation.c **** void user_init(void){
  28              		.loc 1 54 0
  29              		.cfi_startproc
  30              		@ args = 0, pretend = 0, frame = 0
  31              		@ frame_needed = 0, uses_anonymous_args = 0
  32 0000 2DE9F04F 		push	{r4, r5, r6, r7, r8, r9, r10, fp, lr}
  33              		.cfi_def_cfa_offset 36
  34              		.cfi_offset 4, -36
  35              		.cfi_offset 5, -32
  36              		.cfi_offset 6, -28
  37              		.cfi_offset 7, -24
  38              		.cfi_offset 8, -20
  39              		.cfi_offset 9, -16
  40              		.cfi_offset 10, -12
  41              		.cfi_offset 11, -8
  42              		.cfi_offset 14, -4
  55:UserAddressAllocation.c ****     _userTable[0].name = NETWORK_BROADCAST;
  43              		.loc 1 55 0
  44 0004 EC4B     		ldr	r3, .L3
  45 0006 0022     		movs	r2, #0
  46 0008 1A70     		strb	r2, [r3]
  56:UserAddressAllocation.c ****     _userTable[0].str = "broadcast";
  47              		.loc 1 56 0
  48 000a EC49     		ldr	r1, .L3+4
  49 000c 5960     		str	r1, [r3, #4]
  57:UserAddressAllocation.c ****     _userTable[0].lvl_1_addr = 0x00;
  50              		.loc 1 57 0
  51 000e 1A72     		strb	r2, [r3, #8]
  58:UserAddressAllocation.c ****     _userTable[0].lvl_2_addr = 0x00;
  52              		.loc 1 58 0
  53 0010 5A72     		strb	r2, [r3, #9]
  59:UserAddressAllocation.c ****     _userTable[0].lvl_3_addr = 0x00;
  54              		.loc 1 59 0
  55 0012 9A72     		strb	r2, [r3, #10]
ARM GAS  C:\Users\HENRIC~1\AppData\Local\Temp\ccINU9CD.s 			page 3


  60:UserAddressAllocation.c ****     
  61:UserAddressAllocation.c ****     _userTable[1].name = PAMELA_ANTAR;
  56              		.loc 1 61 0
  57 0014 0122     		movs	r2, #1
  58 0016 1A73     		strb	r2, [r3, #12]
  62:UserAddressAllocation.c ****     _userTable[1].str = "pamela antar";
  59              		.loc 1 62 0
  60 0018 E949     		ldr	r1, .L3+8
  61 001a 1961     		str	r1, [r3, #16]
  63:UserAddressAllocation.c ****     _userTable[1].lvl_1_addr = 0x01;
  62              		.loc 1 63 0
  63 001c 1A75     		strb	r2, [r3, #20]
  64:UserAddressAllocation.c ****     _userTable[1].lvl_2_addr = 0x02;
  64              		.loc 1 64 0
  65 001e 0221     		movs	r1, #2
  66 0020 5975     		strb	r1, [r3, #21]
  65:UserAddressAllocation.c ****     _userTable[1].lvl_3_addr = 0x03;
  67              		.loc 1 65 0
  68 0022 0322     		movs	r2, #3
  69 0024 9A75     		strb	r2, [r3, #22]
  66:UserAddressAllocation.c ****     
  67:UserAddressAllocation.c ****     _userTable[2].name = SAMUEL_CONROY;
  70              		.loc 1 67 0
  71 0026 1976     		strb	r1, [r3, #24]
  68:UserAddressAllocation.c ****     _userTable[2].str = "samuel conroy";
  72              		.loc 1 68 0
  73 0028 E649     		ldr	r1, .L3+12
  74 002a D961     		str	r1, [r3, #28]
  69:UserAddressAllocation.c ****     _userTable[2].lvl_1_addr = 0x04;
  75              		.loc 1 69 0
  76 002c 0424     		movs	r4, #4
  77 002e 83F82040 		strb	r4, [r3, #32]
  70:UserAddressAllocation.c ****     _userTable[2].lvl_2_addr = 0x05;
  78              		.loc 1 70 0
  79 0032 0520     		movs	r0, #5
  80 0034 83F82100 		strb	r0, [r3, #33]
  71:UserAddressAllocation.c ****     _userTable[2].lvl_3_addr = 0x06;
  81              		.loc 1 71 0
  82 0038 0621     		movs	r1, #6
  83 003a 83F82210 		strb	r1, [r3, #34]
  72:UserAddressAllocation.c ****     
  73:UserAddressAllocation.c ****     _userTable[3].name = SAMUEL_HALLERMAN;
  84              		.loc 1 73 0
  85 003e 83F82420 		strb	r2, [r3, #36]
  74:UserAddressAllocation.c ****     _userTable[3].str = "samuel hallerman";
  86              		.loc 1 74 0
  87 0042 E14A     		ldr	r2, .L3+16
  88 0044 9A62     		str	r2, [r3, #40]
  75:UserAddressAllocation.c ****     _userTable[3].lvl_1_addr = 0x07;
  89              		.loc 1 75 0
  90 0046 0722     		movs	r2, #7
  91 0048 83F82C20 		strb	r2, [r3, #44]
  76:UserAddressAllocation.c ****     _userTable[3].lvl_2_addr = 0x08;
  92              		.loc 1 76 0
  93 004c 4FF0080B 		mov	fp, #8
  94 0050 83F82DB0 		strb	fp, [r3, #45]
  77:UserAddressAllocation.c ****     _userTable[3].lvl_3_addr = 0x09;
ARM GAS  C:\Users\HENRIC~1\AppData\Local\Temp\ccINU9CD.s 			page 4


  95              		.loc 1 77 0
  96 0054 4FF0090A 		mov	r10, #9
  97 0058 83F82EA0 		strb	r10, [r3, #46]
  78:UserAddressAllocation.c ****     
  79:UserAddressAllocation.c ****     _userTable[4].name = CURT_HENRICHS;
  98              		.loc 1 79 0
  99 005c 83F83040 		strb	r4, [r3, #48]
  80:UserAddressAllocation.c ****     _userTable[4].str = "curt henrichs";
 100              		.loc 1 80 0
 101 0060 DA4C     		ldr	r4, .L3+20
 102 0062 5C63     		str	r4, [r3, #52]
  81:UserAddressAllocation.c ****     _userTable[4].lvl_1_addr = 0x0A;
 103              		.loc 1 81 0
 104 0064 4FF00A09 		mov	r9, #10
 105 0068 83F83890 		strb	r9, [r3, #56]
  82:UserAddressAllocation.c ****     _userTable[4].lvl_2_addr = 0x0B;
 106              		.loc 1 82 0
 107 006c 4FF00B08 		mov	r8, #11
 108 0070 83F83980 		strb	r8, [r3, #57]
  83:UserAddressAllocation.c ****     _userTable[4].lvl_3_addr = 0x0C;
 109              		.loc 1 83 0
 110 0074 4FF00C0C 		mov	ip, #12
 111 0078 83F83AC0 		strb	ip, [r3, #58]
  84:UserAddressAllocation.c ****     
  85:UserAddressAllocation.c ****     _userTable[5].name = JOSEPHINE_LOCURTO;
 112              		.loc 1 85 0
 113 007c 83F83C00 		strb	r0, [r3, #60]
  86:UserAddressAllocation.c ****     _userTable[5].str = "josephine locurto";
 114              		.loc 1 86 0
 115 0080 D348     		ldr	r0, .L3+24
 116 0082 1864     		str	r0, [r3, #64]
  87:UserAddressAllocation.c ****     _userTable[5].lvl_1_addr = 0x0D;
 117              		.loc 1 87 0
 118 0084 4FF00D0E 		mov	lr, #13
 119 0088 83F844E0 		strb	lr, [r3, #68]
  88:UserAddressAllocation.c ****     _userTable[5].lvl_2_addr = 0x0E;
 120              		.loc 1 88 0
 121 008c 0E27     		movs	r7, #14
 122 008e 83F84570 		strb	r7, [r3, #69]
  89:UserAddressAllocation.c ****     _userTable[5].lvl_3_addr = 0x0F;
 123              		.loc 1 89 0
 124 0092 0F26     		movs	r6, #15
 125 0094 83F84660 		strb	r6, [r3, #70]
  90:UserAddressAllocation.c ****     
  91:UserAddressAllocation.c ****     _userTable[6].name = ANTHONY_MARLOWE;
 126              		.loc 1 91 0
 127 0098 83F84810 		strb	r1, [r3, #72]
  92:UserAddressAllocation.c ****     _userTable[6].str = "anthony marlowe";
 128              		.loc 1 92 0
 129 009c CD49     		ldr	r1, .L3+28
 130 009e D964     		str	r1, [r3, #76]
  93:UserAddressAllocation.c ****     _userTable[6].lvl_1_addr = 0x10;
 131              		.loc 1 93 0
 132 00a0 1025     		movs	r5, #16
 133 00a2 83F85050 		strb	r5, [r3, #80]
  94:UserAddressAllocation.c ****     _userTable[6].lvl_2_addr = 0x11;
 134              		.loc 1 94 0
ARM GAS  C:\Users\HENRIC~1\AppData\Local\Temp\ccINU9CD.s 			page 5


 135 00a6 1124     		movs	r4, #17
 136 00a8 83F85140 		strb	r4, [r3, #81]
  95:UserAddressAllocation.c ****     _userTable[6].lvl_3_addr = 0x12;
 137              		.loc 1 95 0
 138 00ac 1220     		movs	r0, #18
 139 00ae 83F85200 		strb	r0, [r3, #82]
  96:UserAddressAllocation.c ****     
  97:UserAddressAllocation.c ****     _userTable[7].name = MUNAZZA_NAEEM;
 140              		.loc 1 97 0
 141 00b2 83F85420 		strb	r2, [r3, #84]
  98:UserAddressAllocation.c ****     _userTable[7].str = "munazza naeem";
 142              		.loc 1 98 0
 143 00b6 C84A     		ldr	r2, .L3+32
 144 00b8 9A65     		str	r2, [r3, #88]
  99:UserAddressAllocation.c ****     _userTable[7].lvl_1_addr = 0x13;
 145              		.loc 1 99 0
 146 00ba 1321     		movs	r1, #19
 147 00bc 83F85C10 		strb	r1, [r3, #92]
 100:UserAddressAllocation.c ****     _userTable[7].lvl_2_addr = 0x14;
 148              		.loc 1 100 0
 149 00c0 4FF01402 		mov	r2, #20
 150 00c4 83F85D20 		strb	r2, [r3, #93]
 101:UserAddressAllocation.c ****     _userTable[7].lvl_3_addr = 0x15;
 151              		.loc 1 101 0
 152 00c8 4FF01502 		mov	r2, #21
 153 00cc 83F85E20 		strb	r2, [r3, #94]
 102:UserAddressAllocation.c ****     
 103:UserAddressAllocation.c ****     _userTable[8].name = MATHEW_PIKE;
 154              		.loc 1 103 0
 155 00d0 83F860B0 		strb	fp, [r3, #96]
 104:UserAddressAllocation.c ****     _userTable[8].str = "mathew pike";
 156              		.loc 1 104 0
 157 00d4 DFF848B3 		ldr	fp, .L3+104
 158 00d8 C3F864B0 		str	fp, [r3, #100]
 105:UserAddressAllocation.c ****     _userTable[8].lvl_1_addr = 0x16;
 159              		.loc 1 105 0
 160 00dc 4FF0160B 		mov	fp, #22
 161 00e0 83F868B0 		strb	fp, [r3, #104]
 106:UserAddressAllocation.c ****     _userTable[8].lvl_2_addr = 0x17;
 162              		.loc 1 106 0
 163 00e4 4FF01702 		mov	r2, #23
 164 00e8 83F86920 		strb	r2, [r3, #105]
 107:UserAddressAllocation.c ****     _userTable[8].lvl_3_addr = 0x18;
 165              		.loc 1 107 0
 166 00ec 4FF01802 		mov	r2, #24
 167 00f0 83F86A20 		strb	r2, [r3, #106]
 108:UserAddressAllocation.c ****     
 109:UserAddressAllocation.c ****     _userTable[9].name = SHAHRUKE_QURESHI;
 168              		.loc 1 109 0
 169 00f4 83F86CA0 		strb	r10, [r3, #108]
 110:UserAddressAllocation.c ****     _userTable[9].str = "shahruke qureshi";
 170              		.loc 1 110 0
 171 00f8 DFF828A3 		ldr	r10, .L3+108
 172 00fc C3F870A0 		str	r10, [r3, #112]
 111:UserAddressAllocation.c ****     _userTable[9].lvl_1_addr = 0x19;
 173              		.loc 1 111 0
 174 0100 4FF0190A 		mov	r10, #25
ARM GAS  C:\Users\HENRIC~1\AppData\Local\Temp\ccINU9CD.s 			page 6


 175 0104 83F874A0 		strb	r10, [r3, #116]
 112:UserAddressAllocation.c ****     _userTable[9].lvl_2_addr = 0x1A;
 176              		.loc 1 112 0
 177 0108 4FF01A02 		mov	r2, #26
 178 010c 83F87520 		strb	r2, [r3, #117]
 113:UserAddressAllocation.c ****     _userTable[9].lvl_3_addr = 0x1B;
 179              		.loc 1 113 0
 180 0110 4FF01B02 		mov	r2, #27
 181 0114 83F87620 		strb	r2, [r3, #118]
 114:UserAddressAllocation.c ****     
 115:UserAddressAllocation.c ****     _userTable[10].name = DIVIN_RAMACHANDRAN;
 182              		.loc 1 115 0
 183 0118 83F87890 		strb	r9, [r3, #120]
 116:UserAddressAllocation.c ****     _userTable[10].str = "divin ramachandran";
 184              		.loc 1 116 0
 185 011c DFF80893 		ldr	r9, .L3+112
 186 0120 C3F87C90 		str	r9, [r3, #124]
 117:UserAddressAllocation.c ****     _userTable[10].lvl_1_addr = 0x1C;
 187              		.loc 1 117 0
 188 0124 4FF01C02 		mov	r2, #28
 189 0128 83F88020 		strb	r2, [r3, #128]
 118:UserAddressAllocation.c ****     _userTable[10].lvl_2_addr = 0x1D;
 190              		.loc 1 118 0
 191 012c 4FF01D02 		mov	r2, #29
 192 0130 83F88120 		strb	r2, [r3, #129]
 119:UserAddressAllocation.c ****     _userTable[10].lvl_3_addr = 0x1E;
 193              		.loc 1 119 0
 194 0134 4FF01E02 		mov	r2, #30
 195 0138 83F88220 		strb	r2, [r3, #130]
 120:UserAddressAllocation.c ****     
 121:UserAddressAllocation.c ****     _userTable[11].name = ALEXANDER_ROBERTS;
 196              		.loc 1 121 0
 197 013c 83F88480 		strb	r8, [r3, #132]
 122:UserAddressAllocation.c ****     _userTable[11].str = "alexander roberts";
 198              		.loc 1 122 0
 199 0140 DFF8E882 		ldr	r8, .L3+116
 200 0144 C3F88880 		str	r8, [r3, #136]
 123:UserAddressAllocation.c ****     _userTable[11].lvl_1_addr = 0x1F;
 201              		.loc 1 123 0
 202 0148 4FF01F02 		mov	r2, #31
 203 014c 83F88C20 		strb	r2, [r3, #140]
 124:UserAddressAllocation.c ****     _userTable[11].lvl_2_addr = 0x20;
 204              		.loc 1 124 0
 205 0150 4FF02002 		mov	r2, #32
 206 0154 83F88D20 		strb	r2, [r3, #141]
 125:UserAddressAllocation.c ****     _userTable[11].lvl_3_addr = 0x21;
 207              		.loc 1 125 0
 208 0158 4FF02102 		mov	r2, #33
 209 015c 83F88E20 		strb	r2, [r3, #142]
 126:UserAddressAllocation.c ****     
 127:UserAddressAllocation.c ****     _userTable[12].name = REID_RUMACK;
 210              		.loc 1 127 0
 211 0160 83F890C0 		strb	ip, [r3, #144]
 128:UserAddressAllocation.c ****     _userTable[12].str = "reid rumack";
 212              		.loc 1 128 0
 213 0164 DFF8C8C2 		ldr	ip, .L3+120
 214 0168 C3F894C0 		str	ip, [r3, #148]
ARM GAS  C:\Users\HENRIC~1\AppData\Local\Temp\ccINU9CD.s 			page 7


 129:UserAddressAllocation.c ****     _userTable[12].lvl_1_addr = 0x22;
 215              		.loc 1 129 0
 216 016c 4FF02202 		mov	r2, #34
 217 0170 83F89820 		strb	r2, [r3, #152]
 130:UserAddressAllocation.c ****     _userTable[12].lvl_2_addr = 0x23;
 218              		.loc 1 130 0
 219 0174 4FF02302 		mov	r2, #35
 220 0178 83F89920 		strb	r2, [r3, #153]
 131:UserAddressAllocation.c ****     _userTable[12].lvl_3_addr = 0x24;
 221              		.loc 1 131 0
 222 017c 4FF02402 		mov	r2, #36
 223 0180 83F89A20 		strb	r2, [r3, #154]
 132:UserAddressAllocation.c ****     
 133:UserAddressAllocation.c ****     _userTable[13].name = JOHN_SELFORS;
 224              		.loc 1 133 0
 225 0184 83F89CE0 		strb	lr, [r3, #156]
 134:UserAddressAllocation.c ****     _userTable[13].str = "john selfors";
 226              		.loc 1 134 0
 227 0188 DFF8A8E2 		ldr	lr, .L3+124
 228 018c C3F8A0E0 		str	lr, [r3, #160]
 135:UserAddressAllocation.c ****     _userTable[13].lvl_1_addr = 0x25;
 229              		.loc 1 135 0
 230 0190 4FF02502 		mov	r2, #37
 231 0194 83F8A420 		strb	r2, [r3, #164]
 136:UserAddressAllocation.c ****     _userTable[13].lvl_2_addr = 0x26;
 232              		.loc 1 136 0
 233 0198 4FF02609 		mov	r9, #38
 234 019c 83F8A590 		strb	r9, [r3, #165]
 137:UserAddressAllocation.c ****     _userTable[13].lvl_3_addr = 0x27;
 235              		.loc 1 137 0
 236 01a0 4FF02708 		mov	r8, #39
 237 01a4 83F8A680 		strb	r8, [r3, #166]
 138:UserAddressAllocation.c ****     
 139:UserAddressAllocation.c ****     _userTable[14].name = ZACHARY_STANKE;
 238              		.loc 1 139 0
 239 01a8 83F8A870 		strb	r7, [r3, #168]
 140:UserAddressAllocation.c ****     _userTable[14].str = "zachary stanke";
 240              		.loc 1 140 0
 241 01ac 8B4F     		ldr	r7, .L3+36
 242 01ae C3F8AC70 		str	r7, [r3, #172]
 141:UserAddressAllocation.c ****     _userTable[14].lvl_1_addr = 0x28;
 243              		.loc 1 141 0
 244 01b2 4FF0280C 		mov	ip, #40
 245 01b6 83F8B0C0 		strb	ip, [r3, #176]
 142:UserAddressAllocation.c ****     _userTable[14].lvl_2_addr = 0x29;
 246              		.loc 1 142 0
 247 01ba 4FF0290E 		mov	lr, #41
 248 01be 83F8B1E0 		strb	lr, [r3, #177]
 143:UserAddressAllocation.c ****     _userTable[14].lvl_3_addr = 0x2A;
 249              		.loc 1 143 0
 250 01c2 2A27     		movs	r7, #42
 251 01c4 83F8B270 		strb	r7, [r3, #178]
 144:UserAddressAllocation.c ****     
 145:UserAddressAllocation.c ****     _userTable[15].name = ANDREW_STOEHR;
 252              		.loc 1 145 0
 253 01c8 83F8B460 		strb	r6, [r3, #180]
 146:UserAddressAllocation.c ****     _userTable[15].str = "andrew stoehr";
ARM GAS  C:\Users\HENRIC~1\AppData\Local\Temp\ccINU9CD.s 			page 8


 254              		.loc 1 146 0
 255 01cc 844E     		ldr	r6, .L3+40
 256 01ce C3F8B860 		str	r6, [r3, #184]
 147:UserAddressAllocation.c ****     _userTable[15].lvl_1_addr = 0x2B;
 257              		.loc 1 147 0
 258 01d2 2B26     		movs	r6, #43
 259 01d4 83F8BC60 		strb	r6, [r3, #188]
 148:UserAddressAllocation.c ****     _userTable[15].lvl_2_addr = 0x2C;
 260              		.loc 1 148 0
 261 01d8 2C26     		movs	r6, #44
 262 01da 83F8BD60 		strb	r6, [r3, #189]
 149:UserAddressAllocation.c ****     _userTable[15].lvl_3_addr = 0x2D;
 263              		.loc 1 149 0
 264 01de 2D26     		movs	r6, #45
 265 01e0 83F8BE60 		strb	r6, [r3, #190]
 150:UserAddressAllocation.c ****     
 151:UserAddressAllocation.c ****     _userTable[16].name = TYLER_WELLS;
 266              		.loc 1 151 0
 267 01e4 83F8C050 		strb	r5, [r3, #192]
 152:UserAddressAllocation.c ****     _userTable[16].str = "tyler wells";
 268              		.loc 1 152 0
 269 01e8 7E4D     		ldr	r5, .L3+44
 270 01ea C3F8C450 		str	r5, [r3, #196]
 153:UserAddressAllocation.c ****     _userTable[16].lvl_1_addr = 0x2E;
 271              		.loc 1 153 0
 272 01ee 2E25     		movs	r5, #46
 273 01f0 83F8C850 		strb	r5, [r3, #200]
 154:UserAddressAllocation.c ****     _userTable[16].lvl_2_addr = 0x2F;
 274              		.loc 1 154 0
 275 01f4 2F25     		movs	r5, #47
 276 01f6 83F8C950 		strb	r5, [r3, #201]
 155:UserAddressAllocation.c ****     _userTable[16].lvl_3_addr = 0x30;
 277              		.loc 1 155 0
 278 01fa 3025     		movs	r5, #48
 279 01fc 83F8CA50 		strb	r5, [r3, #202]
 156:UserAddressAllocation.c ****     
 157:UserAddressAllocation.c ****     _userTable[17].name = JOHNATHON_WENZEL;
 280              		.loc 1 157 0
 281 0200 83F8CC40 		strb	r4, [r3, #204]
 158:UserAddressAllocation.c ****     _userTable[17].str = "johnathon wenzel";
 282              		.loc 1 158 0
 283 0204 784C     		ldr	r4, .L3+48
 284 0206 C3F8D040 		str	r4, [r3, #208]
 159:UserAddressAllocation.c ****     _userTable[17].lvl_1_addr = 0x31;
 285              		.loc 1 159 0
 286 020a 3124     		movs	r4, #49
 287 020c 83F8D440 		strb	r4, [r3, #212]
 160:UserAddressAllocation.c ****     _userTable[17].lvl_2_addr = 0x32;
 288              		.loc 1 160 0
 289 0210 3224     		movs	r4, #50
 290 0212 83F8D540 		strb	r4, [r3, #213]
 161:UserAddressAllocation.c ****     _userTable[17].lvl_3_addr = 0x33;
 291              		.loc 1 161 0
 292 0216 3324     		movs	r4, #51
 293 0218 83F8D640 		strb	r4, [r3, #214]
 162:UserAddressAllocation.c ****     
 163:UserAddressAllocation.c ****     _userTable[18].name = JOSHUA_WIDDER;
ARM GAS  C:\Users\HENRIC~1\AppData\Local\Temp\ccINU9CD.s 			page 9


 294              		.loc 1 163 0
 295 021c 83F8D800 		strb	r0, [r3, #216]
 164:UserAddressAllocation.c ****     _userTable[18].str = "joshua widder";
 296              		.loc 1 164 0
 297 0220 7248     		ldr	r0, .L3+52
 298 0222 C3F8DC00 		str	r0, [r3, #220]
 165:UserAddressAllocation.c ****     _userTable[18].lvl_1_addr = 0x34;
 299              		.loc 1 165 0
 300 0226 3420     		movs	r0, #52
 301 0228 83F8E000 		strb	r0, [r3, #224]
 166:UserAddressAllocation.c ****     _userTable[18].lvl_2_addr = 0x35;
 302              		.loc 1 166 0
 303 022c 3520     		movs	r0, #53
 304 022e 83F8E100 		strb	r0, [r3, #225]
 167:UserAddressAllocation.c ****     _userTable[18].lvl_3_addr = 0x36;
 305              		.loc 1 167 0
 306 0232 3620     		movs	r0, #54
 307 0234 83F8E200 		strb	r0, [r3, #226]
 168:UserAddressAllocation.c ****     
 169:UserAddressAllocation.c ****     _userTable[19].name = ANDREW_WINSTON;
 308              		.loc 1 169 0
 309 0238 83F8E410 		strb	r1, [r3, #228]
 170:UserAddressAllocation.c ****     _userTable[19].str = "andrew winston";
 310              		.loc 1 170 0
 311 023c 6C49     		ldr	r1, .L3+56
 312 023e C3F8E810 		str	r1, [r3, #232]
 171:UserAddressAllocation.c ****     _userTable[19].lvl_1_addr = 0x37;
 313              		.loc 1 171 0
 314 0242 3721     		movs	r1, #55
 315 0244 83F8EC10 		strb	r1, [r3, #236]
 172:UserAddressAllocation.c ****     _userTable[19].lvl_2_addr = 0x38;
 316              		.loc 1 172 0
 317 0248 3821     		movs	r1, #56
 318 024a 83F8ED10 		strb	r1, [r3, #237]
 173:UserAddressAllocation.c ****     _userTable[19].lvl_3_addr = 0x39;
 319              		.loc 1 173 0
 320 024e 3921     		movs	r1, #57
 321 0250 83F8EE10 		strb	r1, [r3, #238]
 174:UserAddressAllocation.c ****     
 175:UserAddressAllocation.c ****     _userTable[20].name = XU_ZHANG;
 322              		.loc 1 175 0
 323 0254 4FF01402 		mov	r2, #20
 324 0258 83F8F020 		strb	r2, [r3, #240]
 176:UserAddressAllocation.c ****     _userTable[20].str = "xu zhang";
 325              		.loc 1 176 0
 326 025c 654A     		ldr	r2, .L3+60
 327 025e C3F8F420 		str	r2, [r3, #244]
 177:UserAddressAllocation.c ****     _userTable[20].lvl_1_addr = 0x3A;
 328              		.loc 1 177 0
 329 0262 3A22     		movs	r2, #58
 330 0264 83F8F820 		strb	r2, [r3, #248]
 178:UserAddressAllocation.c ****     _userTable[20].lvl_2_addr = 0x3B;
 331              		.loc 1 178 0
 332 0268 3B22     		movs	r2, #59
 333 026a 83F8F920 		strb	r2, [r3, #249]
 179:UserAddressAllocation.c ****     _userTable[20].lvl_3_addr = 0x3C;
 334              		.loc 1 179 0
ARM GAS  C:\Users\HENRIC~1\AppData\Local\Temp\ccINU9CD.s 			page 10


 335 026e 3C22     		movs	r2, #60
 336 0270 83F8FA20 		strb	r2, [r3, #250]
 180:UserAddressAllocation.c ****     
 181:UserAddressAllocation.c ****     _userTable[21].name = ALWIN_ABRAHAM;
 337              		.loc 1 181 0
 338 0274 4FF01502 		mov	r2, #21
 339 0278 83F8FC20 		strb	r2, [r3, #252]
 182:UserAddressAllocation.c ****     _userTable[21].str = "alwin abraham";
 340              		.loc 1 182 0
 341 027c 5E4A     		ldr	r2, .L3+64
 342 027e C3F80021 		str	r2, [r3, #256]
 183:UserAddressAllocation.c ****     _userTable[21].lvl_1_addr = 0x3D;
 343              		.loc 1 183 0
 344 0282 3D22     		movs	r2, #61
 345 0284 83F80421 		strb	r2, [r3, #260]
 184:UserAddressAllocation.c ****     _userTable[21].lvl_2_addr = 0x3E;
 346              		.loc 1 184 0
 347 0288 3E22     		movs	r2, #62
 348 028a 83F80521 		strb	r2, [r3, #261]
 185:UserAddressAllocation.c ****     _userTable[21].lvl_3_addr = 0x3F;
 349              		.loc 1 185 0
 350 028e 3F22     		movs	r2, #63
 351 0290 83F80621 		strb	r2, [r3, #262]
 186:UserAddressAllocation.c ****     
 187:UserAddressAllocation.c ****     _userTable[22].name = NATHEER_ALKHUNAIZY;
 352              		.loc 1 187 0
 353 0294 83F808B1 		strb	fp, [r3, #264]
 188:UserAddressAllocation.c ****     _userTable[22].str = "natheer alkhunaizy";
 354              		.loc 1 188 0
 355 0298 584A     		ldr	r2, .L3+68
 356 029a C3F80C21 		str	r2, [r3, #268]
 189:UserAddressAllocation.c ****     _userTable[22].lvl_1_addr = 0x40;
 357              		.loc 1 189 0
 358 029e 4022     		movs	r2, #64
 359 02a0 83F81021 		strb	r2, [r3, #272]
 190:UserAddressAllocation.c ****     _userTable[22].lvl_2_addr = 0x41;
 360              		.loc 1 190 0
 361 02a4 4122     		movs	r2, #65
 362 02a6 83F81121 		strb	r2, [r3, #273]
 191:UserAddressAllocation.c ****     _userTable[22].lvl_3_addr = 0x42;
 363              		.loc 1 191 0
 364 02aa 4222     		movs	r2, #66
 365 02ac 83F81221 		strb	r2, [r3, #274]
 192:UserAddressAllocation.c ****     
 193:UserAddressAllocation.c ****     _userTable[23].name = CALEB_BAHR;
 366              		.loc 1 193 0
 367 02b0 4FF01702 		mov	r2, #23
 368 02b4 83F81421 		strb	r2, [r3, #276]
 194:UserAddressAllocation.c ****     _userTable[23].str = "caleb bahr";
 369              		.loc 1 194 0
 370 02b8 514A     		ldr	r2, .L3+72
 371 02ba C3F81821 		str	r2, [r3, #280]
 195:UserAddressAllocation.c ****     _userTable[23].lvl_1_addr = 0x43;
 372              		.loc 1 195 0
 373 02be 4322     		movs	r2, #67
 374 02c0 83F81C21 		strb	r2, [r3, #284]
 196:UserAddressAllocation.c ****     _userTable[23].lvl_2_addr = 0x44;
ARM GAS  C:\Users\HENRIC~1\AppData\Local\Temp\ccINU9CD.s 			page 11


 375              		.loc 1 196 0
 376 02c4 4422     		movs	r2, #68
 377 02c6 83F81D21 		strb	r2, [r3, #285]
 197:UserAddressAllocation.c ****     _userTable[23].lvl_3_addr = 0x45;
 378              		.loc 1 197 0
 379 02ca 4522     		movs	r2, #69
 380 02cc 83F81E21 		strb	r2, [r3, #286]
 198:UserAddressAllocation.c ****     
 199:UserAddressAllocation.c ****     _userTable[24].name = PALLAV_BANIK;
 381              		.loc 1 199 0
 382 02d0 4FF01802 		mov	r2, #24
 383 02d4 83F82021 		strb	r2, [r3, #288]
 200:UserAddressAllocation.c ****     _userTable[24].str = "pallav banik";
 384              		.loc 1 200 0
 385 02d8 4A4A     		ldr	r2, .L3+76
 386 02da C3F82421 		str	r2, [r3, #292]
 201:UserAddressAllocation.c ****     _userTable[24].lvl_1_addr = 0x46;
 387              		.loc 1 201 0
 388 02de 4622     		movs	r2, #70
 389 02e0 83F82821 		strb	r2, [r3, #296]
 202:UserAddressAllocation.c ****     _userTable[24].lvl_2_addr = 0x47;
 390              		.loc 1 202 0
 391 02e4 4722     		movs	r2, #71
 392 02e6 83F82921 		strb	r2, [r3, #297]
 203:UserAddressAllocation.c ****     _userTable[24].lvl_3_addr = 0x48;
 393              		.loc 1 203 0
 394 02ea 4822     		movs	r2, #72
 395 02ec 83F82A21 		strb	r2, [r3, #298]
 204:UserAddressAllocation.c ****     
 205:UserAddressAllocation.c ****     _userTable[25].name = ZACHARY_BARTMER;
 396              		.loc 1 205 0
 397 02f0 83F82CA1 		strb	r10, [r3, #300]
 206:UserAddressAllocation.c ****     _userTable[25].str = "zachary bartmer";
 398              		.loc 1 206 0
 399 02f4 444A     		ldr	r2, .L3+80
 400 02f6 C3F83021 		str	r2, [r3, #304]
 207:UserAddressAllocation.c ****     _userTable[25].lvl_1_addr = 0x49;
 401              		.loc 1 207 0
 402 02fa 4922     		movs	r2, #73
 403 02fc 83F83421 		strb	r2, [r3, #308]
 208:UserAddressAllocation.c ****     _userTable[25].lvl_2_addr = 0x4A;
 404              		.loc 1 208 0
 405 0300 4A22     		movs	r2, #74
 406 0302 83F83521 		strb	r2, [r3, #309]
 209:UserAddressAllocation.c ****     _userTable[25].lvl_3_addr = 0x4B;
 407              		.loc 1 209 0
 408 0306 4B22     		movs	r2, #75
 409 0308 83F83621 		strb	r2, [r3, #310]
 210:UserAddressAllocation.c ****     
 211:UserAddressAllocation.c ****     _userTable[26].name = NICHOLAS_BOUSKA;
 410              		.loc 1 211 0
 411 030c 4FF01A02 		mov	r2, #26
 412 0310 83F83821 		strb	r2, [r3, #312]
 212:UserAddressAllocation.c ****     _userTable[26].str = "nicholas bouska";
 413              		.loc 1 212 0
 414 0314 3D4A     		ldr	r2, .L3+84
 415 0316 C3F83C21 		str	r2, [r3, #316]
ARM GAS  C:\Users\HENRIC~1\AppData\Local\Temp\ccINU9CD.s 			page 12


 213:UserAddressAllocation.c ****     _userTable[26].lvl_1_addr = 0x4C;
 416              		.loc 1 213 0
 417 031a 4C22     		movs	r2, #76
 418 031c 83F84021 		strb	r2, [r3, #320]
 214:UserAddressAllocation.c ****     _userTable[26].lvl_2_addr = 0x4D;
 419              		.loc 1 214 0
 420 0320 4D22     		movs	r2, #77
 421 0322 83F84121 		strb	r2, [r3, #321]
 215:UserAddressAllocation.c ****     _userTable[26].lvl_3_addr = 0x4E;
 422              		.loc 1 215 0
 423 0326 4E22     		movs	r2, #78
 424 0328 83F84221 		strb	r2, [r3, #322]
 216:UserAddressAllocation.c ****     
 217:UserAddressAllocation.c ****     _userTable[27].name = RILEY_BRUCE;
 425              		.loc 1 217 0
 426 032c 4FF01B02 		mov	r2, #27
 427 0330 83F84421 		strb	r2, [r3, #324]
 218:UserAddressAllocation.c ****     _userTable[27].str = "riley bruce";
 428              		.loc 1 218 0
 429 0334 364A     		ldr	r2, .L3+88
 430 0336 C3F84821 		str	r2, [r3, #328]
 219:UserAddressAllocation.c ****     _userTable[27].lvl_1_addr = 0x4F;
 431              		.loc 1 219 0
 432 033a 4F22     		movs	r2, #79
 433 033c 83F84C21 		strb	r2, [r3, #332]
 220:UserAddressAllocation.c ****     _userTable[27].lvl_2_addr = 0x50;
 434              		.loc 1 220 0
 435 0340 5022     		movs	r2, #80
 436 0342 83F84D21 		strb	r2, [r3, #333]
 221:UserAddressAllocation.c ****     _userTable[27].lvl_3_addr = 0x51;
 437              		.loc 1 221 0
 438 0346 5122     		movs	r2, #81
 439 0348 83F84E21 		strb	r2, [r3, #334]
 222:UserAddressAllocation.c ****     
 223:UserAddressAllocation.c ****     _userTable[28].name = GERALD_GEHRKE;
 440              		.loc 1 223 0
 441 034c 4FF01C02 		mov	r2, #28
 442 0350 83F85021 		strb	r2, [r3, #336]
 224:UserAddressAllocation.c ****     _userTable[28].str = "gerlad gehrke";
 443              		.loc 1 224 0
 444 0354 2F4A     		ldr	r2, .L3+92
 445 0356 C3F85421 		str	r2, [r3, #340]
 225:UserAddressAllocation.c ****     _userTable[28].lvl_1_addr = 0x52;
 446              		.loc 1 225 0
 447 035a 5222     		movs	r2, #82
 448 035c 83F85821 		strb	r2, [r3, #344]
 226:UserAddressAllocation.c ****     _userTable[28].lvl_2_addr = 0x53;
 449              		.loc 1 226 0
 450 0360 5322     		movs	r2, #83
 451 0362 83F85921 		strb	r2, [r3, #345]
 227:UserAddressAllocation.c ****     _userTable[28].lvl_3_addr = 0x54;
 452              		.loc 1 227 0
 453 0366 5422     		movs	r2, #84
 454 0368 83F85A21 		strb	r2, [r3, #346]
 228:UserAddressAllocation.c ****     
 229:UserAddressAllocation.c ****     _userTable[29].name = BENTON_GEIMER;
 455              		.loc 1 229 0
ARM GAS  C:\Users\HENRIC~1\AppData\Local\Temp\ccINU9CD.s 			page 13


 456 036c 4FF01D02 		mov	r2, #29
 457 0370 83F85C21 		strb	r2, [r3, #348]
 230:UserAddressAllocation.c ****     _userTable[29].str = "benton geitmer";
 458              		.loc 1 230 0
 459 0374 284A     		ldr	r2, .L3+96
 460 0376 C3F86021 		str	r2, [r3, #352]
 231:UserAddressAllocation.c ****     _userTable[29].lvl_1_addr = 0x55;
 461              		.loc 1 231 0
 462 037a 5522     		movs	r2, #85
 463 037c 83F86421 		strb	r2, [r3, #356]
 232:UserAddressAllocation.c ****     _userTable[29].lvl_2_addr = 0x56;
 464              		.loc 1 232 0
 465 0380 5622     		movs	r2, #86
 466 0382 83F86521 		strb	r2, [r3, #357]
 233:UserAddressAllocation.c ****     _userTable[29].lvl_3_addr = 0x57;
 467              		.loc 1 233 0
 468 0386 5722     		movs	r2, #87
 469 0388 83F86621 		strb	r2, [r3, #358]
 234:UserAddressAllocation.c ****     
 235:UserAddressAllocation.c ****     _userTable[30].name = ADAM_HAY;
 470              		.loc 1 235 0
 471 038c 4FF01E02 		mov	r2, #30
 472 0390 83F86821 		strb	r2, [r3, #360]
 236:UserAddressAllocation.c ****     _userTable[30].str = "adam hay";
 473              		.loc 1 236 0
 474 0394 214A     		ldr	r2, .L3+100
 475 0396 C3F86C21 		str	r2, [r3, #364]
 237:UserAddressAllocation.c ****     _userTable[30].lvl_1_addr = 0x58;
 476              		.loc 1 237 0
 477 039a 5822     		movs	r2, #88
 478 039c 83F87021 		strb	r2, [r3, #368]
 238:UserAddressAllocation.c ****     _userTable[30].lvl_2_addr = 0x59;
 479              		.loc 1 238 0
 480 03a0 5922     		movs	r2, #89
 481 03a2 83F87121 		strb	r2, [r3, #369]
 239:UserAddressAllocation.c ****     _userTable[30].lvl_3_addr = 0x5A;
 482              		.loc 1 239 0
 483 03a6 5A22     		movs	r2, #90
 484 03a8 83F87221 		strb	r2, [r3, #370]
 240:UserAddressAllocation.c ****     
 241:UserAddressAllocation.c ****     _userTable[31].name = QUIHAO_JIN;
 485              		.loc 1 241 0
 486 03ac 4FF01F02 		mov	r2, #31
 487 03b0 83F87421 		strb	r2, [r3, #372]
 488 03b4 40E0     		b	.L4
 489              	.L5:
 490 03b6 00BF     		.align	2
 491              	.L3:
 492 03b8 00000000 		.word	.LANCHOR0
 493 03bc 00000000 		.word	.LC0
 494 03c0 0C000000 		.word	.LC1
 495 03c4 1C000000 		.word	.LC2
 496 03c8 2C000000 		.word	.LC3
 497 03cc 40000000 		.word	.LC4
 498 03d0 50000000 		.word	.LC5
 499 03d4 64000000 		.word	.LC6
 500 03d8 74000000 		.word	.LC7
ARM GAS  C:\Users\HENRIC~1\AppData\Local\Temp\ccINU9CD.s 			page 14


 501 03dc E8000000 		.word	.LC14
 502 03e0 F8000000 		.word	.LC15
 503 03e4 08010000 		.word	.LC16
 504 03e8 14010000 		.word	.LC17
 505 03ec 28010000 		.word	.LC18
 506 03f0 38010000 		.word	.LC19
 507 03f4 48010000 		.word	.LC20
 508 03f8 54010000 		.word	.LC21
 509 03fc 64010000 		.word	.LC22
 510 0400 78010000 		.word	.LC23
 511 0404 84010000 		.word	.LC24
 512 0408 94010000 		.word	.LC25
 513 040c A4010000 		.word	.LC26
 514 0410 B4010000 		.word	.LC27
 515 0414 C0010000 		.word	.LC28
 516 0418 D0010000 		.word	.LC29
 517 041c E0010000 		.word	.LC30
 518 0420 84000000 		.word	.LC8
 519 0424 90000000 		.word	.LC9
 520 0428 A4000000 		.word	.LC10
 521 042c B8000000 		.word	.LC11
 522 0430 CC000000 		.word	.LC12
 523 0434 D8000000 		.word	.LC13
 524              	.L4:
 242:UserAddressAllocation.c ****     _userTable[31].str = "quihao jin";
 525              		.loc 1 242 0
 526 0438 594A     		ldr	r2, .L6
 527 043a C3F87821 		str	r2, [r3, #376]
 243:UserAddressAllocation.c ****     _userTable[31].lvl_1_addr = 0x5B;
 528              		.loc 1 243 0
 529 043e 5B22     		movs	r2, #91
 530 0440 83F87C21 		strb	r2, [r3, #380]
 244:UserAddressAllocation.c ****     _userTable[31].lvl_2_addr = 0x5C;
 531              		.loc 1 244 0
 532 0444 5C22     		movs	r2, #92
 533 0446 83F87D21 		strb	r2, [r3, #381]
 245:UserAddressAllocation.c ****     _userTable[31].lvl_3_addr = 0x5D;
 534              		.loc 1 245 0
 535 044a 5D22     		movs	r2, #93
 536 044c 83F87E21 		strb	r2, [r3, #382]
 246:UserAddressAllocation.c ****     
 247:UserAddressAllocation.c ****     _userTable[32].name = SETH_LIABRAATEN;
 537              		.loc 1 247 0
 538 0450 4FF02002 		mov	r2, #32
 539 0454 83F88021 		strb	r2, [r3, #384]
 248:UserAddressAllocation.c ****     _userTable[32].str = "seth liabraaten";
 540              		.loc 1 248 0
 541 0458 524A     		ldr	r2, .L6+4
 542 045a C3F88421 		str	r2, [r3, #388]
 249:UserAddressAllocation.c ****     _userTable[32].lvl_1_addr = 0x5E;
 543              		.loc 1 249 0
 544 045e 5E22     		movs	r2, #94
 545 0460 83F88821 		strb	r2, [r3, #392]
 250:UserAddressAllocation.c ****     _userTable[32].lvl_2_addr = 0x5F;
 546              		.loc 1 250 0
 547 0464 5F22     		movs	r2, #95
 548 0466 83F88921 		strb	r2, [r3, #393]
ARM GAS  C:\Users\HENRIC~1\AppData\Local\Temp\ccINU9CD.s 			page 15


 251:UserAddressAllocation.c ****     _userTable[32].lvl_3_addr = 0x60;
 549              		.loc 1 251 0
 550 046a 6022     		movs	r2, #96
 551 046c 83F88A21 		strb	r2, [r3, #394]
 252:UserAddressAllocation.c ****     
 253:UserAddressAllocation.c ****     _userTable[33].name = MAURIZIO_PADILLA;
 552              		.loc 1 253 0
 553 0470 4FF02102 		mov	r2, #33
 554 0474 83F88C21 		strb	r2, [r3, #396]
 254:UserAddressAllocation.c ****     _userTable[33].str = "maurizio padilla";
 555              		.loc 1 254 0
 556 0478 4B4A     		ldr	r2, .L6+8
 557 047a C3F89021 		str	r2, [r3, #400]
 255:UserAddressAllocation.c ****     _userTable[33].lvl_1_addr = 0x61;
 558              		.loc 1 255 0
 559 047e 6122     		movs	r2, #97
 560 0480 83F89421 		strb	r2, [r3, #404]
 256:UserAddressAllocation.c ****     _userTable[33].lvl_2_addr = 0x62;
 561              		.loc 1 256 0
 562 0484 6222     		movs	r2, #98
 563 0486 83F89521 		strb	r2, [r3, #405]
 257:UserAddressAllocation.c ****     _userTable[33].lvl_3_addr = 0x63;
 564              		.loc 1 257 0
 565 048a 6322     		movs	r2, #99
 566 048c 83F89621 		strb	r2, [r3, #406]
 258:UserAddressAllocation.c ****     
 259:UserAddressAllocation.c ****     _userTable[34].name = HUNTER_PARKS;
 567              		.loc 1 259 0
 568 0490 4FF02202 		mov	r2, #34
 569 0494 83F89821 		strb	r2, [r3, #408]
 260:UserAddressAllocation.c ****     _userTable[34].str = "hunter parks";
 570              		.loc 1 260 0
 571 0498 444A     		ldr	r2, .L6+12
 572 049a C3F89C21 		str	r2, [r3, #412]
 261:UserAddressAllocation.c ****     _userTable[34].lvl_1_addr = 0x64;
 573              		.loc 1 261 0
 574 049e 6422     		movs	r2, #100
 575 04a0 83F8A021 		strb	r2, [r3, #416]
 262:UserAddressAllocation.c ****     _userTable[34].lvl_2_addr = 0x65;
 576              		.loc 1 262 0
 577 04a4 6522     		movs	r2, #101
 578 04a6 83F8A121 		strb	r2, [r3, #417]
 263:UserAddressAllocation.c ****     _userTable[34].lvl_3_addr = 0x66;
 579              		.loc 1 263 0
 580 04aa 6622     		movs	r2, #102
 581 04ac 83F8A221 		strb	r2, [r3, #418]
 264:UserAddressAllocation.c ****     
 265:UserAddressAllocation.c ****     _userTable[35].name = NIRVAN_POONACHA_THEETHIRA;
 582              		.loc 1 265 0
 583 04b0 4FF02302 		mov	r2, #35
 584 04b4 83F8A421 		strb	r2, [r3, #420]
 266:UserAddressAllocation.c ****     _userTable[35].str = "nirvam poonacha theethira";
 585              		.loc 1 266 0
 586 04b8 3D4A     		ldr	r2, .L6+16
 587 04ba C3F8A821 		str	r2, [r3, #424]
 267:UserAddressAllocation.c ****     _userTable[35].lvl_1_addr = 0x67;
 588              		.loc 1 267 0
ARM GAS  C:\Users\HENRIC~1\AppData\Local\Temp\ccINU9CD.s 			page 16


 589 04be 6722     		movs	r2, #103
 590 04c0 83F8AC21 		strb	r2, [r3, #428]
 268:UserAddressAllocation.c ****     _userTable[35].lvl_2_addr = 0x68;
 591              		.loc 1 268 0
 592 04c4 6822     		movs	r2, #104
 593 04c6 83F8AD21 		strb	r2, [r3, #429]
 269:UserAddressAllocation.c ****     _userTable[35].lvl_3_addr = 0x69;
 594              		.loc 1 269 0
 595 04ca 6922     		movs	r2, #105
 596 04cc 83F8AE21 		strb	r2, [r3, #430]
 270:UserAddressAllocation.c ****     
 271:UserAddressAllocation.c ****     _userTable[36].name = JOHN_SCHLEDERER;
 597              		.loc 1 271 0
 598 04d0 4FF02402 		mov	r2, #36
 599 04d4 83F8B021 		strb	r2, [r3, #432]
 272:UserAddressAllocation.c ****     _userTable[36].str = "john schlederer";
 600              		.loc 1 272 0
 601 04d8 364A     		ldr	r2, .L6+20
 602 04da C3F8B421 		str	r2, [r3, #436]
 273:UserAddressAllocation.c ****     _userTable[36].lvl_1_addr = 0x6A;
 603              		.loc 1 273 0
 604 04de 6A22     		movs	r2, #106
 605 04e0 83F8B821 		strb	r2, [r3, #440]
 274:UserAddressAllocation.c ****     _userTable[36].lvl_2_addr = 0x6B;
 606              		.loc 1 274 0
 607 04e4 6B22     		movs	r2, #107
 608 04e6 83F8B921 		strb	r2, [r3, #441]
 275:UserAddressAllocation.c ****     _userTable[36].lvl_3_addr = 0x6C;
 609              		.loc 1 275 0
 610 04ea 6C22     		movs	r2, #108
 611 04ec 83F8BA21 		strb	r2, [r3, #442]
 276:UserAddressAllocation.c ****     
 277:UserAddressAllocation.c ****     _userTable[37].name = JAMES_SHIPP;
 612              		.loc 1 277 0
 613 04f0 4FF02502 		mov	r2, #37
 614 04f4 83F8BC21 		strb	r2, [r3, #444]
 278:UserAddressAllocation.c ****     _userTable[37].str = "james shipp";
 615              		.loc 1 278 0
 616 04f8 2F4A     		ldr	r2, .L6+24
 617 04fa C3F8C021 		str	r2, [r3, #448]
 279:UserAddressAllocation.c ****     _userTable[37].lvl_1_addr = 0x6D;
 618              		.loc 1 279 0
 619 04fe 6D22     		movs	r2, #109
 620 0500 83F8C421 		strb	r2, [r3, #452]
 280:UserAddressAllocation.c ****     _userTable[37].lvl_2_addr = 0x6E;
 621              		.loc 1 280 0
 622 0504 6E22     		movs	r2, #110
 623 0506 83F8C521 		strb	r2, [r3, #453]
 281:UserAddressAllocation.c ****     _userTable[37].lvl_3_addr = 0x6F;
 624              		.loc 1 281 0
 625 050a 6F22     		movs	r2, #111
 626 050c 83F8C621 		strb	r2, [r3, #454]
 282:UserAddressAllocation.c ****     
 283:UserAddressAllocation.c ****     _userTable[38].name = LAWRENCE_SKUSE;
 627              		.loc 1 283 0
 628 0510 83F8C891 		strb	r9, [r3, #456]
 284:UserAddressAllocation.c ****     _userTable[38].str = "lawrence skuse";
ARM GAS  C:\Users\HENRIC~1\AppData\Local\Temp\ccINU9CD.s 			page 17


 629              		.loc 1 284 0
 630 0514 294A     		ldr	r2, .L6+28
 631 0516 C3F8CC21 		str	r2, [r3, #460]
 285:UserAddressAllocation.c ****     _userTable[38].lvl_1_addr = 0x70;
 632              		.loc 1 285 0
 633 051a 7022     		movs	r2, #112
 634 051c 83F8D021 		strb	r2, [r3, #464]
 286:UserAddressAllocation.c ****     _userTable[38].lvl_2_addr = 0x71;
 635              		.loc 1 286 0
 636 0520 7122     		movs	r2, #113
 637 0522 83F8D121 		strb	r2, [r3, #465]
 287:UserAddressAllocation.c ****     _userTable[38].lvl_3_addr = 0x72;
 638              		.loc 1 287 0
 639 0526 7222     		movs	r2, #114
 640 0528 83F8D221 		strb	r2, [r3, #466]
 288:UserAddressAllocation.c ****     
 289:UserAddressAllocation.c ****     _userTable[39].name = WOODROW_WALKER;
 641              		.loc 1 289 0
 642 052c 83F8D481 		strb	r8, [r3, #468]
 290:UserAddressAllocation.c ****     _userTable[39].str = "woodrow walker";
 643              		.loc 1 290 0
 644 0530 234A     		ldr	r2, .L6+32
 645 0532 C3F8D821 		str	r2, [r3, #472]
 291:UserAddressAllocation.c ****     _userTable[39].lvl_1_addr = 0x73;
 646              		.loc 1 291 0
 647 0536 7321     		movs	r1, #115
 648 0538 83F8DC11 		strb	r1, [r3, #476]
 292:UserAddressAllocation.c ****     _userTable[39].lvl_2_addr = 0x74;
 649              		.loc 1 292 0
 650 053c 7421     		movs	r1, #116
 651 053e 83F8DD11 		strb	r1, [r3, #477]
 293:UserAddressAllocation.c ****     _userTable[39].lvl_3_addr = 0x75;
 652              		.loc 1 293 0
 653 0542 7521     		movs	r1, #117
 654 0544 83F8DE11 		strb	r1, [r3, #478]
 294:UserAddressAllocation.c ****     
 295:UserAddressAllocation.c ****     _userTable[40].name = DMITRI_WATERS;
 655              		.loc 1 295 0
 656 0548 83F8E0C1 		strb	ip, [r3, #480]
 296:UserAddressAllocation.c ****     _userTable[40].str = "woodrow walker";
 657              		.loc 1 296 0
 658 054c C3F8E421 		str	r2, [r3, #484]
 297:UserAddressAllocation.c ****     _userTable[40].lvl_1_addr = 0x76;
 659              		.loc 1 297 0
 660 0550 7622     		movs	r2, #118
 661 0552 83F8E821 		strb	r2, [r3, #488]
 298:UserAddressAllocation.c ****     _userTable[40].lvl_2_addr = 0x77;
 662              		.loc 1 298 0
 663 0556 7722     		movs	r2, #119
 664 0558 83F8E921 		strb	r2, [r3, #489]
 299:UserAddressAllocation.c ****     _userTable[40].lvl_3_addr = 0x78;
 665              		.loc 1 299 0
 666 055c 7822     		movs	r2, #120
 667 055e 83F8EA21 		strb	r2, [r3, #490]
 300:UserAddressAllocation.c ****     
 301:UserAddressAllocation.c ****     _userTable[41].name = JAMES_WINDORJJ;
 668              		.loc 1 301 0
ARM GAS  C:\Users\HENRIC~1\AppData\Local\Temp\ccINU9CD.s 			page 18


 669 0562 83F8ECE1 		strb	lr, [r3, #492]
 302:UserAddressAllocation.c ****     _userTable[41].str = "james windorjj";
 670              		.loc 1 302 0
 671 0566 174A     		ldr	r2, .L6+36
 672 0568 C3F8F021 		str	r2, [r3, #496]
 303:UserAddressAllocation.c ****     _userTable[41].lvl_1_addr = 0x79;
 673              		.loc 1 303 0
 674 056c 7922     		movs	r2, #121
 675 056e 83F8F421 		strb	r2, [r3, #500]
 304:UserAddressAllocation.c ****     _userTable[41].lvl_2_addr = 0x7A;
 676              		.loc 1 304 0
 677 0572 7A22     		movs	r2, #122
 678 0574 83F8F521 		strb	r2, [r3, #501]
 305:UserAddressAllocation.c ****     _userTable[41].lvl_3_addr = 0x7B;
 679              		.loc 1 305 0
 680 0578 7B22     		movs	r2, #123
 681 057a 83F8F621 		strb	r2, [r3, #502]
 306:UserAddressAllocation.c ****     
 307:UserAddressAllocation.c ****     _userTable[42].name = KAMITH_MIRISSAGE;
 682              		.loc 1 307 0
 683 057e 83F8F871 		strb	r7, [r3, #504]
 308:UserAddressAllocation.c ****     _userTable[42].str = "kamith mirissage";
 684              		.loc 1 308 0
 685 0582 114A     		ldr	r2, .L6+40
 686 0584 C3F8FC21 		str	r2, [r3, #508]
 309:UserAddressAllocation.c ****     _userTable[42].lvl_1_addr = 0x7C;
 687              		.loc 1 309 0
 688 0588 7C22     		movs	r2, #124
 689 058a 83F80022 		strb	r2, [r3, #512]
 310:UserAddressAllocation.c ****     _userTable[42].lvl_2_addr = 0x7D;
 690              		.loc 1 310 0
 691 058e 7D22     		movs	r2, #125
 692 0590 83F80122 		strb	r2, [r3, #513]
 311:UserAddressAllocation.c ****     _userTable[42].lvl_3_addr = 0x7E;
 693              		.loc 1 311 0
 694 0594 7E22     		movs	r2, #126
 695 0596 83F80222 		strb	r2, [r3, #514]
 696 059a BDE8F08F 		pop	{r4, r5, r6, r7, r8, r9, r10, fp, pc}
 697              	.L7:
 698 059e 00BF     		.align	2
 699              	.L6:
 700 05a0 EC010000 		.word	.LC31
 701 05a4 F8010000 		.word	.LC32
 702 05a8 08020000 		.word	.LC33
 703 05ac 1C020000 		.word	.LC34
 704 05b0 2C020000 		.word	.LC35
 705 05b4 48020000 		.word	.LC36
 706 05b8 58020000 		.word	.LC37
 707 05bc 64020000 		.word	.LC38
 708 05c0 74020000 		.word	.LC39
 709 05c4 84020000 		.word	.LC40
 710 05c8 94020000 		.word	.LC41
 711              		.cfi_endproc
 712              	.LFE0:
 713              		.size	user_init, .-user_init
 714              		.section	.text.user_id_to_address,"ax",%progbits
 715              		.align	2
ARM GAS  C:\Users\HENRIC~1\AppData\Local\Temp\ccINU9CD.s 			page 19


 716              		.global	user_id_to_address
 717              		.thumb
 718              		.thumb_func
 719              		.type	user_id_to_address, %function
 720              	user_id_to_address:
 721              	.LFB1:
 312:UserAddressAllocation.c **** }
 313:UserAddressAllocation.c **** 
 314:UserAddressAllocation.c **** /**
 315:UserAddressAllocation.c ****  * Map enumerated ID to an address as specified by the level desired.
 316:UserAddressAllocation.c ****  * @name is enumerated user identity
 317:UserAddressAllocation.c ****  * @lvl is to select which of the allocated addresses to return
 318:UserAddressAllocation.c ****  * @return 7-bit address (8th MSB is 0) or 0xFF if not found
 319:UserAddressAllocation.c ****  */
 320:UserAddressAllocation.c **** uint8_t user_id_to_address(UserName_e name, UserAddressLevel_e lvl){
 722              		.loc 1 320 0
 723              		.cfi_startproc
 724              		@ args = 0, pretend = 0, frame = 0
 725              		@ frame_needed = 0, uses_anonymous_args = 0
 726              		@ link register save eliminated.
 727              	.LVL0:
 728 0000 30B4     		push	{r4, r5}
 729              		.cfi_def_cfa_offset 8
 730              		.cfi_offset 4, -8
 731              		.cfi_offset 5, -4
 732              	.LVL1:
 321:UserAddressAllocation.c ****     uint8_t retval = 0xFF; //default invalid address
 322:UserAddressAllocation.c ****     
 323:UserAddressAllocation.c ****     uint8_t i;
 324:UserAddressAllocation.c ****     for(i=0; i<_USER_TABLE_SIZE; i++){
 733              		.loc 1 324 0
 734 0002 0023     		movs	r3, #0
 735 0004 23E0     		b	.L9
 736              	.LVL2:
 737              	.L15:
 325:UserAddressAllocation.c ****         if(_userTable[i].name == name){
 738              		.loc 1 325 0
 739 0006 03EB4304 		add	r4, r3, r3, lsl #1
 740 000a A200     		lsls	r2, r4, #2
 741 000c 134C     		ldr	r4, .L19
 742 000e A25C     		ldrb	r2, [r4, r2]	@ zero_extendqisi2
 743 0010 8242     		cmp	r2, r0
 744 0012 1AD1     		bne	.L10
 326:UserAddressAllocation.c ****             switch(lvl){
 745              		.loc 1 326 0
 746 0014 0129     		cmp	r1, #1
 747 0016 0AD0     		beq	.L12
 748 0018 11B1     		cbz	r1, .L13
 749 001a 0229     		cmp	r1, #2
 750 001c 0ED0     		beq	.L14
 751 001e 1AE0     		b	.L17
 752              	.L13:
 327:UserAddressAllocation.c ****                 case USER_ADDRESS_LVL_1:
 328:UserAddressAllocation.c ****                     retval = _userTable[i].lvl_1_addr;
 753              		.loc 1 328 0
 754 0020 03EB4305 		add	r5, r3, r3, lsl #1
 755 0024 AB00     		lsls	r3, r5, #2
ARM GAS  C:\Users\HENRIC~1\AppData\Local\Temp\ccINU9CD.s 			page 20


 756              	.LVL3:
 757 0026 0D4A     		ldr	r2, .L19
 758 0028 1344     		add	r3, r3, r2
 759 002a 187A     		ldrb	r0, [r3, #8]	@ zero_extendqisi2
 760              	.LVL4:
 329:UserAddressAllocation.c ****                     break;
 761              		.loc 1 329 0
 762 002c 14E0     		b	.L11
 763              	.LVL5:
 764              	.L12:
 330:UserAddressAllocation.c ****                 case USER_ADDRESS_LVL_2:
 331:UserAddressAllocation.c ****                     retval = _userTable[i].lvl_2_addr;
 765              		.loc 1 331 0
 766 002e 03EB4305 		add	r5, r3, r3, lsl #1
 767 0032 AB00     		lsls	r3, r5, #2
 768              	.LVL6:
 769 0034 094A     		ldr	r2, .L19
 770 0036 1344     		add	r3, r3, r2
 771 0038 587A     		ldrb	r0, [r3, #9]	@ zero_extendqisi2
 772              	.LVL7:
 332:UserAddressAllocation.c ****                     break;
 773              		.loc 1 332 0
 774 003a 0DE0     		b	.L11
 775              	.LVL8:
 776              	.L14:
 333:UserAddressAllocation.c ****                 case USER_ADDRESS_LVL_3:
 334:UserAddressAllocation.c ****                     retval = _userTable[i].lvl_3_addr;
 777              		.loc 1 334 0
 778 003c 03EB4305 		add	r5, r3, r3, lsl #1
 779 0040 AB00     		lsls	r3, r5, #2
 780              	.LVL9:
 781 0042 064A     		ldr	r2, .L19
 782 0044 1344     		add	r3, r3, r2
 783 0046 987A     		ldrb	r0, [r3, #10]	@ zero_extendqisi2
 784              	.LVL10:
 335:UserAddressAllocation.c ****                     break;
 785              		.loc 1 335 0
 786 0048 06E0     		b	.L11
 787              	.LVL11:
 788              	.L10:
 324:UserAddressAllocation.c ****         if(_userTable[i].name == name){
 789              		.loc 1 324 0 discriminator 2
 790 004a 0133     		adds	r3, r3, #1
 791              	.LVL12:
 792 004c DBB2     		uxtb	r3, r3
 793              	.LVL13:
 794              	.L9:
 324:UserAddressAllocation.c ****         if(_userTable[i].name == name){
 795              		.loc 1 324 0 is_stmt 0 discriminator 1
 796 004e 2A2B     		cmp	r3, #42
 797 0050 D9D9     		bls	.L15
 321:UserAddressAllocation.c ****     
 798              		.loc 1 321 0 is_stmt 1
 799 0052 FF20     		movs	r0, #255
 800              	.LVL14:
 801 0054 00E0     		b	.L11
 802              	.LVL15:
ARM GAS  C:\Users\HENRIC~1\AppData\Local\Temp\ccINU9CD.s 			page 21


 803              	.L17:
 336:UserAddressAllocation.c ****                 default:
 337:UserAddressAllocation.c ****                     retval = 0xFF; //invalid level -> invalid address
 804              		.loc 1 337 0
 805 0056 FF20     		movs	r0, #255
 806              	.LVL16:
 807              	.L11:
 338:UserAddressAllocation.c ****                     break;
 339:UserAddressAllocation.c ****             }
 340:UserAddressAllocation.c ****             break;
 341:UserAddressAllocation.c ****         }
 342:UserAddressAllocation.c ****     }
 343:UserAddressAllocation.c ****     
 344:UserAddressAllocation.c ****     return retval;
 345:UserAddressAllocation.c **** }
 808              		.loc 1 345 0
 809 0058 30BC     		pop	{r4, r5}
 810              		.cfi_restore 5
 811              		.cfi_restore 4
 812              		.cfi_def_cfa_offset 0
 813 005a 7047     		bx	lr
 814              	.L20:
 815              		.align	2
 816              	.L19:
 817 005c 00000000 		.word	.LANCHOR0
 818              		.cfi_endproc
 819              	.LFE1:
 820              		.size	user_id_to_address, .-user_id_to_address
 821              		.section	.text.user_address_to_id,"ax",%progbits
 822              		.align	2
 823              		.global	user_address_to_id
 824              		.thumb
 825              		.thumb_func
 826              		.type	user_address_to_id, %function
 827              	user_address_to_id:
 828              	.LFB2:
 346:UserAddressAllocation.c **** 
 347:UserAddressAllocation.c **** /**
 348:UserAddressAllocation.c ****  * Map address back to an enumerated identity.
 349:UserAddressAllocation.c ****  * @addr is 7-bit address (8th MSB is 0) to match.
 350:UserAddressAllocation.c ****  * @return enumerated ID of username or _INVALID_NAME if not found
 351:UserAddressAllocation.c ****  */
 352:UserAddressAllocation.c **** UserName_e user_address_to_id(uint8_t addr){
 829              		.loc 1 352 0
 830              		.cfi_startproc
 831              		@ args = 0, pretend = 0, frame = 0
 832              		@ frame_needed = 0, uses_anonymous_args = 0
 833              		@ link register save eliminated.
 834              	.LVL17:
 835 0000 10B4     		push	{r4}
 836              		.cfi_def_cfa_offset 4
 837              		.cfi_offset 4, -4
 838              	.LVL18:
 353:UserAddressAllocation.c ****     UserName_e retval = _INVALID_NAME; //default invalid name
 354:UserAddressAllocation.c ****     
 355:UserAddressAllocation.c ****     uint8_t i;
 356:UserAddressAllocation.c ****     for(i=0; i<_USER_TABLE_SIZE; i++){
ARM GAS  C:\Users\HENRIC~1\AppData\Local\Temp\ccINU9CD.s 			page 22


 839              		.loc 1 356 0
 840 0002 0023     		movs	r3, #0
 841 0004 20E0     		b	.L22
 842              	.LVL19:
 843              	.L26:
 357:UserAddressAllocation.c ****         if(_userTable[i].lvl_1_addr == addr || _userTable[i].lvl_2_addr == addr 
 844              		.loc 1 357 0
 845 0006 1946     		mov	r1, r3
 846 0008 03EB4304 		add	r4, r3, r3, lsl #1
 847 000c A200     		lsls	r2, r4, #2
 848 000e 114C     		ldr	r4, .L28
 849 0010 2244     		add	r2, r2, r4
 850 0012 127A     		ldrb	r2, [r2, #8]	@ zero_extendqisi2
 851 0014 8242     		cmp	r2, r0
 852 0016 0FD0     		beq	.L23
 853              		.loc 1 357 0 is_stmt 0 discriminator 1
 854 0018 03EB4304 		add	r4, r3, r3, lsl #1
 855 001c A200     		lsls	r2, r4, #2
 856 001e 0D4C     		ldr	r4, .L28
 857 0020 2244     		add	r2, r2, r4
 858 0022 527A     		ldrb	r2, [r2, #9]	@ zero_extendqisi2
 859 0024 9042     		cmp	r0, r2
 860 0026 07D0     		beq	.L23
 358:UserAddressAllocation.c ****                 || _userTable[i].lvl_3_addr == addr){
 861              		.loc 1 358 0 is_stmt 1
 862 0028 03EB4304 		add	r4, r3, r3, lsl #1
 863 002c A200     		lsls	r2, r4, #2
 864 002e 094C     		ldr	r4, .L28
 865 0030 2244     		add	r2, r2, r4
 866 0032 927A     		ldrb	r2, [r2, #10]	@ zero_extendqisi2
 867 0034 9042     		cmp	r0, r2
 868 0036 05D1     		bne	.L24
 869              	.L23:
 359:UserAddressAllocation.c ****             retval = _userTable[i].name;
 870              		.loc 1 359 0
 871 0038 01EB4101 		add	r1, r1, r1, lsl #1
 872 003c 8B00     		lsls	r3, r1, #2
 873              	.LVL20:
 874 003e 054A     		ldr	r2, .L28
 875 0040 D05C     		ldrb	r0, [r2, r3]	@ zero_extendqisi2
 876              	.LVL21:
 360:UserAddressAllocation.c ****             break;
 877              		.loc 1 360 0
 878 0042 04E0     		b	.L25
 879              	.LVL22:
 880              	.L24:
 356:UserAddressAllocation.c ****         if(_userTable[i].lvl_1_addr == addr || _userTable[i].lvl_2_addr == addr 
 881              		.loc 1 356 0 discriminator 2
 882 0044 0133     		adds	r3, r3, #1
 883              	.LVL23:
 884 0046 DBB2     		uxtb	r3, r3
 885              	.LVL24:
 886              	.L22:
 356:UserAddressAllocation.c ****         if(_userTable[i].lvl_1_addr == addr || _userTable[i].lvl_2_addr == addr 
 887              		.loc 1 356 0 is_stmt 0 discriminator 1
 888 0048 2A2B     		cmp	r3, #42
 889 004a DCD9     		bls	.L26
ARM GAS  C:\Users\HENRIC~1\AppData\Local\Temp\ccINU9CD.s 			page 23


 353:UserAddressAllocation.c ****     
 890              		.loc 1 353 0 is_stmt 1
 891 004c 2C20     		movs	r0, #44
 892              	.LVL25:
 893              	.L25:
 361:UserAddressAllocation.c ****         }
 362:UserAddressAllocation.c ****     }
 363:UserAddressAllocation.c ****     
 364:UserAddressAllocation.c ****     return retval;
 365:UserAddressAllocation.c **** }
 894              		.loc 1 365 0
 895 004e 10BC     		pop	{r4}
 896              		.cfi_restore 4
 897              		.cfi_def_cfa_offset 0
 898 0050 7047     		bx	lr
 899              	.L29:
 900 0052 00BF     		.align	2
 901              	.L28:
 902 0054 00000000 		.word	.LANCHOR0
 903              		.cfi_endproc
 904              	.LFE2:
 905              		.size	user_address_to_id, .-user_address_to_id
 906              		.section	.text.user_string_to_id,"ax",%progbits
 907              		.align	2
 908              		.global	user_string_to_id
 909              		.thumb
 910              		.thumb_func
 911              		.type	user_string_to_id, %function
 912              	user_string_to_id:
 913              	.LFB3:
 366:UserAddressAllocation.c **** 
 367:UserAddressAllocation.c **** /**
 368:UserAddressAllocation.c ****  * Map stringified username to an enumerated identity
 369:UserAddressAllocation.c ****  * @str is lowervase string matching table's stringified name identity
 370:UserAddressAllocation.c ****  * @return enumerated ID of username or _INVALID_NAME if not found
 371:UserAddressAllocation.c ****  */
 372:UserAddressAllocation.c **** UserName_e user_string_to_id(const char* str){
 914              		.loc 1 372 0
 915              		.cfi_startproc
 916              		@ args = 0, pretend = 0, frame = 0
 917              		@ frame_needed = 0, uses_anonymous_args = 0
 918              	.LVL26:
 919 0000 70B5     		push	{r4, r5, r6, lr}
 920              		.cfi_def_cfa_offset 16
 921              		.cfi_offset 4, -16
 922              		.cfi_offset 5, -12
 923              		.cfi_offset 6, -8
 924              		.cfi_offset 14, -4
 925 0002 0646     		mov	r6, r0
 926              	.LVL27:
 373:UserAddressAllocation.c ****     UserName_e retval = _INVALID_NAME; //default invalid name
 374:UserAddressAllocation.c ****     
 375:UserAddressAllocation.c ****     uint8_t i;
 376:UserAddressAllocation.c ****     for(i=0; i<_USER_TABLE_SIZE; i++){
 927              		.loc 1 376 0
 928 0004 0024     		movs	r4, #0
 929 0006 11E0     		b	.L31
ARM GAS  C:\Users\HENRIC~1\AppData\Local\Temp\ccINU9CD.s 			page 24


 930              	.LVL28:
 931              	.L34:
 377:UserAddressAllocation.c ****         if(strcmp(str,_userTable[i].str) == 0){
 932              		.loc 1 377 0
 933 0008 04EB4402 		add	r2, r4, r4, lsl #1
 934 000c 9300     		lsls	r3, r2, #2
 935 000e 094A     		ldr	r2, .L36
 936 0010 1344     		add	r3, r3, r2
 937 0012 5968     		ldr	r1, [r3, #4]
 938 0014 3046     		mov	r0, r6
 939 0016 FFF7FEFF 		bl	strcmp
 940              	.LVL29:
 941 001a 28B9     		cbnz	r0, .L32
 378:UserAddressAllocation.c ****             retval = _userTable[i].name;
 942              		.loc 1 378 0
 943 001c 04EB4405 		add	r5, r4, r4, lsl #1
 944 0020 AB00     		lsls	r3, r5, #2
 945 0022 044A     		ldr	r2, .L36
 946 0024 D05C     		ldrb	r0, [r2, r3]	@ zero_extendqisi2
 947              	.LVL30:
 379:UserAddressAllocation.c ****             break;
 948              		.loc 1 379 0
 949 0026 70BD     		pop	{r4, r5, r6, pc}
 950              	.LVL31:
 951              	.L32:
 376:UserAddressAllocation.c ****         if(strcmp(str,_userTable[i].str) == 0){
 952              		.loc 1 376 0 discriminator 2
 953 0028 0134     		adds	r4, r4, #1
 954              	.LVL32:
 955 002a E4B2     		uxtb	r4, r4
 956              	.LVL33:
 957              	.L31:
 376:UserAddressAllocation.c ****         if(strcmp(str,_userTable[i].str) == 0){
 958              		.loc 1 376 0 is_stmt 0 discriminator 1
 959 002c 2A2C     		cmp	r4, #42
 960 002e EBD9     		bls	.L34
 373:UserAddressAllocation.c ****     
 961              		.loc 1 373 0 is_stmt 1
 962 0030 2C20     		movs	r0, #44
 963              	.LVL34:
 380:UserAddressAllocation.c ****         }
 381:UserAddressAllocation.c ****     }
 382:UserAddressAllocation.c ****     
 383:UserAddressAllocation.c ****     return retval;
 384:UserAddressAllocation.c **** }
 964              		.loc 1 384 0
 965 0032 70BD     		pop	{r4, r5, r6, pc}
 966              	.LVL35:
 967              	.L37:
 968              		.align	2
 969              	.L36:
 970 0034 00000000 		.word	.LANCHOR0
 971              		.cfi_endproc
 972              	.LFE3:
 973              		.size	user_string_to_id, .-user_string_to_id
 974              		.section	.text.user_id_to_string,"ax",%progbits
 975              		.align	2
ARM GAS  C:\Users\HENRIC~1\AppData\Local\Temp\ccINU9CD.s 			page 25


 976              		.global	user_id_to_string
 977              		.thumb
 978              		.thumb_func
 979              		.type	user_id_to_string, %function
 980              	user_id_to_string:
 981              	.LFB4:
 385:UserAddressAllocation.c **** 
 386:UserAddressAllocation.c **** /**
 387:UserAddressAllocation.c ****  * Map enumerated identity to stringified form
 388:UserAddressAllocation.c ****  * @name is enumerated user identity
 389:UserAddressAllocation.c ****  * @return stringified version of enumerated identity else "invalid name"
 390:UserAddressAllocation.c ****  */
 391:UserAddressAllocation.c **** const char* user_id_to_string(UserName_e name){
 982              		.loc 1 391 0
 983              		.cfi_startproc
 984              		@ args = 0, pretend = 0, frame = 0
 985              		@ frame_needed = 0, uses_anonymous_args = 0
 986              		@ link register save eliminated.
 987              	.LVL36:
 988 0000 10B4     		push	{r4}
 989              		.cfi_def_cfa_offset 4
 990              		.cfi_offset 4, -4
 991              	.LVL37:
 392:UserAddressAllocation.c ****     const char* retval = "invalid name";
 393:UserAddressAllocation.c ****     
 394:UserAddressAllocation.c ****     uint8_t i;
 395:UserAddressAllocation.c ****     for(i=0; i<_USER_TABLE_SIZE; i++){
 992              		.loc 1 395 0
 993 0002 0023     		movs	r3, #0
 994 0004 0EE0     		b	.L39
 995              	.LVL38:
 996              	.L42:
 396:UserAddressAllocation.c ****         if(_userTable[i].name == name){
 997              		.loc 1 396 0
 998 0006 03EB4301 		add	r1, r3, r3, lsl #1
 999 000a 8A00     		lsls	r2, r1, #2
 1000 000c 0849     		ldr	r1, .L44
 1001 000e 8A5C     		ldrb	r2, [r1, r2]	@ zero_extendqisi2
 1002 0010 8242     		cmp	r2, r0
 1003 0012 05D1     		bne	.L40
 397:UserAddressAllocation.c ****             retval = _userTable[i].str;
 1004              		.loc 1 397 0
 1005 0014 03EB4304 		add	r4, r3, r3, lsl #1
 1006 0018 A300     		lsls	r3, r4, #2
 1007              	.LVL39:
 1008 001a 0B44     		add	r3, r3, r1
 1009 001c 5868     		ldr	r0, [r3, #4]
 1010              	.LVL40:
 398:UserAddressAllocation.c ****             break;
 1011              		.loc 1 398 0
 1012 001e 04E0     		b	.L41
 1013              	.LVL41:
 1014              	.L40:
 395:UserAddressAllocation.c ****         if(_userTable[i].name == name){
 1015              		.loc 1 395 0 discriminator 2
 1016 0020 0133     		adds	r3, r3, #1
 1017              	.LVL42:
ARM GAS  C:\Users\HENRIC~1\AppData\Local\Temp\ccINU9CD.s 			page 26


 1018 0022 DBB2     		uxtb	r3, r3
 1019              	.LVL43:
 1020              	.L39:
 395:UserAddressAllocation.c ****         if(_userTable[i].name == name){
 1021              		.loc 1 395 0 is_stmt 0 discriminator 1
 1022 0024 2A2B     		cmp	r3, #42
 1023 0026 EED9     		bls	.L42
 392:UserAddressAllocation.c ****     
 1024              		.loc 1 392 0 is_stmt 1
 1025 0028 0248     		ldr	r0, .L44+4
 1026              	.LVL44:
 1027              	.L41:
 399:UserAddressAllocation.c ****         }
 400:UserAddressAllocation.c ****     }
 401:UserAddressAllocation.c ****     
 402:UserAddressAllocation.c ****     return retval;
 403:UserAddressAllocation.c **** }
 1028              		.loc 1 403 0
 1029 002a 10BC     		pop	{r4}
 1030              		.cfi_restore 4
 1031              		.cfi_def_cfa_offset 0
 1032 002c 7047     		bx	lr
 1033              	.L45:
 1034 002e 00BF     		.align	2
 1035              	.L44:
 1036 0030 00000000 		.word	.LANCHOR0
 1037 0034 A8020000 		.word	.LC42
 1038              		.cfi_endproc
 1039              	.LFE4:
 1040              		.size	user_id_to_string, .-user_id_to_string
 1041              		.section	.text.user_string_to_address,"ax",%progbits
 1042              		.align	2
 1043              		.global	user_string_to_address
 1044              		.thumb
 1045              		.thumb_func
 1046              		.type	user_string_to_address, %function
 1047              	user_string_to_address:
 1048              	.LFB5:
 404:UserAddressAllocation.c **** 
 405:UserAddressAllocation.c **** /**
 406:UserAddressAllocation.c ****  * Map string username to an address as specified by the level desired.
 407:UserAddressAllocation.c ****  * @str is lowercase string matching table's stringified name identity
 408:UserAddressAllocation.c ****  * @lvl is to select which of the allocated addresses to return
 409:UserAddressAllocation.c ****  * @return 7-bit address (8th MSB is 0) or 0xFF if not found
 410:UserAddressAllocation.c ****  */
 411:UserAddressAllocation.c **** uint8_t user_string_to_address(const char* str, UserAddressLevel_e lvl){
 1049              		.loc 1 411 0
 1050              		.cfi_startproc
 1051              		@ args = 0, pretend = 0, frame = 0
 1052              		@ frame_needed = 0, uses_anonymous_args = 0
 1053              	.LVL45:
 1054 0000 F8B5     		push	{r3, r4, r5, r6, r7, lr}
 1055              		.cfi_def_cfa_offset 24
 1056              		.cfi_offset 3, -24
 1057              		.cfi_offset 4, -20
 1058              		.cfi_offset 5, -16
 1059              		.cfi_offset 6, -12
ARM GAS  C:\Users\HENRIC~1\AppData\Local\Temp\ccINU9CD.s 			page 27


 1060              		.cfi_offset 7, -8
 1061              		.cfi_offset 14, -4
 1062 0002 0546     		mov	r5, r0
 1063 0004 0E46     		mov	r6, r1
 1064              	.LVL46:
 412:UserAddressAllocation.c ****     uint8_t retval = 0xFF; //default invalid address
 413:UserAddressAllocation.c ****     
 414:UserAddressAllocation.c ****     uint8_t i;
 415:UserAddressAllocation.c ****     for(i=0; i<_USER_TABLE_SIZE; i++){
 1065              		.loc 1 415 0
 1066 0006 0024     		movs	r4, #0
 1067 0008 26E0     		b	.L47
 1068              	.LVL47:
 1069              	.L53:
 416:UserAddressAllocation.c ****         if(strcmp(str,_userTable[i].str) == 0){
 1070              		.loc 1 416 0
 1071 000a 04EB4402 		add	r2, r4, r4, lsl #1
 1072 000e 9300     		lsls	r3, r2, #2
 1073 0010 144A     		ldr	r2, .L57
 1074 0012 1344     		add	r3, r3, r2
 1075 0014 5968     		ldr	r1, [r3, #4]
 1076 0016 2846     		mov	r0, r5
 1077 0018 FFF7FEFF 		bl	strcmp
 1078              	.LVL48:
 1079 001c D0B9     		cbnz	r0, .L48
 417:UserAddressAllocation.c ****             switch(lvl){
 1080              		.loc 1 417 0
 1081 001e 012E     		cmp	r6, #1
 1082 0020 0AD0     		beq	.L50
 1083 0022 16B1     		cbz	r6, .L51
 1084 0024 022E     		cmp	r6, #2
 1085 0026 0ED0     		beq	.L52
 1086 0028 1AE0     		b	.L55
 1087              	.L51:
 418:UserAddressAllocation.c ****                 case USER_ADDRESS_LVL_1:
 419:UserAddressAllocation.c ****                     retval = _userTable[i].lvl_1_addr;
 1088              		.loc 1 419 0
 1089 002a 04EB4407 		add	r7, r4, r4, lsl #1
 1090 002e BB00     		lsls	r3, r7, #2
 1091 0030 0C4A     		ldr	r2, .L57
 1092 0032 1344     		add	r3, r3, r2
 1093 0034 187A     		ldrb	r0, [r3, #8]	@ zero_extendqisi2
 1094              	.LVL49:
 420:UserAddressAllocation.c ****                     break;
 1095              		.loc 1 420 0
 1096 0036 F8BD     		pop	{r3, r4, r5, r6, r7, pc}
 1097              	.LVL50:
 1098              	.L50:
 421:UserAddressAllocation.c ****                 case USER_ADDRESS_LVL_2:
 422:UserAddressAllocation.c ****                     retval = _userTable[i].lvl_2_addr;
 1099              		.loc 1 422 0
 1100 0038 04EB4407 		add	r7, r4, r4, lsl #1
 1101 003c BB00     		lsls	r3, r7, #2
 1102 003e 094A     		ldr	r2, .L57
 1103 0040 1344     		add	r3, r3, r2
 1104 0042 587A     		ldrb	r0, [r3, #9]	@ zero_extendqisi2
 1105              	.LVL51:
ARM GAS  C:\Users\HENRIC~1\AppData\Local\Temp\ccINU9CD.s 			page 28


 423:UserAddressAllocation.c ****                     break;
 1106              		.loc 1 423 0
 1107 0044 F8BD     		pop	{r3, r4, r5, r6, r7, pc}
 1108              	.LVL52:
 1109              	.L52:
 424:UserAddressAllocation.c ****                 case USER_ADDRESS_LVL_3:
 425:UserAddressAllocation.c ****                     retval = _userTable[i].lvl_3_addr;
 1110              		.loc 1 425 0
 1111 0046 04EB4407 		add	r7, r4, r4, lsl #1
 1112 004a BB00     		lsls	r3, r7, #2
 1113 004c 054A     		ldr	r2, .L57
 1114 004e 1344     		add	r3, r3, r2
 1115 0050 987A     		ldrb	r0, [r3, #10]	@ zero_extendqisi2
 1116              	.LVL53:
 426:UserAddressAllocation.c ****                     break;
 1117              		.loc 1 426 0
 1118 0052 F8BD     		pop	{r3, r4, r5, r6, r7, pc}
 1119              	.LVL54:
 1120              	.L48:
 415:UserAddressAllocation.c ****         if(strcmp(str,_userTable[i].str) == 0){
 1121              		.loc 1 415 0 discriminator 2
 1122 0054 0134     		adds	r4, r4, #1
 1123              	.LVL55:
 1124 0056 E4B2     		uxtb	r4, r4
 1125              	.LVL56:
 1126              	.L47:
 415:UserAddressAllocation.c ****         if(strcmp(str,_userTable[i].str) == 0){
 1127              		.loc 1 415 0 is_stmt 0 discriminator 1
 1128 0058 2A2C     		cmp	r4, #42
 1129 005a D6D9     		bls	.L53
 412:UserAddressAllocation.c ****     
 1130              		.loc 1 412 0 is_stmt 1
 1131 005c FF20     		movs	r0, #255
 1132 005e F8BD     		pop	{r3, r4, r5, r6, r7, pc}
 1133              	.LVL57:
 1134              	.L55:
 427:UserAddressAllocation.c ****                 default:
 428:UserAddressAllocation.c ****                     retval = 0xFF; //invalid level -> invalid address
 1135              		.loc 1 428 0
 1136 0060 FF20     		movs	r0, #255
 1137              	.LVL58:
 429:UserAddressAllocation.c ****                     break;
 430:UserAddressAllocation.c ****             }
 431:UserAddressAllocation.c ****             break;
 432:UserAddressAllocation.c ****         }
 433:UserAddressAllocation.c ****     }
 434:UserAddressAllocation.c ****     
 435:UserAddressAllocation.c ****     return retval;
 436:UserAddressAllocation.c **** }
 1138              		.loc 1 436 0
 1139 0062 F8BD     		pop	{r3, r4, r5, r6, r7, pc}
 1140              	.LVL59:
 1141              	.L58:
 1142              		.align	2
 1143              	.L57:
 1144 0064 00000000 		.word	.LANCHOR0
 1145              		.cfi_endproc
ARM GAS  C:\Users\HENRIC~1\AppData\Local\Temp\ccINU9CD.s 			page 29


 1146              	.LFE5:
 1147              		.size	user_string_to_address, .-user_string_to_address
 1148              		.section	.text.user_address_to_string,"ax",%progbits
 1149              		.align	2
 1150              		.global	user_address_to_string
 1151              		.thumb
 1152              		.thumb_func
 1153              		.type	user_address_to_string, %function
 1154              	user_address_to_string:
 1155              	.LFB6:
 437:UserAddressAllocation.c **** 
 438:UserAddressAllocation.c **** /**
 439:UserAddressAllocation.c ****  * Map address to stringified identity of username
 440:UserAddressAllocation.c ****  * @addr is 7-bit address (8th MSB is 0) to match.
 441:UserAddressAllocation.c ****  * @return stringified version of enumerated identity else "invalid name"
 442:UserAddressAllocation.c ****  */
 443:UserAddressAllocation.c **** const char* user_address_to_string(uint8_t addr){
 1156              		.loc 1 443 0
 1157              		.cfi_startproc
 1158              		@ args = 0, pretend = 0, frame = 0
 1159              		@ frame_needed = 0, uses_anonymous_args = 0
 1160              		@ link register save eliminated.
 1161              	.LVL60:
 1162 0000 10B4     		push	{r4}
 1163              		.cfi_def_cfa_offset 4
 1164              		.cfi_offset 4, -4
 1165              	.LVL61:
 444:UserAddressAllocation.c ****     const char* retval = "invalid name";
 445:UserAddressAllocation.c ****     
 446:UserAddressAllocation.c ****     uint8_t i;
 447:UserAddressAllocation.c ****     for(i=0; i<_USER_TABLE_SIZE; i++){
 1166              		.loc 1 447 0
 1167 0002 0023     		movs	r3, #0
 1168 0004 21E0     		b	.L60
 1169              	.LVL62:
 1170              	.L64:
 448:UserAddressAllocation.c ****         if(_userTable[i].lvl_1_addr == addr || _userTable[i].lvl_2_addr == addr 
 1171              		.loc 1 448 0
 1172 0006 1946     		mov	r1, r3
 1173 0008 03EB4304 		add	r4, r3, r3, lsl #1
 1174 000c A200     		lsls	r2, r4, #2
 1175 000e 114C     		ldr	r4, .L66
 1176 0010 2244     		add	r2, r2, r4
 1177 0012 127A     		ldrb	r2, [r2, #8]	@ zero_extendqisi2
 1178 0014 8242     		cmp	r2, r0
 1179 0016 0FD0     		beq	.L61
 1180              		.loc 1 448 0 is_stmt 0 discriminator 1
 1181 0018 03EB4304 		add	r4, r3, r3, lsl #1
 1182 001c A200     		lsls	r2, r4, #2
 1183 001e 0D4C     		ldr	r4, .L66
 1184 0020 2244     		add	r2, r2, r4
 1185 0022 527A     		ldrb	r2, [r2, #9]	@ zero_extendqisi2
 1186 0024 9042     		cmp	r0, r2
 1187 0026 07D0     		beq	.L61
 449:UserAddressAllocation.c ****                 || _userTable[i].lvl_3_addr == addr){
 1188              		.loc 1 449 0 is_stmt 1
 1189 0028 03EB4304 		add	r4, r3, r3, lsl #1
ARM GAS  C:\Users\HENRIC~1\AppData\Local\Temp\ccINU9CD.s 			page 30


 1190 002c A200     		lsls	r2, r4, #2
 1191 002e 094C     		ldr	r4, .L66
 1192 0030 2244     		add	r2, r2, r4
 1193 0032 927A     		ldrb	r2, [r2, #10]	@ zero_extendqisi2
 1194 0034 9042     		cmp	r0, r2
 1195 0036 06D1     		bne	.L62
 1196              	.L61:
 450:UserAddressAllocation.c ****             retval = _userTable[i].str;
 1197              		.loc 1 450 0
 1198 0038 01EB4101 		add	r1, r1, r1, lsl #1
 1199 003c 8B00     		lsls	r3, r1, #2
 1200              	.LVL63:
 1201 003e 054A     		ldr	r2, .L66
 1202 0040 1344     		add	r3, r3, r2
 1203 0042 5868     		ldr	r0, [r3, #4]
 1204              	.LVL64:
 451:UserAddressAllocation.c ****             break;
 1205              		.loc 1 451 0
 1206 0044 04E0     		b	.L63
 1207              	.LVL65:
 1208              	.L62:
 447:UserAddressAllocation.c ****         if(_userTable[i].lvl_1_addr == addr || _userTable[i].lvl_2_addr == addr 
 1209              		.loc 1 447 0 discriminator 2
 1210 0046 0133     		adds	r3, r3, #1
 1211              	.LVL66:
 1212 0048 DBB2     		uxtb	r3, r3
 1213              	.LVL67:
 1214              	.L60:
 447:UserAddressAllocation.c ****         if(_userTable[i].lvl_1_addr == addr || _userTable[i].lvl_2_addr == addr 
 1215              		.loc 1 447 0 is_stmt 0 discriminator 1
 1216 004a 2A2B     		cmp	r3, #42
 1217 004c DBD9     		bls	.L64
 444:UserAddressAllocation.c ****     
 1218              		.loc 1 444 0 is_stmt 1
 1219 004e 0248     		ldr	r0, .L66+4
 1220              	.LVL68:
 1221              	.L63:
 452:UserAddressAllocation.c ****         }
 453:UserAddressAllocation.c ****     }
 454:UserAddressAllocation.c ****     
 455:UserAddressAllocation.c ****     return retval;
 456:UserAddressAllocation.c **** }...
 1222              		.loc 1 456 0
 1223 0050 10BC     		pop	{r4}
 1224              		.cfi_restore 4
 1225              		.cfi_def_cfa_offset 0
 1226 0052 7047     		bx	lr
 1227              	.L67:
 1228              		.align	2
 1229              	.L66:
 1230 0054 00000000 		.word	.LANCHOR0
 1231 0058 A8020000 		.word	.LC42
 1232              		.cfi_endproc
 1233              	.LFE6:
 1234              		.size	user_address_to_string, .-user_address_to_string
 1235              		.section	.rodata.str1.4,"aMS",%progbits,1
 1236              		.align	2
ARM GAS  C:\Users\HENRIC~1\AppData\Local\Temp\ccINU9CD.s 			page 31


 1237              	.LC0:
 1238 0000 62726F61 		.ascii	"broadcast\000"
 1238      64636173 
 1238      7400
 1239 000a 0000     		.space	2
 1240              	.LC1:
 1241 000c 70616D65 		.ascii	"pamela antar\000"
 1241      6C612061 
 1241      6E746172 
 1241      00
 1242 0019 000000   		.space	3
 1243              	.LC2:
 1244 001c 73616D75 		.ascii	"samuel conroy\000"
 1244      656C2063 
 1244      6F6E726F 
 1244      7900
 1245 002a 0000     		.space	2
 1246              	.LC3:
 1247 002c 73616D75 		.ascii	"samuel hallerman\000"
 1247      656C2068 
 1247      616C6C65 
 1247      726D616E 
 1247      00
 1248 003d 000000   		.space	3
 1249              	.LC4:
 1250 0040 63757274 		.ascii	"curt henrichs\000"
 1250      2068656E 
 1250      72696368 
 1250      7300
 1251 004e 0000     		.space	2
 1252              	.LC5:
 1253 0050 6A6F7365 		.ascii	"josephine locurto\000"
 1253      7068696E 
 1253      65206C6F 
 1253      63757274 
 1253      6F00
 1254 0062 0000     		.space	2
 1255              	.LC6:
 1256 0064 616E7468 		.ascii	"anthony marlowe\000"
 1256      6F6E7920 
 1256      6D61726C 
 1256      6F776500 
 1257              	.LC7:
 1258 0074 6D756E61 		.ascii	"munazza naeem\000"
 1258      7A7A6120 
 1258      6E616565 
 1258      6D00
 1259 0082 0000     		.space	2
 1260              	.LC8:
 1261 0084 6D617468 		.ascii	"mathew pike\000"
 1261      65772070 
 1261      696B6500 
 1262              	.LC9:
 1263 0090 73686168 		.ascii	"shahruke qureshi\000"
 1263      72756B65 
 1263      20717572 
 1263      65736869 
ARM GAS  C:\Users\HENRIC~1\AppData\Local\Temp\ccINU9CD.s 			page 32


 1263      00
 1264 00a1 000000   		.space	3
 1265              	.LC10:
 1266 00a4 64697669 		.ascii	"divin ramachandran\000"
 1266      6E207261 
 1266      6D616368 
 1266      616E6472 
 1266      616E00
 1267 00b7 00       		.space	1
 1268              	.LC11:
 1269 00b8 616C6578 		.ascii	"alexander roberts\000"
 1269      616E6465 
 1269      7220726F 
 1269      62657274 
 1269      7300
 1270 00ca 0000     		.space	2
 1271              	.LC12:
 1272 00cc 72656964 		.ascii	"reid rumack\000"
 1272      2072756D 
 1272      61636B00 
 1273              	.LC13:
 1274 00d8 6A6F686E 		.ascii	"john selfors\000"
 1274      2073656C 
 1274      666F7273 
 1274      00
 1275 00e5 000000   		.space	3
 1276              	.LC14:
 1277 00e8 7A616368 		.ascii	"zachary stanke\000"
 1277      61727920 
 1277      7374616E 
 1277      6B6500
 1278 00f7 00       		.space	1
 1279              	.LC15:
 1280 00f8 616E6472 		.ascii	"andrew stoehr\000"
 1280      65772073 
 1280      746F6568 
 1280      7200
 1281 0106 0000     		.space	2
 1282              	.LC16:
 1283 0108 74796C65 		.ascii	"tyler wells\000"
 1283      72207765 
 1283      6C6C7300 
 1284              	.LC17:
 1285 0114 6A6F686E 		.ascii	"johnathon wenzel\000"
 1285      6174686F 
 1285      6E207765 
 1285      6E7A656C 
 1285      00
 1286 0125 000000   		.space	3
 1287              	.LC18:
 1288 0128 6A6F7368 		.ascii	"joshua widder\000"
 1288      75612077 
 1288      69646465 
 1288      7200
 1289 0136 0000     		.space	2
 1290              	.LC19:
 1291 0138 616E6472 		.ascii	"andrew winston\000"
ARM GAS  C:\Users\HENRIC~1\AppData\Local\Temp\ccINU9CD.s 			page 33


 1291      65772077 
 1291      696E7374 
 1291      6F6E00
 1292 0147 00       		.space	1
 1293              	.LC20:
 1294 0148 7875207A 		.ascii	"xu zhang\000"
 1294      68616E67 
 1294      00
 1295 0151 000000   		.space	3
 1296              	.LC21:
 1297 0154 616C7769 		.ascii	"alwin abraham\000"
 1297      6E206162 
 1297      72616861 
 1297      6D00
 1298 0162 0000     		.space	2
 1299              	.LC22:
 1300 0164 6E617468 		.ascii	"natheer alkhunaizy\000"
 1300      65657220 
 1300      616C6B68 
 1300      756E6169 
 1300      7A7900
 1301 0177 00       		.space	1
 1302              	.LC23:
 1303 0178 63616C65 		.ascii	"caleb bahr\000"
 1303      62206261 
 1303      687200
 1304 0183 00       		.space	1
 1305              	.LC24:
 1306 0184 70616C6C 		.ascii	"pallav banik\000"
 1306      61762062 
 1306      616E696B 
 1306      00
 1307 0191 000000   		.space	3
 1308              	.LC25:
 1309 0194 7A616368 		.ascii	"zachary bartmer\000"
 1309      61727920 
 1309      62617274 
 1309      6D657200 
 1310              	.LC26:
 1311 01a4 6E696368 		.ascii	"nicholas bouska\000"
 1311      6F6C6173 
 1311      20626F75 
 1311      736B6100 
 1312              	.LC27:
 1313 01b4 72696C65 		.ascii	"riley bruce\000"
 1313      79206272 
 1313      75636500 
 1314              	.LC28:
 1315 01c0 6765726C 		.ascii	"gerlad gehrke\000"
 1315      61642067 
 1315      6568726B 
 1315      6500
 1316 01ce 0000     		.space	2
 1317              	.LC29:
 1318 01d0 62656E74 		.ascii	"benton geitmer\000"
 1318      6F6E2067 
 1318      6569746D 
ARM GAS  C:\Users\HENRIC~1\AppData\Local\Temp\ccINU9CD.s 			page 34


 1318      657200
 1319 01df 00       		.space	1
 1320              	.LC30:
 1321 01e0 6164616D 		.ascii	"adam hay\000"
 1321      20686179 
 1321      00
 1322 01e9 000000   		.space	3
 1323              	.LC31:
 1324 01ec 71756968 		.ascii	"quihao jin\000"
 1324      616F206A 
 1324      696E00
 1325 01f7 00       		.space	1
 1326              	.LC32:
 1327 01f8 73657468 		.ascii	"seth liabraaten\000"
 1327      206C6961 
 1327      62726161 
 1327      74656E00 
 1328              	.LC33:
 1329 0208 6D617572 		.ascii	"maurizio padilla\000"
 1329      697A696F 
 1329      20706164 
 1329      696C6C61 
 1329      00
 1330 0219 000000   		.space	3
 1331              	.LC34:
 1332 021c 68756E74 		.ascii	"hunter parks\000"
 1332      65722070 
 1332      61726B73 
 1332      00
 1333 0229 000000   		.space	3
 1334              	.LC35:
 1335 022c 6E697276 		.ascii	"nirvam poonacha theethira\000"
 1335      616D2070 
 1335      6F6F6E61 
 1335      63686120 
 1335      74686565 
 1336 0246 0000     		.space	2
 1337              	.LC36:
 1338 0248 6A6F686E 		.ascii	"john schlederer\000"
 1338      20736368 
 1338      6C656465 
 1338      72657200 
 1339              	.LC37:
 1340 0258 6A616D65 		.ascii	"james shipp\000"
 1340      73207368 
 1340      69707000 
 1341              	.LC38:
 1342 0264 6C617772 		.ascii	"lawrence skuse\000"
 1342      656E6365 
 1342      20736B75 
 1342      736500
 1343 0273 00       		.space	1
 1344              	.LC39:
 1345 0274 776F6F64 		.ascii	"woodrow walker\000"
 1345      726F7720 
 1345      77616C6B 
 1345      657200
ARM GAS  C:\Users\HENRIC~1\AppData\Local\Temp\ccINU9CD.s 			page 35


 1346 0283 00       		.space	1
 1347              	.LC40:
 1348 0284 6A616D65 		.ascii	"james windorjj\000"
 1348      73207769 
 1348      6E646F72 
 1348      6A6A00
 1349 0293 00       		.space	1
 1350              	.LC41:
 1351 0294 6B616D69 		.ascii	"kamith mirissage\000"
 1351      7468206D 
 1351      69726973 
 1351      73616765 
 1351      00
 1352 02a5 000000   		.space	3
 1353              	.LC42:
 1354 02a8 696E7661 		.ascii	"invalid name\000"
 1354      6C696420 
 1354      6E616D65 
 1354      00
 1355              		.bss
 1356              		.align	2
 1357              		.set	.LANCHOR0,. + 0
 1358              		.type	_userTable, %object
 1359              		.size	_userTable, 516
 1360              	_userTable:
 1361 0000 00000000 		.space	516
 1361      00000000 
 1361      00000000 
 1361      00000000 
 1361      00000000 
 1362              		.text
 1363              	.Letext0:
 1364              		.file 2 "c:\\program files (x86)\\cypress\\psoc creator\\4.1\\psoc creator\\import\\gnu\\arm\\5.4.
 1365              		.file 3 "c:\\program files (x86)\\cypress\\psoc creator\\4.1\\psoc creator\\import\\gnu\\arm\\5.4.
 1366              		.file 4 "UserAddressAllocation.h"
 1367              		.file 5 "c:\\program files (x86)\\cypress\\psoc creator\\4.1\\psoc creator\\import\\gnu\\arm\\5.4.