ARM GAS  C:\Users\HENRIC~1\AppData\Local\Temp\ccOT2Umg.s 			page 1


   1              		.syntax unified
   2              		.cpu cortex-m3
   3              		.fpu softvfp
   4              		.eabi_attribute 20, 1
   5              		.eabi_attribute 21, 1
   6              		.eabi_attribute 23, 3
   7              		.eabi_attribute 24, 1
   8              		.eabi_attribute 25, 1
   9              		.eabi_attribute 26, 1
  10              		.eabi_attribute 30, 1
  11              		.eabi_attribute 34, 1
  12              		.eabi_attribute 18, 4
  13              		.thumb
  14              		.syntax unified
  15              		.file	"MotorTest.c"
  16              		.text
  17              	.Ltext0:
  18              		.cfi_sections	.debug_frame
  19              		.section	.text.motor_init,"ax",%progbits
  20              		.align	2
  21              		.global	motor_init
  22              		.thumb
  23              		.thumb_func
  24              		.type	motor_init, %function
  25              	motor_init:
  26              	.LFB63:
  27              		.file 1 "MotorTest.c"
   1:MotorTest.c   **** 
   2:MotorTest.c   **** #include "MotorTest.h"
   3:MotorTest.c   **** 
   4:MotorTest.c   **** void motor_init(void){
  28              		.loc 1 4 0
  29              		.cfi_startproc
  30              		@ args = 0, pretend = 0, frame = 0
  31              		@ frame_needed = 0, uses_anonymous_args = 0
  32 0000 08B5     		push	{r3, lr}
  33              		.cfi_def_cfa_offset 8
  34              		.cfi_offset 3, -8
  35              		.cfi_offset 14, -4
   5:MotorTest.c   ****     PWM_Start();   
  36              		.loc 1 5 0
  37 0002 FFF7FEFF 		bl	PWM_Start
  38              	.LVL0:
  39 0006 08BD     		pop	{r3, pc}
  40              		.cfi_endproc
  41              	.LFE63:
  42              		.size	motor_init, .-motor_init
  43              		.global	__aeabi_fcmplt
  44              		.global	__aeabi_fmul
  45              		.global	__aeabi_fcmpge
  46              		.global	__aeabi_fadd
  47              		.global	__aeabi_fcmpgt
  48              		.global	__aeabi_f2uiz
  49              		.section	.text.motor_ramp,"ax",%progbits
  50              		.align	2
  51              		.global	motor_ramp
  52              		.thumb
ARM GAS  C:\Users\HENRIC~1\AppData\Local\Temp\ccOT2Umg.s 			page 2


  53              		.thumb_func
  54              		.type	motor_ramp, %function
  55              	motor_ramp:
  56              	.LFB64:
   6:MotorTest.c   **** }
   7:MotorTest.c   **** 
   8:MotorTest.c   **** float motor_ramp(float target, float base, float step){
  57              		.loc 1 8 0
  58              		.cfi_startproc
  59              		@ args = 0, pretend = 0, frame = 0
  60              		@ frame_needed = 0, uses_anonymous_args = 0
  61              	.LVL1:
  62 0000 70B5     		push	{r4, r5, r6, lr}
  63              		.cfi_def_cfa_offset 16
  64              		.cfi_offset 4, -16
  65              		.cfi_offset 5, -12
  66              		.cfi_offset 6, -8
  67              		.cfi_offset 14, -4
  68 0002 0446     		mov	r4, r0
  69 0004 0E46     		mov	r6, r1
  70 0006 1546     		mov	r5, r2
  71              	.LVL2:
   9:MotorTest.c   ****     float duty = 0;
  10:MotorTest.c   ****     step = step * ((target < base) ? -1 : 1);
  72              		.loc 1 10 0
  73 0008 FFF7FEFF 		bl	__aeabi_fcmplt
  74              	.LVL3:
  75 000c 08B1     		cbz	r0, .L15
  76 000e 1848     		ldr	r0, .L17
  77 0010 01E0     		b	.L4
  78              	.L15:
  79 0012 4FF07E50 		mov	r0, #1065353216
  80              	.L4:
  81              		.loc 1 10 0 is_stmt 0 discriminator 4
  82 0016 2946     		mov	r1, r5
  83 0018 FFF7FEFF 		bl	__aeabi_fmul
  84              	.LVL4:
  85 001c 0546     		mov	r5, r0
  86              	.LVL5:
  11:MotorTest.c   ****     if(step >= 0 && (base + step) > target){
  87              		.loc 1 11 0 is_stmt 1 discriminator 4
  88 001e 0021     		movs	r1, #0
  89 0020 FFF7FEFF 		bl	__aeabi_fcmpge
  90              	.LVL6:
  91 0024 40B1     		cbz	r0, .L6
  92              		.loc 1 11 0 is_stmt 0 discriminator 1
  93 0026 2946     		mov	r1, r5
  94 0028 3046     		mov	r0, r6
  95 002a FFF7FEFF 		bl	__aeabi_fadd
  96              	.LVL7:
  97 002e 0146     		mov	r1, r0
  98 0030 2046     		mov	r0, r4
  99 0032 FFF7FEFF 		bl	__aeabi_fcmplt
 100              	.LVL8:
 101 0036 90B9     		cbnz	r0, .L8
 102              	.L6:
  12:MotorTest.c   ****         duty = target;   
ARM GAS  C:\Users\HENRIC~1\AppData\Local\Temp\ccOT2Umg.s 			page 3


  13:MotorTest.c   ****     }else if(step < 0 && (base + step) < target){
 103              		.loc 1 13 0 is_stmt 1
 104 0038 0021     		movs	r1, #0
 105 003a 2846     		mov	r0, r5
 106 003c FFF7FEFF 		bl	__aeabi_fcmplt
 107              	.LVL9:
 108 0040 40B1     		cbz	r0, .L9
 109              		.loc 1 13 0 is_stmt 0 discriminator 1
 110 0042 2946     		mov	r1, r5
 111 0044 3046     		mov	r0, r6
 112 0046 FFF7FEFF 		bl	__aeabi_fadd
 113              	.LVL10:
 114 004a 0146     		mov	r1, r0
 115 004c 2046     		mov	r0, r4
 116 004e FFF7FEFF 		bl	__aeabi_fcmpgt
 117              	.LVL11:
 118 0052 20B9     		cbnz	r0, .L8
 119              	.L9:
  14:MotorTest.c   ****         duty = target;   
  15:MotorTest.c   ****     }else {
  16:MotorTest.c   ****         duty = base + step;
 120              		.loc 1 16 0 is_stmt 1
 121 0054 2946     		mov	r1, r5
 122 0056 3046     		mov	r0, r6
 123 0058 FFF7FEFF 		bl	__aeabi_fadd
 124              	.LVL12:
 125 005c 0446     		mov	r4, r0
 126              	.LVL13:
 127              	.L8:
  17:MotorTest.c   ****     }
  18:MotorTest.c   ****     PWM_WriteCompare((uint8_t)(duty));
 128              		.loc 1 18 0
 129 005e 2046     		mov	r0, r4
 130 0060 FFF7FEFF 		bl	__aeabi_f2uiz
 131              	.LVL14:
 132 0064 C0B2     		uxtb	r0, r0
 133 0066 FFF7FEFF 		bl	PWM_WriteCompare
 134              	.LVL15:
  19:MotorTest.c   ****     return duty;
  20:MotorTest.c   **** }
 135              		.loc 1 20 0
 136 006a 2046     		mov	r0, r4
 137 006c 70BD     		pop	{r4, r5, r6, pc}
 138              	.LVL16:
 139              	.L18:
 140 006e 00BF     		.align	2
 141              	.L17:
 142 0070 000080BF 		.word	-1082130432
 143              		.cfi_endproc
 144              	.LFE64:
 145              		.size	motor_ramp, .-motor_ramp
 146              		.section	.text.motor_get_fault_status,"ax",%progbits
 147              		.align	2
 148              		.global	motor_get_fault_status
 149              		.thumb
 150              		.thumb_func
 151              		.type	motor_get_fault_status, %function
ARM GAS  C:\Users\HENRIC~1\AppData\Local\Temp\ccOT2Umg.s 			page 4


 152              	motor_get_fault_status:
 153              	.LFB65:
  21:MotorTest.c   **** 
  22:MotorTest.c   **** bool motor_get_fault_status(void){
 154              		.loc 1 22 0
 155              		.cfi_startproc
 156              		@ args = 0, pretend = 0, frame = 0
 157              		@ frame_needed = 0, uses_anonymous_args = 0
 158 0000 08B5     		push	{r3, lr}
 159              		.cfi_def_cfa_offset 8
 160              		.cfi_offset 3, -8
 161              		.cfi_offset 14, -4
  23:MotorTest.c   ****     return Motor_Fault_Status_Read();   
 162              		.loc 1 23 0
 163 0002 FFF7FEFF 		bl	Motor_Fault_Status_Read
 164              	.LVL17:
  24:MotorTest.c   **** }...
 165              		.loc 1 24 0
 166 0006 0030     		adds	r0, r0, #0
 167 0008 18BF     		it	ne
 168 000a 0120     		movne	r0, #1
 169 000c 08BD     		pop	{r3, pc}
 170              		.cfi_endproc
 171              	.LFE65:
 172              		.size	motor_get_fault_status, .-motor_get_fault_status
 173 000e 00BF     		.text
 174              	.Letext0:
 175              		.file 2 "c:\\program files (x86)\\cypress\\psoc creator\\4.1\\psoc creator\\import\\gnu\\arm\\5.4.
 176              		.file 3 "c:\\program files (x86)\\cypress\\psoc creator\\4.1\\psoc creator\\import\\gnu\\arm\\5.4.
 177              		.file 4 "Generated_Source\\PSoC5/PWM.h"
 178              		.file 5 "Generated_Source\\PSoC5/Motor_Fault_Status.h"
 179              		.file 6 "Generated_Source\\PSoC5/core_cm3.h"