ARM GAS  C:\Users\HENRIC~1\AppData\Local\Temp\cctNxJY6.s 			page 1


   1              		.syntax unified
   2              		.cpu cortex-m3
   3              		.fpu softvfp
   4              		.eabi_attribute 20, 1
   5              		.eabi_attribute 21, 1
   6              		.eabi_attribute 23, 3
   7              		.eabi_attribute 24, 1
   8              		.eabi_attribute 25, 1
   9              		.eabi_attribute 26, 1
  10              		.eabi_attribute 30, 1
  11              		.eabi_attribute 34, 1
  12              		.eabi_attribute 18, 4
  13              		.thumb
  14              		.syntax unified
  15              		.file	"Profile.c"
  16              		.text
  17              	.Ltext0:
  18              		.cfi_sections	.debug_frame
  19              		.section	.text.profile_init,"ax",%progbits
  20              		.align	2
  21              		.global	profile_init
  22              		.thumb
  23              		.thumb_func
  24              		.type	profile_init, %function
  25              	profile_init:
  26              	.LFB63:
  27              		.file 1 "Profile.c"
   1:Profile.c     **** /**
   2:Profile.c     ****  * Profile
   3:Profile.c     ****  * @author Curt Henrichs
   4:Profile.c     ****  * @date 9-13-17
   5:Profile.c     ****  *
   6:Profile.c     ****  * Profile module defines workout profile singletons as profile objects for
   7:Profile.c     ****  * the treadmill application. Control of motor is dependent on the profile's
   8:Profile.c     ****  * calculation, which is based on a heartbeat compensated PWM duty cycle.
   9:Profile.c     ****  */
  10:Profile.c     **** 
  11:Profile.c     **** //=============================================================================
  12:Profile.c     **** //                                  Libraries
  13:Profile.c     **** //=============================================================================
  14:Profile.c     **** 
  15:Profile.c     **** #include "Profile.h"
  16:Profile.c     **** #include <project.h>
  17:Profile.c     **** #include <string.h>
  18:Profile.c     **** 
  19:Profile.c     **** //=============================================================================
  20:Profile.c     **** //                             Private Attributes
  21:Profile.c     **** //=============================================================================
  22:Profile.c     **** 
  23:Profile.c     **** /**
  24:Profile.c     ****  * Array of singleton profiles that is selectable by the profiles enumeration
  25:Profile.c     ****  */
  26:Profile.c     **** static Profile_t profiles[_END_OF_PROFILE_LIST];
  27:Profile.c     **** 
  28:Profile.c     **** //=============================================================================
  29:Profile.c     **** //                        Public Function Implementation
  30:Profile.c     **** //=============================================================================
ARM GAS  C:\Users\HENRIC~1\AppData\Local\Temp\cctNxJY6.s 			page 2


  31:Profile.c     **** 
  32:Profile.c     **** /**
  33:Profile.c     ****  * Profile singleton intialization function.
  34:Profile.c     ****  */
  35:Profile.c     **** void profile_init(void){
  28              		.loc 1 35 0
  29              		.cfi_startproc
  30              		@ args = 0, pretend = 0, frame = 0
  31              		@ frame_needed = 0, uses_anonymous_args = 0
  32 0000 F0B5     		push	{r4, r5, r6, r7, lr}
  33              		.cfi_def_cfa_offset 20
  34              		.cfi_offset 4, -20
  35              		.cfi_offset 5, -16
  36              		.cfi_offset 6, -12
  37              		.cfi_offset 7, -8
  38              		.cfi_offset 14, -4
  39              	.LVL0:
  36:Profile.c     ****     //generate off object
  37:Profile.c     ****     Profile_t* off = &profiles[PROFILE_OFF];
  38:Profile.c     ****     off->motor_heartbeat_shift_down = 0;
  40              		.loc 1 38 0
  41 0002 444C     		ldr	r4, .L3
  42 0004 0026     		movs	r6, #0
  43 0006 6670     		strb	r6, [r4, #1]
  39:Profile.c     ****     off->motor_heartbeat_shift_up = 0;
  44              		.loc 1 39 0
  45 0008 2670     		strb	r6, [r4]
  40:Profile.c     ****     off->warn_heartbeat_val = 0;
  46              		.loc 1 40 0
  47 000a A670     		strb	r6, [r4, #2]
  41:Profile.c     ****     off->pwm_base = 0;
  48              		.loc 1 41 0
  49 000c A680     		strh	r6, [r4, #4]	@ movhi
  42:Profile.c     ****     strcpy(off->name,"Off");
  50              		.loc 1 42 0
  51 000e 424B     		ldr	r3, .L3+4
  52 0010 1868     		ldr	r0, [r3]	@ unaligned
  53 0012 C4F80600 		str	r0, [r4, #6]	@ unaligned
  43:Profile.c     ****     strcpy(off->detail,"motor is off");
  54              		.loc 1 43 0
  55 0016 414B     		ldr	r3, .L3+8
  56 0018 07CB     		ldmia	r3!, {r0, r1, r2}
  57 001a C4F81100 		str	r0, [r4, #17]	@ unaligned
  58 001e C4F81510 		str	r1, [r4, #21]	@ unaligned
  59 0022 C4F81920 		str	r2, [r4, #25]	@ unaligned
  60 0026 1B78     		ldrb	r3, [r3]	@ zero_extendqisi2
  61 0028 6377     		strb	r3, [r4, #29]
  62              	.LVL1:
  44:Profile.c     ****     
  45:Profile.c     ****     //generate casual object
  46:Profile.c     ****     Profile_t* casual = &profiles[PROFILE_CASUAL];
  47:Profile.c     ****     casual->motor_heartbeat_shift_down = -51;
  63              		.loc 1 47 0
  64 002a CD23     		movs	r3, #205
  65 002c 84F82330 		strb	r3, [r4, #35]
  48:Profile.c     ****     casual->motor_heartbeat_shift_up = 13;
  66              		.loc 1 48 0
ARM GAS  C:\Users\HENRIC~1\AppData\Local\Temp\cctNxJY6.s 			page 3


  67 0030 0D23     		movs	r3, #13
  68 0032 84F82230 		strb	r3, [r4, #34]
  49:Profile.c     ****     casual->warn_heartbeat_val = 25;
  69              		.loc 1 49 0
  70 0036 1927     		movs	r7, #25
  71 0038 84F82470 		strb	r7, [r4, #36]
  50:Profile.c     ****     casual->pwm_base = CASUAL_MOTOR_RATE;
  72              		.loc 1 50 0
  73 003c 2123     		movs	r3, #33
  74 003e E384     		strh	r3, [r4, #38]	@ movhi
  51:Profile.c     ****     strcpy(casual->name,"Casual");
  75              		.loc 1 51 0
  76 0040 374B     		ldr	r3, .L3+12
  77 0042 93E80300 		ldmia	r3, {r0, r1}
  78 0046 A062     		str	r0, [r4, #40]
  79 0048 A185     		strh	r1, [r4, #44]	@ movhi
  80 004a 090C     		lsrs	r1, r1, #16
  81 004c 84F82E10 		strb	r1, [r4, #46]
  52:Profile.c     ****     strcpy(casual->detail,"leisurely stroll");
  82              		.loc 1 52 0
  83 0050 344D     		ldr	r5, .L3+16
  84 0052 0FCD     		ldmia	r5!, {r0, r1, r2, r3}
  85 0054 C4F83300 		str	r0, [r4, #51]	@ unaligned
  86 0058 C4F83710 		str	r1, [r4, #55]	@ unaligned
  87 005c C4F83B20 		str	r2, [r4, #59]	@ unaligned
  88 0060 C4F83F30 		str	r3, [r4, #63]	@ unaligned
  89 0064 2B78     		ldrb	r3, [r5]	@ zero_extendqisi2
  90 0066 84F84330 		strb	r3, [r4, #67]
  91              	.LVL2:
  53:Profile.c     ****     
  54:Profile.c     ****     //generate moderate object
  55:Profile.c     ****     Profile_t* moderate = &profiles[PROFILE_MODERATE];
  56:Profile.c     ****     moderate->motor_heartbeat_shift_down = -26;
  92              		.loc 1 56 0
  93 006a E623     		movs	r3, #230
  94 006c 84F84530 		strb	r3, [r4, #69]
  57:Profile.c     ****     moderate->motor_heartbeat_shift_up = 26;
  95              		.loc 1 57 0
  96 0070 4FF01A0E 		mov	lr, #26
  97 0074 84F844E0 		strb	lr, [r4, #68]
  58:Profile.c     ****     moderate->warn_heartbeat_val = 25;
  98              		.loc 1 58 0
  99 0078 84F84670 		strb	r7, [r4, #70]
  59:Profile.c     ****     moderate->pwm_base = MODERATE_MOTOR_RATE;
 100              		.loc 1 59 0
 101 007c 4023     		movs	r3, #64
 102 007e A4F84830 		strh	r3, [r4, #72]	@ movhi
  60:Profile.c     ****     strcpy(moderate->name,"Moderate");
 103              		.loc 1 60 0
 104 0082 294B     		ldr	r3, .L3+20
 105 0084 03CB     		ldmia	r3!, {r0, r1}
 106 0086 C4F84A00 		str	r0, [r4, #74]	@ unaligned
 107 008a C4F84E10 		str	r1, [r4, #78]	@ unaligned
 108 008e 1B78     		ldrb	r3, [r3]	@ zero_extendqisi2
 109 0090 84F85230 		strb	r3, [r4, #82]
  61:Profile.c     ****     strcpy(moderate->detail,"fit and toned");
 110              		.loc 1 61 0
ARM GAS  C:\Users\HENRIC~1\AppData\Local\Temp\cctNxJY6.s 			page 4


 111 0094 254B     		ldr	r3, .L3+24
 112 0096 07CB     		ldmia	r3!, {r0, r1, r2}
 113 0098 C4F85500 		str	r0, [r4, #85]	@ unaligned
 114 009c C4F85910 		str	r1, [r4, #89]	@ unaligned
 115 00a0 C4F85D20 		str	r2, [r4, #93]	@ unaligned
 116 00a4 1B88     		ldrh	r3, [r3]	@ unaligned
 117 00a6 A4F86130 		strh	r3, [r4, #97]	@ unaligned
 118              	.LVL3:
  62:Profile.c     ****     
  63:Profile.c     ****     //generate intense object
  64:Profile.c     ****     Profile_t* intense  = &profiles[PROFILE_INTENSE];
  65:Profile.c     ****     intense->motor_heartbeat_shift_down = -13;
 119              		.loc 1 65 0
 120 00aa F323     		movs	r3, #243
 121 00ac 84F86730 		strb	r3, [r4, #103]
  66:Profile.c     ****     intense->motor_heartbeat_shift_up = 26;
 122              		.loc 1 66 0
 123 00b0 84F866E0 		strb	lr, [r4, #102]
  67:Profile.c     ****     intense->warn_heartbeat_val = 25;
 124              		.loc 1 67 0
 125 00b4 84F86870 		strb	r7, [r4, #104]
  68:Profile.c     ****     intense->pwm_base = INTENSE_MOTOR_RATE;
 126              		.loc 1 68 0
 127 00b8 8023     		movs	r3, #128
 128 00ba A4F86A30 		strh	r3, [r4, #106]	@ movhi
  69:Profile.c     ****     strcpy(intense->name,"Intense");
 129              		.loc 1 69 0
 130 00be 04F16C03 		add	r3, r4, #108
 131 00c2 1B4A     		ldr	r2, .L3+28
 132 00c4 92E80300 		ldmia	r2, {r0, r1}
 133 00c8 83E80300 		stmia	r3, {r0, r1}
  70:Profile.c     ****     strcpy(intense->detail,"feel the burn");
 134              		.loc 1 70 0
 135 00cc 194B     		ldr	r3, .L3+32
 136 00ce 07CB     		ldmia	r3!, {r0, r1, r2}
 137 00d0 C4F87700 		str	r0, [r4, #119]	@ unaligned
 138 00d4 C4F87B10 		str	r1, [r4, #123]	@ unaligned
 139 00d8 C4F87F20 		str	r2, [r4, #127]	@ unaligned
 140 00dc 1B88     		ldrh	r3, [r3]	@ unaligned
 141 00de A4F88330 		strh	r3, [r4, #131]	@ unaligned
 142              	.LVL4:
  71:Profile.c     ****     
  72:Profile.c     ****     //generate extreme object
  73:Profile.c     ****     Profile_t* extreme = &profiles[PROFILE_EXTREME];
  74:Profile.c     ****     extreme->motor_heartbeat_shift_down = 0;
 143              		.loc 1 74 0
 144 00e2 84F88960 		strb	r6, [r4, #137]
  75:Profile.c     ****     extreme->motor_heartbeat_shift_up = 51;
 145              		.loc 1 75 0
 146 00e6 3323     		movs	r3, #51
 147 00e8 84F88830 		strb	r3, [r4, #136]
  76:Profile.c     ****     extreme->warn_heartbeat_val = 25;
 148              		.loc 1 76 0
 149 00ec 84F88A70 		strb	r7, [r4, #138]
  77:Profile.c     ****     extreme->pwm_base = EXTREME_MOTOR_RATE;
 150              		.loc 1 77 0
 151 00f0 C023     		movs	r3, #192
ARM GAS  C:\Users\HENRIC~1\AppData\Local\Temp\cctNxJY6.s 			page 5


 152 00f2 A4F88C30 		strh	r3, [r4, #140]	@ movhi
  78:Profile.c     ****     strcpy(extreme->name,"Extreme");
 153              		.loc 1 78 0
 154 00f6 104B     		ldr	r3, .L3+36
 155 00f8 03CB     		ldmia	r3!, {r0, r1}
 156 00fa C4F88E00 		str	r0, [r4, #142]	@ unaligned
 157 00fe C4F89210 		str	r1, [r4, #146]	@ unaligned
  79:Profile.c     ****     strcpy(extreme->detail,"why?");
 158              		.loc 1 79 0
 159 0102 0E4B     		ldr	r3, .L3+40
 160 0104 1868     		ldr	r0, [r3]	@ unaligned
 161 0106 C4F89900 		str	r0, [r4, #153]	@ unaligned
 162 010a 1B79     		ldrb	r3, [r3, #4]	@ zero_extendqisi2
 163 010c 84F89D30 		strb	r3, [r4, #157]
 164 0110 F0BD     		pop	{r4, r5, r6, r7, pc}
 165              	.L4:
 166 0112 00BF     		.align	2
 167              	.L3:
 168 0114 00000000 		.word	.LANCHOR0
 169 0118 00000000 		.word	.LC0
 170 011c 04000000 		.word	.LC1
 171 0120 14000000 		.word	.LC2
 172 0124 1C000000 		.word	.LC3
 173 0128 30000000 		.word	.LC4
 174 012c 3C000000 		.word	.LC5
 175 0130 4C000000 		.word	.LC6
 176 0134 54000000 		.word	.LC7
 177 0138 64000000 		.word	.LC8
 178 013c 6C000000 		.word	.LC9
 179              		.cfi_endproc
 180              	.LFE63:
 181              		.size	profile_init, .-profile_init
 182              		.section	.text.profile_get,"ax",%progbits
 183              		.align	2
 184              		.global	profile_get
 185              		.thumb
 186              		.thumb_func
 187              		.type	profile_get, %function
 188              	profile_get:
 189              	.LFB64:
  80:Profile.c     **** }
  81:Profile.c     **** 
  82:Profile.c     **** /**
  83:Profile.c     ****  * Profile singleton selection function
  84:Profile.c     ****  * @param profile enumeration of singletons
  85:Profile.c     ****  * @return pointer to profile singleton given selection parameter. NULL if
  86:Profile.c     ****  *         invalid.
  87:Profile.c     ****  */
  88:Profile.c     **** const Profile_t* profile_get(Profile_e profile){
 190              		.loc 1 88 0
 191              		.cfi_startproc
 192              		@ args = 0, pretend = 0, frame = 0
 193              		@ frame_needed = 0, uses_anonymous_args = 0
 194              		@ link register save eliminated.
 195              	.LVL5:
  89:Profile.c     ****     const Profile_t* retVal = NULL;
  90:Profile.c     ****     if(profile < _END_OF_PROFILE_LIST){
ARM GAS  C:\Users\HENRIC~1\AppData\Local\Temp\cctNxJY6.s 			page 6


 196              		.loc 1 90 0
 197 0000 0428     		cmp	r0, #4
 198 0002 05D8     		bhi	.L7
  91:Profile.c     ****         retVal = &profiles[profile];
 199              		.loc 1 91 0
 200 0004 00EB0010 		add	r0, r0, r0, lsl #4
 201              	.LVL6:
 202 0008 4300     		lsls	r3, r0, #1
 203 000a 0248     		ldr	r0, .L8
 204 000c 1844     		add	r0, r0, r3
 205              	.LVL7:
 206 000e 7047     		bx	lr
 207              	.LVL8:
 208              	.L7:
  89:Profile.c     ****     const Profile_t* retVal = NULL;
 209              		.loc 1 89 0
 210 0010 0020     		movs	r0, #0
 211              	.LVL9:
  92:Profile.c     ****     }
  93:Profile.c     ****     return retVal;
  94:Profile.c     **** }
 212              		.loc 1 94 0
 213 0012 7047     		bx	lr
 214              	.L9:
 215              		.align	2
 216              	.L8:
 217 0014 00000000 		.word	.LANCHOR0
 218              		.cfi_endproc
 219              	.LFE64:
 220              		.size	profile_get, .-profile_get
 221              		.section	.text.profile_menu_option,"ax",%progbits
 222              		.align	2
 223              		.global	profile_menu_option
 224              		.thumb
 225              		.thumb_func
 226              		.type	profile_menu_option, %function
 227              	profile_menu_option:
 228              	.LFB65:
  95:Profile.c     **** 
  96:Profile.c     **** /**
  97:Profile.c     ****  * Profile menu display function
  98:Profile.c     ****  * @param profile to display on LCD display
  99:Profile.c     ****  */
 100:Profile.c     **** void profile_menu_option(const Profile_t* profile){
 229              		.loc 1 100 0
 230              		.cfi_startproc
 231              		@ args = 0, pretend = 0, frame = 0
 232              		@ frame_needed = 0, uses_anonymous_args = 0
 233              	.LVL10:
 101:Profile.c     ****     if(profile != NULL){
 234              		.loc 1 101 0
 235 0000 30B1     		cbz	r0, .L13
 100:Profile.c     ****     if(profile != NULL){
 236              		.loc 1 100 0
 237 0002 08B5     		push	{r3, lr}
 238              		.cfi_def_cfa_offset 8
 239              		.cfi_offset 3, -8
ARM GAS  C:\Users\HENRIC~1\AppData\Local\Temp\cctNxJY6.s 			page 7


 240              		.cfi_offset 14, -4
 102:Profile.c     ****         display_profile(profile->name,profile->detail);
 241              		.loc 1 102 0
 242 0004 00F11101 		add	r1, r0, #17
 243 0008 0630     		adds	r0, r0, #6
 244              	.LVL11:
 245 000a FFF7FEFF 		bl	display_profile
 246              	.LVL12:
 247 000e 08BD     		pop	{r3, pc}
 248              	.LVL13:
 249              	.L13:
 250              		.cfi_def_cfa_offset 0
 251              		.cfi_restore 3
 252              		.cfi_restore 14
 253 0010 7047     		bx	lr
 254              		.cfi_endproc
 255              	.LFE65:
 256              		.size	profile_menu_option, .-profile_menu_option
 257 0012 00BF     		.section	.rodata.str1.4,"aMS",%progbits,1
 258              		.align	2
 259              	.LC0:
 260 0000 4F666600 		.ascii	"Off\000"
 261              	.LC1:
 262 0004 6D6F746F 		.ascii	"motor is off\000"
 262      72206973 
 262      206F6666 
 262      00
 263 0011 000000   		.space	3
 264              	.LC2:
 265 0014 43617375 		.ascii	"Casual\000"
 265      616C00
 266 001b 00       		.space	1
 267              	.LC3:
 268 001c 6C656973 		.ascii	"leisurely stroll\000"
 268      7572656C 
 268      79207374 
 268      726F6C6C 
 268      00
 269 002d 000000   		.space	3
 270              	.LC4:
 271 0030 4D6F6465 		.ascii	"Moderate\000"
 271      72617465 
 271      00
 272 0039 000000   		.space	3
 273              	.LC5:
 274 003c 66697420 		.ascii	"fit and toned\000"
 274      616E6420 
 274      746F6E65 
 274      6400
 275 004a 0000     		.space	2
 276              	.LC6:
 277 004c 496E7465 		.ascii	"Intense\000"
 277      6E736500 
 278              	.LC7:
 279 0054 6665656C 		.ascii	"feel the burn\000"
 279      20746865 
 279      20627572 
ARM GAS  C:\Users\HENRIC~1\AppData\Local\Temp\cctNxJY6.s 			page 8


 279      6E00
 280 0062 0000     		.space	2
 281              	.LC8:
 282 0064 45787472 		.ascii	"Extreme\000"
 282      656D6500 
 283              	.LC9:
 284 006c 7768793F 		.ascii	"why?\000"
 284      00
 285              		.bss
 286              		.align	2
 287              		.set	.LANCHOR0,. + 0
 288              		.type	profiles, %object
 289              		.size	profiles, 170
 290              	profiles:
 291 0000 00000000 		.space	170
 291      00000000 
 291      00000000 
 291      00000000 
 291      00000000 
 292              		.text
 293              	.Letext0:
 294              		.file 2 "c:\\program files (x86)\\cypress\\psoc creator\\4.1\\psoc creator\\import\\gnu\\arm\\5.4.
 295              		.file 3 "c:\\program files (x86)\\cypress\\psoc creator\\4.1\\psoc creator\\import\\gnu\\arm\\5.4.
 296              		.file 4 "Profile.h"
 297              		.file 5 "Generated_Source\\PSoC5/core_cm3.h"
 298              		.file 6 "Display.h"