ARM GAS  C:\Users\HENRIC~1\AppData\Local\Temp\ccpYPRLI.s 			page 1


   1              		.syntax unified
   2              		.cpu cortex-m3
   3              		.fpu softvfp
   4              		.eabi_attribute 20, 1
   5              		.eabi_attribute 21, 1
   6              		.eabi_attribute 23, 3
   7              		.eabi_attribute 24, 1
   8              		.eabi_attribute 25, 1
   9              		.eabi_attribute 26, 1
  10              		.eabi_attribute 30, 1
  11              		.eabi_attribute 34, 1
  12              		.eabi_attribute 18, 4
  13              		.thumb
  14              		.syntax unified
  15              		.file	"Profile.c"
  16              		.text
  17              	.Ltext0:
  18              		.cfi_sections	.debug_frame
  19              		.section	.text.profile_init,"ax",%progbits
  20              		.align	2
  21              		.global	profile_init
  22              		.thumb
  23              		.thumb_func
  24              		.type	profile_init, %function
  25              	profile_init:
  26              	.LFB63:
  27              		.file 1 "Profile.c"
   1:Profile.c     **** /**
   2:Profile.c     ****  * Profile
   3:Profile.c     ****  * @author Curt Henrichs
   4:Profile.c     ****  * @date 9-13-17
   5:Profile.c     ****  *
   6:Profile.c     ****  * Profile module defines workout profile singletons as profile objects for
   7:Profile.c     ****  * the treadmill application. Control of motor is dependent on the profile's
   8:Profile.c     ****  * calculation, which is based on a heartbeat compensated PWM duty cycle.
   9:Profile.c     ****  */
  10:Profile.c     **** 
  11:Profile.c     **** //=============================================================================
  12:Profile.c     **** //                                  Libraries
  13:Profile.c     **** //=============================================================================
  14:Profile.c     **** 
  15:Profile.c     **** #include "Profile.h"
  16:Profile.c     **** #include <project.h>
  17:Profile.c     **** #include <string.h>
  18:Profile.c     **** 
  19:Profile.c     **** //=============================================================================
  20:Profile.c     **** //                             Private Attributes
  21:Profile.c     **** //=============================================================================
  22:Profile.c     **** 
  23:Profile.c     **** /**
  24:Profile.c     ****  * Array of singleton profiles that is selectable by the profiles enumeration
  25:Profile.c     ****  */
  26:Profile.c     **** static Profile_t profiles[_END_OF_PROFILE_LIST];
  27:Profile.c     **** 
  28:Profile.c     **** //=============================================================================
  29:Profile.c     **** //                        Public Function Implementation
  30:Profile.c     **** //=============================================================================
ARM GAS  C:\Users\HENRIC~1\AppData\Local\Temp\ccpYPRLI.s 			page 2


  31:Profile.c     **** 
  32:Profile.c     **** /**
  33:Profile.c     ****  * Profile singleton intialization function.
  34:Profile.c     ****  */
  35:Profile.c     **** void profile_init(void){
  28              		.loc 1 35 0
  29              		.cfi_startproc
  30              		@ args = 0, pretend = 0, frame = 0
  31              		@ frame_needed = 0, uses_anonymous_args = 0
  32 0000 F0B5     		push	{r4, r5, r6, r7, lr}
  33              		.cfi_def_cfa_offset 20
  34              		.cfi_offset 4, -20
  35              		.cfi_offset 5, -16
  36              		.cfi_offset 6, -12
  37              		.cfi_offset 7, -8
  38              		.cfi_offset 14, -4
  39              	.LVL0:
  36:Profile.c     ****     //generate off object
  37:Profile.c     ****     Profile_t* off = &profiles[PROFILE_OFF];
  38:Profile.c     ****     off->motor_heartbeat_shift_down = 0;
  40              		.loc 1 38 0
  41 0002 434C     		ldr	r4, .L3
  42 0004 0026     		movs	r6, #0
  43 0006 6670     		strb	r6, [r4, #1]
  39:Profile.c     ****     off->motor_heartbeat_shift_up = 0;
  44              		.loc 1 39 0
  45 0008 2670     		strb	r6, [r4]
  40:Profile.c     ****     off->warn_heartbeat_val = 0;
  46              		.loc 1 40 0
  47 000a A670     		strb	r6, [r4, #2]
  41:Profile.c     ****     off->pwm_base = 0;
  48              		.loc 1 41 0
  49 000c A680     		strh	r6, [r4, #4]	@ movhi
  42:Profile.c     ****     strcpy(off->name,"Off");
  50              		.loc 1 42 0
  51 000e 414B     		ldr	r3, .L3+4
  52 0010 1868     		ldr	r0, [r3]	@ unaligned
  53 0012 C4F80600 		str	r0, [r4, #6]	@ unaligned
  43:Profile.c     ****     strcpy(off->detail,"motor is off");
  54              		.loc 1 43 0
  55 0016 404B     		ldr	r3, .L3+8
  56 0018 07CB     		ldmia	r3!, {r0, r1, r2}
  57 001a C4F81100 		str	r0, [r4, #17]	@ unaligned
  58 001e C4F81510 		str	r1, [r4, #21]	@ unaligned
  59 0022 C4F81920 		str	r2, [r4, #25]	@ unaligned
  60 0026 1B78     		ldrb	r3, [r3]	@ zero_extendqisi2
  61 0028 6377     		strb	r3, [r4, #29]
  62              	.LVL1:
  44:Profile.c     ****     
  45:Profile.c     ****     //generate casual object
  46:Profile.c     ****     Profile_t* casual = &profiles[PROFILE_CASUAL];
  47:Profile.c     ****     casual->motor_heartbeat_shift_down = 5;
  63              		.loc 1 47 0
  64 002a 0523     		movs	r3, #5
  65 002c 84F82330 		strb	r3, [r4, #35]
  48:Profile.c     ****     casual->motor_heartbeat_shift_up = -20;
  66              		.loc 1 48 0
ARM GAS  C:\Users\HENRIC~1\AppData\Local\Temp\ccpYPRLI.s 			page 3


  67 0030 EC23     		movs	r3, #236
  68 0032 84F82230 		strb	r3, [r4, #34]
  49:Profile.c     ****     casual->warn_heartbeat_val = 25;
  69              		.loc 1 49 0
  70 0036 4FF0190E 		mov	lr, #25
  71 003a 84F824E0 		strb	lr, [r4, #36]
  50:Profile.c     ****     casual->pwm_base = CASUAL_MOTOR_RATE;
  72              		.loc 1 50 0
  73 003e 0127     		movs	r7, #1
  74 0040 E784     		strh	r7, [r4, #38]	@ movhi
  51:Profile.c     ****     strcpy(casual->name,"Casual");
  75              		.loc 1 51 0
  76 0042 364B     		ldr	r3, .L3+12
  77 0044 93E80300 		ldmia	r3, {r0, r1}
  78 0048 A062     		str	r0, [r4, #40]
  79 004a A185     		strh	r1, [r4, #44]	@ movhi
  80 004c 090C     		lsrs	r1, r1, #16
  81 004e 84F82E10 		strb	r1, [r4, #46]
  52:Profile.c     ****     strcpy(casual->detail,"leisurely stroll");
  82              		.loc 1 52 0
  83 0052 334D     		ldr	r5, .L3+16
  84 0054 0FCD     		ldmia	r5!, {r0, r1, r2, r3}
  85 0056 C4F83300 		str	r0, [r4, #51]	@ unaligned
  86 005a C4F83710 		str	r1, [r4, #55]	@ unaligned
  87 005e C4F83B20 		str	r2, [r4, #59]	@ unaligned
  88 0062 C4F83F30 		str	r3, [r4, #63]	@ unaligned
  89 0066 2B78     		ldrb	r3, [r5]	@ zero_extendqisi2
  90 0068 84F84330 		strb	r3, [r4, #67]
  91              	.LVL2:
  53:Profile.c     ****     
  54:Profile.c     ****     //generate moderate object
  55:Profile.c     ****     Profile_t* moderate = &profiles[PROFILE_MODERATE];
  56:Profile.c     ****     moderate->motor_heartbeat_shift_down = 10;
  92              		.loc 1 56 0
  93 006c 4FF00A0C 		mov	ip, #10
  94 0070 84F845C0 		strb	ip, [r4, #69]
  57:Profile.c     ****     moderate->motor_heartbeat_shift_up = -10;
  95              		.loc 1 57 0
  96 0074 F623     		movs	r3, #246
  97 0076 84F84430 		strb	r3, [r4, #68]
  58:Profile.c     ****     moderate->warn_heartbeat_val = 25;
  98              		.loc 1 58 0
  99 007a 84F846E0 		strb	lr, [r4, #70]
  59:Profile.c     ****     moderate->pwm_base = MODERATE_MOTOR_RATE;
 100              		.loc 1 59 0
 101 007e A4F84870 		strh	r7, [r4, #72]	@ movhi
  60:Profile.c     ****     strcpy(moderate->name,"Moderate");
 102              		.loc 1 60 0
 103 0082 284B     		ldr	r3, .L3+20
 104 0084 03CB     		ldmia	r3!, {r0, r1}
 105 0086 C4F84A00 		str	r0, [r4, #74]	@ unaligned
 106 008a C4F84E10 		str	r1, [r4, #78]	@ unaligned
 107 008e 1B78     		ldrb	r3, [r3]	@ zero_extendqisi2
 108 0090 84F85230 		strb	r3, [r4, #82]
  61:Profile.c     ****     strcpy(moderate->detail,"fit and toned");
 109              		.loc 1 61 0
 110 0094 244B     		ldr	r3, .L3+24
ARM GAS  C:\Users\HENRIC~1\AppData\Local\Temp\ccpYPRLI.s 			page 4


 111 0096 07CB     		ldmia	r3!, {r0, r1, r2}
 112 0098 C4F85500 		str	r0, [r4, #85]	@ unaligned
 113 009c C4F85910 		str	r1, [r4, #89]	@ unaligned
 114 00a0 C4F85D20 		str	r2, [r4, #93]	@ unaligned
 115 00a4 1B88     		ldrh	r3, [r3]	@ unaligned
 116 00a6 A4F86130 		strh	r3, [r4, #97]	@ unaligned
 117              	.LVL3:
  62:Profile.c     ****     
  63:Profile.c     ****     //generate intense object
  64:Profile.c     ****     Profile_t* intense  = &profiles[PROFILE_INTENSE];
  65:Profile.c     ****     intense->motor_heartbeat_shift_down = 10;
 118              		.loc 1 65 0
 119 00aa 84F867C0 		strb	ip, [r4, #103]
  66:Profile.c     ****     intense->motor_heartbeat_shift_up = -5;
 120              		.loc 1 66 0
 121 00ae FB23     		movs	r3, #251
 122 00b0 84F86630 		strb	r3, [r4, #102]
  67:Profile.c     ****     intense->warn_heartbeat_val = 25;
 123              		.loc 1 67 0
 124 00b4 84F868E0 		strb	lr, [r4, #104]
  68:Profile.c     ****     intense->pwm_base = INTENSE_MOTOR_RATE;
 125              		.loc 1 68 0
 126 00b8 A4F86A70 		strh	r7, [r4, #106]	@ movhi
  69:Profile.c     ****     strcpy(intense->name,"Intense");
 127              		.loc 1 69 0
 128 00bc 04F16C03 		add	r3, r4, #108
 129 00c0 1A4A     		ldr	r2, .L3+28
 130 00c2 92E80300 		ldmia	r2, {r0, r1}
 131 00c6 83E80300 		stmia	r3, {r0, r1}
  70:Profile.c     ****     strcpy(intense->detail,"feel the burn");
 132              		.loc 1 70 0
 133 00ca 194B     		ldr	r3, .L3+32
 134 00cc 07CB     		ldmia	r3!, {r0, r1, r2}
 135 00ce C4F87700 		str	r0, [r4, #119]	@ unaligned
 136 00d2 C4F87B10 		str	r1, [r4, #123]	@ unaligned
 137 00d6 C4F87F20 		str	r2, [r4, #127]	@ unaligned
 138 00da 1B88     		ldrh	r3, [r3]	@ unaligned
 139 00dc A4F88330 		strh	r3, [r4, #131]	@ unaligned
 140              	.LVL4:
  71:Profile.c     ****     
  72:Profile.c     ****     //generate extreme object
  73:Profile.c     ****     Profile_t* extreme = &profiles[PROFILE_EXTREME];
  74:Profile.c     ****     extreme->motor_heartbeat_shift_down = 20;
 141              		.loc 1 74 0
 142 00e0 1423     		movs	r3, #20
 143 00e2 84F88930 		strb	r3, [r4, #137]
  75:Profile.c     ****     extreme->motor_heartbeat_shift_up = 0;
 144              		.loc 1 75 0
 145 00e6 84F88860 		strb	r6, [r4, #136]
  76:Profile.c     ****     extreme->warn_heartbeat_val = 25;
 146              		.loc 1 76 0
 147 00ea 84F88AE0 		strb	lr, [r4, #138]
  77:Profile.c     ****     extreme->pwm_base = EXTREME_MOTOR_RATE;
 148              		.loc 1 77 0
 149 00ee A4F88C70 		strh	r7, [r4, #140]	@ movhi
  78:Profile.c     ****     strcpy(extreme->name,"Extreme");
 150              		.loc 1 78 0
ARM GAS  C:\Users\HENRIC~1\AppData\Local\Temp\ccpYPRLI.s 			page 5


 151 00f2 104B     		ldr	r3, .L3+36
 152 00f4 03CB     		ldmia	r3!, {r0, r1}
 153 00f6 C4F88E00 		str	r0, [r4, #142]	@ unaligned
 154 00fa C4F89210 		str	r1, [r4, #146]	@ unaligned
  79:Profile.c     ****     strcpy(extreme->detail,"why?");
 155              		.loc 1 79 0
 156 00fe 0E4B     		ldr	r3, .L3+40
 157 0100 1868     		ldr	r0, [r3]	@ unaligned
 158 0102 C4F89900 		str	r0, [r4, #153]	@ unaligned
 159 0106 1B79     		ldrb	r3, [r3, #4]	@ zero_extendqisi2
 160 0108 84F89D30 		strb	r3, [r4, #157]
 161 010c F0BD     		pop	{r4, r5, r6, r7, pc}
 162              	.L4:
 163 010e 00BF     		.align	2
 164              	.L3:
 165 0110 00000000 		.word	.LANCHOR0
 166 0114 00000000 		.word	.LC0
 167 0118 04000000 		.word	.LC1
 168 011c 14000000 		.word	.LC2
 169 0120 1C000000 		.word	.LC3
 170 0124 30000000 		.word	.LC4
 171 0128 3C000000 		.word	.LC5
 172 012c 4C000000 		.word	.LC6
 173 0130 54000000 		.word	.LC7
 174 0134 64000000 		.word	.LC8
 175 0138 6C000000 		.word	.LC9
 176              		.cfi_endproc
 177              	.LFE63:
 178              		.size	profile_init, .-profile_init
 179              		.section	.text.profile_get,"ax",%progbits
 180              		.align	2
 181              		.global	profile_get
 182              		.thumb
 183              		.thumb_func
 184              		.type	profile_get, %function
 185              	profile_get:
 186              	.LFB64:
  80:Profile.c     **** }
  81:Profile.c     **** 
  82:Profile.c     **** /**
  83:Profile.c     ****  * Profile singleton selection function
  84:Profile.c     ****  * @param profile enumeration of singletons
  85:Profile.c     ****  * @return pointer to profile singleton given selection parameter. NULL if
  86:Profile.c     ****  *         invalid.
  87:Profile.c     ****  */
  88:Profile.c     **** const Profile_t* profile_get(Profile_e profile){
 187              		.loc 1 88 0
 188              		.cfi_startproc
 189              		@ args = 0, pretend = 0, frame = 0
 190              		@ frame_needed = 0, uses_anonymous_args = 0
 191              		@ link register save eliminated.
 192              	.LVL5:
  89:Profile.c     ****     const Profile_t* retVal = NULL;
  90:Profile.c     ****     if(profile < _END_OF_PROFILE_LIST){
 193              		.loc 1 90 0
 194 0000 0428     		cmp	r0, #4
 195 0002 05D8     		bhi	.L7
ARM GAS  C:\Users\HENRIC~1\AppData\Local\Temp\ccpYPRLI.s 			page 6


  91:Profile.c     ****         retVal = &profiles[profile];
 196              		.loc 1 91 0
 197 0004 00EB0010 		add	r0, r0, r0, lsl #4
 198              	.LVL6:
 199 0008 4300     		lsls	r3, r0, #1
 200 000a 0248     		ldr	r0, .L8
 201 000c 1844     		add	r0, r0, r3
 202              	.LVL7:
 203 000e 7047     		bx	lr
 204              	.LVL8:
 205              	.L7:
  89:Profile.c     ****     const Profile_t* retVal = NULL;
 206              		.loc 1 89 0
 207 0010 0020     		movs	r0, #0
 208              	.LVL9:
  92:Profile.c     ****     }
  93:Profile.c     ****     return retVal;
  94:Profile.c     **** }
 209              		.loc 1 94 0
 210 0012 7047     		bx	lr
 211              	.L9:
 212              		.align	2
 213              	.L8:
 214 0014 00000000 		.word	.LANCHOR0
 215              		.cfi_endproc
 216              	.LFE64:
 217              		.size	profile_get, .-profile_get
 218              		.section	.text.profile_menu_option,"ax",%progbits
 219              		.align	2
 220              		.global	profile_menu_option
 221              		.thumb
 222              		.thumb_func
 223              		.type	profile_menu_option, %function
 224              	profile_menu_option:
 225              	.LFB65:
  95:Profile.c     **** 
  96:Profile.c     **** /**
  97:Profile.c     ****  * Profile menu display function
  98:Profile.c     ****  * @param profile to display on LCD display
  99:Profile.c     ****  */
 100:Profile.c     **** void profile_menu_option(const Profile_t* profile){
 226              		.loc 1 100 0
 227              		.cfi_startproc
 228              		@ args = 0, pretend = 0, frame = 0
 229              		@ frame_needed = 0, uses_anonymous_args = 0
 230              	.LVL10:
 101:Profile.c     ****     if(profile != NULL){
 231              		.loc 1 101 0
 232 0000 30B1     		cbz	r0, .L13
 100:Profile.c     ****     if(profile != NULL){
 233              		.loc 1 100 0
 234 0002 08B5     		push	{r3, lr}
 235              		.cfi_def_cfa_offset 8
 236              		.cfi_offset 3, -8
 237              		.cfi_offset 14, -4
 102:Profile.c     ****         display_profile(profile->name,profile->detail);
 238              		.loc 1 102 0
ARM GAS  C:\Users\HENRIC~1\AppData\Local\Temp\ccpYPRLI.s 			page 7


 239 0004 00F11101 		add	r1, r0, #17
 240 0008 0630     		adds	r0, r0, #6
 241              	.LVL11:
 242 000a FFF7FEFF 		bl	display_profile
 243              	.LVL12:
 244 000e 08BD     		pop	{r3, pc}
 245              	.LVL13:
 246              	.L13:
 247              		.cfi_def_cfa_offset 0
 248              		.cfi_restore 3
 249              		.cfi_restore 14
 250 0010 7047     		bx	lr
 251              		.cfi_endproc
 252              	.LFE65:
 253              		.size	profile_menu_option, .-profile_menu_option
 254 0012 00BF     		.section	.text.profile_run,"ax",%progbits
 255              		.align	2
 256              		.global	profile_run
 257              		.thumb
 258              		.thumb_func
 259              		.type	profile_run, %function
 260              	profile_run:
 261              	.LFB66:
 103:Profile.c     ****     }
 104:Profile.c     **** }
 105:Profile.c     **** 
 106:Profile.c     **** /**
 107:Profile.c     ****  * Profile run function monitors heartbeat to generate PWM value.
 108:Profile.c     ****  * @param profile is object to use for pwm baseline and heartbeat compensation
 109:Profile.c     ****  * @param hb_curr is the current heartbeat frequency
 110:Profile.c     ****  * @param hb_start is the original heartbeat at start of profile operation
 111:Profile.c     ****  * @return pwm output scaled as a 16-bit value for increased resolution
 112:Profile.c     ****  */
 113:Profile.c     **** uint16_t profile_run(const Profile_t* profile, uint32_t hb_curr, uint32_t hb_start){
 262              		.loc 1 113 0
 263              		.cfi_startproc
 264              		@ args = 0, pretend = 0, frame = 0
 265              		@ frame_needed = 0, uses_anonymous_args = 0
 266              		@ link register save eliminated.
 267              	.LVL14:
 114:Profile.c     ****     uint16_t retVal = 0;
 115:Profile.c     ****     if(profile != NULL){
 116:Profile.c     ****         //TODO run pwm control
 117:Profile.c     ****         
 118:Profile.c     ****     }
 119:Profile.c     ****     return retVal;
 120:Profile.c     **** }...
 268              		.loc 1 120 0
 269 0000 0020     		movs	r0, #0
 270              	.LVL15:
 271 0002 7047     		bx	lr
 272              		.cfi_endproc
 273              	.LFE66:
 274              		.size	profile_run, .-profile_run
 275              		.section	.rodata.str1.4,"aMS",%progbits,1
 276              		.align	2
 277              	.LC0:
ARM GAS  C:\Users\HENRIC~1\AppData\Local\Temp\ccpYPRLI.s 			page 8


 278 0000 4F666600 		.ascii	"Off\000"
 279              	.LC1:
 280 0004 6D6F746F 		.ascii	"motor is off\000"
 280      72206973 
 280      206F6666 
 280      00
 281 0011 000000   		.space	3
 282              	.LC2:
 283 0014 43617375 		.ascii	"Casual\000"
 283      616C00
 284 001b 00       		.space	1
 285              	.LC3:
 286 001c 6C656973 		.ascii	"leisurely stroll\000"
 286      7572656C 
 286      79207374 
 286      726F6C6C 
 286      00
 287 002d 000000   		.space	3
 288              	.LC4:
 289 0030 4D6F6465 		.ascii	"Moderate\000"
 289      72617465 
 289      00
 290 0039 000000   		.space	3
 291              	.LC5:
 292 003c 66697420 		.ascii	"fit and toned\000"
 292      616E6420 
 292      746F6E65 
 292      6400
 293 004a 0000     		.space	2
 294              	.LC6:
 295 004c 496E7465 		.ascii	"Intense\000"
 295      6E736500 
 296              	.LC7:
 297 0054 6665656C 		.ascii	"feel the burn\000"
 297      20746865 
 297      20627572 
 297      6E00
 298 0062 0000     		.space	2
 299              	.LC8:
 300 0064 45787472 		.ascii	"Extreme\000"
 300      656D6500 
 301              	.LC9:
 302 006c 7768793F 		.ascii	"why?\000"
 302      00
 303              		.bss
 304              		.align	2
 305              		.set	.LANCHOR0,. + 0
 306              		.type	profiles, %object
 307              		.size	profiles, 170
 308              	profiles:
 309 0000 00000000 		.space	170
 309      00000000 
 309      00000000 
 309      00000000 
 309      00000000 
 310              		.text
 311              	.Letext0:
ARM GAS  C:\Users\HENRIC~1\AppData\Local\Temp\ccpYPRLI.s 			page 9


 312              		.file 2 "c:\\program files (x86)\\cypress\\psoc creator\\4.1\\psoc creator\\import\\gnu\\arm\\5.4.
 313              		.file 3 "c:\\program files (x86)\\cypress\\psoc creator\\4.1\\psoc creator\\import\\gnu\\arm\\5.4.
 314              		.file 4 "Profile.h"
 315              		.file 5 "Generated_Source\\PSoC5/core_cm3.h"
 316              		.file 6 "Display.h"