ARM GAS  C:\Users\HENRIC~1\AppData\Local\Temp\ccRPnI9G.s 			page 1


   1              		.syntax unified
   2              		.cpu cortex-m3
   3              		.fpu softvfp
   4              		.eabi_attribute 20, 1
   5              		.eabi_attribute 21, 1
   6              		.eabi_attribute 23, 3
   7              		.eabi_attribute 24, 1
   8              		.eabi_attribute 25, 1
   9              		.eabi_attribute 26, 1
  10              		.eabi_attribute 30, 1
  11              		.eabi_attribute 34, 1
  12              		.eabi_attribute 18, 4
  13              		.thumb
  14              		.syntax unified
  15              		.file	"Tests.c"
  16              		.text
  17              	.Ltext0:
  18              		.cfi_sections	.debug_frame
  19              		.section	.text.crc_algorithm,"ax",%progbits
  20              		.align	2
  21              		.thumb
  22              		.thumb_func
  23              		.type	crc_algorithm, %function
  24              	crc_algorithm:
  25              	.LFB77:
  26              		.file 1 "Tests.c"
   1:Tests.c       **** /**
   2:Tests.c       ****  * Tests
   3:Tests.c       ****  * @author Curt Henrichs
   4:Tests.c       ****  * @date 1-11-18
   5:Tests.c       ****  *
   6:Tests.c       ****  * Tests module encapsulates the test cases applied to the term project. 
   7:Tests.c       ****  * Each test case is build with reference to a written test plan corresponding
   8:Tests.c       ****  * to the enumerated week.
   9:Tests.c       ****  *
  10:Tests.c       ****  * Before building the application one should verify the TEST_CASE 
  11:Tests.c       ****  * configuration parameter is valid. Additionally, ensure all necessary 
  12:Tests.c       ****  * hardware and system drivers are initialized outside of this module.
  13:Tests.c       ****  */
  14:Tests.c       **** 
  15:Tests.c       **** //=============================================================================
  16:Tests.c       **** //                                 Libraries
  17:Tests.c       **** //=============================================================================
  18:Tests.c       **** 
  19:Tests.c       **** #include "Tests.h"
  20:Tests.c       **** 
  21:Tests.c       **** #include "project.h"
  22:Tests.c       **** #include <stdbool.h>
  23:Tests.c       **** #include <string.h>
  24:Tests.c       **** #include <stdio.h>
  25:Tests.c       **** 
  26:Tests.c       **** #include "UserAddressAllocation.h"
  27:Tests.c       **** #include "DataLinkLayer.h"
  28:Tests.c       **** 
  29:Tests.c       **** #include "CSMA_CD_Bus.h"
  30:Tests.c       **** #include "ChannelMonitor.h"
  31:Tests.c       **** #include "Transmitter.h"
ARM GAS  C:\Users\HENRIC~1\AppData\Local\Temp\ccRPnI9G.s 			page 2


  32:Tests.c       **** #include "Receiver.h"
  33:Tests.c       **** #include "Uart.h"
  34:Tests.c       **** 
  35:Tests.c       **** //=============================================================================
  36:Tests.c       **** //                       Constant and Macro Definitions : Week 5
  37:Tests.c       **** //=============================================================================
  38:Tests.c       **** 
  39:Tests.c       **** /** 
  40:Tests.c       ****  * States for test menu application state-machine.
  41:Tests.c       ****  */
  42:Tests.c       **** typedef enum Menu_States {
  43:Tests.c       ****     MENU_START,     //! Initalization state for state machine
  44:Tests.c       ****     MENU_DISPLAY,   //! User driven menu
  45:Tests.c       ****     MENU_UART,      //! Transmit characters from UART
  46:Tests.c       ****     MENU_NUL,       //! Transmit 0x00
  47:Tests.c       ****     MENU_REPEAT_1,  //! Transmit 0xAA
  48:Tests.c       ****     MENU_REPEAT_2,  //! Transmit 0x55
  49:Tests.c       ****     MENU_ONES       //! Transmit 0xFF
  50:Tests.c       **** } Menu_States_e;
  51:Tests.c       **** 
  52:Tests.c       **** #define NUM_SELECTABLE_OPTIONS (5) //! Menu selectable states
  53:Tests.c       **** 
  54:Tests.c       **** #define CAPSENSE_SETTLE_TIME  100 //! Time to delay during initialization (ms)
  55:Tests.c       **** 
  56:Tests.c       **** //=============================================================================
  57:Tests.c       **** //                        Private Function Prototypes : Week 5
  58:Tests.c       **** //=============================================================================
  59:Tests.c       **** 
  60:Tests.c       **** /** 
  61:Tests.c       ****  * Display test case menu
  62:Tests.c       ****  * @param on_enter first entry of state-machine for one-time logic
  63:Tests.c       ****  * @return next state as selected by user else this state if no selection
  64:Tests.c       ****  */
  65:Tests.c       **** static Menu_States_e display(bool on_enter);
  66:Tests.c       **** /** 
  67:Tests.c       ****  * UART test case - transmit buffered message from USBUART.
  68:Tests.c       ****  * @param on_enter first entry of state-machine for one-time logic
  69:Tests.c       ****  * @return this state until user presses return button
  70:Tests.c       ****  */
  71:Tests.c       **** static Menu_States_e uart_mode(bool on_enter);
  72:Tests.c       **** /** 
  73:Tests.c       ****  * 0x00 test case - transmit string of 0x00 characters
  74:Tests.c       ****  * @param on_enter first entry of state-machine for one-time logic
  75:Tests.c       ****  * @return this state until user presses return button
  76:Tests.c       ****  */
  77:Tests.c       **** static Menu_States_e nul_string_mode(bool on_enter);
  78:Tests.c       **** /** 
  79:Tests.c       ****  * 0xAA test case - transmit string of 0xAA characters
  80:Tests.c       ****  * @param on_enter first entry of state-machine for one-time logic
  81:Tests.c       ****  * @return this state until user presses return button
  82:Tests.c       ****  */
  83:Tests.c       **** static Menu_States_e repeat_string_1_mode(bool on_enter);
  84:Tests.c       **** /** 
  85:Tests.c       ****  * 0x55 test case - transmit string of 0x55 characters
  86:Tests.c       ****  * @param on_enter first entry of state-machine for one-time logic
  87:Tests.c       ****  * @return this state until user presses return button
  88:Tests.c       ****  */
ARM GAS  C:\Users\HENRIC~1\AppData\Local\Temp\ccRPnI9G.s 			page 3


  89:Tests.c       **** static Menu_States_e repeat_string_2_mode(bool on_enter);
  90:Tests.c       **** /** 
  91:Tests.c       ****  * 0xFF test case - transmit string of 0xFF characters
  92:Tests.c       ****  * @param on_enter first entry of state-machine for one-time logic
  93:Tests.c       ****  * @return this state until user presses return button
  94:Tests.c       ****  */
  95:Tests.c       **** static Menu_States_e ones_mode(bool on_enter);
  96:Tests.c       **** 
  97:Tests.c       **** //=============================================================================
  98:Tests.c       **** //                          Private Attribute : Week 5
  99:Tests.c       **** //=============================================================================
 100:Tests.c       **** 
 101:Tests.c       **** /** 
 102:Tests.c       ****  * Menu states selected
 103:Tests.c       ****  */
 104:Tests.c       **** static Menu_States_e MENU_OPTIONS_LIST[NUM_SELECTABLE_OPTIONS];
 105:Tests.c       **** /** 
 106:Tests.c       ****  * Menu string naming the options
 107:Tests.c       ****  */
 108:Tests.c       **** static const char* MENU_OPTIONS_TAGS[NUM_SELECTABLE_OPTIONS];
 109:Tests.c       **** 
 110:Tests.c       **** //=============================================================================
 111:Tests.c       **** //                   Private Function Implementation : Week 10
 112:Tests.c       **** //=============================================================================
 113:Tests.c       **** 
 114:Tests.c       **** /**
 115:Tests.c       ****  * CRC calulation algorithm used in both the transmitter and receiver
 116:Tests.c       ****  * @param buffer is pointer to message to calculate over
 117:Tests.c       ****  * @param len is number of bytes in message to calculate over
 118:Tests.c       ****  * @return 4-bit CRC value
 119:Tests.c       ****  */
 120:Tests.c       **** static uint8_t crc_algorithm(uint8_t* buffer, uint8_t len);
 121:Tests.c       **** 
 122:Tests.c       **** //=============================================================================
 123:Tests.c       **** //                         Public Function Implementation
 124:Tests.c       **** //=============================================================================
 125:Tests.c       **** 
 126:Tests.c       **** /**
 127:Tests.c       ****  * Testing module main function will run selected test week
 128:Tests.c       ****  * @return --ignore
 129:Tests.c       ****  */
 130:Tests.c       **** int tests_main(void){
 131:Tests.c       ****     
 132:Tests.c       ****     //initialization routine
 133:Tests.c       ****     CyGlobalIntEnable; 
 134:Tests.c       ****     uart_init();
 135:Tests.c       ****     LCD_Start();
 136:Tests.c       ****     LCD_ClearDisplay();
 137:Tests.c       ****     CapSense_Start();
 138:Tests.c       ****     CyDelay(CAPSENSE_SETTLE_TIME);
 139:Tests.c       ****     CapSense_InitializeAllBaselines();
 140:Tests.c       ****     
 141:Tests.c       ****     switch(CURRENT_TEST){
 142:Tests.c       ****         case TEST_CASE_WEEK_3:
 143:Tests.c       ****             tests_week3();
 144:Tests.c       ****             break;
 145:Tests.c       ****         case TEST_CASE_WEEK_5:
ARM GAS  C:\Users\HENRIC~1\AppData\Local\Temp\ccRPnI9G.s 			page 4


 146:Tests.c       ****             tests_week5();
 147:Tests.c       ****             break;
 148:Tests.c       ****         case TEST_CASE_WEEK_6:
 149:Tests.c       ****             tests_week6();
 150:Tests.c       ****             break;
 151:Tests.c       ****         case TEST_CASE_WEEK_8:
 152:Tests.c       ****             tests_week8();
 153:Tests.c       ****             break;
 154:Tests.c       ****         case TEST_CASE_WEEK_9:
 155:Tests.c       ****             tests_week9();
 156:Tests.c       ****             break;
 157:Tests.c       ****         case TEST_CASE_WEEK_10:
 158:Tests.c       ****             tests_week10();
 159:Tests.c       ****             break;
 160:Tests.c       ****     }
 161:Tests.c       ****     
 162:Tests.c       ****     while(1){/* flow capture loop */}
 163:Tests.c       ****     
 164:Tests.c       ****     return 0; /* ignore */
 165:Tests.c       **** }
 166:Tests.c       **** 
 167:Tests.c       **** /** 
 168:Tests.c       ****  * Test for week 3 is to determine functionality of the channel monitor
 169:Tests.c       ****  */
 170:Tests.c       **** void tests_week3(void){
 171:Tests.c       ****     csma_bus_init();
 172:Tests.c       ****     cm_init();
 173:Tests.c       ****     tx_init();
 174:Tests.c       ****     rx_init();
 175:Tests.c       ****     
 176:Tests.c       ****     CM_State_e ch_state = cm_get_bus_state();
 177:Tests.c       ****     const char* str = NULL;
 178:Tests.c       ****     uint8_t state_trig = 0;
 179:Tests.c       ****     
 180:Tests.c       ****     while(true){
 181:Tests.c       ****         
 182:Tests.c       ****         ch_state = cm_get_bus_state();
 183:Tests.c       ****         switch(ch_state){
 184:Tests.c       ****             case CM_STATE_INIT:
 185:Tests.c       ****                 str = "INIT";
 186:Tests.c       ****                 break;
 187:Tests.c       ****             case CM_STATE_IDLE:
 188:Tests.c       ****                 str = "IDLE";
 189:Tests.c       ****                 break;
 190:Tests.c       ****             case CM_STATE_BUSY:
 191:Tests.c       ****                 str = "BUSY";
 192:Tests.c       ****                 break;
 193:Tests.c       ****             case CM_STATE_COLLISION:
 194:Tests.c       ****                 str = "COLLISION";
 195:Tests.c       ****                 break;
 196:Tests.c       ****             default:
 197:Tests.c       ****                 str = "";
 198:Tests.c       ****                 break;
 199:Tests.c       ****         }
 200:Tests.c       ****         
 201:Tests.c       ****         LCD_ClearDisplay();
 202:Tests.c       ****         LCD_Position(0,0);
ARM GAS  C:\Users\HENRIC~1\AppData\Local\Temp\ccRPnI9G.s 			page 5


 203:Tests.c       ****         LCD_PrintString(str);
 204:Tests.c       ****         LCD_Position(1,0);
 205:Tests.c       ****         LCD_PrintHexUint8(state_trig);
 206:Tests.c       ****         state_trig |= CM_Test_State_Reg_Read();
 207:Tests.c       ****         CyDelay(10);
 208:Tests.c       ****     }
 209:Tests.c       **** }
 210:Tests.c       **** 
 211:Tests.c       **** /**
 212:Tests.c       ****  * Test for week 5 is a state-machine with user driven menu to select between
 213:Tests.c       ****  * several test cases for transmitter functionality tests.
 214:Tests.c       ****  */
 215:Tests.c       **** void tests_week5(void){
 216:Tests.c       ****     csma_bus_init();
 217:Tests.c       ****     cm_init();
 218:Tests.c       ****     tx_init();
 219:Tests.c       ****     rx_init();
 220:Tests.c       ****     
 221:Tests.c       ****     MENU_OPTIONS_LIST[0] = MENU_UART;
 222:Tests.c       ****     MENU_OPTIONS_LIST[1] = MENU_NUL;
 223:Tests.c       ****     MENU_OPTIONS_LIST[2] = MENU_REPEAT_1;
 224:Tests.c       ****     MENU_OPTIONS_LIST[3] = MENU_REPEAT_2;
 225:Tests.c       ****     MENU_OPTIONS_LIST[4] = MENU_ONES;
 226:Tests.c       ****     
 227:Tests.c       ****     MENU_OPTIONS_TAGS[0] = "UART";
 228:Tests.c       ****     MENU_OPTIONS_TAGS[1] = "REPEAT 0x00";
 229:Tests.c       ****     MENU_OPTIONS_TAGS[2] = "REPEAT 0xAA";
 230:Tests.c       ****     MENU_OPTIONS_TAGS[3] = "REPEAT 0x55";
 231:Tests.c       ****     MENU_OPTIONS_TAGS[4] = "REPEAT 0xFF";
 232:Tests.c       ****     
 233:Tests.c       ****     // Test State-Machine for menu driven control
 234:Tests.c       ****     Menu_States_e curr_state = MENU_DISPLAY;
 235:Tests.c       ****     Menu_States_e next_state = MENU_START;
 236:Tests.c       ****     bool on_enter = true;
 237:Tests.c       ****     while(true){
 238:Tests.c       ****         
 239:Tests.c       ****         //update capacitive touch user input
 240:Tests.c       ****         if(!CapSense_IsBusy()){
 241:Tests.c       ****             CapSense_UpdateEnabledBaselines();
 242:Tests.c       ****             CapSense_ScanEnabledWidgets();
 243:Tests.c       ****         }
 244:Tests.c       ****         
 245:Tests.c       ****         switch(curr_state){
 246:Tests.c       ****             case MENU_DISPLAY:
 247:Tests.c       ****                 next_state = display(on_enter);
 248:Tests.c       ****                 break;
 249:Tests.c       ****             case MENU_UART:
 250:Tests.c       ****                 next_state = uart_mode(on_enter);
 251:Tests.c       ****                 break;
 252:Tests.c       ****             case MENU_NUL:
 253:Tests.c       ****                 next_state = nul_string_mode(on_enter);
 254:Tests.c       ****                 break;
 255:Tests.c       ****             case MENU_REPEAT_1:
 256:Tests.c       ****                 next_state = repeat_string_1_mode(on_enter);
 257:Tests.c       ****                 break;
 258:Tests.c       ****             case MENU_REPEAT_2:
 259:Tests.c       ****                 next_state = repeat_string_2_mode(on_enter);
ARM GAS  C:\Users\HENRIC~1\AppData\Local\Temp\ccRPnI9G.s 			page 6


 260:Tests.c       ****                 break;
 261:Tests.c       ****             case MENU_ONES:
 262:Tests.c       ****                 next_state = ones_mode(on_enter);
 263:Tests.c       ****                 break;
 264:Tests.c       ****             default:
 265:Tests.c       ****                 next_state = MENU_DISPLAY;
 266:Tests.c       ****                 break;
 267:Tests.c       ****         }
 268:Tests.c       ****         
 269:Tests.c       ****         on_enter = (next_state != curr_state);
 270:Tests.c       ****         curr_state = next_state;
 271:Tests.c       ****     }
 272:Tests.c       **** }
 273:Tests.c       **** 
 274:Tests.c       **** /** 
 275:Tests.c       ****  * Test week 6 will verify correct behavior for interaction between channel
 276:Tests.c       ****  * monitor and transmission module.
 277:Tests.c       ****  */
 278:Tests.c       **** void tests_week6(void){
 279:Tests.c       ****     csma_bus_init();
 280:Tests.c       ****     cm_init();
 281:Tests.c       ****     tx_init();
 282:Tests.c       ****     rx_init();
 283:Tests.c       ****     
 284:Tests.c       ****     static char buffer[USBUART_BUFFER_SIZE];
 285:Tests.c       ****     static char disp[16];
 286:Tests.c       ****     static char txStr[33];
 287:Tests.c       ****     static uint8_t txStr_index;
 288:Tests.c       ****     
 289:Tests.c       ****     memset(txStr,0,sizeof(txStr));
 290:Tests.c       ****     txStr_index = 0;
 291:Tests.c       ****     
 292:Tests.c       ****     LCD_ClearDisplay();
 293:Tests.c       ****     LCD_Position(0,0);
 294:Tests.c       ****     LCD_PrintString("UART:");
 295:Tests.c       **** 
 296:Tests.c       ****     while(true){
 297:Tests.c       ****         uart_update();
 298:Tests.c       ****         
 299:Tests.c       ****         if(uart_has_data()){
 300:Tests.c       ****             memset(buffer,'\0',sizeof(buffer));
 301:Tests.c       ****             uint16_t numChar = uart_read(buffer,sizeof(buffer));
 302:Tests.c       ****             uart_write(buffer,strlen(buffer));
 303:Tests.c       ****             
 304:Tests.c       ****             LCD_ClearDisplay();
 305:Tests.c       ****             LCD_Position(0,0);
 306:Tests.c       ****             LCD_PrintString("UART:");
 307:Tests.c       ****             LCD_Position(1,0);
 308:Tests.c       ****             memcpy(disp,buffer,15);
 309:Tests.c       ****             disp[15] = 0;
 310:Tests.c       ****             LCD_PrintString(disp);
 311:Tests.c       ****             
 312:Tests.c       ****             bool nl_found = false;
 313:Tests.c       ****             uint8_t index = 0;
 314:Tests.c       ****             char c;
 315:Tests.c       ****             while(!nl_found && txStr_index < (sizeof(txStr)-1) && index < numChar){
 316:Tests.c       ****                 c = buffer[index];
ARM GAS  C:\Users\HENRIC~1\AppData\Local\Temp\ccRPnI9G.s 			page 7


 317:Tests.c       ****                 index++;
 318:Tests.c       ****                 if(c == '\n' || c == '\r'){
 319:Tests.c       ****                     txStr[txStr_index] = '\0';
 320:Tests.c       ****                     nl_found = true;
 321:Tests.c       ****                 }else{
 322:Tests.c       ****                     txStr[txStr_index] = c;
 323:Tests.c       ****                 }
 324:Tests.c       ****                 txStr_index++;
 325:Tests.c       ****             }
 326:Tests.c       ****             
 327:Tests.c       ****             //buffer full, last character is nul
 328:Tests.c       ****             if(txStr_index >= (sizeof(txStr)-1)){
 329:Tests.c       ****                 txStr[32] = '\0';
 330:Tests.c       ****                 nl_found = true;
 331:Tests.c       ****             }
 332:Tests.c       ****             
 333:Tests.c       ****             //transmit if newline or full
 334:Tests.c       ****             if(nl_found){
 335:Tests.c       ****                 txStr_index = 0;
 336:Tests.c       ****                 LCD_Position(1,0);
 337:Tests.c       ****                 LCD_PrintString("Transmitting");
 338:Tests.c       ****                 tx_write(txStr,strlen(txStr));
 339:Tests.c       ****                 while(tx_get_status() != TX_DONE){/*Intentionally Empty*/}
 340:Tests.c       ****                 CyDelay(100);
 341:Tests.c       ****                 LCD_Position(1,0);
 342:Tests.c       ****                 LCD_PrintString("            ");
 343:Tests.c       ****             }
 344:Tests.c       ****         }
 345:Tests.c       ****     }
 346:Tests.c       **** }
 347:Tests.c       **** 
 348:Tests.c       **** /**
 349:Tests.c       ****  * Test week 8 will test the developed receiver module for valid interpretation
 350:Tests.c       ****  * of characters. Note that header information is not handled.
 351:Tests.c       ****  */
 352:Tests.c       **** void tests_week8(void){
 353:Tests.c       ****     csma_bus_init();
 354:Tests.c       ****     cm_init();
 355:Tests.c       ****     tx_init();
 356:Tests.c       ****     rx_init();
 357:Tests.c       ****     
 358:Tests.c       ****     static char txStr[33];
 359:Tests.c       ****     static uint8_t txStr_index;
 360:Tests.c       ****     memset(txStr,0,sizeof(txStr));
 361:Tests.c       ****     txStr_index = 0;
 362:Tests.c       ****     
 363:Tests.c       ****     char buffer[USBUART_BUFFER_SIZE];
 364:Tests.c       ****     char str[17];
 365:Tests.c       ****     
 366:Tests.c       ****     LCD_ClearDisplay();
 367:Tests.c       ****    
 368:Tests.c       ****     while(1){
 369:Tests.c       ****         uart_update();
 370:Tests.c       ****         
 371:Tests.c       ****         if(uart_has_data()){
 372:Tests.c       ****             memset(buffer,'\0',sizeof(buffer));
 373:Tests.c       ****             uint16_t numChar = uart_read(buffer,sizeof(buffer));
ARM GAS  C:\Users\HENRIC~1\AppData\Local\Temp\ccRPnI9G.s 			page 8


 374:Tests.c       ****             uart_write(buffer,strlen(buffer));
 375:Tests.c       ****             
 376:Tests.c       ****             bool nl_found = false;
 377:Tests.c       ****             uint8_t index = 0;
 378:Tests.c       ****             char c;
 379:Tests.c       ****             while(!nl_found && txStr_index < (sizeof(txStr)-1) && index < numChar){
 380:Tests.c       ****                 c = buffer[index];
 381:Tests.c       ****                 index++;
 382:Tests.c       ****                 if(c == '\n' || c == '\r'){
 383:Tests.c       ****                     txStr[txStr_index] = '\0';
 384:Tests.c       ****                     nl_found = true;
 385:Tests.c       ****                 }else{
 386:Tests.c       ****                     txStr[txStr_index] = c;
 387:Tests.c       ****                 }
 388:Tests.c       ****                 txStr_index++;
 389:Tests.c       ****             }
 390:Tests.c       ****             
 391:Tests.c       ****             //buffer full, last character is nul
 392:Tests.c       ****             if(txStr_index >= (sizeof(txStr)-1)){
 393:Tests.c       ****                 txStr[32] = '\0';
 394:Tests.c       ****                 nl_found = true;
 395:Tests.c       ****             }
 396:Tests.c       ****             
 397:Tests.c       ****             //transmit if newline or full
 398:Tests.c       ****             if(nl_found){
 399:Tests.c       ****                 txStr_index = 0;
 400:Tests.c       ****                 tx_write(txStr,strlen(txStr));
 401:Tests.c       ****                 while(tx_get_status() != TX_DONE){/*Intentionally Empty*/}
 402:Tests.c       ****             }
 403:Tests.c       ****         }
 404:Tests.c       ****         
 405:Tests.c       ****         if(rx_has_data()){
 406:Tests.c       ****             uint8_t count = rx_buffer(buffer,sizeof(buffer));
 407:Tests.c       ****             LCD_ClearDisplay();
 408:Tests.c       ****             LCD_Position(0,0);
 409:Tests.c       ****             sprintf(str,"Size: %d",count);
 410:Tests.c       ****             LCD_PrintString(str);
 411:Tests.c       ****             LCD_Position(1,0);
 412:Tests.c       ****             uint8_t cpy = (count < 16) ? count : 16;
 413:Tests.c       ****             memcpy(str,buffer,cpy);
 414:Tests.c       ****             str[cpy] = 0;
 415:Tests.c       ****             //sprintf(str,"ASCII: %d",(uint8_t)(buffer[0]));
 416:Tests.c       ****             LCD_PrintString(str);
 417:Tests.c       ****             uart_write(buffer,count);
 418:Tests.c       ****         }
 419:Tests.c       ****         
 420:Tests.c       ****         if(!CapSense_IsBusy()){
 421:Tests.c       ****             CapSense_UpdateEnabledBaselines();
 422:Tests.c       ****             CapSense_ScanEnabledWidgets();
 423:Tests.c       ****         }
 424:Tests.c       ****         
 425:Tests.c       ****         if(CapSense_CheckIsWidgetActive(CapSense_LEFT__BTN)){
 426:Tests.c       ****             LCD_ClearDisplay();   
 427:Tests.c       ****         }
 428:Tests.c       ****     }
 429:Tests.c       **** }
 430:Tests.c       **** 
ARM GAS  C:\Users\HENRIC~1\AppData\Local\Temp\ccRPnI9G.s 			page 9


 431:Tests.c       **** /**
 432:Tests.c       ****  * Test week 9 will prove basic interoperability and compliance to CSMA/CD 
 433:Tests.c       ****  * protocol using the expected data headers.
 434:Tests.c       ****  */
 435:Tests.c       **** void tests_week9(void){
 436:Tests.c       ****     user_init();
 437:Tests.c       ****     dll_init();
 438:Tests.c       ****     dll_set_user(CURT_HENRICHS);
 439:Tests.c       ****     
 440:Tests.c       ****     static char txStr[45];
 441:Tests.c       ****     static uint8_t txStr_index;
 442:Tests.c       ****     memset(txStr,0,sizeof(txStr));
 443:Tests.c       ****     txStr_index = 0;
 444:Tests.c       ****     
 445:Tests.c       ****     char buffer[USBUART_BUFFER_SIZE];
 446:Tests.c       ****     char str[50];
 447:Tests.c       ****     
 448:Tests.c       ****     LCD_ClearDisplay();
 449:Tests.c       ****     
 450:Tests.c       ****     uint8_t state = 0;
 451:Tests.c       ****     bool button_held_down = false;
 452:Tests.c       ****     
 453:Tests.c       ****     uint8_t tx_state = 0;
 454:Tests.c       ****     bool tx_bool = false;
 455:Tests.c       ****     uint8_t rx_state = 0;
 456:Tests.c       ****     uint8_t lk_state = 0;
 457:Tests.c       ****     
 458:Tests.c       ****     while(1){
 459:Tests.c       ****         dll_update();   
 460:Tests.c       ****         
 461:Tests.c       ****         if(!CapSense_IsBusy()){
 462:Tests.c       ****             CapSense_UpdateEnabledBaselines();
 463:Tests.c       ****             CapSense_ScanEnabledWidgets();
 464:Tests.c       ****         }
 465:Tests.c       ****         
 466:Tests.c       ****         if(CapSense_CheckIsWidgetActive(CapSense_LEFT__BTN)){
 467:Tests.c       ****             if(!button_held_down){
 468:Tests.c       ****                 button_held_down = true;
 469:Tests.c       ****                 state = (state + 1) % 3;
 470:Tests.c       ****                 tx_state = 0;
 471:Tests.c       ****                 tx_bool = false;
 472:Tests.c       ****                 rx_state = 0;
 473:Tests.c       ****                 lk_state = 0;
 474:Tests.c       ****             }
 475:Tests.c       ****         }else{
 476:Tests.c       ****             button_held_down = false;   
 477:Tests.c       ****         }
 478:Tests.c       ****         
 479:Tests.c       ****         uart_update();
 480:Tests.c       ****         
 481:Tests.c       ****         DLL_Message_t msg;
 482:Tests.c       ****         switch(state){
 483:Tests.c       ****             case 0: // Transmit mode
 484:Tests.c       ****                 if(!tx_bool){
 485:Tests.c       ****                     tx_bool = true;
 486:Tests.c       ****                     LCD_ClearDisplay();
 487:Tests.c       ****                     LCD_Position(0,0);
ARM GAS  C:\Users\HENRIC~1\AppData\Local\Temp\ccRPnI9G.s 			page 10


 488:Tests.c       ****                     LCD_PrintString("Transmit");
 489:Tests.c       ****                 }
 490:Tests.c       ****                 switch(tx_state){
 491:Tests.c       ****                     case 0:
 492:Tests.c       ****                         //expect transmit
 493:Tests.c       ****                         if(dll_tx_finished()){
 494:Tests.c       ****                             CyDelay(50);
 495:Tests.c       ****                             tx_state = 1;
 496:Tests.c       ****                             msg.src = 0x0B;
 497:Tests.c       ****                             msg.dst = 0x00;
 498:Tests.c       ****                             msg.msg_size = 0;
 499:Tests.c       ****                             msg.msg[0] = 0;
 500:Tests.c       ****                             msg.use_crc = DLL_NO_CRC;
 501:Tests.c       ****                             dll_write(&msg);
 502:Tests.c       ****                         }
 503:Tests.c       ****                         break;
 504:Tests.c       ****                     case 1:
 505:Tests.c       ****                         //expect transmit
 506:Tests.c       ****                         if(dll_tx_finished()){
 507:Tests.c       ****                             CyDelay(50);
 508:Tests.c       ****                             tx_state = 2;
 509:Tests.c       ****                             msg.src = 0x0B;
 510:Tests.c       ****                             msg.dst = 0x15;
 511:Tests.c       ****                             msg.msg_size = 44;
 512:Tests.c       ****                             for(int i=0; i<44; i++){
 513:Tests.c       ****                                 msg.msg[i] = 'a';   
 514:Tests.c       ****                             }
 515:Tests.c       ****                             msg.use_crc = DLL_NO_CRC;
 516:Tests.c       ****                             dll_write(&msg);
 517:Tests.c       ****                         }
 518:Tests.c       ****                         break;
 519:Tests.c       ****                     case 2:
 520:Tests.c       ****                         //expect transmit
 521:Tests.c       ****                         if(dll_tx_finished()){
 522:Tests.c       ****                             CyDelay(50);
 523:Tests.c       ****                             tx_state = 3;
 524:Tests.c       ****                             msg.src = 0x0B;
 525:Tests.c       ****                             msg.dst = 0x33;
 526:Tests.c       ****                             msg.msg_size = 5;
 527:Tests.c       ****                             strcpy(msg.msg,"Hello");
 528:Tests.c       ****                             msg.use_crc = DLL_NO_CRC;
 529:Tests.c       ****                             dll_write(&msg);
 530:Tests.c       ****                         }
 531:Tests.c       ****                         break;
 532:Tests.c       ****                     case 3:
 533:Tests.c       ****                         //expect no transmit
 534:Tests.c       ****                         if(dll_tx_finished()){
 535:Tests.c       ****                             CyDelay(50);
 536:Tests.c       ****                             tx_state = 0;
 537:Tests.c       ****                             msg.src = 0x0B;
 538:Tests.c       ****                             msg.dst = 0x41;
 539:Tests.c       ****                             msg.msg_size = 45;
 540:Tests.c       ****                             for(int i=0; i<44; i++){
 541:Tests.c       ****                                 msg.msg[i] = 'q';   
 542:Tests.c       ****                             }
 543:Tests.c       ****                             msg.use_crc = DLL_NO_CRC;
 544:Tests.c       ****                             dll_write(&msg);
ARM GAS  C:\Users\HENRIC~1\AppData\Local\Temp\ccRPnI9G.s 			page 11


 545:Tests.c       ****                         }
 546:Tests.c       ****                         break;
 547:Tests.c       ****                     default:
 548:Tests.c       ****                         tx_state = 0;
 549:Tests.c       ****                         break;
 550:Tests.c       ****                 }
 551:Tests.c       ****                 break;
 552:Tests.c       ****             case 1: // Receive mode
 553:Tests.c       ****                 if(!rx_state){
 554:Tests.c       ****                     rx_state = 1;   
 555:Tests.c       ****                     LCD_ClearDisplay();
 556:Tests.c       ****                     LCD_Position(0,0);
 557:Tests.c       ****                     LCD_PrintString("Receive");
 558:Tests.c       ****                 }
 559:Tests.c       ****                 
 560:Tests.c       ****                 if(dll_has_data()){
 561:Tests.c       ****                     uint8_t count = dll_read(&msg);
 562:Tests.c       ****                     sprintf(str,"SRC: %d, DST: %d, SIZE: %d, MSG: ",msg.src,
 563:Tests.c       ****                             msg.dst,msg.msg_size);
 564:Tests.c       ****                     uart_write(str,strlen(str));
 565:Tests.c       ****                     uart_write(msg.msg,count);
 566:Tests.c       ****                     uart_write("\n\r",2);
 567:Tests.c       ****                 }
 568:Tests.c       ****                 break;
 569:Tests.c       ****             case 2: // Linked mode
 570:Tests.c       ****                 if(!lk_state){
 571:Tests.c       ****                     lk_state = 1;   
 572:Tests.c       ****                     LCD_ClearDisplay();
 573:Tests.c       ****                     LCD_Position(0,0);
 574:Tests.c       ****                     LCD_PrintString("Linked");
 575:Tests.c       ****                 }
 576:Tests.c       ****                 
 577:Tests.c       ****                 if(dll_has_data()){
 578:Tests.c       ****                     uint8_t count = dll_read(&msg);
 579:Tests.c       ****                     sprintf(str,"SRC: %d, DST: %d, SIZE: %d, MSG: ",msg.src,
 580:Tests.c       ****                             msg.dst,msg.msg_size);
 581:Tests.c       ****                     uart_write(str,strlen(str));
 582:Tests.c       ****                     uart_write(msg.msg,count);
 583:Tests.c       ****                     uart_write("\n\r",2);
 584:Tests.c       ****                 }
 585:Tests.c       ****                 
 586:Tests.c       ****                 if(uart_has_data()){
 587:Tests.c       ****                     memset(buffer,'\0',sizeof(buffer));
 588:Tests.c       ****                     uint16_t numChar = uart_read(buffer,sizeof(buffer));
 589:Tests.c       ****                     uart_write(buffer,strlen(buffer));
 590:Tests.c       ****                     
 591:Tests.c       ****                     bool nl_found = false;
 592:Tests.c       ****                     uint8_t index = 0;
 593:Tests.c       ****                     char c;
 594:Tests.c       ****                     while(!nl_found && txStr_index < (sizeof(txStr)-1) && 
 595:Tests.c       ****                             index < numChar){
 596:Tests.c       ****                         c = buffer[index];
 597:Tests.c       ****                         index++;
 598:Tests.c       ****                         if(c == '\n' || c == '\r'){
 599:Tests.c       ****                             txStr[txStr_index] = '\0';
 600:Tests.c       ****                             nl_found = true;
 601:Tests.c       ****                         }else{
ARM GAS  C:\Users\HENRIC~1\AppData\Local\Temp\ccRPnI9G.s 			page 12


 602:Tests.c       ****                             txStr[txStr_index] = c;
 603:Tests.c       ****                         }
 604:Tests.c       ****                         txStr_index++;
 605:Tests.c       ****                     }
 606:Tests.c       ****                     
 607:Tests.c       ****                     //buffer full, last character is nul
 608:Tests.c       ****                     if(txStr_index >= (sizeof(txStr)-1)){
 609:Tests.c       ****                         txStr[44] = '\0';
 610:Tests.c       ****                         nl_found = true;
 611:Tests.c       ****                     }
 612:Tests.c       ****                     
 613:Tests.c       ****                     //transmit if newline or full
 614:Tests.c       ****                     if(nl_found){
 615:Tests.c       ****                         txStr_index = 0;
 616:Tests.c       ****                         msg.src = 0x0B;
 617:Tests.c       ****                         msg.dst = 0x00;
 618:Tests.c       ****                         msg.msg_size = strlen(txStr);
 619:Tests.c       ****                         memcpy(msg.msg,txStr,msg.msg_size);
 620:Tests.c       ****                         msg.use_crc = DLL_NO_CRC;
 621:Tests.c       ****                         dll_write(&msg);
 622:Tests.c       ****                     }
 623:Tests.c       ****                 }
 624:Tests.c       ****                 break;
 625:Tests.c       ****             default:
 626:Tests.c       ****                 state = 0;
 627:Tests.c       ****                 break;
 628:Tests.c       ****         }
 629:Tests.c       ****     }
 630:Tests.c       **** }
 631:Tests.c       **** 
 632:Tests.c       **** /**
 633:Tests.c       ****  * Test week 10 will validate final system drivers for full compliance to
 634:Tests.c       ****  * protocol.
 635:Tests.c       ****  */
 636:Tests.c       **** void tests_week10(void){
 637:Tests.c       ****     user_init();
 638:Tests.c       ****     dll_init();
 639:Tests.c       ****     dll_set_user(CURT_HENRICHS);
 640:Tests.c       **** 
 641:Tests.c       ****     
 642:Tests.c       ****     bool left_button_held_down = false;
 643:Tests.c       ****     bool right_button_held_down = false;
 644:Tests.c       ****     uint8_t state = 0;
 645:Tests.c       ****     uint8_t crcState = 0;
 646:Tests.c       ****     bool crcFlag = false;
 647:Tests.c       ****     uint8_t txState = 0;
 648:Tests.c       ****     bool txFlag = false;
 649:Tests.c       ****     bool rxFlag = false;
 650:Tests.c       ****     
 651:Tests.c       ****     DLL_Message_t msg;
 652:Tests.c       ****     char str[50];
 653:Tests.c       ****     
 654:Tests.c       **** 
 655:Tests.c       ****     while(1){
 656:Tests.c       ****         
 657:Tests.c       ****         dll_update();   
 658:Tests.c       ****         
ARM GAS  C:\Users\HENRIC~1\AppData\Local\Temp\ccRPnI9G.s 			page 13


 659:Tests.c       ****         if(!CapSense_IsBusy()){
 660:Tests.c       ****             CapSense_UpdateEnabledBaselines();
 661:Tests.c       ****             CapSense_ScanEnabledWidgets();
 662:Tests.c       ****         }
 663:Tests.c       ****         
 664:Tests.c       ****         if(CapSense_CheckIsWidgetActive(CapSense_LEFT__BTN)){
 665:Tests.c       ****             if(!left_button_held_down){
 666:Tests.c       ****                 left_button_held_down = true;
 667:Tests.c       ****                 state = (state + 1) % 3;
 668:Tests.c       ****                 right_button_held_down = false;
 669:Tests.c       ****                 crcState = 0;
 670:Tests.c       ****                 crcFlag = false;
 671:Tests.c       ****                 txState = 0;
 672:Tests.c       ****                 txFlag = false;
 673:Tests.c       ****                 rxFlag = false;
 674:Tests.c       ****             }
 675:Tests.c       ****         }else{
 676:Tests.c       ****             left_button_held_down = false;   
 677:Tests.c       ****         }
 678:Tests.c       ****         
 679:Tests.c       ****         uart_update();
 680:Tests.c       ****         
 681:Tests.c       ****         switch(state){
 682:Tests.c       ****             case 0:
 683:Tests.c       ****                 //run crc case
 684:Tests.c       ****                 switch(crcState){
 685:Tests.c       ****                     case 0:
 686:Tests.c       ****                         if(!crcFlag){
 687:Tests.c       ****                             crcFlag = true;
 688:Tests.c       ****                             uint8_t buffer[] = {0x85};
 689:Tests.c       ****                             uint8_t x = crc_algorithm(buffer,1);
 690:Tests.c       ****                             LCD_ClearDisplay();
 691:Tests.c       ****                             LCD_Position(0,0);
 692:Tests.c       ****                             LCD_PrintString("CRC:");
 693:Tests.c       ****                             LCD_PrintInt8(crcState);
 694:Tests.c       ****                             LCD_Position(1,0);
 695:Tests.c       ****                             LCD_PrintHexUint8(x);  
 696:Tests.c       ****                         }
 697:Tests.c       ****                         break;
 698:Tests.c       ****                     case 1:
 699:Tests.c       ****                         if(!crcFlag){
 700:Tests.c       ****                             crcFlag = true;
 701:Tests.c       ****                             uint8_t buffer[] = {0x85, 0xAC};
 702:Tests.c       ****                             uint8_t x = crc_algorithm(buffer,2);
 703:Tests.c       ****                             LCD_ClearDisplay();
 704:Tests.c       ****                             LCD_Position(0,0);
 705:Tests.c       ****                             LCD_PrintString("CRC:");
 706:Tests.c       ****                             LCD_PrintInt8(crcState);
 707:Tests.c       ****                             LCD_Position(1,0);
 708:Tests.c       ****                             LCD_PrintHexUint8(x);  
 709:Tests.c       ****                         }
 710:Tests.c       ****                         break;
 711:Tests.c       ****                     case 2:
 712:Tests.c       ****                         if(!crcFlag){
 713:Tests.c       ****                             crcFlag = true;
 714:Tests.c       ****                             uint8_t buffer[] = {0xC4, 0xC1, 0xFA};
 715:Tests.c       ****                             uint8_t x = crc_algorithm(buffer,3);
ARM GAS  C:\Users\HENRIC~1\AppData\Local\Temp\ccRPnI9G.s 			page 14


 716:Tests.c       ****                             LCD_ClearDisplay();
 717:Tests.c       ****                             LCD_Position(0,0);
 718:Tests.c       ****                             LCD_PrintString("CRC:");
 719:Tests.c       ****                             LCD_PrintInt8(crcState);
 720:Tests.c       ****                             LCD_Position(1,0);
 721:Tests.c       ****                             LCD_PrintHexUint8(x);  
 722:Tests.c       ****                         }
 723:Tests.c       ****                         break;
 724:Tests.c       ****                     case 3:
 725:Tests.c       ****                         if(!crcFlag){
 726:Tests.c       ****                             crcFlag = true;
 727:Tests.c       ****                             uint8_t buffer[] = {0x80, 0x81, 0x8A, 0x80, 0x83, 0x83};
 728:Tests.c       ****                             uint8_t x = crc_algorithm(buffer,6);
 729:Tests.c       ****                             LCD_ClearDisplay();
 730:Tests.c       ****                             LCD_Position(0,0);
 731:Tests.c       ****                             LCD_PrintString("CRC:");
 732:Tests.c       ****                             LCD_PrintInt8(crcState);
 733:Tests.c       ****                             LCD_Position(1,0);
 734:Tests.c       ****                             LCD_PrintHexUint8(x);  
 735:Tests.c       ****                         }
 736:Tests.c       ****                         break;
 737:Tests.c       ****                     default:
 738:Tests.c       ****                         crcState = 0;
 739:Tests.c       ****                         break;
 740:Tests.c       ****                 }
 741:Tests.c       ****                 //switch next crc state
 742:Tests.c       ****                 if(CapSense_CheckIsWidgetActive(CapSense_RIGHT__BTN)){
 743:Tests.c       ****                     if(!right_button_held_down){
 744:Tests.c       ****                         right_button_held_down = true;
 745:Tests.c       ****                         crcState = (crcState + 1) % 4;
 746:Tests.c       ****                         crcFlag = false;
 747:Tests.c       ****                     }
 748:Tests.c       ****                 }else{
 749:Tests.c       ****                     right_button_held_down = false;   
 750:Tests.c       ****                 }
 751:Tests.c       ****                 break;
 752:Tests.c       ****             case 1: 
 753:Tests.c       ****                 if(!txFlag){
 754:Tests.c       ****                     txFlag = true;
 755:Tests.c       ****                     LCD_ClearDisplay();
 756:Tests.c       ****                     LCD_Position(0,0);
 757:Tests.c       ****                     LCD_PrintString("Transmit");
 758:Tests.c       ****                     LCD_Position(1,0);
 759:Tests.c       ****                     LCD_PrintInt8(txState);
 760:Tests.c       ****                 }
 761:Tests.c       ****                 
 762:Tests.c       ****                 switch(txState){
 763:Tests.c       ****                     case 0:
 764:Tests.c       ****                         if(dll_tx_finished()){
 765:Tests.c       ****                             CyDelay(50);
 766:Tests.c       ****                             msg.src = 0x0A;
 767:Tests.c       ****                             msg.dst = 0x00;
 768:Tests.c       ****                             msg.msg_size = 3;
 769:Tests.c       ****                             strcpy(msg.msg,"DAz");
 770:Tests.c       ****                             msg.use_crc = DLL_BOTH_CRC;
 771:Tests.c       ****                             dll_write(&msg);
 772:Tests.c       ****                         }
ARM GAS  C:\Users\HENRIC~1\AppData\Local\Temp\ccRPnI9G.s 			page 15


 773:Tests.c       ****                         break;
 774:Tests.c       ****                     case 1:
 775:Tests.c       ****                         if(dll_tx_finished()){
 776:Tests.c       ****                             CyDelay(50);
 777:Tests.c       ****                             msg.src = 0x0A;
 778:Tests.c       ****                             msg.dst = 0x00;
 779:Tests.c       ****                             msg.msg_size = 3;
 780:Tests.c       ****                             strcpy(msg.msg,"DAz");
 781:Tests.c       ****                             msg.use_crc = DLL_HEADER_CRC;
 782:Tests.c       ****                             dll_write(&msg);
 783:Tests.c       ****                         }
 784:Tests.c       ****                         break;
 785:Tests.c       ****                     case 2:
 786:Tests.c       ****                         if(dll_tx_finished()){
 787:Tests.c       ****                             CyDelay(50);
 788:Tests.c       ****                             msg.src = 0x0A;
 789:Tests.c       ****                             msg.dst = 0x00;
 790:Tests.c       ****                             msg.msg_size = 3;
 791:Tests.c       ****                             strcpy(msg.msg,"DAz");
 792:Tests.c       ****                             msg.use_crc = DLL_MESSAGE_CRC;
 793:Tests.c       ****                             dll_write(&msg);
 794:Tests.c       ****                         }
 795:Tests.c       ****                         break;
 796:Tests.c       ****                     case 3:
 797:Tests.c       ****                         if(dll_tx_finished()){
 798:Tests.c       ****                             CyDelay(50);
 799:Tests.c       ****                             msg.src = 0x0A;
 800:Tests.c       ****                             msg.dst = 0x00;
 801:Tests.c       ****                             msg.msg_size = 3;
 802:Tests.c       ****                             strcpy(msg.msg,"DAz");
 803:Tests.c       ****                             msg.use_crc = DLL_NO_CRC;
 804:Tests.c       ****                             dll_write(&msg);
 805:Tests.c       ****                         }
 806:Tests.c       ****                         break;
 807:Tests.c       ****                     default:
 808:Tests.c       ****                         txState = 0;
 809:Tests.c       ****                         break;
 810:Tests.c       ****                 }
 811:Tests.c       ****                 //switch next tx state
 812:Tests.c       ****                 if(CapSense_CheckIsWidgetActive(CapSense_RIGHT__BTN)){
 813:Tests.c       ****                     if(!right_button_held_down){
 814:Tests.c       ****                         right_button_held_down = true;
 815:Tests.c       ****                         txState = (txState + 1) % 4;
 816:Tests.c       ****                         txFlag = false;
 817:Tests.c       ****                     }
 818:Tests.c       ****                 }else{
 819:Tests.c       ****                     right_button_held_down = false;   
 820:Tests.c       ****                 }
 821:Tests.c       ****                 break;
 822:Tests.c       ****             case 2:
 823:Tests.c       ****                 if(!rxFlag){
 824:Tests.c       ****                     rxFlag = true;   
 825:Tests.c       ****                     LCD_ClearDisplay();
 826:Tests.c       ****                     LCD_Position(0,0);
 827:Tests.c       ****                     LCD_PrintString("Receive");
 828:Tests.c       ****                 }
 829:Tests.c       ****                 
ARM GAS  C:\Users\HENRIC~1\AppData\Local\Temp\ccRPnI9G.s 			page 16


 830:Tests.c       ****                 if(dll_has_data()){
 831:Tests.c       ****                     uint8_t count = dll_read(&msg);
 832:Tests.c       ****                     sprintf(str,"SRC: %d, DST: %d, SIZE: %d, MSG: ",msg.src,
 833:Tests.c       ****                             msg.dst,msg.msg_size);
 834:Tests.c       ****                     uart_write(str,strlen(str));
 835:Tests.c       ****                     uart_write(msg.msg,count);
 836:Tests.c       ****                     uart_write("\n\r",2);
 837:Tests.c       ****                     sprintf(str,"CRC_MODE: %d, HEADER CRC: %s, DATA CRC: %s\n\r",
 838:Tests.c       ****                             msg.use_crc,(msg.failed_header_crc) ? "N" : "Y",
 839:Tests.c       ****                             (msg.failed_data_crc) ? "N" : "Y");
 840:Tests.c       ****                     uart_write(str,strlen(str));
 841:Tests.c       ****                 }
 842:Tests.c       ****                 break;
 843:Tests.c       ****             default:
 844:Tests.c       ****                 state = 0;
 845:Tests.c       ****                 break;
 846:Tests.c       ****         }
 847:Tests.c       ****     }
 848:Tests.c       **** }
 849:Tests.c       **** 
 850:Tests.c       **** //=============================================================================
 851:Tests.c       **** //                   Private Function Implementation : Week 5
 852:Tests.c       **** //=============================================================================
 853:Tests.c       **** 
 854:Tests.c       **** /** 
 855:Tests.c       ****  * Display test case menu
 856:Tests.c       ****  * @param on_enter first entry of state-machine for one-time logic
 857:Tests.c       ****  * @return next state as selected by user else this state if no selection
 858:Tests.c       ****  */
 859:Tests.c       **** static Menu_States_e display(bool on_enter){
 860:Tests.c       ****     static uint8_t index;
 861:Tests.c       ****     static bool hold;
 862:Tests.c       ****     
 863:Tests.c       ****     if(on_enter){
 864:Tests.c       ****         index = 0;
 865:Tests.c       ****         hold = true;
 866:Tests.c       ****         LCD_ClearDisplay();
 867:Tests.c       ****         LCD_Position(0,0);
 868:Tests.c       ****         LCD_PrintString("MENU:");
 869:Tests.c       ****         LCD_Position(1,0);
 870:Tests.c       ****         LCD_PrintString(MENU_OPTIONS_TAGS[index]);
 871:Tests.c       ****     }
 872:Tests.c       ****     
 873:Tests.c       ****     bool iterate = CapSense_CheckIsWidgetActive(CapSense_LEFT__BTN);
 874:Tests.c       ****     if(iterate && !hold){
 875:Tests.c       ****         index = (index + 1) % NUM_SELECTABLE_OPTIONS;
 876:Tests.c       ****         LCD_ClearDisplay();
 877:Tests.c       ****         LCD_Position(0,0);
 878:Tests.c       ****         LCD_PrintString("MENU:");
 879:Tests.c       ****         LCD_Position(1,0);
 880:Tests.c       ****         LCD_PrintString(MENU_OPTIONS_TAGS[index]);
 881:Tests.c       ****     }
 882:Tests.c       ****     hold = iterate;
 883:Tests.c       ****     
 884:Tests.c       ****     bool nextState = CapSense_CheckIsWidgetActive(CapSense_RIGHT__BTN);
 885:Tests.c       ****     Menu_States_e retval = (nextState) ? MENU_OPTIONS_LIST[index] : MENU_DISPLAY;
 886:Tests.c       ****     return retval;
ARM GAS  C:\Users\HENRIC~1\AppData\Local\Temp\ccRPnI9G.s 			page 17


 887:Tests.c       **** }
 888:Tests.c       **** 
 889:Tests.c       **** /** 
 890:Tests.c       ****  * UART test case - transmit buffered message from USBUART.
 891:Tests.c       ****  * @param on_enter first entry of state-machine for one-time logic
 892:Tests.c       ****  * @return this state until user presses return button
 893:Tests.c       ****  */
 894:Tests.c       **** static Menu_States_e uart_mode(bool on_enter){
 895:Tests.c       ****     static char buffer[USBUART_BUFFER_SIZE];
 896:Tests.c       ****     static char disp[16];
 897:Tests.c       ****     static char txStr[33];
 898:Tests.c       ****     static uint8_t txStr_index;
 899:Tests.c       ****     
 900:Tests.c       ****     if(on_enter){
 901:Tests.c       ****         memset(txStr,0,sizeof(txStr));
 902:Tests.c       ****         txStr_index = 0;
 903:Tests.c       ****         
 904:Tests.c       ****         LCD_ClearDisplay();
 905:Tests.c       ****         LCD_Position(0,0);
 906:Tests.c       ****         LCD_PrintString("UART:");
 907:Tests.c       ****     }
 908:Tests.c       ****     
 909:Tests.c       ****     uart_update();
 910:Tests.c       ****         
 911:Tests.c       ****     if(uart_has_data()){
 912:Tests.c       ****         memset(buffer,'\0',sizeof(buffer));
 913:Tests.c       ****         uint16_t numChar = uart_read(buffer,sizeof(buffer));
 914:Tests.c       ****         uart_write(buffer,strlen(buffer));
 915:Tests.c       ****         
 916:Tests.c       ****         LCD_ClearDisplay();
 917:Tests.c       ****         LCD_Position(0,0);
 918:Tests.c       ****         LCD_PrintString("UART:");
 919:Tests.c       ****         LCD_Position(1,0);
 920:Tests.c       ****         memcpy(disp,buffer,15);
 921:Tests.c       ****         disp[15] = 0;
 922:Tests.c       ****         LCD_PrintString(disp);
 923:Tests.c       ****         
 924:Tests.c       ****         bool nl_found = false;
 925:Tests.c       ****         uint8_t index = 0;
 926:Tests.c       ****         char c;
 927:Tests.c       ****         while(!nl_found && txStr_index < (sizeof(txStr)-1) && index < numChar){
 928:Tests.c       ****             c = buffer[index];
 929:Tests.c       ****             index++;
 930:Tests.c       ****             if(c == '\n' || c == '\r'){
 931:Tests.c       ****                 txStr[txStr_index] = '\0';
 932:Tests.c       ****                 nl_found = true;
 933:Tests.c       ****             }else{
 934:Tests.c       ****                 txStr[txStr_index] = c;
 935:Tests.c       ****             }
 936:Tests.c       ****             txStr_index++;
 937:Tests.c       ****         }
 938:Tests.c       ****         
 939:Tests.c       ****         //buffer full, last character is nul
 940:Tests.c       ****         if(txStr_index >= (sizeof(txStr)-1)){
 941:Tests.c       ****             txStr[32] = '\0';
 942:Tests.c       ****             nl_found = true;
 943:Tests.c       ****         }
ARM GAS  C:\Users\HENRIC~1\AppData\Local\Temp\ccRPnI9G.s 			page 18


 944:Tests.c       ****         
 945:Tests.c       ****         //transmit if newline or full
 946:Tests.c       ****         if(nl_found){
 947:Tests.c       ****             txStr_index = 0;
 948:Tests.c       ****             LCD_Position(1,0);
 949:Tests.c       ****             LCD_PrintString("Transmitting");
 950:Tests.c       ****             tx_write(txStr,strlen(txStr));
 951:Tests.c       ****             while(tx_get_status() != TX_DONE){/* Intentionally Empty */}
 952:Tests.c       ****             CyDelay(100);
 953:Tests.c       ****             LCD_Position(1,0);
 954:Tests.c       ****             LCD_PrintString("            ");
 955:Tests.c       ****         }
 956:Tests.c       ****     }
 957:Tests.c       ****     
 958:Tests.c       ****     bool returnMenu = CapSense_CheckIsWidgetActive(CapSense_LEFT__BTN);
 959:Tests.c       ****     Menu_States_e retval = (returnMenu) ? MENU_DISPLAY : MENU_UART;
 960:Tests.c       ****     return retval;
 961:Tests.c       **** }
 962:Tests.c       **** 
 963:Tests.c       **** /** 
 964:Tests.c       ****  * 0x00 test case - transmit string of 0x00 characters
 965:Tests.c       ****  * @param on_enter first entry of state-machine for one-time logic
 966:Tests.c       ****  * @return this state until user presses return button
 967:Tests.c       ****  */
 968:Tests.c       **** static Menu_States_e nul_string_mode(bool on_enter){
 969:Tests.c       ****     static bool hold;
 970:Tests.c       ****     bool active = CapSense_CheckIsWidgetActive(CapSense_RIGHT__BTN);
 971:Tests.c       ****     
 972:Tests.c       ****     if(on_enter){
 973:Tests.c       ****         hold = true;
 974:Tests.c       ****         LCD_ClearDisplay();
 975:Tests.c       ****         LCD_Position(0,0);
 976:Tests.c       ****         LCD_PrintString("REPEAT 0x00:");
 977:Tests.c       ****     }
 978:Tests.c       ****     
 979:Tests.c       ****     if(active && !hold){
 980:Tests.c       ****         LCD_Position(1,0);
 981:Tests.c       ****         LCD_PrintString("Transmitting");
 982:Tests.c       ****         char buffer[] = { 0x00, 0x00, 0x00, 0x00 };
 983:Tests.c       ****         tx_write(buffer,sizeof(buffer));
 984:Tests.c       ****         while(tx_get_status() != TX_DONE){/*Intentionally Empty*/}
 985:Tests.c       ****         CyDelay(100);
 986:Tests.c       ****         LCD_Position(1,0);
 987:Tests.c       ****         LCD_PrintString("            ");
 988:Tests.c       ****     }
 989:Tests.c       ****     hold = active;
 990:Tests.c       ****     
 991:Tests.c       ****     bool returnMenu = CapSense_CheckIsWidgetActive(CapSense_LEFT__BTN);
 992:Tests.c       ****     Menu_States_e retval = (returnMenu) ? MENU_DISPLAY : MENU_NUL;
 993:Tests.c       ****     return retval;
 994:Tests.c       **** }
 995:Tests.c       **** 
 996:Tests.c       **** /** 
 997:Tests.c       ****  * 0xAA test case - transmit string of 0xAA characters
 998:Tests.c       ****  * @param on_enter first entry of state-machine for one-time logic
 999:Tests.c       ****  * @return this state until user presses return button
1000:Tests.c       ****  */
ARM GAS  C:\Users\HENRIC~1\AppData\Local\Temp\ccRPnI9G.s 			page 19


1001:Tests.c       **** static Menu_States_e repeat_string_1_mode(bool on_enter){
1002:Tests.c       ****     static bool hold;
1003:Tests.c       ****     bool active = CapSense_CheckIsWidgetActive(CapSense_RIGHT__BTN);
1004:Tests.c       ****     
1005:Tests.c       ****     if(on_enter){
1006:Tests.c       ****         hold = true;
1007:Tests.c       ****         LCD_ClearDisplay();
1008:Tests.c       ****         LCD_Position(0,0);
1009:Tests.c       ****         LCD_PrintString("REPEAT 0xAA:");
1010:Tests.c       ****     }
1011:Tests.c       ****     
1012:Tests.c       ****     if(active && !hold){
1013:Tests.c       ****         LCD_Position(1,0);
1014:Tests.c       ****         LCD_PrintString("Transmitting");
1015:Tests.c       ****         char buffer[] = { 0xAA, 0xAA, 0xAA, 0xAA };
1016:Tests.c       ****         tx_write(buffer,sizeof(buffer));
1017:Tests.c       ****         while(tx_get_status() != TX_DONE){/*Intentionally Empty*/}
1018:Tests.c       ****         CyDelay(100);
1019:Tests.c       ****         LCD_Position(1,0);
1020:Tests.c       ****         LCD_PrintString("            ");
1021:Tests.c       ****     }
1022:Tests.c       ****     hold = active;
1023:Tests.c       ****     
1024:Tests.c       ****     bool returnMenu = CapSense_CheckIsWidgetActive(CapSense_LEFT__BTN);
1025:Tests.c       ****     Menu_States_e retval = (returnMenu) ? MENU_DISPLAY : MENU_REPEAT_1;
1026:Tests.c       ****     return retval;
1027:Tests.c       **** }
1028:Tests.c       **** 
1029:Tests.c       **** /** 
1030:Tests.c       ****  * 0x55 test case - transmit string of 0x55 characters
1031:Tests.c       ****  * @param on_enter first entry of state-machine for one-time logic
1032:Tests.c       ****  * @return this state until user presses return button
1033:Tests.c       ****  */
1034:Tests.c       **** static Menu_States_e repeat_string_2_mode(bool on_enter){
1035:Tests.c       ****     static bool hold;
1036:Tests.c       ****     bool active = CapSense_CheckIsWidgetActive(CapSense_RIGHT__BTN);
1037:Tests.c       ****     
1038:Tests.c       ****     if(on_enter){
1039:Tests.c       ****         hold = true;
1040:Tests.c       ****         LCD_ClearDisplay();
1041:Tests.c       ****         LCD_Position(0,0);
1042:Tests.c       ****         LCD_PrintString("REPEAT 0x55:");
1043:Tests.c       ****     }
1044:Tests.c       ****     
1045:Tests.c       ****     if(active && !hold){
1046:Tests.c       ****         LCD_Position(1,0);
1047:Tests.c       ****         LCD_PrintString("Transmitting");
1048:Tests.c       ****         char buffer[] = { 0x55, 0x55, 0x55, 0x55 };
1049:Tests.c       ****         tx_write(buffer,sizeof(buffer));
1050:Tests.c       ****         while(tx_get_status() != TX_DONE){/*Intentionally Empty*/}
1051:Tests.c       ****         CyDelay(100);
1052:Tests.c       ****         LCD_Position(1,0);
1053:Tests.c       ****         LCD_PrintString("            ");
1054:Tests.c       ****     }
1055:Tests.c       ****     hold = active;
1056:Tests.c       ****     
1057:Tests.c       ****     bool returnMenu = CapSense_CheckIsWidgetActive(CapSense_LEFT__BTN);
ARM GAS  C:\Users\HENRIC~1\AppData\Local\Temp\ccRPnI9G.s 			page 20


1058:Tests.c       ****     Menu_States_e retval = (returnMenu) ? MENU_DISPLAY : MENU_REPEAT_2;
1059:Tests.c       ****     return retval;
1060:Tests.c       **** }
1061:Tests.c       **** 
1062:Tests.c       **** /** 
1063:Tests.c       ****  * 0xFF test case - transmit string of 0xFF characters
1064:Tests.c       ****  * @param on_enter first entry of state-machine for one-time logic
1065:Tests.c       ****  * @return this state until user presses return button
1066:Tests.c       ****  */
1067:Tests.c       **** static Menu_States_e ones_mode(bool on_enter){
1068:Tests.c       ****     static bool hold;
1069:Tests.c       ****     bool active = CapSense_CheckIsWidgetActive(CapSense_RIGHT__BTN);
1070:Tests.c       ****     
1071:Tests.c       ****     if(on_enter){
1072:Tests.c       ****         hold = true;
1073:Tests.c       ****         LCD_ClearDisplay();
1074:Tests.c       ****         LCD_Position(0,0);
1075:Tests.c       ****         LCD_PrintString("REPEAT 0xFF:");
1076:Tests.c       ****     }
1077:Tests.c       ****     
1078:Tests.c       ****     if(active && !hold){
1079:Tests.c       ****         LCD_Position(1,0);
1080:Tests.c       ****         LCD_PrintString("Transmitting");
1081:Tests.c       ****         char buffer[] = { 0xFF, 0xFF, 0xFF, 0xFF };
1082:Tests.c       ****         tx_write(buffer,sizeof(buffer));
1083:Tests.c       ****         while(tx_get_status() != TX_DONE){/*Intentionally Empty*/}
1084:Tests.c       ****         CyDelay(100);
1085:Tests.c       ****         LCD_Position(1,0);
1086:Tests.c       ****         LCD_PrintString("            ");
1087:Tests.c       ****     }
1088:Tests.c       ****     hold = active;
1089:Tests.c       ****     
1090:Tests.c       ****     bool returnMenu = CapSense_CheckIsWidgetActive(CapSense_LEFT__BTN);
1091:Tests.c       ****     Menu_States_e retval = (returnMenu) ? MENU_DISPLAY : MENU_ONES;
1092:Tests.c       ****     return retval;
1093:Tests.c       **** }
1094:Tests.c       **** 
1095:Tests.c       **** //=============================================================================
1096:Tests.c       **** //                   Private Function Implementation : Week 10
1097:Tests.c       **** //=============================================================================
1098:Tests.c       **** 
1099:Tests.c       **** /**
1100:Tests.c       ****  * CRC calulation algorithm used in both the transmitter and receiver
1101:Tests.c       ****  * @param buffer is pointer to message to calculate over
1102:Tests.c       ****  * @param len is number of bytes in message to calculate over
1103:Tests.c       ****  * @return 4-bit CRC value
1104:Tests.c       ****  */
1105:Tests.c       **** static uint8_t crc_algorithm(uint8_t* buffer, uint8_t len){
  27              		.loc 1 1105 0
  28              		.cfi_startproc
  29              		@ args = 0, pretend = 0, frame = 0
  30              		@ frame_needed = 0, uses_anonymous_args = 0
  31              	.LVL0:
  32 0000 F0B5     		push	{r4, r5, r6, r7, lr}
  33              		.cfi_def_cfa_offset 20
  34              		.cfi_offset 4, -20
  35              		.cfi_offset 5, -16
ARM GAS  C:\Users\HENRIC~1\AppData\Local\Temp\ccRPnI9G.s 			page 21


  36              		.cfi_offset 6, -12
  37              		.cfi_offset 7, -8
  38              		.cfi_offset 14, -4
  39 0002 8446     		mov	ip, r0
  40              	.LVL1:
1106:Tests.c       ****     const uint8_t gen = 0x13;
1107:Tests.c       ****     uint8_t i,k,b,msb;
1108:Tests.c       ****     uint8_t x = 0;
  41              		.loc 1 1108 0
  42 0004 0020     		movs	r0, #0
  43              	.LVL2:
1109:Tests.c       ****     
1110:Tests.c       ****     //shift buffer in
1111:Tests.c       ****     for(i=0; i<len; i++){
  44              		.loc 1 1111 0
  45 0006 8646     		mov	lr, r0
  46 0008 20E0     		b	.L2
  47              	.LVL3:
  48              	.L7:
1112:Tests.c       ****         b = buffer[i];
  49              		.loc 1 1112 0
  50 000a 1CF80E70 		ldrb	r7, [ip, lr]	@ zero_extendqisi2
  51              	.LVL4:
1113:Tests.c       ****         for(k=0; k<8; k++){
  52              		.loc 1 1113 0
  53 000e 0025     		movs	r5, #0
  54 0010 16E0     		b	.L3
  55              	.LVL5:
  56              	.L6:
1114:Tests.c       ****             if(k == 0){
  57              		.loc 1 1114 0
  58 0012 3DB1     		cbz	r5, .L11
1115:Tests.c       ****                 msb = 1; //MSB is always one during transmission
1116:Tests.c       ****             }else{
1117:Tests.c       ****                 msb = (b & (1 << (7 - k))) >> (7 - k);
  59              		.loc 1 1117 0
  60 0014 C5F10706 		rsb	r6, r5, #7
  61 0018 0124     		movs	r4, #1
  62 001a B440     		lsls	r4, r4, r6
  63 001c 3C40     		ands	r4, r4, r7
  64 001e 3441     		asrs	r4, r4, r6
  65 0020 E2B2     		uxtb	r2, r4
  66              	.LVL6:
  67 0022 00E0     		b	.L4
  68              	.LVL7:
  69              	.L11:
1115:Tests.c       ****                 msb = 1; //MSB is always one during transmission
  70              		.loc 1 1115 0
  71 0024 0122     		movs	r2, #1
  72              	.L4:
  73              	.LVL8:
1118:Tests.c       ****             }
1119:Tests.c       ****             x = (x << 1) | msb;
  74              		.loc 1 1119 0
  75 0026 42EA4003 		orr	r3, r2, r0, lsl #1
  76 002a 5BB2     		sxtb	r3, r3
  77              	.LVL9:
ARM GAS  C:\Users\HENRIC~1\AppData\Local\Temp\ccRPnI9G.s 			page 22


1120:Tests.c       ****             x = x ^ (gen & ((x & 0x10) ? (0x0F) : (0x00)));
  78              		.loc 1 1120 0
  79 002c 13F0100F 		tst	r3, #16
  80 0030 01D0     		beq	.L12
  81 0032 0320     		movs	r0, #3
  82 0034 00E0     		b	.L5
  83              	.L12:
  84 0036 0020     		movs	r0, #0
  85              	.L5:
  86              		.loc 1 1120 0 is_stmt 0 discriminator 4
  87 0038 4340     		eors	r3, r3, r0
  88              	.LVL10:
  89 003a D8B2     		uxtb	r0, r3
  90              	.LVL11:
1113:Tests.c       ****             if(k == 0){
  91              		.loc 1 1113 0 is_stmt 1 discriminator 4
  92 003c 0135     		adds	r5, r5, #1
  93              	.LVL12:
  94 003e EDB2     		uxtb	r5, r5
  95              	.LVL13:
  96              	.L3:
1113:Tests.c       ****             if(k == 0){
  97              		.loc 1 1113 0 is_stmt 0 discriminator 2
  98 0040 072D     		cmp	r5, #7
  99 0042 E6D9     		bls	.L6
1111:Tests.c       ****         b = buffer[i];
 100              		.loc 1 1111 0 is_stmt 1 discriminator 2
 101 0044 0EF1010E 		add	lr, lr, #1
 102              	.LVL14:
 103 0048 5FFA8EFE 		uxtb	lr, lr
 104              	.LVL15:
 105              	.L2:
1111:Tests.c       ****         b = buffer[i];
 106              		.loc 1 1111 0 is_stmt 0 discriminator 1
 107 004c 8E45     		cmp	lr, r1
 108 004e DCD3     		bcc	.L7
 109 0050 0021     		movs	r1, #0
 110              	.LVL16:
 111 0052 0BE0     		b	.L8
 112              	.LVL17:
 113              	.L10:
1121:Tests.c       ****         }
1122:Tests.c       ****     }
1123:Tests.c       ****     
1124:Tests.c       ****     //shift zero bits to find FCS
1125:Tests.c       ****     for(k=0; k<4; k++){
1126:Tests.c       ****         x = (x << 1) | 0;
 114              		.loc 1 1126 0 is_stmt 1
 115 0054 4300     		lsls	r3, r0, #1
 116 0056 DBB2     		uxtb	r3, r3
 117              	.LVL18:
1127:Tests.c       ****         x = x ^ (gen & ((x & 0x10) ? (0x0F) : (0x00)));
 118              		.loc 1 1127 0
 119 0058 13F0100F 		tst	r3, #16
 120 005c 01D0     		beq	.L13
 121 005e 0322     		movs	r2, #3
 122 0060 00E0     		b	.L9
ARM GAS  C:\Users\HENRIC~1\AppData\Local\Temp\ccRPnI9G.s 			page 23


 123              	.L13:
 124 0062 0022     		movs	r2, #0
 125              	.L9:
 126              		.loc 1 1127 0 is_stmt 0 discriminator 4
 127 0064 82EA0300 		eor	r0, r2, r3
 128              	.LVL19:
1125:Tests.c       ****         x = (x << 1) | 0;
 129              		.loc 1 1125 0 is_stmt 1 discriminator 4
 130 0068 0131     		adds	r1, r1, #1
 131              	.LVL20:
 132 006a C9B2     		uxtb	r1, r1
 133              	.LVL21:
 134              	.L8:
1125:Tests.c       ****         x = (x << 1) | 0;
 135              		.loc 1 1125 0 is_stmt 0 discriminator 2
 136 006c 0329     		cmp	r1, #3
 137 006e F1D9     		bls	.L10
1128:Tests.c       ****     }
1129:Tests.c       ****     
1130:Tests.c       ****     return x & 0x0F;
1131:Tests.c       **** }...
 138              		.loc 1 1131 0 is_stmt 1
 139 0070 00F00F00 		and	r0, r0, #15
 140              	.LVL22:
 141 0074 F0BD     		pop	{r4, r5, r6, r7, pc}
 142              		.cfi_endproc
 143              	.LFE77:
 144              		.size	crc_algorithm, .-crc_algorithm
 145 0076 00BF     		.section	.text.display,"ax",%progbits
 146              		.align	2
 147              		.thumb
 148              		.thumb_func
 149              		.type	display, %function
 150              	display:
 151              	.LFB71:
 859:Tests.c       **** static Menu_States_e display(bool on_enter){
 152              		.loc 1 859 0
 153              		.cfi_startproc
 154              		@ args = 0, pretend = 0, frame = 0
 155              		@ frame_needed = 0, uses_anonymous_args = 0
 156              	.LVL23:
 157 0000 70B5     		push	{r4, r5, r6, lr}
 158              		.cfi_def_cfa_offset 16
 159              		.cfi_offset 4, -16
 160              		.cfi_offset 5, -12
 161              		.cfi_offset 6, -8
 162              		.cfi_offset 14, -4
 863:Tests.c       ****     if(on_enter){
 163              		.loc 1 863 0
 164 0002 C0B1     		cbz	r0, .L16
 864:Tests.c       ****         index = 0;
 165              		.loc 1 864 0
 166 0004 294C     		ldr	r4, .L21
 167 0006 0025     		movs	r5, #0
 168 0008 2570     		strb	r5, [r4]
 865:Tests.c       ****         hold = true;
 169              		.loc 1 865 0
ARM GAS  C:\Users\HENRIC~1\AppData\Local\Temp\ccRPnI9G.s 			page 24


 170 000a 0126     		movs	r6, #1
 171 000c 6670     		strb	r6, [r4, #1]
 866:Tests.c       ****         LCD_ClearDisplay();
 172              		.loc 1 866 0
 173 000e 3046     		mov	r0, r6
 174              	.LVL24:
 175 0010 FFF7FEFF 		bl	LCD_WriteControl
 176              	.LVL25:
 867:Tests.c       ****         LCD_Position(0,0);
 177              		.loc 1 867 0
 178 0014 2946     		mov	r1, r5
 179 0016 2846     		mov	r0, r5
 180 0018 FFF7FEFF 		bl	LCD_Position
 181              	.LVL26:
 868:Tests.c       ****         LCD_PrintString("MENU:");
 182              		.loc 1 868 0
 183 001c 2448     		ldr	r0, .L21+4
 184 001e FFF7FEFF 		bl	LCD_PrintString
 185              	.LVL27:
 869:Tests.c       ****         LCD_Position(1,0);
 186              		.loc 1 869 0
 187 0022 2946     		mov	r1, r5
 188 0024 3046     		mov	r0, r6
 189 0026 FFF7FEFF 		bl	LCD_Position
 190              	.LVL28:
 870:Tests.c       ****         LCD_PrintString(MENU_OPTIONS_TAGS[index]);
 191              		.loc 1 870 0
 192 002a 2378     		ldrb	r3, [r4]	@ zero_extendqisi2
 193 002c 04EB8304 		add	r4, r4, r3, lsl #2
 194 0030 6068     		ldr	r0, [r4, #4]
 195 0032 FFF7FEFF 		bl	LCD_PrintString
 196              	.LVL29:
 197              	.L16:
 873:Tests.c       ****     bool iterate = CapSense_CheckIsWidgetActive(CapSense_LEFT__BTN);
 198              		.loc 1 873 0
 199 0036 0120     		movs	r0, #1
 200 0038 FFF7FEFF 		bl	CapSense_CheckIsWidgetActive
 201              	.LVL30:
 202 003c 0028     		cmp	r0, #0
 203 003e 14BF     		ite	ne
 204 0040 0124     		movne	r4, #1
 205 0042 0024     		moveq	r4, #0
 206              	.LVL31:
 874:Tests.c       ****     if(iterate && !hold){
 207              		.loc 1 874 0
 208 0044 24D0     		beq	.L17
 874:Tests.c       ****     if(iterate && !hold){
 209              		.loc 1 874 0 is_stmt 0 discriminator 1
 210 0046 194B     		ldr	r3, .L21
 211 0048 5B78     		ldrb	r3, [r3, #1]	@ zero_extendqisi2
 212 004a 0BBB     		cbnz	r3, .L17
 875:Tests.c       ****         index = (index + 1) % NUM_SELECTABLE_OPTIONS;
 213              		.loc 1 875 0 is_stmt 1
 214 004c 174D     		ldr	r5, .L21
 215 004e 2A78     		ldrb	r2, [r5]	@ zero_extendqisi2
 216 0050 0132     		adds	r2, r2, #1
 217 0052 A3F19933 		sub	r3, r3, #-1717986919
ARM GAS  C:\Users\HENRIC~1\AppData\Local\Temp\ccRPnI9G.s 			page 25


 218 0056 83FB0231 		smull	r3, r1, r3, r2
 219 005a D317     		asrs	r3, r2, #31
 220 005c C3EB6103 		rsb	r3, r3, r1, asr #1
 221 0060 03EB8303 		add	r3, r3, r3, lsl #2
 222 0064 D31A     		subs	r3, r2, r3
 223 0066 2B70     		strb	r3, [r5]
 876:Tests.c       ****         LCD_ClearDisplay();
 224              		.loc 1 876 0
 225 0068 0120     		movs	r0, #1
 226 006a FFF7FEFF 		bl	LCD_WriteControl
 227              	.LVL32:
 877:Tests.c       ****         LCD_Position(0,0);
 228              		.loc 1 877 0
 229 006e 0021     		movs	r1, #0
 230 0070 0846     		mov	r0, r1
 231 0072 FFF7FEFF 		bl	LCD_Position
 232              	.LVL33:
 878:Tests.c       ****         LCD_PrintString("MENU:");
 233              		.loc 1 878 0
 234 0076 0E48     		ldr	r0, .L21+4
 235 0078 FFF7FEFF 		bl	LCD_PrintString
 236              	.LVL34:
 879:Tests.c       ****         LCD_Position(1,0);
 237              		.loc 1 879 0
 238 007c 0021     		movs	r1, #0
 239 007e 0120     		movs	r0, #1
 240 0080 FFF7FEFF 		bl	LCD_Position
 241              	.LVL35:
 880:Tests.c       ****         LCD_PrintString(MENU_OPTIONS_TAGS[index]);
 242              		.loc 1 880 0
 243 0084 2B78     		ldrb	r3, [r5]	@ zero_extendqisi2
 244 0086 05EB8305 		add	r5, r5, r3, lsl #2
 245 008a 6868     		ldr	r0, [r5, #4]
 246 008c FFF7FEFF 		bl	LCD_PrintString
 247              	.LVL36:
 248              	.L17:
 882:Tests.c       ****     hold = iterate;
 249              		.loc 1 882 0
 250 0090 064B     		ldr	r3, .L21
 251 0092 5C70     		strb	r4, [r3, #1]
 884:Tests.c       ****     bool nextState = CapSense_CheckIsWidgetActive(CapSense_RIGHT__BTN);
 252              		.loc 1 884 0
 253 0094 0020     		movs	r0, #0
 254 0096 FFF7FEFF 		bl	CapSense_CheckIsWidgetActive
 255              	.LVL37:
 885:Tests.c       ****     Menu_States_e retval = (nextState) ? MENU_OPTIONS_LIST[index] : MENU_DISPLAY;
 256              		.loc 1 885 0
 257 009a 20B1     		cbz	r0, .L19
 885:Tests.c       ****     Menu_States_e retval = (nextState) ? MENU_OPTIONS_LIST[index] : MENU_DISPLAY;
 258              		.loc 1 885 0 is_stmt 0 discriminator 1
 259 009c 034A     		ldr	r2, .L21
 260 009e 1378     		ldrb	r3, [r2]	@ zero_extendqisi2
 261 00a0 1344     		add	r3, r3, r2
 262 00a2 187E     		ldrb	r0, [r3, #24]	@ zero_extendqisi2
 263              	.LVL38:
 264 00a4 70BD     		pop	{r4, r5, r6, pc}
 265              	.LVL39:
ARM GAS  C:\Users\HENRIC~1\AppData\Local\Temp\ccRPnI9G.s 			page 26


 266              	.L19:
 885:Tests.c       ****     Menu_States_e retval = (nextState) ? MENU_OPTIONS_LIST[index] : MENU_DISPLAY;
 267              		.loc 1 885 0
 268 00a6 0120     		movs	r0, #1
 269              	.LVL40:
 887:Tests.c       **** }
 270              		.loc 1 887 0 is_stmt 1
 271 00a8 70BD     		pop	{r4, r5, r6, pc}
 272              	.LVL41:
 273              	.L22:
 274 00aa 00BF     		.align	2
 275              	.L21:
 276 00ac 00000000 		.word	.LANCHOR0
 277 00b0 00000000 		.word	.LC6
 278              		.cfi_endproc
 279              	.LFE71:
 280              		.size	display, .-display
 281              		.section	.text.uart_mode,"ax",%progbits
 282              		.align	2
 283              		.thumb
 284              		.thumb_func
 285              		.type	uart_mode, %function
 286              	uart_mode:
 287              	.LFB72:
 894:Tests.c       **** static Menu_States_e uart_mode(bool on_enter){
 288              		.loc 1 894 0
 289              		.cfi_startproc
 290              		@ args = 0, pretend = 0, frame = 0
 291              		@ frame_needed = 0, uses_anonymous_args = 0
 292              	.LVL42:
 293 0000 F8B5     		push	{r3, r4, r5, r6, r7, lr}
 294              		.cfi_def_cfa_offset 24
 295              		.cfi_offset 3, -24
 296              		.cfi_offset 4, -20
 297              		.cfi_offset 5, -16
 298              		.cfi_offset 6, -12
 299              		.cfi_offset 7, -8
 300              		.cfi_offset 14, -4
 900:Tests.c       ****     if(on_enter){
 301              		.loc 1 900 0
 302 0002 98B1     		cbz	r0, .L24
 901:Tests.c       ****         memset(txStr,0,sizeof(txStr));
 303              		.loc 1 901 0
 304 0004 524D     		ldr	r5, .L37
 305 0006 2122     		movs	r2, #33
 306 0008 0021     		movs	r1, #0
 307 000a 05F12000 		add	r0, r5, #32
 308              	.LVL43:
 309 000e FFF7FEFF 		bl	memset
 310              	.LVL44:
 902:Tests.c       ****         txStr_index = 0;
 311              		.loc 1 902 0
 312 0012 0024     		movs	r4, #0
 313 0014 85F84140 		strb	r4, [r5, #65]
 904:Tests.c       ****         LCD_ClearDisplay();
 314              		.loc 1 904 0
 315 0018 0120     		movs	r0, #1
ARM GAS  C:\Users\HENRIC~1\AppData\Local\Temp\ccRPnI9G.s 			page 27


 316 001a FFF7FEFF 		bl	LCD_WriteControl
 317              	.LVL45:
 905:Tests.c       ****         LCD_Position(0,0);
 318              		.loc 1 905 0
 319 001e 2146     		mov	r1, r4
 320 0020 2046     		mov	r0, r4
 321 0022 FFF7FEFF 		bl	LCD_Position
 322              	.LVL46:
 906:Tests.c       ****         LCD_PrintString("UART:");
 323              		.loc 1 906 0
 324 0026 4B48     		ldr	r0, .L37+4
 325 0028 FFF7FEFF 		bl	LCD_PrintString
 326              	.LVL47:
 327              	.L24:
 909:Tests.c       ****     uart_update();
 328              		.loc 1 909 0
 329 002c FFF7FEFF 		bl	uart_update
 330              	.LVL48:
 911:Tests.c       ****     if(uart_has_data()){
 331              		.loc 1 911 0
 332 0030 FFF7FEFF 		bl	uart_has_data
 333              	.LVL49:
 334 0034 0028     		cmp	r0, #0
 335 0036 00F08380 		beq	.L25
 336              	.LBB2:
 912:Tests.c       ****         memset(buffer,'\0',sizeof(buffer));
 337              		.loc 1 912 0
 338 003a 454F     		ldr	r7, .L37
 339 003c 07F14406 		add	r6, r7, #68
 340 0040 4024     		movs	r4, #64
 341 0042 2246     		mov	r2, r4
 342 0044 0021     		movs	r1, #0
 343 0046 3046     		mov	r0, r6
 344 0048 FFF7FEFF 		bl	memset
 345              	.LVL50:
 913:Tests.c       ****         uint16_t numChar = uart_read(buffer,sizeof(buffer));
 346              		.loc 1 913 0
 347 004c 2146     		mov	r1, r4
 348 004e 3046     		mov	r0, r6
 349 0050 FFF7FEFF 		bl	uart_read
 350              	.LVL51:
 351 0054 0446     		mov	r4, r0
 352              	.LVL52:
 914:Tests.c       ****         uart_write(buffer,strlen(buffer));
 353              		.loc 1 914 0
 354 0056 3046     		mov	r0, r6
 355 0058 FFF7FEFF 		bl	strlen
 356              	.LVL53:
 357 005c 81B2     		uxth	r1, r0
 358 005e 3046     		mov	r0, r6
 359 0060 FFF7FEFF 		bl	uart_write
 360              	.LVL54:
 916:Tests.c       ****         LCD_ClearDisplay();
 361              		.loc 1 916 0
 362 0064 0120     		movs	r0, #1
 363 0066 FFF7FEFF 		bl	LCD_WriteControl
 364              	.LVL55:
ARM GAS  C:\Users\HENRIC~1\AppData\Local\Temp\ccRPnI9G.s 			page 28


 917:Tests.c       ****         LCD_Position(0,0);
 365              		.loc 1 917 0
 366 006a 0021     		movs	r1, #0
 367 006c 0846     		mov	r0, r1
 368 006e FFF7FEFF 		bl	LCD_Position
 369              	.LVL56:
 918:Tests.c       ****         LCD_PrintString("UART:");
 370              		.loc 1 918 0
 371 0072 3848     		ldr	r0, .L37+4
 372 0074 FFF7FEFF 		bl	LCD_PrintString
 373              	.LVL57:
 919:Tests.c       ****         LCD_Position(1,0);
 374              		.loc 1 919 0
 375 0078 0021     		movs	r1, #0
 376 007a 0120     		movs	r0, #1
 377 007c FFF7FEFF 		bl	LCD_Position
 378              	.LVL58:
 920:Tests.c       ****         memcpy(disp,buffer,15);
 379              		.loc 1 920 0
 380 0080 07F1840E 		add	lr, r7, #132
 381 0084 7546     		mov	r5, lr
 382 0086 96E80F00 		ldmia	r6, {r0, r1, r2, r3}
 383 008a 07C5     		stmia	r5!, {r0, r1, r2}
 384 008c 25F8023B 		strh	r3, [r5], #2	@ movhi
 385 0090 1B0C     		lsrs	r3, r3, #16
 386 0092 2B70     		strb	r3, [r5]
 921:Tests.c       ****         disp[15] = 0;
 387              		.loc 1 921 0
 388 0094 0025     		movs	r5, #0
 389 0096 87F89350 		strb	r5, [r7, #147]
 922:Tests.c       ****         LCD_PrintString(disp);
 390              		.loc 1 922 0
 391 009a 7046     		mov	r0, lr
 392 009c FFF7FEFF 		bl	LCD_PrintString
 393              	.LVL59:
 925:Tests.c       ****         uint8_t index = 0;
 394              		.loc 1 925 0
 395 00a0 2A46     		mov	r2, r5
 924:Tests.c       ****         bool nl_found = false;
 396              		.loc 1 924 0
 397 00a2 2846     		mov	r0, r5
 927:Tests.c       ****         while(!nl_found && txStr_index < (sizeof(txStr)-1) && index < numChar){
 398              		.loc 1 927 0
 399 00a4 18E0     		b	.L26
 400              	.LVL60:
 401              	.L31:
 928:Tests.c       ****             c = buffer[index];
 402              		.loc 1 928 0
 403 00a6 2A49     		ldr	r1, .L37
 404 00a8 1144     		add	r1, r1, r2
 405 00aa 91F84410 		ldrb	r1, [r1, #68]	@ zero_extendqisi2
 406              	.LVL61:
 929:Tests.c       ****             index++;
 407              		.loc 1 929 0
 408 00ae 0132     		adds	r2, r2, #1
 409              	.LVL62:
 410 00b0 D2B2     		uxtb	r2, r2
ARM GAS  C:\Users\HENRIC~1\AppData\Local\Temp\ccRPnI9G.s 			page 29


 411              	.LVL63:
 930:Tests.c       ****             if(c == '\n' || c == '\r'){
 412              		.loc 1 930 0
 413 00b2 0A29     		cmp	r1, #10
 414 00b4 01D0     		beq	.L27
 930:Tests.c       ****             if(c == '\n' || c == '\r'){
 415              		.loc 1 930 0 is_stmt 0 discriminator 1
 416 00b6 0D29     		cmp	r1, #13
 417 00b8 06D1     		bne	.L28
 418              	.L27:
 931:Tests.c       ****                 txStr[txStr_index] = '\0';
 419              		.loc 1 931 0 is_stmt 1
 420 00ba 2549     		ldr	r1, .L37
 421              	.LVL64:
 422 00bc 1944     		add	r1, r1, r3
 423 00be 0020     		movs	r0, #0
 424              	.LVL65:
 425 00c0 81F82000 		strb	r0, [r1, #32]
 426              	.LVL66:
 932:Tests.c       ****                 nl_found = true;
 427              		.loc 1 932 0
 428 00c4 0120     		movs	r0, #1
 429 00c6 03E0     		b	.L29
 430              	.LVL67:
 431              	.L28:
 934:Tests.c       ****                 txStr[txStr_index] = c;
 432              		.loc 1 934 0
 433 00c8 214D     		ldr	r5, .L37
 434 00ca 1D44     		add	r5, r5, r3
 435 00cc 85F82010 		strb	r1, [r5, #32]
 436              	.LVL68:
 437              	.L29:
 936:Tests.c       ****             txStr_index++;
 438              		.loc 1 936 0
 439 00d0 0133     		adds	r3, r3, #1
 440 00d2 1F49     		ldr	r1, .L37
 441 00d4 81F84130 		strb	r3, [r1, #65]
 442              	.LVL69:
 443              	.L26:
 927:Tests.c       ****         while(!nl_found && txStr_index < (sizeof(txStr)-1) && index < numChar){
 444              		.loc 1 927 0
 445 00d8 38B9     		cbnz	r0, .L30
 927:Tests.c       ****         while(!nl_found && txStr_index < (sizeof(txStr)-1) && index < numChar){
 446              		.loc 1 927 0 is_stmt 0 discriminator 1
 447 00da 1D4B     		ldr	r3, .L37
 448 00dc 93F84130 		ldrb	r3, [r3, #65]	@ zero_extendqisi2
 449 00e0 1F2B     		cmp	r3, #31
 450 00e2 02D8     		bhi	.L30
 927:Tests.c       ****         while(!nl_found && txStr_index < (sizeof(txStr)-1) && index < numChar){
 451              		.loc 1 927 0 discriminator 2
 452 00e4 91B2     		uxth	r1, r2
 453 00e6 8C42     		cmp	r4, r1
 454 00e8 DDD8     		bhi	.L31
 455              	.L30:
 940:Tests.c       ****         if(txStr_index >= (sizeof(txStr)-1)){
 456              		.loc 1 940 0 is_stmt 1
 457 00ea 194B     		ldr	r3, .L37
ARM GAS  C:\Users\HENRIC~1\AppData\Local\Temp\ccRPnI9G.s 			page 30


 458 00ec 93F84130 		ldrb	r3, [r3, #65]	@ zero_extendqisi2
 459 00f0 1F2B     		cmp	r3, #31
 460 00f2 04D9     		bls	.L32
 941:Tests.c       ****             txStr[32] = '\0';
 461              		.loc 1 941 0
 462 00f4 0022     		movs	r2, #0
 463              	.LVL70:
 464 00f6 164B     		ldr	r3, .L37
 465 00f8 83F84020 		strb	r2, [r3, #64]
 466              	.LVL71:
 942:Tests.c       ****             nl_found = true;
 467              		.loc 1 942 0
 468 00fc 0120     		movs	r0, #1
 469              	.LVL72:
 470              	.L32:
 946:Tests.c       ****         if(nl_found){
 471              		.loc 1 946 0
 472 00fe F8B1     		cbz	r0, .L25
 947:Tests.c       ****             txStr_index = 0;
 473              		.loc 1 947 0
 474 0100 134C     		ldr	r4, .L37
 475              	.LVL73:
 476 0102 0021     		movs	r1, #0
 477 0104 84F84110 		strb	r1, [r4, #65]
 948:Tests.c       ****             LCD_Position(1,0);
 478              		.loc 1 948 0
 479 0108 0120     		movs	r0, #1
 480              	.LVL74:
 481 010a FFF7FEFF 		bl	LCD_Position
 482              	.LVL75:
 949:Tests.c       ****             LCD_PrintString("Transmitting");
 483              		.loc 1 949 0
 484 010e 1248     		ldr	r0, .L37+8
 485 0110 FFF7FEFF 		bl	LCD_PrintString
 486              	.LVL76:
 950:Tests.c       ****             tx_write(txStr,strlen(txStr));
 487              		.loc 1 950 0
 488 0114 2034     		adds	r4, r4, #32
 489 0116 2046     		mov	r0, r4
 490 0118 FFF7FEFF 		bl	strlen
 491              	.LVL77:
 492 011c C1B2     		uxtb	r1, r0
 493 011e 2046     		mov	r0, r4
 494 0120 FFF7FEFF 		bl	tx_write
 495              	.LVL78:
 496              	.L33:
 951:Tests.c       ****             while(tx_get_status() != TX_DONE){/* Intentionally Empty */}
 497              		.loc 1 951 0 discriminator 1
 498 0124 FFF7FEFF 		bl	tx_get_status
 499              	.LVL79:
 500 0128 0328     		cmp	r0, #3
 501 012a FBD1     		bne	.L33
 952:Tests.c       ****             CyDelay(100);
 502              		.loc 1 952 0
 503 012c 6420     		movs	r0, #100
 504 012e FFF7FEFF 		bl	CyDelay
 505              	.LVL80:
ARM GAS  C:\Users\HENRIC~1\AppData\Local\Temp\ccRPnI9G.s 			page 31


 953:Tests.c       ****             LCD_Position(1,0);
 506              		.loc 1 953 0
 507 0132 0021     		movs	r1, #0
 508 0134 0120     		movs	r0, #1
 509 0136 FFF7FEFF 		bl	LCD_Position
 510              	.LVL81:
 954:Tests.c       ****             LCD_PrintString("            ");
 511              		.loc 1 954 0
 512 013a 0848     		ldr	r0, .L37+12
 513 013c FFF7FEFF 		bl	LCD_PrintString
 514              	.LVL82:
 515              	.L25:
 516              	.LBE2:
 958:Tests.c       ****     bool returnMenu = CapSense_CheckIsWidgetActive(CapSense_LEFT__BTN);
 517              		.loc 1 958 0
 518 0140 0120     		movs	r0, #1
 519 0142 FFF7FEFF 		bl	CapSense_CheckIsWidgetActive
 520              	.LVL83:
 959:Tests.c       ****     Menu_States_e retval = (returnMenu) ? MENU_DISPLAY : MENU_UART;
 521              		.loc 1 959 0
 522 0146 08B1     		cbz	r0, .L35
 523 0148 0120     		movs	r0, #1
 524              	.LVL84:
 525 014a F8BD     		pop	{r3, r4, r5, r6, r7, pc}
 526              	.LVL85:
 527              	.L35:
 528 014c 0220     		movs	r0, #2
 529              	.LVL86:
 961:Tests.c       **** }
 530              		.loc 1 961 0
 531 014e F8BD     		pop	{r3, r4, r5, r6, r7, pc}
 532              	.L38:
 533              		.align	2
 534              	.L37:
 535 0150 00000000 		.word	.LANCHOR0
 536 0154 08000000 		.word	.LC7
 537 0158 10000000 		.word	.LC8
 538 015c 20000000 		.word	.LC9
 539              		.cfi_endproc
 540              	.LFE72:
 541              		.size	uart_mode, .-uart_mode
 542              		.section	.text.nul_string_mode,"ax",%progbits
 543              		.align	2
 544              		.thumb
 545              		.thumb_func
 546              		.type	nul_string_mode, %function
 547              	nul_string_mode:
 548              	.LFB73:
 968:Tests.c       **** static Menu_States_e nul_string_mode(bool on_enter){
 549              		.loc 1 968 0
 550              		.cfi_startproc
 551              		@ args = 0, pretend = 0, frame = 8
 552              		@ frame_needed = 0, uses_anonymous_args = 0
 553              	.LVL87:
 554 0000 70B5     		push	{r4, r5, r6, lr}
 555              		.cfi_def_cfa_offset 16
 556              		.cfi_offset 4, -16
ARM GAS  C:\Users\HENRIC~1\AppData\Local\Temp\ccRPnI9G.s 			page 32


 557              		.cfi_offset 5, -12
 558              		.cfi_offset 6, -8
 559              		.cfi_offset 14, -4
 560 0002 82B0     		sub	sp, sp, #8
 561              		.cfi_def_cfa_offset 24
 562 0004 0646     		mov	r6, r0
 970:Tests.c       ****     bool active = CapSense_CheckIsWidgetActive(CapSense_RIGHT__BTN);
 563              		.loc 1 970 0
 564 0006 0020     		movs	r0, #0
 565              	.LVL88:
 566 0008 FFF7FEFF 		bl	CapSense_CheckIsWidgetActive
 567              	.LVL89:
 568 000c 0546     		mov	r5, r0
 569 000e 041C     		adds	r4, r0, #0
 570 0010 18BF     		it	ne
 571 0012 0124     		movne	r4, #1
 572              	.LVL90:
 972:Tests.c       ****     if(on_enter){
 573              		.loc 1 972 0
 574 0014 66B1     		cbz	r6, .L40
 973:Tests.c       ****         hold = true;
 575              		.loc 1 973 0
 576 0016 0120     		movs	r0, #1
 577 0018 1C4B     		ldr	r3, .L46
 578 001a 83F89400 		strb	r0, [r3, #148]
 974:Tests.c       ****         LCD_ClearDisplay();
 579              		.loc 1 974 0
 580 001e FFF7FEFF 		bl	LCD_WriteControl
 581              	.LVL91:
 975:Tests.c       ****         LCD_Position(0,0);
 582              		.loc 1 975 0
 583 0022 0021     		movs	r1, #0
 584 0024 0846     		mov	r0, r1
 585 0026 FFF7FEFF 		bl	LCD_Position
 586              	.LVL92:
 976:Tests.c       ****         LCD_PrintString("REPEAT 0x00:");
 587              		.loc 1 976 0
 588 002a 1948     		ldr	r0, .L46+4
 589 002c FFF7FEFF 		bl	LCD_PrintString
 590              	.LVL93:
 591              	.L40:
 979:Tests.c       ****     if(active && !hold){
 592              		.loc 1 979 0
 593 0030 FDB1     		cbz	r5, .L41
 979:Tests.c       ****     if(active && !hold){
 594              		.loc 1 979 0 is_stmt 0 discriminator 1
 595 0032 164B     		ldr	r3, .L46
 596 0034 93F89430 		ldrb	r3, [r3, #148]	@ zero_extendqisi2
 597 0038 DBB9     		cbnz	r3, .L41
 598              	.LBB3:
 980:Tests.c       ****         LCD_Position(1,0);
 599              		.loc 1 980 0 is_stmt 1
 600 003a 0021     		movs	r1, #0
 601 003c 0120     		movs	r0, #1
 602 003e FFF7FEFF 		bl	LCD_Position
 603              	.LVL94:
 981:Tests.c       ****         LCD_PrintString("Transmitting");
ARM GAS  C:\Users\HENRIC~1\AppData\Local\Temp\ccRPnI9G.s 			page 33


 604              		.loc 1 981 0
 605 0042 1448     		ldr	r0, .L46+8
 606 0044 FFF7FEFF 		bl	LCD_PrintString
 607              	.LVL95:
 982:Tests.c       ****         char buffer[] = { 0x00, 0x00, 0x00, 0x00 };
 608              		.loc 1 982 0
 609 0048 02A8     		add	r0, sp, #8
 610 004a 0023     		movs	r3, #0
 611 004c 40F8043D 		str	r3, [r0, #-4]!
 983:Tests.c       ****         tx_write(buffer,sizeof(buffer));
 612              		.loc 1 983 0
 613 0050 0421     		movs	r1, #4
 614 0052 FFF7FEFF 		bl	tx_write
 615              	.LVL96:
 616              	.L42:
 984:Tests.c       ****         while(tx_get_status() != TX_DONE){/*Intentionally Empty*/}
 617              		.loc 1 984 0 discriminator 1
 618 0056 FFF7FEFF 		bl	tx_get_status
 619              	.LVL97:
 620 005a 0328     		cmp	r0, #3
 621 005c FBD1     		bne	.L42
 985:Tests.c       ****         CyDelay(100);
 622              		.loc 1 985 0
 623 005e 6420     		movs	r0, #100
 624 0060 FFF7FEFF 		bl	CyDelay
 625              	.LVL98:
 986:Tests.c       ****         LCD_Position(1,0);
 626              		.loc 1 986 0
 627 0064 0021     		movs	r1, #0
 628 0066 0120     		movs	r0, #1
 629 0068 FFF7FEFF 		bl	LCD_Position
 630              	.LVL99:
 987:Tests.c       ****         LCD_PrintString("            ");
 631              		.loc 1 987 0
 632 006c 0A48     		ldr	r0, .L46+12
 633 006e FFF7FEFF 		bl	LCD_PrintString
 634              	.LVL100:
 635              	.L41:
 636              	.LBE3:
 989:Tests.c       ****     hold = active;
 637              		.loc 1 989 0
 638 0072 064B     		ldr	r3, .L46
 639 0074 83F89440 		strb	r4, [r3, #148]
 991:Tests.c       ****     bool returnMenu = CapSense_CheckIsWidgetActive(CapSense_LEFT__BTN);
 640              		.loc 1 991 0
 641 0078 0120     		movs	r0, #1
 642 007a FFF7FEFF 		bl	CapSense_CheckIsWidgetActive
 643              	.LVL101:
 992:Tests.c       ****     Menu_States_e retval = (returnMenu) ? MENU_DISPLAY : MENU_NUL;
 644              		.loc 1 992 0
 645 007e 08B1     		cbz	r0, .L44
 646 0080 0120     		movs	r0, #1
 647              	.LVL102:
 648 0082 00E0     		b	.L43
 649              	.LVL103:
 650              	.L44:
 651 0084 0320     		movs	r0, #3
ARM GAS  C:\Users\HENRIC~1\AppData\Local\Temp\ccRPnI9G.s 			page 34


 652              	.LVL104:
 653              	.L43:
 994:Tests.c       **** }
 654              		.loc 1 994 0 discriminator 4
 655 0086 02B0     		add	sp, sp, #8
 656              		.cfi_def_cfa_offset 16
 657              		@ sp needed
 658 0088 70BD     		pop	{r4, r5, r6, pc}
 659              	.LVL105:
 660              	.L47:
 661 008a 00BF     		.align	2
 662              	.L46:
 663 008c 00000000 		.word	.LANCHOR0
 664 0090 30000000 		.word	.LC10
 665 0094 10000000 		.word	.LC8
 666 0098 20000000 		.word	.LC9
 667              		.cfi_endproc
 668              	.LFE73:
 669              		.size	nul_string_mode, .-nul_string_mode
 670              		.section	.text.repeat_string_1_mode,"ax",%progbits
 671              		.align	2
 672              		.thumb
 673              		.thumb_func
 674              		.type	repeat_string_1_mode, %function
 675              	repeat_string_1_mode:
 676              	.LFB74:
1001:Tests.c       **** static Menu_States_e repeat_string_1_mode(bool on_enter){
 677              		.loc 1 1001 0
 678              		.cfi_startproc
 679              		@ args = 0, pretend = 0, frame = 8
 680              		@ frame_needed = 0, uses_anonymous_args = 0
 681              	.LVL106:
 682 0000 70B5     		push	{r4, r5, r6, lr}
 683              		.cfi_def_cfa_offset 16
 684              		.cfi_offset 4, -16
 685              		.cfi_offset 5, -12
 686              		.cfi_offset 6, -8
 687              		.cfi_offset 14, -4
 688 0002 82B0     		sub	sp, sp, #8
 689              		.cfi_def_cfa_offset 24
 690 0004 0646     		mov	r6, r0
1003:Tests.c       ****     bool active = CapSense_CheckIsWidgetActive(CapSense_RIGHT__BTN);
 691              		.loc 1 1003 0
 692 0006 0020     		movs	r0, #0
 693              	.LVL107:
 694 0008 FFF7FEFF 		bl	CapSense_CheckIsWidgetActive
 695              	.LVL108:
 696 000c 0546     		mov	r5, r0
 697 000e 041C     		adds	r4, r0, #0
 698 0010 18BF     		it	ne
 699 0012 0124     		movne	r4, #1
 700              	.LVL109:
1005:Tests.c       ****     if(on_enter){
 701              		.loc 1 1005 0
 702 0014 66B1     		cbz	r6, .L49
1006:Tests.c       ****         hold = true;
 703              		.loc 1 1006 0
ARM GAS  C:\Users\HENRIC~1\AppData\Local\Temp\ccRPnI9G.s 			page 35


 704 0016 0120     		movs	r0, #1
 705 0018 1C4B     		ldr	r3, .L55
 706 001a 83F89500 		strb	r0, [r3, #149]
1007:Tests.c       ****         LCD_ClearDisplay();
 707              		.loc 1 1007 0
 708 001e FFF7FEFF 		bl	LCD_WriteControl
 709              	.LVL110:
1008:Tests.c       ****         LCD_Position(0,0);
 710              		.loc 1 1008 0
 711 0022 0021     		movs	r1, #0
 712 0024 0846     		mov	r0, r1
 713 0026 FFF7FEFF 		bl	LCD_Position
 714              	.LVL111:
1009:Tests.c       ****         LCD_PrintString("REPEAT 0xAA:");
 715              		.loc 1 1009 0
 716 002a 1948     		ldr	r0, .L55+4
 717 002c FFF7FEFF 		bl	LCD_PrintString
 718              	.LVL112:
 719              	.L49:
1012:Tests.c       ****     if(active && !hold){
 720              		.loc 1 1012 0
 721 0030 05B3     		cbz	r5, .L50
1012:Tests.c       ****     if(active && !hold){
 722              		.loc 1 1012 0 is_stmt 0 discriminator 1
 723 0032 164B     		ldr	r3, .L55
 724 0034 93F89530 		ldrb	r3, [r3, #149]	@ zero_extendqisi2
 725 0038 E3B9     		cbnz	r3, .L50
 726              	.LBB4:
1013:Tests.c       ****         LCD_Position(1,0);
 727              		.loc 1 1013 0 is_stmt 1
 728 003a 0021     		movs	r1, #0
 729 003c 0120     		movs	r0, #1
 730 003e FFF7FEFF 		bl	LCD_Position
 731              	.LVL113:
1014:Tests.c       ****         LCD_PrintString("Transmitting");
 732              		.loc 1 1014 0
 733 0042 1448     		ldr	r0, .L55+8
 734 0044 FFF7FEFF 		bl	LCD_PrintString
 735              	.LVL114:
1015:Tests.c       ****         char buffer[] = { 0xAA, 0xAA, 0xAA, 0xAA };
 736              		.loc 1 1015 0
 737 0048 134B     		ldr	r3, .L55+12
 738 004a 1868     		ldr	r0, [r3]	@ unaligned
 739 004c 0190     		str	r0, [sp, #4]	@ unaligned
1016:Tests.c       ****         tx_write(buffer,sizeof(buffer));
 740              		.loc 1 1016 0
 741 004e 0421     		movs	r1, #4
 742 0050 0DEB0100 		add	r0, sp, r1
 743 0054 FFF7FEFF 		bl	tx_write
 744              	.LVL115:
 745              	.L51:
1017:Tests.c       ****         while(tx_get_status() != TX_DONE){/*Intentionally Empty*/}
 746              		.loc 1 1017 0 discriminator 1
 747 0058 FFF7FEFF 		bl	tx_get_status
 748              	.LVL116:
 749 005c 0328     		cmp	r0, #3
 750 005e FBD1     		bne	.L51
ARM GAS  C:\Users\HENRIC~1\AppData\Local\Temp\ccRPnI9G.s 			page 36


1018:Tests.c       ****         CyDelay(100);
 751              		.loc 1 1018 0
 752 0060 6420     		movs	r0, #100
 753 0062 FFF7FEFF 		bl	CyDelay
 754              	.LVL117:
1019:Tests.c       ****         LCD_Position(1,0);
 755              		.loc 1 1019 0
 756 0066 0021     		movs	r1, #0
 757 0068 0120     		movs	r0, #1
 758 006a FFF7FEFF 		bl	LCD_Position
 759              	.LVL118:
1020:Tests.c       ****         LCD_PrintString("            ");
 760              		.loc 1 1020 0
 761 006e 0B48     		ldr	r0, .L55+16
 762 0070 FFF7FEFF 		bl	LCD_PrintString
 763              	.LVL119:
 764              	.L50:
 765              	.LBE4:
1022:Tests.c       ****     hold = active;
 766              		.loc 1 1022 0
 767 0074 054B     		ldr	r3, .L55
 768 0076 83F89540 		strb	r4, [r3, #149]
1024:Tests.c       ****     bool returnMenu = CapSense_CheckIsWidgetActive(CapSense_LEFT__BTN);
 769              		.loc 1 1024 0
 770 007a 0120     		movs	r0, #1
 771 007c FFF7FEFF 		bl	CapSense_CheckIsWidgetActive
 772              	.LVL120:
1025:Tests.c       ****     Menu_States_e retval = (returnMenu) ? MENU_DISPLAY : MENU_REPEAT_1;
 773              		.loc 1 1025 0
 774 0080 08B1     		cbz	r0, .L53
 775 0082 0120     		movs	r0, #1
 776              	.LVL121:
 777 0084 00E0     		b	.L52
 778              	.LVL122:
 779              	.L53:
 780 0086 0420     		movs	r0, #4
 781              	.LVL123:
 782              	.L52:
1027:Tests.c       **** }
 783              		.loc 1 1027 0 discriminator 4
 784 0088 02B0     		add	sp, sp, #8
 785              		.cfi_def_cfa_offset 16
 786              		@ sp needed
 787 008a 70BD     		pop	{r4, r5, r6, pc}
 788              	.LVL124:
 789              	.L56:
 790              		.align	2
 791              	.L55:
 792 008c 00000000 		.word	.LANCHOR0
 793 0090 40000000 		.word	.LC11
 794 0094 10000000 		.word	.LC8
 795 0098 00000000 		.word	.LANCHOR1
 796 009c 20000000 		.word	.LC9
 797              		.cfi_endproc
 798              	.LFE74:
 799              		.size	repeat_string_1_mode, .-repeat_string_1_mode
 800              		.section	.text.repeat_string_2_mode,"ax",%progbits
ARM GAS  C:\Users\HENRIC~1\AppData\Local\Temp\ccRPnI9G.s 			page 37


 801              		.align	2
 802              		.thumb
 803              		.thumb_func
 804              		.type	repeat_string_2_mode, %function
 805              	repeat_string_2_mode:
 806              	.LFB75:
1034:Tests.c       **** static Menu_States_e repeat_string_2_mode(bool on_enter){
 807              		.loc 1 1034 0
 808              		.cfi_startproc
 809              		@ args = 0, pretend = 0, frame = 8
 810              		@ frame_needed = 0, uses_anonymous_args = 0
 811              	.LVL125:
 812 0000 70B5     		push	{r4, r5, r6, lr}
 813              		.cfi_def_cfa_offset 16
 814              		.cfi_offset 4, -16
 815              		.cfi_offset 5, -12
 816              		.cfi_offset 6, -8
 817              		.cfi_offset 14, -4
 818 0002 82B0     		sub	sp, sp, #8
 819              		.cfi_def_cfa_offset 24
 820 0004 0646     		mov	r6, r0
1036:Tests.c       ****     bool active = CapSense_CheckIsWidgetActive(CapSense_RIGHT__BTN);
 821              		.loc 1 1036 0
 822 0006 0020     		movs	r0, #0
 823              	.LVL126:
 824 0008 FFF7FEFF 		bl	CapSense_CheckIsWidgetActive
 825              	.LVL127:
 826 000c 0546     		mov	r5, r0
 827 000e 041C     		adds	r4, r0, #0
 828 0010 18BF     		it	ne
 829 0012 0124     		movne	r4, #1
 830              	.LVL128:
1038:Tests.c       ****     if(on_enter){
 831              		.loc 1 1038 0
 832 0014 66B1     		cbz	r6, .L58
1039:Tests.c       ****         hold = true;
 833              		.loc 1 1039 0
 834 0016 0120     		movs	r0, #1
 835 0018 1C4B     		ldr	r3, .L64
 836 001a 83F89600 		strb	r0, [r3, #150]
1040:Tests.c       ****         LCD_ClearDisplay();
 837              		.loc 1 1040 0
 838 001e FFF7FEFF 		bl	LCD_WriteControl
 839              	.LVL129:
1041:Tests.c       ****         LCD_Position(0,0);
 840              		.loc 1 1041 0
 841 0022 0021     		movs	r1, #0
 842 0024 0846     		mov	r0, r1
 843 0026 FFF7FEFF 		bl	LCD_Position
 844              	.LVL130:
1042:Tests.c       ****         LCD_PrintString("REPEAT 0x55:");
 845              		.loc 1 1042 0
 846 002a 1948     		ldr	r0, .L64+4
 847 002c FFF7FEFF 		bl	LCD_PrintString
 848              	.LVL131:
 849              	.L58:
1045:Tests.c       ****     if(active && !hold){
ARM GAS  C:\Users\HENRIC~1\AppData\Local\Temp\ccRPnI9G.s 			page 38


 850              		.loc 1 1045 0
 851 0030 05B3     		cbz	r5, .L59
1045:Tests.c       ****     if(active && !hold){
 852              		.loc 1 1045 0 is_stmt 0 discriminator 1
 853 0032 164B     		ldr	r3, .L64
 854 0034 93F89630 		ldrb	r3, [r3, #150]	@ zero_extendqisi2
 855 0038 E3B9     		cbnz	r3, .L59
 856              	.LBB5:
1046:Tests.c       ****         LCD_Position(1,0);
 857              		.loc 1 1046 0 is_stmt 1
 858 003a 0021     		movs	r1, #0
 859 003c 0120     		movs	r0, #1
 860 003e FFF7FEFF 		bl	LCD_Position
 861              	.LVL132:
1047:Tests.c       ****         LCD_PrintString("Transmitting");
 862              		.loc 1 1047 0
 863 0042 1448     		ldr	r0, .L64+8
 864 0044 FFF7FEFF 		bl	LCD_PrintString
 865              	.LVL133:
1048:Tests.c       ****         char buffer[] = { 0x55, 0x55, 0x55, 0x55 };
 866              		.loc 1 1048 0
 867 0048 134B     		ldr	r3, .L64+12
 868 004a 1868     		ldr	r0, [r3]	@ unaligned
 869 004c 0190     		str	r0, [sp, #4]	@ unaligned
1049:Tests.c       ****         tx_write(buffer,sizeof(buffer));
 870              		.loc 1 1049 0
 871 004e 0421     		movs	r1, #4
 872 0050 0DEB0100 		add	r0, sp, r1
 873 0054 FFF7FEFF 		bl	tx_write
 874              	.LVL134:
 875              	.L60:
1050:Tests.c       ****         while(tx_get_status() != TX_DONE){/*Intentionally Empty*/}
 876              		.loc 1 1050 0 discriminator 1
 877 0058 FFF7FEFF 		bl	tx_get_status
 878              	.LVL135:
 879 005c 0328     		cmp	r0, #3
 880 005e FBD1     		bne	.L60
1051:Tests.c       ****         CyDelay(100);
 881              		.loc 1 1051 0
 882 0060 6420     		movs	r0, #100
 883 0062 FFF7FEFF 		bl	CyDelay
 884              	.LVL136:
1052:Tests.c       ****         LCD_Position(1,0);
 885              		.loc 1 1052 0
 886 0066 0021     		movs	r1, #0
 887 0068 0120     		movs	r0, #1
 888 006a FFF7FEFF 		bl	LCD_Position
 889              	.LVL137:
1053:Tests.c       ****         LCD_PrintString("            ");
 890              		.loc 1 1053 0
 891 006e 0B48     		ldr	r0, .L64+16
 892 0070 FFF7FEFF 		bl	LCD_PrintString
 893              	.LVL138:
 894              	.L59:
 895              	.LBE5:
1055:Tests.c       ****     hold = active;
 896              		.loc 1 1055 0
ARM GAS  C:\Users\HENRIC~1\AppData\Local\Temp\ccRPnI9G.s 			page 39


 897 0074 054B     		ldr	r3, .L64
 898 0076 83F89640 		strb	r4, [r3, #150]
1057:Tests.c       ****     bool returnMenu = CapSense_CheckIsWidgetActive(CapSense_LEFT__BTN);
 899              		.loc 1 1057 0
 900 007a 0120     		movs	r0, #1
 901 007c FFF7FEFF 		bl	CapSense_CheckIsWidgetActive
 902              	.LVL139:
1058:Tests.c       ****     Menu_States_e retval = (returnMenu) ? MENU_DISPLAY : MENU_REPEAT_2;
 903              		.loc 1 1058 0
 904 0080 08B1     		cbz	r0, .L62
 905 0082 0120     		movs	r0, #1
 906              	.LVL140:
 907 0084 00E0     		b	.L61
 908              	.LVL141:
 909              	.L62:
 910 0086 0520     		movs	r0, #5
 911              	.LVL142:
 912              	.L61:
1060:Tests.c       **** }
 913              		.loc 1 1060 0 discriminator 4
 914 0088 02B0     		add	sp, sp, #8
 915              		.cfi_def_cfa_offset 16
 916              		@ sp needed
 917 008a 70BD     		pop	{r4, r5, r6, pc}
 918              	.LVL143:
 919              	.L65:
 920              		.align	2
 921              	.L64:
 922 008c 00000000 		.word	.LANCHOR0
 923 0090 50000000 		.word	.LC12
 924 0094 10000000 		.word	.LC8
 925 0098 04000000 		.word	.LANCHOR1+4
 926 009c 20000000 		.word	.LC9
 927              		.cfi_endproc
 928              	.LFE75:
 929              		.size	repeat_string_2_mode, .-repeat_string_2_mode
 930              		.section	.text.ones_mode,"ax",%progbits
 931              		.align	2
 932              		.thumb
 933              		.thumb_func
 934              		.type	ones_mode, %function
 935              	ones_mode:
 936              	.LFB76:
1067:Tests.c       **** static Menu_States_e ones_mode(bool on_enter){
 937              		.loc 1 1067 0
 938              		.cfi_startproc
 939              		@ args = 0, pretend = 0, frame = 8
 940              		@ frame_needed = 0, uses_anonymous_args = 0
 941              	.LVL144:
 942 0000 70B5     		push	{r4, r5, r6, lr}
 943              		.cfi_def_cfa_offset 16
 944              		.cfi_offset 4, -16
 945              		.cfi_offset 5, -12
 946              		.cfi_offset 6, -8
 947              		.cfi_offset 14, -4
 948 0002 82B0     		sub	sp, sp, #8
 949              		.cfi_def_cfa_offset 24
ARM GAS  C:\Users\HENRIC~1\AppData\Local\Temp\ccRPnI9G.s 			page 40


 950 0004 0646     		mov	r6, r0
1069:Tests.c       ****     bool active = CapSense_CheckIsWidgetActive(CapSense_RIGHT__BTN);
 951              		.loc 1 1069 0
 952 0006 0020     		movs	r0, #0
 953              	.LVL145:
 954 0008 FFF7FEFF 		bl	CapSense_CheckIsWidgetActive
 955              	.LVL146:
 956 000c 0546     		mov	r5, r0
 957 000e 041C     		adds	r4, r0, #0
 958 0010 18BF     		it	ne
 959 0012 0124     		movne	r4, #1
 960              	.LVL147:
1071:Tests.c       ****     if(on_enter){
 961              		.loc 1 1071 0
 962 0014 66B1     		cbz	r6, .L67
1072:Tests.c       ****         hold = true;
 963              		.loc 1 1072 0
 964 0016 0120     		movs	r0, #1
 965 0018 1C4B     		ldr	r3, .L73
 966 001a 83F89700 		strb	r0, [r3, #151]
1073:Tests.c       ****         LCD_ClearDisplay();
 967              		.loc 1 1073 0
 968 001e FFF7FEFF 		bl	LCD_WriteControl
 969              	.LVL148:
1074:Tests.c       ****         LCD_Position(0,0);
 970              		.loc 1 1074 0
 971 0022 0021     		movs	r1, #0
 972 0024 0846     		mov	r0, r1
 973 0026 FFF7FEFF 		bl	LCD_Position
 974              	.LVL149:
1075:Tests.c       ****         LCD_PrintString("REPEAT 0xFF:");
 975              		.loc 1 1075 0
 976 002a 1948     		ldr	r0, .L73+4
 977 002c FFF7FEFF 		bl	LCD_PrintString
 978              	.LVL150:
 979              	.L67:
1078:Tests.c       ****     if(active && !hold){
 980              		.loc 1 1078 0
 981 0030 05B3     		cbz	r5, .L68
1078:Tests.c       ****     if(active && !hold){
 982              		.loc 1 1078 0 is_stmt 0 discriminator 1
 983 0032 164B     		ldr	r3, .L73
 984 0034 93F89730 		ldrb	r3, [r3, #151]	@ zero_extendqisi2
 985 0038 E3B9     		cbnz	r3, .L68
 986              	.LBB6:
1079:Tests.c       ****         LCD_Position(1,0);
 987              		.loc 1 1079 0 is_stmt 1
 988 003a 0021     		movs	r1, #0
 989 003c 0120     		movs	r0, #1
 990 003e FFF7FEFF 		bl	LCD_Position
 991              	.LVL151:
1080:Tests.c       ****         LCD_PrintString("Transmitting");
 992              		.loc 1 1080 0
 993 0042 1448     		ldr	r0, .L73+8
 994 0044 FFF7FEFF 		bl	LCD_PrintString
 995              	.LVL152:
1081:Tests.c       ****         char buffer[] = { 0xFF, 0xFF, 0xFF, 0xFF };
ARM GAS  C:\Users\HENRIC~1\AppData\Local\Temp\ccRPnI9G.s 			page 41


 996              		.loc 1 1081 0
 997 0048 134B     		ldr	r3, .L73+12
 998 004a 1868     		ldr	r0, [r3]	@ unaligned
 999 004c 0190     		str	r0, [sp, #4]	@ unaligned
1082:Tests.c       ****         tx_write(buffer,sizeof(buffer));
 1000              		.loc 1 1082 0
 1001 004e 0421     		movs	r1, #4
 1002 0050 0DEB0100 		add	r0, sp, r1
 1003 0054 FFF7FEFF 		bl	tx_write
 1004              	.LVL153:
 1005              	.L69:
1083:Tests.c       ****         while(tx_get_status() != TX_DONE){/*Intentionally Empty*/}
 1006              		.loc 1 1083 0 discriminator 1
 1007 0058 FFF7FEFF 		bl	tx_get_status
 1008              	.LVL154:
 1009 005c 0328     		cmp	r0, #3
 1010 005e FBD1     		bne	.L69
1084:Tests.c       ****         CyDelay(100);
 1011              		.loc 1 1084 0
 1012 0060 6420     		movs	r0, #100
 1013 0062 FFF7FEFF 		bl	CyDelay
 1014              	.LVL155:
1085:Tests.c       ****         LCD_Position(1,0);
 1015              		.loc 1 1085 0
 1016 0066 0021     		movs	r1, #0
 1017 0068 0120     		movs	r0, #1
 1018 006a FFF7FEFF 		bl	LCD_Position
 1019              	.LVL156:
1086:Tests.c       ****         LCD_PrintString("            ");
 1020              		.loc 1 1086 0
 1021 006e 0B48     		ldr	r0, .L73+16
 1022 0070 FFF7FEFF 		bl	LCD_PrintString
 1023              	.LVL157:
 1024              	.L68:
 1025              	.LBE6:
1088:Tests.c       ****     hold = active;
 1026              		.loc 1 1088 0
 1027 0074 054B     		ldr	r3, .L73
 1028 0076 83F89740 		strb	r4, [r3, #151]
1090:Tests.c       ****     bool returnMenu = CapSense_CheckIsWidgetActive(CapSense_LEFT__BTN);
 1029              		.loc 1 1090 0
 1030 007a 0120     		movs	r0, #1
 1031 007c FFF7FEFF 		bl	CapSense_CheckIsWidgetActive
 1032              	.LVL158:
1091:Tests.c       ****     Menu_States_e retval = (returnMenu) ? MENU_DISPLAY : MENU_ONES;
 1033              		.loc 1 1091 0
 1034 0080 08B1     		cbz	r0, .L71
 1035 0082 0120     		movs	r0, #1
 1036              	.LVL159:
 1037 0084 00E0     		b	.L70
 1038              	.LVL160:
 1039              	.L71:
 1040 0086 0620     		movs	r0, #6
 1041              	.LVL161:
 1042              	.L70:
1093:Tests.c       **** }
 1043              		.loc 1 1093 0 discriminator 4
ARM GAS  C:\Users\HENRIC~1\AppData\Local\Temp\ccRPnI9G.s 			page 42


 1044 0088 02B0     		add	sp, sp, #8
 1045              		.cfi_def_cfa_offset 16
 1046              		@ sp needed
 1047 008a 70BD     		pop	{r4, r5, r6, pc}
 1048              	.LVL162:
 1049              	.L74:
 1050              		.align	2
 1051              	.L73:
 1052 008c 00000000 		.word	.LANCHOR0
 1053 0090 60000000 		.word	.LC13
 1054 0094 10000000 		.word	.LC8
 1055 0098 08000000 		.word	.LANCHOR1+8
 1056 009c 20000000 		.word	.LC9
 1057              		.cfi_endproc
 1058              	.LFE76:
 1059              		.size	ones_mode, .-ones_mode
 1060              		.section	.text.tests_week3,"ax",%progbits
 1061              		.align	2
 1062              		.global	tests_week3
 1063              		.thumb
 1064              		.thumb_func
 1065              		.type	tests_week3, %function
 1066              	tests_week3:
 1067              	.LFB65:
 170:Tests.c       **** void tests_week3(void){
 1068              		.loc 1 170 0
 1069              		.cfi_startproc
 1070              		@ args = 0, pretend = 0, frame = 0
 1071              		@ frame_needed = 0, uses_anonymous_args = 0
 1072 0000 38B5     		push	{r3, r4, r5, lr}
 1073              		.cfi_def_cfa_offset 16
 1074              		.cfi_offset 3, -16
 1075              		.cfi_offset 4, -12
 1076              		.cfi_offset 5, -8
 1077              		.cfi_offset 14, -4
 171:Tests.c       ****     csma_bus_init();
 1078              		.loc 1 171 0
 1079 0002 FFF7FEFF 		bl	csma_bus_init
 1080              	.LVL163:
 172:Tests.c       ****     cm_init();
 1081              		.loc 1 172 0
 1082 0006 FFF7FEFF 		bl	cm_init
 1083              	.LVL164:
 173:Tests.c       ****     tx_init();
 1084              		.loc 1 173 0
 1085 000a FFF7FEFF 		bl	tx_init
 1086              	.LVL165:
 174:Tests.c       ****     rx_init();
 1087              		.loc 1 174 0
 1088 000e FFF7FEFF 		bl	rx_init
 1089              	.LVL166:
 176:Tests.c       ****     CM_State_e ch_state = cm_get_bus_state();
 1090              		.loc 1 176 0
 1091 0012 FFF7FEFF 		bl	cm_get_bus_state
 1092              	.LVL167:
 178:Tests.c       ****     uint8_t state_trig = 0;
 1093              		.loc 1 178 0
ARM GAS  C:\Users\HENRIC~1\AppData\Local\Temp\ccRPnI9G.s 			page 43


 1094 0016 0024     		movs	r4, #0
 1095              	.LVL168:
 1096              	.L82:
 182:Tests.c       ****         ch_state = cm_get_bus_state();
 1097              		.loc 1 182 0
 1098 0018 FFF7FEFF 		bl	cm_get_bus_state
 1099              	.LVL169:
 183:Tests.c       ****         switch(ch_state){
 1100              		.loc 1 183 0
 1101 001c 0328     		cmp	r0, #3
 1102 001e 09D8     		bhi	.L76
 1103 0020 DFE800F0 		tbb	[pc, r0]
 1104              	.L78:
 1105 0024 02       		.byte	(.L77-.L78)/2
 1106 0025 0A       		.byte	(.L83-.L78)/2
 1107 0026 04       		.byte	(.L80-.L78)/2
 1108 0027 06       		.byte	(.L81-.L78)/2
 1109              		.p2align 1
 1110              	.L77:
 185:Tests.c       ****                 str = "INIT";
 1111              		.loc 1 185 0
 1112 0028 104D     		ldr	r5, .L85
 1113 002a 06E0     		b	.L79
 1114              	.L80:
 1115              	.LVL170:
 191:Tests.c       ****                 str = "BUSY";
 1116              		.loc 1 191 0
 1117 002c 104D     		ldr	r5, .L85+4
 192:Tests.c       ****                 break;
 1118              		.loc 1 192 0
 1119 002e 04E0     		b	.L79
 1120              	.LVL171:
 1121              	.L81:
 194:Tests.c       ****                 str = "COLLISION";
 1122              		.loc 1 194 0
 1123 0030 104D     		ldr	r5, .L85+8
 195:Tests.c       ****                 break;
 1124              		.loc 1 195 0
 1125 0032 02E0     		b	.L79
 1126              	.LVL172:
 1127              	.L76:
 197:Tests.c       ****                 str = "";
 1128              		.loc 1 197 0
 1129 0034 104D     		ldr	r5, .L85+12
 198:Tests.c       ****                 break;
 1130              		.loc 1 198 0
 1131 0036 00E0     		b	.L79
 1132              	.LVL173:
 1133              	.L83:
 188:Tests.c       ****                 str = "IDLE";
 1134              		.loc 1 188 0
 1135 0038 104D     		ldr	r5, .L85+16
 1136              	.L79:
 1137              	.LVL174:
 201:Tests.c       ****         LCD_ClearDisplay();
 1138              		.loc 1 201 0
 1139 003a 0120     		movs	r0, #1
ARM GAS  C:\Users\HENRIC~1\AppData\Local\Temp\ccRPnI9G.s 			page 44


 1140              	.LVL175:
 1141 003c FFF7FEFF 		bl	LCD_WriteControl
 1142              	.LVL176:
 202:Tests.c       ****         LCD_Position(0,0);
 1143              		.loc 1 202 0
 1144 0040 0021     		movs	r1, #0
 1145 0042 0846     		mov	r0, r1
 1146 0044 FFF7FEFF 		bl	LCD_Position
 1147              	.LVL177:
 203:Tests.c       ****         LCD_PrintString(str);
 1148              		.loc 1 203 0
 1149 0048 2846     		mov	r0, r5
 1150 004a FFF7FEFF 		bl	LCD_PrintString
 1151              	.LVL178:
 204:Tests.c       ****         LCD_Position(1,0);
 1152              		.loc 1 204 0
 1153 004e 0021     		movs	r1, #0
 1154 0050 0120     		movs	r0, #1
 1155 0052 FFF7FEFF 		bl	LCD_Position
 1156              	.LVL179:
 205:Tests.c       ****         LCD_PrintHexUint8(state_trig);
 1157              		.loc 1 205 0
 1158 0056 2046     		mov	r0, r4
 1159 0058 FFF7FEFF 		bl	LCD_PrintInt8
 1160              	.LVL180:
 206:Tests.c       ****         state_trig |= CM_Test_State_Reg_Read();
 1161              		.loc 1 206 0
 1162 005c FFF7FEFF 		bl	CM_Test_State_Reg_Read
 1163              	.LVL181:
 1164 0060 2043     		orrs	r0, r0, r4
 1165 0062 C4B2     		uxtb	r4, r0
 1166              	.LVL182:
 207:Tests.c       ****         CyDelay(10);
 1167              		.loc 1 207 0
 1168 0064 0A20     		movs	r0, #10
 1169 0066 FFF7FEFF 		bl	CyDelay
 1170              	.LVL183:
 208:Tests.c       ****     }
 1171              		.loc 1 208 0
 1172 006a D5E7     		b	.L82
 1173              	.L86:
 1174              		.align	2
 1175              	.L85:
 1176 006c 70000000 		.word	.LC14
 1177 0070 80000000 		.word	.LC16
 1178 0074 88000000 		.word	.LC17
 1179 0078 94000000 		.word	.LC18
 1180 007c 78000000 		.word	.LC15
 1181              		.cfi_endproc
 1182              	.LFE65:
 1183              		.size	tests_week3, .-tests_week3
 1184              		.section	.text.tests_week5,"ax",%progbits
 1185              		.align	2
 1186              		.global	tests_week5
 1187              		.thumb
 1188              		.thumb_func
 1189              		.type	tests_week5, %function
ARM GAS  C:\Users\HENRIC~1\AppData\Local\Temp\ccRPnI9G.s 			page 45


 1190              	tests_week5:
 1191              	.LFB66:
 215:Tests.c       **** void tests_week5(void){
 1192              		.loc 1 215 0
 1193              		.cfi_startproc
 1194              		@ args = 0, pretend = 0, frame = 0
 1195              		@ frame_needed = 0, uses_anonymous_args = 0
 1196 0000 38B5     		push	{r3, r4, r5, lr}
 1197              		.cfi_def_cfa_offset 16
 1198              		.cfi_offset 3, -16
 1199              		.cfi_offset 4, -12
 1200              		.cfi_offset 5, -8
 1201              		.cfi_offset 14, -4
 216:Tests.c       ****     csma_bus_init();
 1202              		.loc 1 216 0
 1203 0002 FFF7FEFF 		bl	csma_bus_init
 1204              	.LVL184:
 217:Tests.c       ****     cm_init();
 1205              		.loc 1 217 0
 1206 0006 FFF7FEFF 		bl	cm_init
 1207              	.LVL185:
 218:Tests.c       ****     tx_init();
 1208              		.loc 1 218 0
 1209 000a FFF7FEFF 		bl	tx_init
 1210              	.LVL186:
 219:Tests.c       ****     rx_init();
 1211              		.loc 1 219 0
 1212 000e FFF7FEFF 		bl	rx_init
 1213              	.LVL187:
 221:Tests.c       ****     MENU_OPTIONS_LIST[0] = MENU_UART;
 1214              		.loc 1 221 0
 1215 0012 224B     		ldr	r3, .L100
 1216 0014 0222     		movs	r2, #2
 1217 0016 1A76     		strb	r2, [r3, #24]
 222:Tests.c       ****     MENU_OPTIONS_LIST[1] = MENU_NUL;
 1218              		.loc 1 222 0
 1219 0018 0322     		movs	r2, #3
 1220 001a 5A76     		strb	r2, [r3, #25]
 223:Tests.c       ****     MENU_OPTIONS_LIST[2] = MENU_REPEAT_1;
 1221              		.loc 1 223 0
 1222 001c 0422     		movs	r2, #4
 1223 001e 9A76     		strb	r2, [r3, #26]
 224:Tests.c       ****     MENU_OPTIONS_LIST[3] = MENU_REPEAT_2;
 1224              		.loc 1 224 0
 1225 0020 0522     		movs	r2, #5
 1226 0022 DA76     		strb	r2, [r3, #27]
 225:Tests.c       ****     MENU_OPTIONS_LIST[4] = MENU_ONES;
 1227              		.loc 1 225 0
 1228 0024 0622     		movs	r2, #6
 1229 0026 1A77     		strb	r2, [r3, #28]
 227:Tests.c       ****     MENU_OPTIONS_TAGS[0] = "UART";
 1230              		.loc 1 227 0
 1231 0028 1D4A     		ldr	r2, .L100+4
 1232 002a 5A60     		str	r2, [r3, #4]
 228:Tests.c       ****     MENU_OPTIONS_TAGS[1] = "REPEAT 0x00";
 1233              		.loc 1 228 0
 1234 002c 1D4A     		ldr	r2, .L100+8
ARM GAS  C:\Users\HENRIC~1\AppData\Local\Temp\ccRPnI9G.s 			page 46


 1235 002e 9A60     		str	r2, [r3, #8]
 229:Tests.c       ****     MENU_OPTIONS_TAGS[2] = "REPEAT 0xAA";
 1236              		.loc 1 229 0
 1237 0030 1D4A     		ldr	r2, .L100+12
 1238 0032 DA60     		str	r2, [r3, #12]
 230:Tests.c       ****     MENU_OPTIONS_TAGS[3] = "REPEAT 0x55";
 1239              		.loc 1 230 0
 1240 0034 1D4A     		ldr	r2, .L100+16
 1241 0036 1A61     		str	r2, [r3, #16]
 231:Tests.c       ****     MENU_OPTIONS_TAGS[4] = "REPEAT 0xFF";
 1242              		.loc 1 231 0
 1243 0038 1D4A     		ldr	r2, .L100+20
 1244 003a 5A61     		str	r2, [r3, #20]
 1245              	.LVL188:
 236:Tests.c       ****     bool on_enter = true;
 1246              		.loc 1 236 0
 1247 003c 0125     		movs	r5, #1
 234:Tests.c       ****     Menu_States_e curr_state = MENU_DISPLAY;
 1248              		.loc 1 234 0
 1249 003e 2C46     		mov	r4, r5
 1250              	.LVL189:
 1251              	.L97:
 240:Tests.c       ****         if(!CapSense_IsBusy()){
 1252              		.loc 1 240 0
 1253 0040 FFF7FEFF 		bl	CapSense_IsBusy
 1254              	.LVL190:
 1255 0044 18B9     		cbnz	r0, .L88
 241:Tests.c       ****             CapSense_UpdateEnabledBaselines();
 1256              		.loc 1 241 0
 1257 0046 FFF7FEFF 		bl	CapSense_UpdateEnabledBaselines
 1258              	.LVL191:
 242:Tests.c       ****             CapSense_ScanEnabledWidgets();
 1259              		.loc 1 242 0
 1260 004a FFF7FEFF 		bl	CapSense_ScanEnabledWidgets
 1261              	.LVL192:
 1262              	.L88:
 245:Tests.c       ****         switch(curr_state){
 1263              		.loc 1 245 0
 1264 004e 631E     		subs	r3, r4, #1
 1265 0050 052B     		cmp	r3, #5
 1266 0052 1CD8     		bhi	.L98
 1267 0054 DFE803F0 		tbb	[pc, r3]
 1268              	.L91:
 1269 0058 03       		.byte	(.L90-.L91)/2
 1270 0059 07       		.byte	(.L92-.L91)/2
 1271 005a 0B       		.byte	(.L93-.L91)/2
 1272 005b 0F       		.byte	(.L94-.L91)/2
 1273 005c 13       		.byte	(.L95-.L91)/2
 1274 005d 17       		.byte	(.L96-.L91)/2
 1275              		.p2align 1
 1276              	.L90:
 247:Tests.c       ****                 next_state = display(on_enter);
 1277              		.loc 1 247 0
 1278 005e 2846     		mov	r0, r5
 1279 0060 FFF7FEFF 		bl	display
 1280              	.LVL193:
 248:Tests.c       ****                 break;
ARM GAS  C:\Users\HENRIC~1\AppData\Local\Temp\ccRPnI9G.s 			page 47


 1281              		.loc 1 248 0
 1282 0064 14E0     		b	.L89
 1283              	.LVL194:
 1284              	.L92:
 250:Tests.c       ****                 next_state = uart_mode(on_enter);
 1285              		.loc 1 250 0
 1286 0066 2846     		mov	r0, r5
 1287 0068 FFF7FEFF 		bl	uart_mode
 1288              	.LVL195:
 251:Tests.c       ****                 break;
 1289              		.loc 1 251 0
 1290 006c 10E0     		b	.L89
 1291              	.LVL196:
 1292              	.L93:
 253:Tests.c       ****                 next_state = nul_string_mode(on_enter);
 1293              		.loc 1 253 0
 1294 006e 2846     		mov	r0, r5
 1295 0070 FFF7FEFF 		bl	nul_string_mode
 1296              	.LVL197:
 254:Tests.c       ****                 break;
 1297              		.loc 1 254 0
 1298 0074 0CE0     		b	.L89
 1299              	.LVL198:
 1300              	.L94:
 256:Tests.c       ****                 next_state = repeat_string_1_mode(on_enter);
 1301              		.loc 1 256 0
 1302 0076 2846     		mov	r0, r5
 1303 0078 FFF7FEFF 		bl	repeat_string_1_mode
 1304              	.LVL199:
 257:Tests.c       ****                 break;
 1305              		.loc 1 257 0
 1306 007c 08E0     		b	.L89
 1307              	.LVL200:
 1308              	.L95:
 259:Tests.c       ****                 next_state = repeat_string_2_mode(on_enter);
 1309              		.loc 1 259 0
 1310 007e 2846     		mov	r0, r5
 1311 0080 FFF7FEFF 		bl	repeat_string_2_mode
 1312              	.LVL201:
 260:Tests.c       ****                 break;
 1313              		.loc 1 260 0
 1314 0084 04E0     		b	.L89
 1315              	.LVL202:
 1316              	.L96:
 262:Tests.c       ****                 next_state = ones_mode(on_enter);
 1317              		.loc 1 262 0
 1318 0086 2846     		mov	r0, r5
 1319 0088 FFF7FEFF 		bl	ones_mode
 1320              	.LVL203:
 263:Tests.c       ****                 break;
 1321              		.loc 1 263 0
 1322 008c 00E0     		b	.L89
 1323              	.LVL204:
 1324              	.L98:
 265:Tests.c       ****                 next_state = MENU_DISPLAY;
 1325              		.loc 1 265 0
 1326 008e 0120     		movs	r0, #1
ARM GAS  C:\Users\HENRIC~1\AppData\Local\Temp\ccRPnI9G.s 			page 48


 1327              	.L89:
 1328              	.LVL205:
 269:Tests.c       ****         on_enter = (next_state != curr_state);
 1329              		.loc 1 269 0
 1330 0090 251A     		subs	r5, r4, r0
 1331              	.LVL206:
 1332 0092 18BF     		it	ne
 1333 0094 0125     		movne	r5, #1
 1334              	.LVL207:
 270:Tests.c       ****         curr_state = next_state;
 1335              		.loc 1 270 0
 1336 0096 0446     		mov	r4, r0
 271:Tests.c       ****     }
 1337              		.loc 1 271 0
 1338 0098 D2E7     		b	.L97
 1339              	.L101:
 1340 009a 00BF     		.align	2
 1341              	.L100:
 1342 009c 00000000 		.word	.LANCHOR0
 1343 00a0 98000000 		.word	.LC19
 1344 00a4 A0000000 		.word	.LC20
 1345 00a8 AC000000 		.word	.LC21
 1346 00ac B8000000 		.word	.LC22
 1347 00b0 C4000000 		.word	.LC23
 1348              		.cfi_endproc
 1349              	.LFE66:
 1350              		.size	tests_week5, .-tests_week5
 1351              		.section	.text.tests_week6,"ax",%progbits
 1352              		.align	2
 1353              		.global	tests_week6
 1354              		.thumb
 1355              		.thumb_func
 1356              		.type	tests_week6, %function
 1357              	tests_week6:
 1358              	.LFB67:
 278:Tests.c       **** void tests_week6(void){
 1359              		.loc 1 278 0
 1360              		.cfi_startproc
 1361              		@ args = 0, pretend = 0, frame = 0
 1362              		@ frame_needed = 0, uses_anonymous_args = 0
 1363 0000 F8B5     		push	{r3, r4, r5, r6, r7, lr}
 1364              		.cfi_def_cfa_offset 24
 1365              		.cfi_offset 3, -24
 1366              		.cfi_offset 4, -20
 1367              		.cfi_offset 5, -16
 1368              		.cfi_offset 6, -12
 1369              		.cfi_offset 7, -8
 1370              		.cfi_offset 14, -4
 279:Tests.c       ****     csma_bus_init();
 1371              		.loc 1 279 0
 1372 0002 FFF7FEFF 		bl	csma_bus_init
 1373              	.LVL208:
 280:Tests.c       ****     cm_init();
 1374              		.loc 1 280 0
 1375 0006 FFF7FEFF 		bl	cm_init
 1376              	.LVL209:
 281:Tests.c       ****     tx_init();
ARM GAS  C:\Users\HENRIC~1\AppData\Local\Temp\ccRPnI9G.s 			page 49


 1377              		.loc 1 281 0
 1378 000a FFF7FEFF 		bl	tx_init
 1379              	.LVL210:
 282:Tests.c       ****     rx_init();
 1380              		.loc 1 282 0
 1381 000e FFF7FEFF 		bl	rx_init
 1382              	.LVL211:
 289:Tests.c       ****     memset(txStr,0,sizeof(txStr));
 1383              		.loc 1 289 0
 1384 0012 4F4D     		ldr	r5, .L115
 1385 0014 2122     		movs	r2, #33
 1386 0016 0021     		movs	r1, #0
 1387 0018 05F19800 		add	r0, r5, #152
 1388 001c FFF7FEFF 		bl	memset
 1389              	.LVL212:
 290:Tests.c       ****     txStr_index = 0;
 1390              		.loc 1 290 0
 1391 0020 0024     		movs	r4, #0
 1392 0022 85F8B940 		strb	r4, [r5, #185]
 292:Tests.c       ****     LCD_ClearDisplay();
 1393              		.loc 1 292 0
 1394 0026 0120     		movs	r0, #1
 1395 0028 FFF7FEFF 		bl	LCD_WriteControl
 1396              	.LVL213:
 293:Tests.c       ****     LCD_Position(0,0);
 1397              		.loc 1 293 0
 1398 002c 2146     		mov	r1, r4
 1399 002e 2046     		mov	r0, r4
 1400 0030 FFF7FEFF 		bl	LCD_Position
 1401              	.LVL214:
 294:Tests.c       ****     LCD_PrintString("UART:");
 1402              		.loc 1 294 0
 1403 0034 4748     		ldr	r0, .L115+4
 1404 0036 FFF7FEFF 		bl	LCD_PrintString
 1405              	.LVL215:
 1406              	.L103:
 297:Tests.c       ****         uart_update();
 1407              		.loc 1 297 0
 1408 003a FFF7FEFF 		bl	uart_update
 1409              	.LVL216:
 299:Tests.c       ****         if(uart_has_data()){
 1410              		.loc 1 299 0
 1411 003e FFF7FEFF 		bl	uart_has_data
 1412              	.LVL217:
 1413 0042 0028     		cmp	r0, #0
 1414 0044 F9D0     		beq	.L103
 1415              	.LBB7:
 300:Tests.c       ****             memset(buffer,'\0',sizeof(buffer));
 1416              		.loc 1 300 0
 1417 0046 424F     		ldr	r7, .L115
 1418 0048 07F1BC06 		add	r6, r7, #188
 1419 004c 4024     		movs	r4, #64
 1420 004e 2246     		mov	r2, r4
 1421 0050 0021     		movs	r1, #0
 1422 0052 3046     		mov	r0, r6
 1423 0054 FFF7FEFF 		bl	memset
 1424              	.LVL218:
ARM GAS  C:\Users\HENRIC~1\AppData\Local\Temp\ccRPnI9G.s 			page 50


 301:Tests.c       ****             uint16_t numChar = uart_read(buffer,sizeof(buffer));
 1425              		.loc 1 301 0
 1426 0058 2146     		mov	r1, r4
 1427 005a 3046     		mov	r0, r6
 1428 005c FFF7FEFF 		bl	uart_read
 1429              	.LVL219:
 1430 0060 0446     		mov	r4, r0
 1431              	.LVL220:
 302:Tests.c       ****             uart_write(buffer,strlen(buffer));
 1432              		.loc 1 302 0
 1433 0062 3046     		mov	r0, r6
 1434 0064 FFF7FEFF 		bl	strlen
 1435              	.LVL221:
 1436 0068 81B2     		uxth	r1, r0
 1437 006a 3046     		mov	r0, r6
 1438 006c FFF7FEFF 		bl	uart_write
 1439              	.LVL222:
 304:Tests.c       ****             LCD_ClearDisplay();
 1440              		.loc 1 304 0
 1441 0070 0120     		movs	r0, #1
 1442 0072 FFF7FEFF 		bl	LCD_WriteControl
 1443              	.LVL223:
 305:Tests.c       ****             LCD_Position(0,0);
 1444              		.loc 1 305 0
 1445 0076 0021     		movs	r1, #0
 1446 0078 0846     		mov	r0, r1
 1447 007a FFF7FEFF 		bl	LCD_Position
 1448              	.LVL224:
 306:Tests.c       ****             LCD_PrintString("UART:");
 1449              		.loc 1 306 0
 1450 007e 3548     		ldr	r0, .L115+4
 1451 0080 FFF7FEFF 		bl	LCD_PrintString
 1452              	.LVL225:
 307:Tests.c       ****             LCD_Position(1,0);
 1453              		.loc 1 307 0
 1454 0084 0021     		movs	r1, #0
 1455 0086 0120     		movs	r0, #1
 1456 0088 FFF7FEFF 		bl	LCD_Position
 1457              	.LVL226:
 308:Tests.c       ****             memcpy(disp,buffer,15);
 1458              		.loc 1 308 0
 1459 008c 07F1FC0E 		add	lr, r7, #252
 1460 0090 7546     		mov	r5, lr
 1461 0092 96E80F00 		ldmia	r6, {r0, r1, r2, r3}
 1462 0096 07C5     		stmia	r5!, {r0, r1, r2}
 1463 0098 25F8023B 		strh	r3, [r5], #2	@ movhi
 1464 009c 1B0C     		lsrs	r3, r3, #16
 1465 009e 2B70     		strb	r3, [r5]
 309:Tests.c       ****             disp[15] = 0;
 1466              		.loc 1 309 0
 1467 00a0 0025     		movs	r5, #0
 1468 00a2 87F80B51 		strb	r5, [r7, #267]
 310:Tests.c       ****             LCD_PrintString(disp);
 1469              		.loc 1 310 0
 1470 00a6 7046     		mov	r0, lr
 1471 00a8 FFF7FEFF 		bl	LCD_PrintString
 1472              	.LVL227:
ARM GAS  C:\Users\HENRIC~1\AppData\Local\Temp\ccRPnI9G.s 			page 51


 313:Tests.c       ****             uint8_t index = 0;
 1473              		.loc 1 313 0
 1474 00ac 2B46     		mov	r3, r5
 315:Tests.c       ****             while(!nl_found && txStr_index < (sizeof(txStr)-1) && index < numChar){
 1475              		.loc 1 315 0
 1476 00ae 18E0     		b	.L104
 1477              	.LVL228:
 1478              	.L109:
 316:Tests.c       ****                 c = buffer[index];
 1479              		.loc 1 316 0
 1480 00b0 2749     		ldr	r1, .L115
 1481 00b2 1944     		add	r1, r1, r3
 1482 00b4 91F8BC10 		ldrb	r1, [r1, #188]	@ zero_extendqisi2
 1483              	.LVL229:
 317:Tests.c       ****                 index++;
 1484              		.loc 1 317 0
 1485 00b8 0133     		adds	r3, r3, #1
 1486              	.LVL230:
 1487 00ba DBB2     		uxtb	r3, r3
 1488              	.LVL231:
 318:Tests.c       ****                 if(c == '\n' || c == '\r'){
 1489              		.loc 1 318 0
 1490 00bc 0A29     		cmp	r1, #10
 1491 00be 01D0     		beq	.L105
 318:Tests.c       ****                 if(c == '\n' || c == '\r'){
 1492              		.loc 1 318 0 is_stmt 0 discriminator 1
 1493 00c0 0D29     		cmp	r1, #13
 1494 00c2 06D1     		bne	.L106
 1495              	.L105:
 319:Tests.c       ****                     txStr[txStr_index] = '\0';
 1496              		.loc 1 319 0 is_stmt 1
 1497 00c4 2249     		ldr	r1, .L115
 1498              	.LVL232:
 1499 00c6 1144     		add	r1, r1, r2
 1500 00c8 0020     		movs	r0, #0
 1501 00ca 81F89800 		strb	r0, [r1, #152]
 1502              	.LVL233:
 320:Tests.c       ****                     nl_found = true;
 1503              		.loc 1 320 0
 1504 00ce 0125     		movs	r5, #1
 1505 00d0 03E0     		b	.L107
 1506              	.LVL234:
 1507              	.L106:
 322:Tests.c       ****                     txStr[txStr_index] = c;
 1508              		.loc 1 322 0
 1509 00d2 1F48     		ldr	r0, .L115
 1510 00d4 1044     		add	r0, r0, r2
 1511 00d6 80F89810 		strb	r1, [r0, #152]
 1512              	.LVL235:
 1513              	.L107:
 324:Tests.c       ****                 txStr_index++;
 1514              		.loc 1 324 0
 1515 00da 0132     		adds	r2, r2, #1
 1516 00dc 1C49     		ldr	r1, .L115
 1517 00de 81F8B920 		strb	r2, [r1, #185]
 1518              	.LVL236:
 1519              	.L104:
ARM GAS  C:\Users\HENRIC~1\AppData\Local\Temp\ccRPnI9G.s 			page 52


 315:Tests.c       ****             while(!nl_found && txStr_index < (sizeof(txStr)-1) && index < numChar){
 1520              		.loc 1 315 0
 1521 00e2 3DB9     		cbnz	r5, .L108
 315:Tests.c       ****             while(!nl_found && txStr_index < (sizeof(txStr)-1) && index < numChar){
 1522              		.loc 1 315 0 is_stmt 0 discriminator 1
 1523 00e4 1A4A     		ldr	r2, .L115
 1524 00e6 92F8B920 		ldrb	r2, [r2, #185]	@ zero_extendqisi2
 1525 00ea 1F2A     		cmp	r2, #31
 1526 00ec 02D8     		bhi	.L108
 315:Tests.c       ****             while(!nl_found && txStr_index < (sizeof(txStr)-1) && index < numChar){
 1527              		.loc 1 315 0 discriminator 2
 1528 00ee 99B2     		uxth	r1, r3
 1529 00f0 8C42     		cmp	r4, r1
 1530 00f2 DDD8     		bhi	.L109
 1531              	.L108:
 328:Tests.c       ****             if(txStr_index >= (sizeof(txStr)-1)){
 1532              		.loc 1 328 0 is_stmt 1
 1533 00f4 164B     		ldr	r3, .L115
 1534              	.LVL237:
 1535 00f6 93F8B930 		ldrb	r3, [r3, #185]	@ zero_extendqisi2
 1536 00fa 1F2B     		cmp	r3, #31
 1537 00fc 04D9     		bls	.L110
 329:Tests.c       ****                 txStr[32] = '\0';
 1538              		.loc 1 329 0
 1539 00fe 0022     		movs	r2, #0
 1540 0100 134B     		ldr	r3, .L115
 1541 0102 83F8B820 		strb	r2, [r3, #184]
 1542              	.LVL238:
 330:Tests.c       ****                 nl_found = true;
 1543              		.loc 1 330 0
 1544 0106 0125     		movs	r5, #1
 1545              	.LVL239:
 1546              	.L110:
 334:Tests.c       ****             if(nl_found){
 1547              		.loc 1 334 0
 1548 0108 002D     		cmp	r5, #0
 1549 010a 96D0     		beq	.L103
 335:Tests.c       ****                 txStr_index = 0;
 1550              		.loc 1 335 0
 1551 010c 104C     		ldr	r4, .L115
 1552              	.LVL240:
 1553 010e 0021     		movs	r1, #0
 1554 0110 84F8B910 		strb	r1, [r4, #185]
 336:Tests.c       ****                 LCD_Position(1,0);
 1555              		.loc 1 336 0
 1556 0114 0120     		movs	r0, #1
 1557 0116 FFF7FEFF 		bl	LCD_Position
 1558              	.LVL241:
 337:Tests.c       ****                 LCD_PrintString("Transmitting");
 1559              		.loc 1 337 0
 1560 011a 0F48     		ldr	r0, .L115+8
 1561 011c FFF7FEFF 		bl	LCD_PrintString
 1562              	.LVL242:
 338:Tests.c       ****                 tx_write(txStr,strlen(txStr));
 1563              		.loc 1 338 0
 1564 0120 9834     		adds	r4, r4, #152
 1565 0122 2046     		mov	r0, r4
ARM GAS  C:\Users\HENRIC~1\AppData\Local\Temp\ccRPnI9G.s 			page 53


 1566 0124 FFF7FEFF 		bl	strlen
 1567              	.LVL243:
 1568 0128 C1B2     		uxtb	r1, r0
 1569 012a 2046     		mov	r0, r4
 1570 012c FFF7FEFF 		bl	tx_write
 1571              	.LVL244:
 1572              	.L112:
 339:Tests.c       ****                 while(tx_get_status() != TX_DONE){/*Intentionally Empty*/}
 1573              		.loc 1 339 0 discriminator 1
 1574 0130 FFF7FEFF 		bl	tx_get_status
 1575              	.LVL245:
 1576 0134 0328     		cmp	r0, #3
 1577 0136 FBD1     		bne	.L112
 340:Tests.c       ****                 CyDelay(100);
 1578              		.loc 1 340 0
 1579 0138 6420     		movs	r0, #100
 1580 013a FFF7FEFF 		bl	CyDelay
 1581              	.LVL246:
 341:Tests.c       ****                 LCD_Position(1,0);
 1582              		.loc 1 341 0
 1583 013e 0021     		movs	r1, #0
 1584 0140 0120     		movs	r0, #1
 1585 0142 FFF7FEFF 		bl	LCD_Position
 1586              	.LVL247:
 342:Tests.c       ****                 LCD_PrintString("            ");
 1587              		.loc 1 342 0
 1588 0146 0548     		ldr	r0, .L115+12
 1589 0148 FFF7FEFF 		bl	LCD_PrintString
 1590              	.LVL248:
 1591 014c 75E7     		b	.L103
 1592              	.L116:
 1593 014e 00BF     		.align	2
 1594              	.L115:
 1595 0150 00000000 		.word	.LANCHOR0
 1596 0154 08000000 		.word	.LC7
 1597 0158 10000000 		.word	.LC8
 1598 015c 20000000 		.word	.LC9
 1599              	.LBE7:
 1600              		.cfi_endproc
 1601              	.LFE67:
 1602              		.size	tests_week6, .-tests_week6
 1603              		.section	.text.tests_week8,"ax",%progbits
 1604              		.align	2
 1605              		.global	tests_week8
 1606              		.thumb
 1607              		.thumb_func
 1608              		.type	tests_week8, %function
 1609              	tests_week8:
 1610              	.LFB68:
 352:Tests.c       **** void tests_week8(void){
 1611              		.loc 1 352 0
 1612              		.cfi_startproc
 1613              		@ args = 0, pretend = 0, frame = 88
 1614              		@ frame_needed = 0, uses_anonymous_args = 0
 1615 0000 30B5     		push	{r4, r5, lr}
 1616              		.cfi_def_cfa_offset 12
 1617              		.cfi_offset 4, -12
ARM GAS  C:\Users\HENRIC~1\AppData\Local\Temp\ccRPnI9G.s 			page 54


 1618              		.cfi_offset 5, -8
 1619              		.cfi_offset 14, -4
 1620 0002 97B0     		sub	sp, sp, #92
 1621              		.cfi_def_cfa_offset 104
 353:Tests.c       ****     csma_bus_init();
 1622              		.loc 1 353 0
 1623 0004 FFF7FEFF 		bl	csma_bus_init
 1624              	.LVL249:
 354:Tests.c       ****     cm_init();
 1625              		.loc 1 354 0
 1626 0008 FFF7FEFF 		bl	cm_init
 1627              	.LVL250:
 355:Tests.c       ****     tx_init();
 1628              		.loc 1 355 0
 1629 000c FFF7FEFF 		bl	tx_init
 1630              	.LVL251:
 356:Tests.c       ****     rx_init();
 1631              		.loc 1 356 0
 1632 0010 FFF7FEFF 		bl	rx_init
 1633              	.LVL252:
 360:Tests.c       ****     memset(txStr,0,sizeof(txStr));
 1634              		.loc 1 360 0
 1635 0014 534C     		ldr	r4, .L132
 1636 0016 2122     		movs	r2, #33
 1637 0018 0021     		movs	r1, #0
 1638 001a 04F58670 		add	r0, r4, #268
 1639 001e FFF7FEFF 		bl	memset
 1640              	.LVL253:
 361:Tests.c       ****     txStr_index = 0;
 1641              		.loc 1 361 0
 1642 0022 0023     		movs	r3, #0
 1643 0024 84F82D31 		strb	r3, [r4, #301]
 366:Tests.c       ****     LCD_ClearDisplay();
 1644              		.loc 1 366 0
 1645 0028 0120     		movs	r0, #1
 1646 002a FFF7FEFF 		bl	LCD_WriteControl
 1647              	.LVL254:
 1648              	.L129:
 369:Tests.c       ****         uart_update();
 1649              		.loc 1 369 0
 1650 002e FFF7FEFF 		bl	uart_update
 1651              	.LVL255:
 371:Tests.c       ****         if(uart_has_data()){
 1652              		.loc 1 371 0
 1653 0032 FFF7FEFF 		bl	uart_has_data
 1654              	.LVL256:
 1655 0036 0028     		cmp	r0, #0
 1656 0038 52D0     		beq	.L118
 1657              	.LBB8:
 372:Tests.c       ****             memset(buffer,'\0',sizeof(buffer));
 1658              		.loc 1 372 0
 1659 003a 4024     		movs	r4, #64
 1660 003c 2246     		mov	r2, r4
 1661 003e 0021     		movs	r1, #0
 1662 0040 06A8     		add	r0, sp, #24
 1663 0042 FFF7FEFF 		bl	memset
 1664              	.LVL257:
ARM GAS  C:\Users\HENRIC~1\AppData\Local\Temp\ccRPnI9G.s 			page 55


 373:Tests.c       ****             uint16_t numChar = uart_read(buffer,sizeof(buffer));
 1665              		.loc 1 373 0
 1666 0046 2146     		mov	r1, r4
 1667 0048 06A8     		add	r0, sp, #24
 1668 004a FFF7FEFF 		bl	uart_read
 1669              	.LVL258:
 1670 004e 0446     		mov	r4, r0
 1671              	.LVL259:
 374:Tests.c       ****             uart_write(buffer,strlen(buffer));
 1672              		.loc 1 374 0
 1673 0050 06A8     		add	r0, sp, #24
 1674 0052 FFF7FEFF 		bl	strlen
 1675              	.LVL260:
 1676 0056 81B2     		uxth	r1, r0
 1677 0058 06A8     		add	r0, sp, #24
 1678 005a FFF7FEFF 		bl	uart_write
 1679              	.LVL261:
 377:Tests.c       ****             uint8_t index = 0;
 1680              		.loc 1 377 0
 1681 005e 0023     		movs	r3, #0
 376:Tests.c       ****             bool nl_found = false;
 1682              		.loc 1 376 0
 1683 0060 1D46     		mov	r5, r3
 379:Tests.c       ****             while(!nl_found && txStr_index < (sizeof(txStr)-1) && index < numChar){
 1684              		.loc 1 379 0
 1685 0062 18E0     		b	.L119
 1686              	.LVL262:
 1687              	.L124:
 380:Tests.c       ****                 c = buffer[index];
 1688              		.loc 1 380 0
 1689 0064 16A9     		add	r1, sp, #88
 1690 0066 1944     		add	r1, r1, r3
 1691 0068 11F8401C 		ldrb	r1, [r1, #-64]	@ zero_extendqisi2
 1692              	.LVL263:
 381:Tests.c       ****                 index++;
 1693              		.loc 1 381 0
 1694 006c 0133     		adds	r3, r3, #1
 1695              	.LVL264:
 1696 006e DBB2     		uxtb	r3, r3
 1697              	.LVL265:
 382:Tests.c       ****                 if(c == '\n' || c == '\r'){
 1698              		.loc 1 382 0
 1699 0070 0A29     		cmp	r1, #10
 1700 0072 01D0     		beq	.L120
 382:Tests.c       ****                 if(c == '\n' || c == '\r'){
 1701              		.loc 1 382 0 is_stmt 0 discriminator 1
 1702 0074 0D29     		cmp	r1, #13
 1703 0076 06D1     		bne	.L121
 1704              	.L120:
 383:Tests.c       ****                     txStr[txStr_index] = '\0';
 1705              		.loc 1 383 0 is_stmt 1
 1706 0078 3A49     		ldr	r1, .L132
 1707              	.LVL266:
 1708 007a 1144     		add	r1, r1, r2
 1709 007c 0020     		movs	r0, #0
 1710 007e 81F80C01 		strb	r0, [r1, #268]
 1711              	.LVL267:
ARM GAS  C:\Users\HENRIC~1\AppData\Local\Temp\ccRPnI9G.s 			page 56


 384:Tests.c       ****                     nl_found = true;
 1712              		.loc 1 384 0
 1713 0082 0125     		movs	r5, #1
 1714 0084 03E0     		b	.L122
 1715              	.LVL268:
 1716              	.L121:
 386:Tests.c       ****                     txStr[txStr_index] = c;
 1717              		.loc 1 386 0
 1718 0086 3748     		ldr	r0, .L132
 1719 0088 1044     		add	r0, r0, r2
 1720 008a 80F80C11 		strb	r1, [r0, #268]
 1721              	.LVL269:
 1722              	.L122:
 388:Tests.c       ****                 txStr_index++;
 1723              		.loc 1 388 0
 1724 008e 0132     		adds	r2, r2, #1
 1725 0090 3449     		ldr	r1, .L132
 1726 0092 81F82D21 		strb	r2, [r1, #301]
 1727              	.LVL270:
 1728              	.L119:
 379:Tests.c       ****             while(!nl_found && txStr_index < (sizeof(txStr)-1) && index < numChar){
 1729              		.loc 1 379 0
 1730 0096 3DB9     		cbnz	r5, .L123
 379:Tests.c       ****             while(!nl_found && txStr_index < (sizeof(txStr)-1) && index < numChar){
 1731              		.loc 1 379 0 is_stmt 0 discriminator 1
 1732 0098 324A     		ldr	r2, .L132
 1733 009a 92F82D21 		ldrb	r2, [r2, #301]	@ zero_extendqisi2
 1734 009e 1F2A     		cmp	r2, #31
 1735 00a0 02D8     		bhi	.L123
 379:Tests.c       ****             while(!nl_found && txStr_index < (sizeof(txStr)-1) && index < numChar){
 1736              		.loc 1 379 0 discriminator 2
 1737 00a2 99B2     		uxth	r1, r3
 1738 00a4 8C42     		cmp	r4, r1
 1739 00a6 DDD8     		bhi	.L124
 1740              	.L123:
 392:Tests.c       ****             if(txStr_index >= (sizeof(txStr)-1)){
 1741              		.loc 1 392 0 is_stmt 1
 1742 00a8 2E4B     		ldr	r3, .L132
 1743              	.LVL271:
 1744 00aa 93F82D31 		ldrb	r3, [r3, #301]	@ zero_extendqisi2
 1745 00ae 1F2B     		cmp	r3, #31
 1746 00b0 04D9     		bls	.L125
 393:Tests.c       ****                 txStr[32] = '\0';
 1747              		.loc 1 393 0
 1748 00b2 0022     		movs	r2, #0
 1749 00b4 2B4B     		ldr	r3, .L132
 1750 00b6 83F82C21 		strb	r2, [r3, #300]
 1751              	.LVL272:
 394:Tests.c       ****                 nl_found = true;
 1752              		.loc 1 394 0
 1753 00ba 0125     		movs	r5, #1
 1754              	.LVL273:
 1755              	.L125:
 398:Tests.c       ****             if(nl_found){
 1756              		.loc 1 398 0
 1757 00bc 85B1     		cbz	r5, .L118
 399:Tests.c       ****                 txStr_index = 0;
ARM GAS  C:\Users\HENRIC~1\AppData\Local\Temp\ccRPnI9G.s 			page 57


 1758              		.loc 1 399 0
 1759 00be 294C     		ldr	r4, .L132
 1760              	.LVL274:
 1761 00c0 0023     		movs	r3, #0
 1762 00c2 84F82D31 		strb	r3, [r4, #301]
 400:Tests.c       ****                 tx_write(txStr,strlen(txStr));
 1763              		.loc 1 400 0
 1764 00c6 04F58674 		add	r4, r4, #268
 1765 00ca 2046     		mov	r0, r4
 1766 00cc FFF7FEFF 		bl	strlen
 1767              	.LVL275:
 1768 00d0 C1B2     		uxtb	r1, r0
 1769 00d2 2046     		mov	r0, r4
 1770 00d4 FFF7FEFF 		bl	tx_write
 1771              	.LVL276:
 1772              	.L126:
 401:Tests.c       ****                 while(tx_get_status() != TX_DONE){/*Intentionally Empty*/}
 1773              		.loc 1 401 0 discriminator 1
 1774 00d8 FFF7FEFF 		bl	tx_get_status
 1775              	.LVL277:
 1776 00dc 0328     		cmp	r0, #3
 1777 00de FBD1     		bne	.L126
 1778              	.LVL278:
 1779              	.L118:
 1780              	.LBE8:
 405:Tests.c       ****         if(rx_has_data()){
 1781              		.loc 1 405 0
 1782 00e0 FFF7FEFF 		bl	rx_has_data
 1783              	.LVL279:
 1784 00e4 68B3     		cbz	r0, .L127
 1785              	.LBB9:
 406:Tests.c       ****             uint8_t count = rx_buffer(buffer,sizeof(buffer));
 1786              		.loc 1 406 0
 1787 00e6 4021     		movs	r1, #64
 1788 00e8 06A8     		add	r0, sp, #24
 1789 00ea FFF7FEFF 		bl	rx_buffer
 1790              	.LVL280:
 1791 00ee 0546     		mov	r5, r0
 1792              	.LVL281:
 407:Tests.c       ****             LCD_ClearDisplay();
 1793              		.loc 1 407 0
 1794 00f0 0120     		movs	r0, #1
 1795 00f2 FFF7FEFF 		bl	LCD_WriteControl
 1796              	.LVL282:
 408:Tests.c       ****             LCD_Position(0,0);
 1797              		.loc 1 408 0
 1798 00f6 0021     		movs	r1, #0
 1799 00f8 0846     		mov	r0, r1
 1800 00fa FFF7FEFF 		bl	LCD_Position
 1801              	.LVL283:
 409:Tests.c       ****             sprintf(str,"Size: %d",count);
 1802              		.loc 1 409 0
 1803 00fe 2A46     		mov	r2, r5
 1804 0100 1949     		ldr	r1, .L132+4
 1805 0102 01A8     		add	r0, sp, #4
 1806 0104 FFF7FEFF 		bl	sprintf
 1807              	.LVL284:
ARM GAS  C:\Users\HENRIC~1\AppData\Local\Temp\ccRPnI9G.s 			page 58


 410:Tests.c       ****             LCD_PrintString(str);
 1808              		.loc 1 410 0
 1809 0108 01A8     		add	r0, sp, #4
 1810 010a FFF7FEFF 		bl	LCD_PrintString
 1811              	.LVL285:
 411:Tests.c       ****             LCD_Position(1,0);
 1812              		.loc 1 411 0
 1813 010e 0021     		movs	r1, #0
 1814 0110 0120     		movs	r0, #1
 1815 0112 FFF7FEFF 		bl	LCD_Position
 1816              	.LVL286:
 412:Tests.c       ****             uint8_t cpy = (count < 16) ? count : 16;
 1817              		.loc 1 412 0
 1818 0116 2C46     		mov	r4, r5
 1819 0118 102D     		cmp	r5, #16
 1820 011a 28BF     		it	cs
 1821 011c 1024     		movcs	r4, #16
 1822 011e E4B2     		uxtb	r4, r4
 1823              	.LVL287:
 413:Tests.c       ****             memcpy(str,buffer,cpy);
 1824              		.loc 1 413 0
 1825 0120 2246     		mov	r2, r4
 1826 0122 06A9     		add	r1, sp, #24
 1827 0124 01A8     		add	r0, sp, #4
 1828 0126 FFF7FEFF 		bl	memcpy
 1829              	.LVL288:
 414:Tests.c       ****             str[cpy] = 0;
 1830              		.loc 1 414 0
 1831 012a 16AB     		add	r3, sp, #88
 1832 012c 1C44     		add	r4, r4, r3
 1833              	.LVL289:
 1834 012e 0023     		movs	r3, #0
 1835 0130 04F8543C 		strb	r3, [r4, #-84]
 416:Tests.c       ****             LCD_PrintString(str);
 1836              		.loc 1 416 0
 1837 0134 01A8     		add	r0, sp, #4
 1838 0136 FFF7FEFF 		bl	LCD_PrintString
 1839              	.LVL290:
 417:Tests.c       ****             uart_write(buffer,count);
 1840              		.loc 1 417 0
 1841 013a A9B2     		uxth	r1, r5
 1842 013c 06A8     		add	r0, sp, #24
 1843 013e FFF7FEFF 		bl	uart_write
 1844              	.LVL291:
 1845              	.L127:
 1846              	.LBE9:
 420:Tests.c       ****         if(!CapSense_IsBusy()){
 1847              		.loc 1 420 0
 1848 0142 FFF7FEFF 		bl	CapSense_IsBusy
 1849              	.LVL292:
 1850 0146 18B9     		cbnz	r0, .L128
 421:Tests.c       ****             CapSense_UpdateEnabledBaselines();
 1851              		.loc 1 421 0
 1852 0148 FFF7FEFF 		bl	CapSense_UpdateEnabledBaselines
 1853              	.LVL293:
 422:Tests.c       ****             CapSense_ScanEnabledWidgets();
 1854              		.loc 1 422 0
ARM GAS  C:\Users\HENRIC~1\AppData\Local\Temp\ccRPnI9G.s 			page 59


 1855 014c FFF7FEFF 		bl	CapSense_ScanEnabledWidgets
 1856              	.LVL294:
 1857              	.L128:
 425:Tests.c       ****         if(CapSense_CheckIsWidgetActive(CapSense_LEFT__BTN)){
 1858              		.loc 1 425 0
 1859 0150 0120     		movs	r0, #1
 1860 0152 FFF7FEFF 		bl	CapSense_CheckIsWidgetActive
 1861              	.LVL295:
 1862 0156 0028     		cmp	r0, #0
 1863 0158 3FF469AF 		beq	.L129
 426:Tests.c       ****             LCD_ClearDisplay();   
 1864              		.loc 1 426 0
 1865 015c 0120     		movs	r0, #1
 1866 015e FFF7FEFF 		bl	LCD_WriteControl
 1867              	.LVL296:
 1868 0162 64E7     		b	.L129
 1869              	.L133:
 1870              		.align	2
 1871              	.L132:
 1872 0164 00000000 		.word	.LANCHOR0
 1873 0168 D0000000 		.word	.LC24
 1874              		.cfi_endproc
 1875              	.LFE68:
 1876              		.size	tests_week8, .-tests_week8
 1877              		.section	.text.tests_week9,"ax",%progbits
 1878              		.align	2
 1879              		.global	tests_week9
 1880              		.thumb
 1881              		.thumb_func
 1882              		.type	tests_week9, %function
 1883              	tests_week9:
 1884              	.LFB69:
 435:Tests.c       **** void tests_week9(void){
 1885              		.loc 1 435 0
 1886              		.cfi_startproc
 1887              		@ args = 0, pretend = 0, frame = 168
 1888              		@ frame_needed = 0, uses_anonymous_args = 0
 1889 0000 2DE9F04F 		push	{r4, r5, r6, r7, r8, r9, r10, fp, lr}
 1890              		.cfi_def_cfa_offset 36
 1891              		.cfi_offset 4, -36
 1892              		.cfi_offset 5, -32
 1893              		.cfi_offset 6, -28
 1894              		.cfi_offset 7, -24
 1895              		.cfi_offset 8, -20
 1896              		.cfi_offset 9, -16
 1897              		.cfi_offset 10, -12
 1898              		.cfi_offset 11, -8
 1899              		.cfi_offset 14, -4
 1900 0004 ADB0     		sub	sp, sp, #180
 1901              		.cfi_def_cfa_offset 216
 436:Tests.c       ****     user_init();
 1902              		.loc 1 436 0
 1903 0006 FFF7FEFF 		bl	user_init
 1904              	.LVL297:
 437:Tests.c       ****     dll_init();
 1905              		.loc 1 437 0
 1906 000a FFF7FEFF 		bl	dll_init
ARM GAS  C:\Users\HENRIC~1\AppData\Local\Temp\ccRPnI9G.s 			page 60


 1907              	.LVL298:
 438:Tests.c       ****     dll_set_user(CURT_HENRICHS);
 1908              		.loc 1 438 0
 1909 000e 0420     		movs	r0, #4
 1910 0010 FFF7FEFF 		bl	dll_set_user
 1911              	.LVL299:
 442:Tests.c       ****     memset(txStr,0,sizeof(txStr));
 1912              		.loc 1 442 0
 1913 0014 AF4D     		ldr	r5, .L167
 1914 0016 2D22     		movs	r2, #45
 1915 0018 0021     		movs	r1, #0
 1916 001a 05F59870 		add	r0, r5, #304
 1917 001e FFF7FEFF 		bl	memset
 1918              	.LVL300:
 443:Tests.c       ****     txStr_index = 0;
 1919              		.loc 1 443 0
 1920 0022 0024     		movs	r4, #0
 1921 0024 85F85D41 		strb	r4, [r5, #349]
 448:Tests.c       ****     LCD_ClearDisplay();
 1922              		.loc 1 448 0
 1923 0028 0120     		movs	r0, #1
 1924 002a FFF7FEFF 		bl	LCD_WriteControl
 1925              	.LVL301:
 456:Tests.c       ****     uint8_t lk_state = 0;
 1926              		.loc 1 456 0
 1927 002e 2546     		mov	r5, r4
 455:Tests.c       ****     uint8_t rx_state = 0;
 1928              		.loc 1 455 0
 1929 0030 A246     		mov	r10, r4
 454:Tests.c       ****     bool tx_bool = false;
 1930              		.loc 1 454 0
 1931 0032 A146     		mov	r9, r4
 453:Tests.c       ****     uint8_t tx_state = 0;
 1932              		.loc 1 453 0
 1933 0034 A046     		mov	r8, r4
 451:Tests.c       ****     bool button_held_down = false;
 1934              		.loc 1 451 0
 1935 0036 2646     		mov	r6, r4
 1936              	.LVL302:
 1937              	.L161:
 1938              	.LBB10:
 459:Tests.c       ****         dll_update();   
 1939              		.loc 1 459 0
 1940 0038 FFF7FEFF 		bl	dll_update
 1941              	.LVL303:
 461:Tests.c       ****         if(!CapSense_IsBusy()){
 1942              		.loc 1 461 0
 1943 003c FFF7FEFF 		bl	CapSense_IsBusy
 1944              	.LVL304:
 1945 0040 18B9     		cbnz	r0, .L135
 462:Tests.c       ****             CapSense_UpdateEnabledBaselines();
 1946              		.loc 1 462 0
 1947 0042 FFF7FEFF 		bl	CapSense_UpdateEnabledBaselines
 1948              	.LVL305:
 463:Tests.c       ****             CapSense_ScanEnabledWidgets();
 1949              		.loc 1 463 0
 1950 0046 FFF7FEFF 		bl	CapSense_ScanEnabledWidgets
ARM GAS  C:\Users\HENRIC~1\AppData\Local\Temp\ccRPnI9G.s 			page 61


 1951              	.LVL306:
 1952              	.L135:
 466:Tests.c       ****         if(CapSense_CheckIsWidgetActive(CapSense_LEFT__BTN)){
 1953              		.loc 1 466 0
 1954 004a 0120     		movs	r0, #1
 1955 004c FFF7FEFF 		bl	CapSense_CheckIsWidgetActive
 1956              	.LVL307:
 1957 0050 80B1     		cbz	r0, .L162
 467:Tests.c       ****             if(!button_held_down){
 1958              		.loc 1 467 0
 1959 0052 86B9     		cbnz	r6, .L136
 1960              	.LVL308:
 469:Tests.c       ****                 state = (state + 1) % 3;
 1961              		.loc 1 469 0
 1962 0054 631C     		adds	r3, r4, #1
 1963 0056 A04C     		ldr	r4, .L167+4
 1964              	.LVL309:
 1965 0058 84FB0324 		smull	r2, r4, r4, r3
 1966 005c A4EBE374 		sub	r4, r4, r3, asr #31
 1967 0060 04EB4404 		add	r4, r4, r4, lsl #1
 1968 0064 1C1B     		subs	r4, r3, r4
 1969 0066 E4B2     		uxtb	r4, r4
 1970              	.LVL310:
 473:Tests.c       ****                 lk_state = 0;
 1971              		.loc 1 473 0
 1972 0068 0025     		movs	r5, #0
 472:Tests.c       ****                 rx_state = 0;
 1973              		.loc 1 472 0
 1974 006a AA46     		mov	r10, r5
 471:Tests.c       ****                 tx_bool = false;
 1975              		.loc 1 471 0
 1976 006c A946     		mov	r9, r5
 470:Tests.c       ****                 tx_state = 0;
 1977              		.loc 1 470 0
 1978 006e A846     		mov	r8, r5
 468:Tests.c       ****                 button_held_down = true;
 1979              		.loc 1 468 0
 1980 0070 0126     		movs	r6, #1
 1981 0072 00E0     		b	.L136
 1982              	.LVL311:
 1983              	.L162:
 476:Tests.c       ****             button_held_down = false;   
 1984              		.loc 1 476 0
 1985 0074 0026     		movs	r6, #0
 1986              	.LVL312:
 1987              	.L136:
 479:Tests.c       ****         uart_update();
 1988              		.loc 1 479 0
 1989 0076 FFF7FEFF 		bl	uart_update
 1990              	.LVL313:
 482:Tests.c       ****         switch(state){
 1991              		.loc 1 482 0
 1992 007a 012C     		cmp	r4, #1
 1993 007c 00F09C80 		beq	.L138
 1994 0080 1CB1     		cbz	r4, .L139
 1995 0082 022C     		cmp	r4, #2
 1996 0084 00F0CC80 		beq	.L140
ARM GAS  C:\Users\HENRIC~1\AppData\Local\Temp\ccRPnI9G.s 			page 62


 1997 0088 73E1     		b	.L165
 1998              	.L139:
 484:Tests.c       ****                 if(!tx_bool){
 1999              		.loc 1 484 0
 2000 008a B9F1000F 		cmp	r9, #0
 2001 008e 0BD1     		bne	.L141
 2002              	.LVL314:
 486:Tests.c       ****                     LCD_ClearDisplay();
 2003              		.loc 1 486 0
 2004 0090 0120     		movs	r0, #1
 2005 0092 FFF7FEFF 		bl	LCD_WriteControl
 2006              	.LVL315:
 487:Tests.c       ****                     LCD_Position(0,0);
 2007              		.loc 1 487 0
 2008 0096 0021     		movs	r1, #0
 2009 0098 0846     		mov	r0, r1
 2010 009a FFF7FEFF 		bl	LCD_Position
 2011              	.LVL316:
 488:Tests.c       ****                     LCD_PrintString("Transmit");
 2012              		.loc 1 488 0
 2013 009e 8F48     		ldr	r0, .L167+8
 2014 00a0 FFF7FEFF 		bl	LCD_PrintString
 2015              	.LVL317:
 485:Tests.c       ****                     tx_bool = true;
 2016              		.loc 1 485 0
 2017 00a4 4FF00109 		mov	r9, #1
 2018              	.LVL318:
 2019              	.L141:
 490:Tests.c       ****                 switch(tx_state){
 2020              		.loc 1 490 0
 2021 00a8 B8F1030F 		cmp	r8, #3
 2022 00ac 00F26381 		bhi	.L164
 2023 00b0 DFE808F0 		tbb	[pc, r8]
 2024              	.L143:
 2025 00b4 02       		.byte	(.L142-.L143)/2
 2026 00b5 1B       		.byte	(.L144-.L143)/2
 2027 00b6 3E       		.byte	(.L145-.L143)/2
 2028 00b7 5F       		.byte	(.L146-.L143)/2
 2029              		.p2align 1
 2030              	.L142:
 493:Tests.c       ****                         if(dll_tx_finished()){
 2031              		.loc 1 493 0
 2032 00b8 FFF7FEFF 		bl	dll_tx_finished
 2033              	.LVL319:
 2034 00bc 0028     		cmp	r0, #0
 2035 00be BBD0     		beq	.L161
 494:Tests.c       ****                             CyDelay(50);
 2036              		.loc 1 494 0
 2037 00c0 3220     		movs	r0, #50
 2038 00c2 FFF7FEFF 		bl	CyDelay
 2039              	.LVL320:
 496:Tests.c       ****                             msg.src = 0x0B;
 2040              		.loc 1 496 0
 2041 00c6 0B23     		movs	r3, #11
 2042 00c8 8DF80830 		strb	r3, [sp, #8]
 497:Tests.c       ****                             msg.dst = 0x00;
 2043              		.loc 1 497 0
ARM GAS  C:\Users\HENRIC~1\AppData\Local\Temp\ccRPnI9G.s 			page 63


 2044 00cc 0023     		movs	r3, #0
 2045 00ce 8DF80930 		strb	r3, [sp, #9]
 498:Tests.c       ****                             msg.msg_size = 0;
 2046              		.loc 1 498 0
 2047 00d2 8DF83730 		strb	r3, [sp, #55]
 499:Tests.c       ****                             msg.msg[0] = 0;
 2048              		.loc 1 499 0
 2049 00d6 8DF80B30 		strb	r3, [sp, #11]
 500:Tests.c       ****                             msg.use_crc = DLL_NO_CRC;
 2050              		.loc 1 500 0
 2051 00da 8DF80A30 		strb	r3, [sp, #10]
 501:Tests.c       ****                             dll_write(&msg);
 2052              		.loc 1 501 0
 2053 00de 02A8     		add	r0, sp, #8
 2054 00e0 FFF7FEFF 		bl	dll_write
 2055              	.LVL321:
 495:Tests.c       ****                             tx_state = 1;
 2056              		.loc 1 495 0
 2057 00e4 4FF00108 		mov	r8, #1
 2058 00e8 A6E7     		b	.L161
 2059              	.LVL322:
 2060              	.L144:
 506:Tests.c       ****                         if(dll_tx_finished()){
 2061              		.loc 1 506 0
 2062 00ea FFF7FEFF 		bl	dll_tx_finished
 2063              	.LVL323:
 2064 00ee 0028     		cmp	r0, #0
 2065 00f0 A2D0     		beq	.L161
 507:Tests.c       ****                             CyDelay(50);
 2066              		.loc 1 507 0
 2067 00f2 3220     		movs	r0, #50
 2068 00f4 FFF7FEFF 		bl	CyDelay
 2069              	.LVL324:
 509:Tests.c       ****                             msg.src = 0x0B;
 2070              		.loc 1 509 0
 2071 00f8 0B23     		movs	r3, #11
 2072 00fa 8DF80830 		strb	r3, [sp, #8]
 510:Tests.c       ****                             msg.dst = 0x15;
 2073              		.loc 1 510 0
 2074 00fe 1523     		movs	r3, #21
 2075 0100 8DF80930 		strb	r3, [sp, #9]
 511:Tests.c       ****                             msg.msg_size = 44;
 2076              		.loc 1 511 0
 2077 0104 2C23     		movs	r3, #44
 2078 0106 8DF83730 		strb	r3, [sp, #55]
 2079              	.LVL325:
 2080              	.LBB11:
 512:Tests.c       ****                             for(int i=0; i<44; i++){
 2081              		.loc 1 512 0
 2082 010a 0023     		movs	r3, #0
 2083 010c 05E0     		b	.L147
 2084              	.LVL326:
 2085              	.L148:
 513:Tests.c       ****                                 msg.msg[i] = 'a';   
 2086              		.loc 1 513 0 discriminator 3
 2087 010e 2CAA     		add	r2, sp, #176
 2088 0110 1A44     		add	r2, r2, r3
ARM GAS  C:\Users\HENRIC~1\AppData\Local\Temp\ccRPnI9G.s 			page 64


 2089 0112 6121     		movs	r1, #97
 2090 0114 02F8A51C 		strb	r1, [r2, #-165]
 512:Tests.c       ****                             for(int i=0; i<44; i++){
 2091              		.loc 1 512 0 discriminator 3
 2092 0118 0133     		adds	r3, r3, #1
 2093              	.LVL327:
 2094              	.L147:
 512:Tests.c       ****                             for(int i=0; i<44; i++){
 2095              		.loc 1 512 0 is_stmt 0 discriminator 1
 2096 011a 2B2B     		cmp	r3, #43
 2097 011c F7DD     		ble	.L148
 2098              	.LBE11:
 515:Tests.c       ****                             msg.use_crc = DLL_NO_CRC;
 2099              		.loc 1 515 0 is_stmt 1
 2100 011e 0023     		movs	r3, #0
 2101              	.LVL328:
 2102 0120 8DF80A30 		strb	r3, [sp, #10]
 516:Tests.c       ****                             dll_write(&msg);
 2103              		.loc 1 516 0
 2104 0124 02A8     		add	r0, sp, #8
 2105 0126 FFF7FEFF 		bl	dll_write
 2106              	.LVL329:
 508:Tests.c       ****                             tx_state = 2;
 2107              		.loc 1 508 0
 2108 012a 4FF00208 		mov	r8, #2
 2109 012e 83E7     		b	.L161
 2110              	.LVL330:
 2111              	.L145:
 521:Tests.c       ****                         if(dll_tx_finished()){
 2112              		.loc 1 521 0
 2113 0130 FFF7FEFF 		bl	dll_tx_finished
 2114              	.LVL331:
 2115 0134 0028     		cmp	r0, #0
 2116 0136 3FF47FAF 		beq	.L161
 522:Tests.c       ****                             CyDelay(50);
 2117              		.loc 1 522 0
 2118 013a 3220     		movs	r0, #50
 2119 013c FFF7FEFF 		bl	CyDelay
 2120              	.LVL332:
 524:Tests.c       ****                             msg.src = 0x0B;
 2121              		.loc 1 524 0
 2122 0140 0B23     		movs	r3, #11
 2123 0142 8DF80830 		strb	r3, [sp, #8]
 525:Tests.c       ****                             msg.dst = 0x33;
 2124              		.loc 1 525 0
 2125 0146 3323     		movs	r3, #51
 2126 0148 8DF80930 		strb	r3, [sp, #9]
 526:Tests.c       ****                             msg.msg_size = 5;
 2127              		.loc 1 526 0
 2128 014c 0523     		movs	r3, #5
 2129 014e 8DF83730 		strb	r3, [sp, #55]
 527:Tests.c       ****                             strcpy(msg.msg,"Hello");
 2130              		.loc 1 527 0
 2131 0152 634B     		ldr	r3, .L167+12
 2132 0154 1868     		ldr	r0, [r3]	@ unaligned
 2133 0156 CDF80B00 		str	r0, [sp, #11]	@ unaligned
 2134 015a 9B88     		ldrh	r3, [r3, #4]	@ unaligned
ARM GAS  C:\Users\HENRIC~1\AppData\Local\Temp\ccRPnI9G.s 			page 65


 2135 015c ADF80F30 		strh	r3, [sp, #15]	@ unaligned
 528:Tests.c       ****                             msg.use_crc = DLL_NO_CRC;
 2136              		.loc 1 528 0
 2137 0160 0023     		movs	r3, #0
 2138 0162 8DF80A30 		strb	r3, [sp, #10]
 529:Tests.c       ****                             dll_write(&msg);
 2139              		.loc 1 529 0
 2140 0166 02A8     		add	r0, sp, #8
 2141 0168 FFF7FEFF 		bl	dll_write
 2142              	.LVL333:
 523:Tests.c       ****                             tx_state = 3;
 2143              		.loc 1 523 0
 2144 016c 4FF00308 		mov	r8, #3
 2145 0170 62E7     		b	.L161
 2146              	.LVL334:
 2147              	.L146:
 534:Tests.c       ****                         if(dll_tx_finished()){
 2148              		.loc 1 534 0
 2149 0172 FFF7FEFF 		bl	dll_tx_finished
 2150              	.LVL335:
 2151 0176 0028     		cmp	r0, #0
 2152 0178 3FF45EAF 		beq	.L161
 535:Tests.c       ****                             CyDelay(50);
 2153              		.loc 1 535 0
 2154 017c 3220     		movs	r0, #50
 2155 017e FFF7FEFF 		bl	CyDelay
 2156              	.LVL336:
 537:Tests.c       ****                             msg.src = 0x0B;
 2157              		.loc 1 537 0
 2158 0182 0B23     		movs	r3, #11
 2159 0184 8DF80830 		strb	r3, [sp, #8]
 538:Tests.c       ****                             msg.dst = 0x41;
 2160              		.loc 1 538 0
 2161 0188 4123     		movs	r3, #65
 2162 018a 8DF80930 		strb	r3, [sp, #9]
 539:Tests.c       ****                             msg.msg_size = 45;
 2163              		.loc 1 539 0
 2164 018e 2D23     		movs	r3, #45
 2165 0190 8DF83730 		strb	r3, [sp, #55]
 2166              	.LVL337:
 2167              	.LBB12:
 540:Tests.c       ****                             for(int i=0; i<44; i++){
 2168              		.loc 1 540 0
 2169 0194 0023     		movs	r3, #0
 2170 0196 05E0     		b	.L149
 2171              	.LVL338:
 2172              	.L150:
 541:Tests.c       ****                                 msg.msg[i] = 'q';   
 2173              		.loc 1 541 0 discriminator 3
 2174 0198 2CAA     		add	r2, sp, #176
 2175 019a 1A44     		add	r2, r2, r3
 2176 019c 7121     		movs	r1, #113
 2177 019e 02F8A51C 		strb	r1, [r2, #-165]
 540:Tests.c       ****                             for(int i=0; i<44; i++){
 2178              		.loc 1 540 0 discriminator 3
 2179 01a2 0133     		adds	r3, r3, #1
 2180              	.LVL339:
ARM GAS  C:\Users\HENRIC~1\AppData\Local\Temp\ccRPnI9G.s 			page 66


 2181              	.L149:
 540:Tests.c       ****                             for(int i=0; i<44; i++){
 2182              		.loc 1 540 0 is_stmt 0 discriminator 1
 2183 01a4 2B2B     		cmp	r3, #43
 2184 01a6 F7DD     		ble	.L150
 2185              	.LBE12:
 543:Tests.c       ****                             msg.use_crc = DLL_NO_CRC;
 2186              		.loc 1 543 0 is_stmt 1
 2187 01a8 4FF00008 		mov	r8, #0
 2188 01ac 8DF80A80 		strb	r8, [sp, #10]
 544:Tests.c       ****                             dll_write(&msg);
 2189              		.loc 1 544 0
 2190 01b0 02A8     		add	r0, sp, #8
 2191 01b2 FFF7FEFF 		bl	dll_write
 2192              	.LVL340:
 2193 01b6 3FE7     		b	.L161
 2194              	.LVL341:
 2195              	.L138:
 553:Tests.c       ****                 if(!rx_state){
 2196              		.loc 1 553 0
 2197 01b8 BAF1000F 		cmp	r10, #0
 2198 01bc 0BD1     		bne	.L151
 2199              	.LVL342:
 555:Tests.c       ****                     LCD_ClearDisplay();
 2200              		.loc 1 555 0
 2201 01be 0120     		movs	r0, #1
 2202 01c0 FFF7FEFF 		bl	LCD_WriteControl
 2203              	.LVL343:
 556:Tests.c       ****                     LCD_Position(0,0);
 2204              		.loc 1 556 0
 2205 01c4 0021     		movs	r1, #0
 2206 01c6 0846     		mov	r0, r1
 2207 01c8 FFF7FEFF 		bl	LCD_Position
 2208              	.LVL344:
 557:Tests.c       ****                     LCD_PrintString("Receive");
 2209              		.loc 1 557 0
 2210 01cc 4548     		ldr	r0, .L167+16
 2211 01ce FFF7FEFF 		bl	LCD_PrintString
 2212              	.LVL345:
 554:Tests.c       ****                     rx_state = 1;   
 2213              		.loc 1 554 0
 2214 01d2 4FF0010A 		mov	r10, #1
 2215              	.LVL346:
 2216              	.L151:
 560:Tests.c       ****                 if(dll_has_data()){
 2217              		.loc 1 560 0
 2218 01d6 FFF7FEFF 		bl	dll_has_data
 2219              	.LVL347:
 2220 01da 0028     		cmp	r0, #0
 2221 01dc 3FF42CAF 		beq	.L161
 2222              	.LBB13:
 561:Tests.c       ****                     uint8_t count = dll_read(&msg);
 2223              		.loc 1 561 0
 2224 01e0 02A8     		add	r0, sp, #8
 2225 01e2 FFF7FEFF 		bl	dll_read
 2226              	.LVL348:
 2227 01e6 0746     		mov	r7, r0
ARM GAS  C:\Users\HENRIC~1\AppData\Local\Temp\ccRPnI9G.s 			page 67


 2228              	.LVL349:
 562:Tests.c       ****                     sprintf(str,"SRC: %d, DST: %d, SIZE: %d, MSG: ",msg.src,
 2229              		.loc 1 562 0
 2230 01e8 9DF80820 		ldrb	r2, [sp, #8]	@ zero_extendqisi2
 563:Tests.c       ****                             msg.dst,msg.msg_size);
 2231              		.loc 1 563 0
 2232 01ec 9DF80930 		ldrb	r3, [sp, #9]	@ zero_extendqisi2
 2233 01f0 9DF83710 		ldrb	r1, [sp, #55]	@ zero_extendqisi2
 562:Tests.c       ****                     sprintf(str,"SRC: %d, DST: %d, SIZE: %d, MSG: ",msg.src,
 2234              		.loc 1 562 0
 2235 01f4 0091     		str	r1, [sp]
 2236 01f6 3C49     		ldr	r1, .L167+20
 2237 01f8 0FA8     		add	r0, sp, #60
 2238 01fa FFF7FEFF 		bl	sprintf
 2239              	.LVL350:
 564:Tests.c       ****                     uart_write(str,strlen(str));
 2240              		.loc 1 564 0
 2241 01fe 0FA8     		add	r0, sp, #60
 2242 0200 FFF7FEFF 		bl	strlen
 2243              	.LVL351:
 2244 0204 81B2     		uxth	r1, r0
 2245 0206 0FA8     		add	r0, sp, #60
 2246 0208 FFF7FEFF 		bl	uart_write
 2247              	.LVL352:
 565:Tests.c       ****                     uart_write(msg.msg,count);
 2248              		.loc 1 565 0
 2249 020c B9B2     		uxth	r1, r7
 2250 020e 0DF10B00 		add	r0, sp, #11
 2251 0212 FFF7FEFF 		bl	uart_write
 2252              	.LVL353:
 566:Tests.c       ****                     uart_write("\n\r",2);
 2253              		.loc 1 566 0
 2254 0216 0221     		movs	r1, #2
 2255 0218 3448     		ldr	r0, .L167+24
 2256 021a FFF7FEFF 		bl	uart_write
 2257              	.LVL354:
 2258 021e 0BE7     		b	.L161
 2259              	.LVL355:
 2260              	.L140:
 2261              	.LBE13:
 570:Tests.c       ****                 if(!lk_state){
 2262              		.loc 1 570 0
 2263 0220 55B9     		cbnz	r5, .L152
 2264              	.LVL356:
 572:Tests.c       ****                     LCD_ClearDisplay();
 2265              		.loc 1 572 0
 2266 0222 0120     		movs	r0, #1
 2267 0224 FFF7FEFF 		bl	LCD_WriteControl
 2268              	.LVL357:
 573:Tests.c       ****                     LCD_Position(0,0);
 2269              		.loc 1 573 0
 2270 0228 0021     		movs	r1, #0
 2271 022a 0846     		mov	r0, r1
 2272 022c FFF7FEFF 		bl	LCD_Position
 2273              	.LVL358:
 574:Tests.c       ****                     LCD_PrintString("Linked");
 2274              		.loc 1 574 0
ARM GAS  C:\Users\HENRIC~1\AppData\Local\Temp\ccRPnI9G.s 			page 68


 2275 0230 2F48     		ldr	r0, .L167+28
 2276 0232 FFF7FEFF 		bl	LCD_PrintString
 2277              	.LVL359:
 571:Tests.c       ****                     lk_state = 1;   
 2278              		.loc 1 571 0
 2279 0236 0125     		movs	r5, #1
 2280              	.LVL360:
 2281              	.L152:
 577:Tests.c       ****                 if(dll_has_data()){
 2282              		.loc 1 577 0
 2283 0238 FFF7FEFF 		bl	dll_has_data
 2284              	.LVL361:
 2285 023c F0B1     		cbz	r0, .L153
 2286              	.LBB14:
 578:Tests.c       ****                     uint8_t count = dll_read(&msg);
 2287              		.loc 1 578 0
 2288 023e 02A8     		add	r0, sp, #8
 2289 0240 FFF7FEFF 		bl	dll_read
 2290              	.LVL362:
 2291 0244 0746     		mov	r7, r0
 2292              	.LVL363:
 579:Tests.c       ****                     sprintf(str,"SRC: %d, DST: %d, SIZE: %d, MSG: ",msg.src,
 2293              		.loc 1 579 0
 2294 0246 9DF80820 		ldrb	r2, [sp, #8]	@ zero_extendqisi2
 580:Tests.c       ****                             msg.dst,msg.msg_size);
 2295              		.loc 1 580 0
 2296 024a 9DF80930 		ldrb	r3, [sp, #9]	@ zero_extendqisi2
 2297 024e 9DF83710 		ldrb	r1, [sp, #55]	@ zero_extendqisi2
 579:Tests.c       ****                     sprintf(str,"SRC: %d, DST: %d, SIZE: %d, MSG: ",msg.src,
 2298              		.loc 1 579 0
 2299 0252 0091     		str	r1, [sp]
 2300 0254 2449     		ldr	r1, .L167+20
 2301 0256 0FA8     		add	r0, sp, #60
 2302 0258 FFF7FEFF 		bl	sprintf
 2303              	.LVL364:
 581:Tests.c       ****                     uart_write(str,strlen(str));
 2304              		.loc 1 581 0
 2305 025c 0FA8     		add	r0, sp, #60
 2306 025e FFF7FEFF 		bl	strlen
 2307              	.LVL365:
 2308 0262 81B2     		uxth	r1, r0
 2309 0264 0FA8     		add	r0, sp, #60
 2310 0266 FFF7FEFF 		bl	uart_write
 2311              	.LVL366:
 582:Tests.c       ****                     uart_write(msg.msg,count);
 2312              		.loc 1 582 0
 2313 026a B9B2     		uxth	r1, r7
 2314 026c 0DF10B00 		add	r0, sp, #11
 2315 0270 FFF7FEFF 		bl	uart_write
 2316              	.LVL367:
 583:Tests.c       ****                     uart_write("\n\r",2);
 2317              		.loc 1 583 0
 2318 0274 0221     		movs	r1, #2
 2319 0276 1D48     		ldr	r0, .L167+24
 2320 0278 FFF7FEFF 		bl	uart_write
 2321              	.LVL368:
 2322              	.L153:
ARM GAS  C:\Users\HENRIC~1\AppData\Local\Temp\ccRPnI9G.s 			page 69


 2323              	.LBE14:
 586:Tests.c       ****                 if(uart_has_data()){
 2324              		.loc 1 586 0
 2325 027c FFF7FEFF 		bl	uart_has_data
 2326              	.LVL369:
 2327 0280 0028     		cmp	r0, #0
 2328 0282 3FF4D9AE 		beq	.L161
 2329              	.LBB15:
 587:Tests.c       ****                     memset(buffer,'\0',sizeof(buffer));
 2330              		.loc 1 587 0
 2331 0286 4027     		movs	r7, #64
 2332 0288 3A46     		mov	r2, r7
 2333 028a 0021     		movs	r1, #0
 2334 028c 1CA8     		add	r0, sp, #112
 2335 028e FFF7FEFF 		bl	memset
 2336              	.LVL370:
 588:Tests.c       ****                     uint16_t numChar = uart_read(buffer,sizeof(buffer));
 2337              		.loc 1 588 0
 2338 0292 3946     		mov	r1, r7
 2339 0294 1CA8     		add	r0, sp, #112
 2340 0296 FFF7FEFF 		bl	uart_read
 2341              	.LVL371:
 2342 029a 0746     		mov	r7, r0
 2343              	.LVL372:
 589:Tests.c       ****                     uart_write(buffer,strlen(buffer));
 2344              		.loc 1 589 0
 2345 029c 1CA8     		add	r0, sp, #112
 2346 029e FFF7FEFF 		bl	strlen
 2347              	.LVL373:
 2348 02a2 81B2     		uxth	r1, r0
 2349 02a4 1CA8     		add	r0, sp, #112
 2350 02a6 FFF7FEFF 		bl	uart_write
 2351              	.LVL374:
 592:Tests.c       ****                     uint8_t index = 0;
 2352              		.loc 1 592 0
 2353 02aa 0023     		movs	r3, #0
 591:Tests.c       ****                     bool nl_found = false;
 2354              		.loc 1 591 0
 2355 02ac 9E46     		mov	lr, r3
 594:Tests.c       ****                     while(!nl_found && txStr_index < (sizeof(txStr)-1) && 
 2356              		.loc 1 594 0
 2357 02ae 29E0     		b	.L154
 2358              	.LVL375:
 2359              	.L159:
 596:Tests.c       ****                         c = buffer[index];
 2360              		.loc 1 596 0
 2361 02b0 2CA9     		add	r1, sp, #176
 2362 02b2 1944     		add	r1, r1, r3
 2363 02b4 11F8401C 		ldrb	r1, [r1, #-64]	@ zero_extendqisi2
 2364              	.LVL376:
 597:Tests.c       ****                         index++;
 2365              		.loc 1 597 0
 2366 02b8 0133     		adds	r3, r3, #1
 2367              	.LVL377:
 2368 02ba DBB2     		uxtb	r3, r3
 2369              	.LVL378:
 598:Tests.c       ****                         if(c == '\n' || c == '\r'){
ARM GAS  C:\Users\HENRIC~1\AppData\Local\Temp\ccRPnI9G.s 			page 70


 2370              		.loc 1 598 0
 2371 02bc 0A29     		cmp	r1, #10
 2372 02be 01D0     		beq	.L155
 598:Tests.c       ****                         if(c == '\n' || c == '\r'){
 2373              		.loc 1 598 0 is_stmt 0 discriminator 1
 2374 02c0 0D29     		cmp	r1, #13
 2375 02c2 17D1     		bne	.L156
 2376              	.L155:
 599:Tests.c       ****                             txStr[txStr_index] = '\0';
 2377              		.loc 1 599 0 is_stmt 1
 2378 02c4 0349     		ldr	r1, .L167
 2379              	.LVL379:
 2380 02c6 1144     		add	r1, r1, r2
 2381 02c8 0020     		movs	r0, #0
 2382 02ca 81F83001 		strb	r0, [r1, #304]
 2383              	.LVL380:
 600:Tests.c       ****                             nl_found = true;
 2384              		.loc 1 600 0
 2385 02ce 4FF0010E 		mov	lr, #1
 2386 02d2 13E0     		b	.L157
 2387              	.L168:
 2388              		.align	2
 2389              	.L167:
 2390 02d4 00000000 		.word	.LANCHOR0
 2391 02d8 56555555 		.word	1431655766
 2392 02dc DC000000 		.word	.LC25
 2393 02e0 E8000000 		.word	.LC26
 2394 02e4 F0000000 		.word	.LC27
 2395 02e8 F8000000 		.word	.LC28
 2396 02ec 1C010000 		.word	.LC29
 2397 02f0 20010000 		.word	.LC30
 2398              	.LVL381:
 2399              	.L156:
 602:Tests.c       ****                             txStr[txStr_index] = c;
 2400              		.loc 1 602 0
 2401 02f4 2148     		ldr	r0, .L169
 2402 02f6 1044     		add	r0, r0, r2
 2403 02f8 80F83011 		strb	r1, [r0, #304]
 2404              	.LVL382:
 2405              	.L157:
 604:Tests.c       ****                         txStr_index++;
 2406              		.loc 1 604 0
 2407 02fc 0132     		adds	r2, r2, #1
 2408 02fe 1F49     		ldr	r1, .L169
 2409 0300 81F85D21 		strb	r2, [r1, #349]
 2410              	.LVL383:
 2411              	.L154:
 594:Tests.c       ****                     while(!nl_found && txStr_index < (sizeof(txStr)-1) && 
 2412              		.loc 1 594 0
 2413 0304 BEF1000F 		cmp	lr, #0
 2414 0308 07D1     		bne	.L158
 594:Tests.c       ****                     while(!nl_found && txStr_index < (sizeof(txStr)-1) && 
 2415              		.loc 1 594 0 is_stmt 0 discriminator 1
 2416 030a 1C4A     		ldr	r2, .L169
 2417 030c 92F85D21 		ldrb	r2, [r2, #349]	@ zero_extendqisi2
 2418 0310 2B2A     		cmp	r2, #43
 2419 0312 02D8     		bhi	.L158
ARM GAS  C:\Users\HENRIC~1\AppData\Local\Temp\ccRPnI9G.s 			page 71


 595:Tests.c       ****                             index < numChar){
 2420              		.loc 1 595 0 is_stmt 1 discriminator 2
 2421 0314 99B2     		uxth	r1, r3
 594:Tests.c       ****                     while(!nl_found && txStr_index < (sizeof(txStr)-1) && 
 2422              		.loc 1 594 0 discriminator 2
 2423 0316 8F42     		cmp	r7, r1
 2424 0318 CAD8     		bhi	.L159
 2425              	.L158:
 608:Tests.c       ****                     if(txStr_index >= (sizeof(txStr)-1)){
 2426              		.loc 1 608 0
 2427 031a 184B     		ldr	r3, .L169
 2428              	.LVL384:
 2429 031c 93F85D31 		ldrb	r3, [r3, #349]	@ zero_extendqisi2
 2430 0320 2B2B     		cmp	r3, #43
 2431 0322 05D9     		bls	.L160
 609:Tests.c       ****                         txStr[44] = '\0';
 2432              		.loc 1 609 0
 2433 0324 0022     		movs	r2, #0
 2434 0326 154B     		ldr	r3, .L169
 2435 0328 83F85C21 		strb	r2, [r3, #348]
 2436              	.LVL385:
 610:Tests.c       ****                         nl_found = true;
 2437              		.loc 1 610 0
 2438 032c 4FF0010E 		mov	lr, #1
 2439              	.LVL386:
 2440              	.L160:
 614:Tests.c       ****                     if(nl_found){
 2441              		.loc 1 614 0
 2442 0330 BEF1000F 		cmp	lr, #0
 2443 0334 3FF480AE 		beq	.L161
 615:Tests.c       ****                         txStr_index = 0;
 2444              		.loc 1 615 0
 2445 0338 104F     		ldr	r7, .L169
 2446              	.LVL387:
 2447 033a 4FF0000B 		mov	fp, #0
 2448 033e 87F85DB1 		strb	fp, [r7, #349]
 616:Tests.c       ****                         msg.src = 0x0B;
 2449              		.loc 1 616 0
 2450 0342 0B23     		movs	r3, #11
 2451 0344 8DF80830 		strb	r3, [sp, #8]
 617:Tests.c       ****                         msg.dst = 0x00;
 2452              		.loc 1 617 0
 2453 0348 8DF809B0 		strb	fp, [sp, #9]
 618:Tests.c       ****                         msg.msg_size = strlen(txStr);
 2454              		.loc 1 618 0
 2455 034c 07F59877 		add	r7, r7, #304
 2456 0350 3846     		mov	r0, r7
 2457 0352 FFF7FEFF 		bl	strlen
 2458              	.LVL388:
 2459 0356 C2B2     		uxtb	r2, r0
 2460 0358 8DF83720 		strb	r2, [sp, #55]
 619:Tests.c       ****                         memcpy(msg.msg,txStr,msg.msg_size);
 2461              		.loc 1 619 0
 2462 035c 3946     		mov	r1, r7
 2463 035e 0DF10B00 		add	r0, sp, #11
 2464 0362 FFF7FEFF 		bl	memcpy
 2465              	.LVL389:
ARM GAS  C:\Users\HENRIC~1\AppData\Local\Temp\ccRPnI9G.s 			page 72


 620:Tests.c       ****                         msg.use_crc = DLL_NO_CRC;
 2466              		.loc 1 620 0
 2467 0366 8DF80AB0 		strb	fp, [sp, #10]
 621:Tests.c       ****                         dll_write(&msg);
 2468              		.loc 1 621 0
 2469 036a 02A8     		add	r0, sp, #8
 2470 036c FFF7FEFF 		bl	dll_write
 2471              	.LVL390:
 2472 0370 62E6     		b	.L161
 2473              	.L165:
 2474              	.LBE15:
 626:Tests.c       ****                 state = 0;
 2475              		.loc 1 626 0
 2476 0372 0024     		movs	r4, #0
 2477              	.LVL391:
 2478 0374 60E6     		b	.L161
 2479              	.LVL392:
 2480              	.L164:
 548:Tests.c       ****                         tx_state = 0;
 2481              		.loc 1 548 0
 2482 0376 4FF00008 		mov	r8, #0
 2483              	.LVL393:
 2484              	.LBE10:
 629:Tests.c       ****     }
 2485              		.loc 1 629 0
 2486 037a 5DE6     		b	.L161
 2487              	.L170:
 2488              		.align	2
 2489              	.L169:
 2490 037c 00000000 		.word	.LANCHOR0
 2491              		.cfi_endproc
 2492              	.LFE69:
 2493              		.size	tests_week9, .-tests_week9
 2494              		.section	.text.tests_week10,"ax",%progbits
 2495              		.align	2
 2496              		.global	tests_week10
 2497              		.thumb
 2498              		.thumb_func
 2499              		.type	tests_week10, %function
 2500              	tests_week10:
 2501              	.LFB70:
 636:Tests.c       **** void tests_week10(void){
 2502              		.loc 1 636 0
 2503              		.cfi_startproc
 2504              		@ args = 0, pretend = 0, frame = 120
 2505              		@ frame_needed = 0, uses_anonymous_args = 0
 2506 0000 2DE9F04F 		push	{r4, r5, r6, r7, r8, r9, r10, fp, lr}
 2507              		.cfi_def_cfa_offset 36
 2508              		.cfi_offset 4, -36
 2509              		.cfi_offset 5, -32
 2510              		.cfi_offset 6, -28
 2511              		.cfi_offset 7, -24
 2512              		.cfi_offset 8, -20
 2513              		.cfi_offset 9, -16
 2514              		.cfi_offset 10, -12
 2515              		.cfi_offset 11, -8
 2516              		.cfi_offset 14, -4
ARM GAS  C:\Users\HENRIC~1\AppData\Local\Temp\ccRPnI9G.s 			page 73


 2517 0004 A1B0     		sub	sp, sp, #132
 2518              		.cfi_def_cfa_offset 168
 637:Tests.c       ****     user_init();
 2519              		.loc 1 637 0
 2520 0006 FFF7FEFF 		bl	user_init
 2521              	.LVL394:
 638:Tests.c       ****     dll_init();
 2522              		.loc 1 638 0
 2523 000a FFF7FEFF 		bl	dll_init
 2524              	.LVL395:
 639:Tests.c       ****     dll_set_user(CURT_HENRICHS);
 2525              		.loc 1 639 0
 2526 000e 0420     		movs	r0, #4
 2527 0010 FFF7FEFF 		bl	dll_set_user
 2528              	.LVL396:
 649:Tests.c       ****     bool rxFlag = false;
 2529              		.loc 1 649 0
 2530 0014 0025     		movs	r5, #0
 648:Tests.c       ****     bool txFlag = false;
 2531              		.loc 1 648 0
 2532 0016 AA46     		mov	r10, r5
 647:Tests.c       ****     uint8_t txState = 0;
 2533              		.loc 1 647 0
 2534 0018 2E46     		mov	r6, r5
 646:Tests.c       ****     bool crcFlag = false;
 2535              		.loc 1 646 0
 2536 001a AB46     		mov	fp, r5
 645:Tests.c       ****     uint8_t crcState = 0;
 2537              		.loc 1 645 0
 2538 001c 2F46     		mov	r7, r5
 644:Tests.c       ****     uint8_t state = 0;
 2539              		.loc 1 644 0
 2540 001e 2C46     		mov	r4, r5
 643:Tests.c       ****     bool right_button_held_down = false;
 2541              		.loc 1 643 0
 2542 0020 A946     		mov	r9, r5
 642:Tests.c       ****     bool left_button_held_down = false;
 2543              		.loc 1 642 0
 2544 0022 A846     		mov	r8, r5
 2545 0024 06E0     		b	.L172
 2546              	.LVL397:
 2547              	.L205:
 844:Tests.c       ****                 state = 0;
 2548              		.loc 1 844 0
 2549 0026 0024     		movs	r4, #0
 2550              	.LVL398:
 2551 0028 04E0     		b	.L172
 2552              	.LVL399:
 2553              	.L200:
 749:Tests.c       ****                     right_button_held_down = false;   
 2554              		.loc 1 749 0
 2555 002a 4FF00009 		mov	r9, #0
 2556              	.LVL400:
 2557 002e 01E0     		b	.L172
 2558              	.LVL401:
 2559              	.L202:
 819:Tests.c       ****                     right_button_held_down = false;   
ARM GAS  C:\Users\HENRIC~1\AppData\Local\Temp\ccRPnI9G.s 			page 74


 2560              		.loc 1 819 0
 2561 0030 4FF00009 		mov	r9, #0
 2562              	.LVL402:
 2563              	.L172:
 657:Tests.c       ****         dll_update();   
 2564              		.loc 1 657 0
 2565 0034 FFF7FEFF 		bl	dll_update
 2566              	.LVL403:
 659:Tests.c       ****         if(!CapSense_IsBusy()){
 2567              		.loc 1 659 0
 2568 0038 FFF7FEFF 		bl	CapSense_IsBusy
 2569              	.LVL404:
 2570 003c 18B9     		cbnz	r0, .L174
 660:Tests.c       ****             CapSense_UpdateEnabledBaselines();
 2571              		.loc 1 660 0
 2572 003e FFF7FEFF 		bl	CapSense_UpdateEnabledBaselines
 2573              	.LVL405:
 661:Tests.c       ****             CapSense_ScanEnabledWidgets();
 2574              		.loc 1 661 0
 2575 0042 FFF7FEFF 		bl	CapSense_ScanEnabledWidgets
 2576              	.LVL406:
 2577              	.L174:
 664:Tests.c       ****         if(CapSense_CheckIsWidgetActive(CapSense_LEFT__BTN)){
 2578              		.loc 1 664 0
 2579 0046 0120     		movs	r0, #1
 2580 0048 FFF7FEFF 		bl	CapSense_CheckIsWidgetActive
 2581              	.LVL407:
 2582 004c A8B1     		cbz	r0, .L197
 665:Tests.c       ****             if(!left_button_held_down){
 2583              		.loc 1 665 0
 2584 004e B8F1000F 		cmp	r8, #0
 2585 0052 14D1     		bne	.L175
 2586              	.LVL408:
 667:Tests.c       ****                 state = (state + 1) % 3;
 2587              		.loc 1 667 0
 2588 0054 631C     		adds	r3, r4, #1
 2589 0056 B74C     		ldr	r4, .L207
 2590              	.LVL409:
 2591 0058 84FB0324 		smull	r2, r4, r4, r3
 2592 005c A4EBE374 		sub	r4, r4, r3, asr #31
 2593 0060 04EB4404 		add	r4, r4, r4, lsl #1
 2594 0064 1C1B     		subs	r4, r3, r4
 2595 0066 E4B2     		uxtb	r4, r4
 2596              	.LVL410:
 673:Tests.c       ****                 rxFlag = false;
 2597              		.loc 1 673 0
 2598 0068 0025     		movs	r5, #0
 672:Tests.c       ****                 txFlag = false;
 2599              		.loc 1 672 0
 2600 006a AA46     		mov	r10, r5
 671:Tests.c       ****                 txState = 0;
 2601              		.loc 1 671 0
 2602 006c 2E46     		mov	r6, r5
 670:Tests.c       ****                 crcFlag = false;
 2603              		.loc 1 670 0
 2604 006e AB46     		mov	fp, r5
 669:Tests.c       ****                 crcState = 0;
ARM GAS  C:\Users\HENRIC~1\AppData\Local\Temp\ccRPnI9G.s 			page 75


 2605              		.loc 1 669 0
 2606 0070 2F46     		mov	r7, r5
 668:Tests.c       ****                 right_button_held_down = false;
 2607              		.loc 1 668 0
 2608 0072 A946     		mov	r9, r5
 666:Tests.c       ****                 left_button_held_down = true;
 2609              		.loc 1 666 0
 2610 0074 4FF00108 		mov	r8, #1
 2611 0078 01E0     		b	.L175
 2612              	.LVL411:
 2613              	.L197:
 676:Tests.c       ****             left_button_held_down = false;   
 2614              		.loc 1 676 0
 2615 007a 4FF00008 		mov	r8, #0
 2616              	.LVL412:
 2617              	.L175:
 679:Tests.c       ****         uart_update();
 2618              		.loc 1 679 0
 2619 007e FFF7FEFF 		bl	uart_update
 2620              	.LVL413:
 681:Tests.c       ****         switch(state){
 2621              		.loc 1 681 0
 2622 0082 012C     		cmp	r4, #1
 2623 0084 00F0B880 		beq	.L176
 2624 0088 1CB1     		cbz	r4, .L177
 2625 008a 022C     		cmp	r4, #2
 2626 008c 00F06081 		beq	.L178
 2627 0090 C9E7     		b	.L205
 2628              	.L177:
 684:Tests.c       ****                 switch(crcState){
 2629              		.loc 1 684 0
 2630 0092 032F     		cmp	r7, #3
 2631 0094 00F29780 		bhi	.L199
 2632 0098 DFE807F0 		tbb	[pc, r7]
 2633              	.L181:
 2634 009c 02       		.byte	(.L180-.L181)/2
 2635 009d 25       		.byte	(.L182-.L181)/2
 2636 009e 48       		.byte	(.L183-.L181)/2
 2637 009f 6F       		.byte	(.L184-.L181)/2
 2638              		.p2align 1
 2639              	.L180:
 686:Tests.c       ****                         if(!crcFlag){
 2640              		.loc 1 686 0
 2641 00a0 BBF1000F 		cmp	fp, #0
 2642 00a4 40F09080 		bne	.L179
 2643              	.LVL414:
 2644              	.LBB16:
 688:Tests.c       ****                             uint8_t buffer[] = {0x85};
 2645              		.loc 1 688 0
 2646 00a8 20A8     		add	r0, sp, #128
 2647 00aa 8523     		movs	r3, #133
 2648 00ac 00F8703D 		strb	r3, [r0, #-112]!
 689:Tests.c       ****                             uint8_t x = crc_algorithm(buffer,1);
 2649              		.loc 1 689 0
 2650 00b0 0121     		movs	r1, #1
 2651 00b2 FFF7FEFF 		bl	crc_algorithm
 2652              	.LVL415:
ARM GAS  C:\Users\HENRIC~1\AppData\Local\Temp\ccRPnI9G.s 			page 76


 2653 00b6 8346     		mov	fp, r0
 2654              	.LVL416:
 690:Tests.c       ****                             LCD_ClearDisplay();
 2655              		.loc 1 690 0
 2656 00b8 0120     		movs	r0, #1
 2657 00ba FFF7FEFF 		bl	LCD_WriteControl
 2658              	.LVL417:
 691:Tests.c       ****                             LCD_Position(0,0);
 2659              		.loc 1 691 0
 2660 00be 0021     		movs	r1, #0
 2661 00c0 0846     		mov	r0, r1
 2662 00c2 FFF7FEFF 		bl	LCD_Position
 2663              	.LVL418:
 692:Tests.c       ****                             LCD_PrintString("CRC:");
 2664              		.loc 1 692 0
 2665 00c6 9C48     		ldr	r0, .L207+4
 2666 00c8 FFF7FEFF 		bl	LCD_PrintString
 2667              	.LVL419:
 693:Tests.c       ****                             LCD_PrintInt8(crcState);
 2668              		.loc 1 693 0
 2669 00cc 3846     		mov	r0, r7
 2670 00ce FFF7FEFF 		bl	LCD_PrintInt8
 2671              	.LVL420:
 694:Tests.c       ****                             LCD_Position(1,0);
 2672              		.loc 1 694 0
 2673 00d2 0021     		movs	r1, #0
 2674 00d4 0120     		movs	r0, #1
 2675 00d6 FFF7FEFF 		bl	LCD_Position
 2676              	.LVL421:
 695:Tests.c       ****                             LCD_PrintHexUint8(x);  
 2677              		.loc 1 695 0
 2678 00da 5846     		mov	r0, fp
 2679 00dc FFF7FEFF 		bl	LCD_PrintInt8
 2680              	.LVL422:
 687:Tests.c       ****                             crcFlag = true;
 2681              		.loc 1 687 0
 2682 00e0 4FF0010B 		mov	fp, #1
 2683              	.LVL423:
 2684 00e4 70E0     		b	.L179
 2685              	.LVL424:
 2686              	.L182:
 2687              	.LBE16:
 699:Tests.c       ****                         if(!crcFlag){
 2688              		.loc 1 699 0
 2689 00e6 BBF1000F 		cmp	fp, #0
 2690 00ea 6DD1     		bne	.L179
 2691              	.LVL425:
 2692              	.LBB17:
 701:Tests.c       ****                             uint8_t buffer[] = {0x85, 0xAC};
 2693              		.loc 1 701 0
 2694 00ec 934B     		ldr	r3, .L207+8
 2695 00ee 1B88     		ldrh	r3, [r3]	@ unaligned
 2696 00f0 ADF81030 		strh	r3, [sp, #16]	@ unaligned
 702:Tests.c       ****                             uint8_t x = crc_algorithm(buffer,2);
 2697              		.loc 1 702 0
 2698 00f4 0221     		movs	r1, #2
 2699 00f6 04A8     		add	r0, sp, #16
ARM GAS  C:\Users\HENRIC~1\AppData\Local\Temp\ccRPnI9G.s 			page 77


 2700 00f8 FFF7FEFF 		bl	crc_algorithm
 2701              	.LVL426:
 2702 00fc 8346     		mov	fp, r0
 2703              	.LVL427:
 703:Tests.c       ****                             LCD_ClearDisplay();
 2704              		.loc 1 703 0
 2705 00fe 0120     		movs	r0, #1
 2706 0100 FFF7FEFF 		bl	LCD_WriteControl
 2707              	.LVL428:
 704:Tests.c       ****                             LCD_Position(0,0);
 2708              		.loc 1 704 0
 2709 0104 0021     		movs	r1, #0
 2710 0106 0846     		mov	r0, r1
 2711 0108 FFF7FEFF 		bl	LCD_Position
 2712              	.LVL429:
 705:Tests.c       ****                             LCD_PrintString("CRC:");
 2713              		.loc 1 705 0
 2714 010c 8A48     		ldr	r0, .L207+4
 2715 010e FFF7FEFF 		bl	LCD_PrintString
 2716              	.LVL430:
 706:Tests.c       ****                             LCD_PrintInt8(crcState);
 2717              		.loc 1 706 0
 2718 0112 3846     		mov	r0, r7
 2719 0114 FFF7FEFF 		bl	LCD_PrintInt8
 2720              	.LVL431:
 707:Tests.c       ****                             LCD_Position(1,0);
 2721              		.loc 1 707 0
 2722 0118 0021     		movs	r1, #0
 2723 011a 0120     		movs	r0, #1
 2724 011c FFF7FEFF 		bl	LCD_Position
 2725              	.LVL432:
 708:Tests.c       ****                             LCD_PrintHexUint8(x);  
 2726              		.loc 1 708 0
 2727 0120 5846     		mov	r0, fp
 2728 0122 FFF7FEFF 		bl	LCD_PrintInt8
 2729              	.LVL433:
 700:Tests.c       ****                             crcFlag = true;
 2730              		.loc 1 700 0
 2731 0126 4FF0010B 		mov	fp, #1
 2732              	.LVL434:
 2733 012a 4DE0     		b	.L179
 2734              	.LVL435:
 2735              	.L183:
 2736              	.LBE17:
 712:Tests.c       ****                         if(!crcFlag){
 2737              		.loc 1 712 0
 2738 012c BBF1000F 		cmp	fp, #0
 2739 0130 4AD1     		bne	.L179
 2740              	.LVL436:
 2741              	.LBB18:
 714:Tests.c       ****                             uint8_t buffer[] = {0xC4, 0xC1, 0xFA};
 2742              		.loc 1 714 0
 2743 0132 834B     		ldr	r3, .L207+12
 2744 0134 33F8102F 		ldrh	r2, [r3, #16]!	@ unaligned
 2745 0138 9B78     		ldrb	r3, [r3, #2]	@ zero_extendqisi2
 2746 013a ADF81020 		strh	r2, [sp, #16]	@ unaligned
 2747 013e 8DF81230 		strb	r3, [sp, #18]
ARM GAS  C:\Users\HENRIC~1\AppData\Local\Temp\ccRPnI9G.s 			page 78


 715:Tests.c       ****                             uint8_t x = crc_algorithm(buffer,3);
 2748              		.loc 1 715 0
 2749 0142 0321     		movs	r1, #3
 2750 0144 04A8     		add	r0, sp, #16
 2751 0146 FFF7FEFF 		bl	crc_algorithm
 2752              	.LVL437:
 2753 014a 8346     		mov	fp, r0
 2754              	.LVL438:
 716:Tests.c       ****                             LCD_ClearDisplay();
 2755              		.loc 1 716 0
 2756 014c 0120     		movs	r0, #1
 2757 014e FFF7FEFF 		bl	LCD_WriteControl
 2758              	.LVL439:
 717:Tests.c       ****                             LCD_Position(0,0);
 2759              		.loc 1 717 0
 2760 0152 0021     		movs	r1, #0
 2761 0154 0846     		mov	r0, r1
 2762 0156 FFF7FEFF 		bl	LCD_Position
 2763              	.LVL440:
 718:Tests.c       ****                             LCD_PrintString("CRC:");
 2764              		.loc 1 718 0
 2765 015a 7748     		ldr	r0, .L207+4
 2766 015c FFF7FEFF 		bl	LCD_PrintString
 2767              	.LVL441:
 719:Tests.c       ****                             LCD_PrintInt8(crcState);
 2768              		.loc 1 719 0
 2769 0160 3846     		mov	r0, r7
 2770 0162 FFF7FEFF 		bl	LCD_PrintInt8
 2771              	.LVL442:
 720:Tests.c       ****                             LCD_Position(1,0);
 2772              		.loc 1 720 0
 2773 0166 0021     		movs	r1, #0
 2774 0168 0120     		movs	r0, #1
 2775 016a FFF7FEFF 		bl	LCD_Position
 2776              	.LVL443:
 721:Tests.c       ****                             LCD_PrintHexUint8(x);  
 2777              		.loc 1 721 0
 2778 016e 5846     		mov	r0, fp
 2779 0170 FFF7FEFF 		bl	LCD_PrintInt8
 2780              	.LVL444:
 713:Tests.c       ****                             crcFlag = true;
 2781              		.loc 1 713 0
 2782 0174 4FF0010B 		mov	fp, #1
 2783              	.LVL445:
 2784 0178 26E0     		b	.L179
 2785              	.LVL446:
 2786              	.L184:
 2787              	.LBE18:
 725:Tests.c       ****                         if(!crcFlag){
 2788              		.loc 1 725 0
 2789 017a BBF1000F 		cmp	fp, #0
 2790 017e 23D1     		bne	.L179
 2791              	.LVL447:
 2792              	.LBB19:
 727:Tests.c       ****                             uint8_t buffer[] = {0x80, 0x81, 0x8A, 0x80, 0x83, 0x83};
 2793              		.loc 1 727 0
 2794 0180 6F4B     		ldr	r3, .L207+12
ARM GAS  C:\Users\HENRIC~1\AppData\Local\Temp\ccRPnI9G.s 			page 79


 2795 0182 53F8140F 		ldr	r0, [r3, #20]!	@ unaligned
 2796 0186 0490     		str	r0, [sp, #16]	@ unaligned
 2797 0188 9B88     		ldrh	r3, [r3, #4]	@ unaligned
 2798 018a ADF81430 		strh	r3, [sp, #20]	@ unaligned
 728:Tests.c       ****                             uint8_t x = crc_algorithm(buffer,6);
 2799              		.loc 1 728 0
 2800 018e 0621     		movs	r1, #6
 2801 0190 04A8     		add	r0, sp, #16
 2802 0192 FFF7FEFF 		bl	crc_algorithm
 2803              	.LVL448:
 2804 0196 8346     		mov	fp, r0
 2805              	.LVL449:
 729:Tests.c       ****                             LCD_ClearDisplay();
 2806              		.loc 1 729 0
 2807 0198 0120     		movs	r0, #1
 2808 019a FFF7FEFF 		bl	LCD_WriteControl
 2809              	.LVL450:
 730:Tests.c       ****                             LCD_Position(0,0);
 2810              		.loc 1 730 0
 2811 019e 0021     		movs	r1, #0
 2812 01a0 0846     		mov	r0, r1
 2813 01a2 FFF7FEFF 		bl	LCD_Position
 2814              	.LVL451:
 731:Tests.c       ****                             LCD_PrintString("CRC:");
 2815              		.loc 1 731 0
 2816 01a6 6448     		ldr	r0, .L207+4
 2817 01a8 FFF7FEFF 		bl	LCD_PrintString
 2818              	.LVL452:
 732:Tests.c       ****                             LCD_PrintInt8(crcState);
 2819              		.loc 1 732 0
 2820 01ac 3846     		mov	r0, r7
 2821 01ae FFF7FEFF 		bl	LCD_PrintInt8
 2822              	.LVL453:
 733:Tests.c       ****                             LCD_Position(1,0);
 2823              		.loc 1 733 0
 2824 01b2 0021     		movs	r1, #0
 2825 01b4 0120     		movs	r0, #1
 2826 01b6 FFF7FEFF 		bl	LCD_Position
 2827              	.LVL454:
 734:Tests.c       ****                             LCD_PrintHexUint8(x);  
 2828              		.loc 1 734 0
 2829 01ba 5846     		mov	r0, fp
 2830 01bc FFF7FEFF 		bl	LCD_PrintInt8
 2831              	.LVL455:
 726:Tests.c       ****                             crcFlag = true;
 2832              		.loc 1 726 0
 2833 01c0 4FF0010B 		mov	fp, #1
 2834              	.LVL456:
 2835 01c4 00E0     		b	.L179
 2836              	.LVL457:
 2837              	.L199:
 2838              	.LBE19:
 738:Tests.c       ****                         crcState = 0;
 2839              		.loc 1 738 0
 2840 01c6 0027     		movs	r7, #0
 2841              	.LVL458:
 2842              	.L179:
ARM GAS  C:\Users\HENRIC~1\AppData\Local\Temp\ccRPnI9G.s 			page 80


 742:Tests.c       ****                 if(CapSense_CheckIsWidgetActive(CapSense_RIGHT__BTN)){
 2843              		.loc 1 742 0
 2844 01c8 0020     		movs	r0, #0
 2845 01ca FFF7FEFF 		bl	CapSense_CheckIsWidgetActive
 2846              	.LVL459:
 2847 01ce 0028     		cmp	r0, #0
 2848 01d0 3FF42BAF 		beq	.L200
 743:Tests.c       ****                     if(!right_button_held_down){
 2849              		.loc 1 743 0
 2850 01d4 B9F1000F 		cmp	r9, #0
 2851 01d8 7FF42CAF 		bne	.L172
 2852              	.LVL460:
 745:Tests.c       ****                         crcState = (crcState + 1) % 4;
 2853              		.loc 1 745 0
 2854 01dc 0137     		adds	r7, r7, #1
 2855              	.LVL461:
 2856 01de 594B     		ldr	r3, .L207+16
 2857 01e0 1F40     		ands	r7, r7, r3
 2858 01e2 03D5     		bpl	.L185
 2859 01e4 013F     		subs	r7, r7, #1
 2860 01e6 67F00307 		orn	r7, r7, #3
 2861 01ea 0137     		adds	r7, r7, #1
 2862              	.L185:
 2863 01ec FFB2     		uxtb	r7, r7
 2864              	.LVL462:
 746:Tests.c       ****                         crcFlag = false;
 2865              		.loc 1 746 0
 2866 01ee 4FF0000B 		mov	fp, #0
 744:Tests.c       ****                         right_button_held_down = true;
 2867              		.loc 1 744 0
 2868 01f2 4FF00109 		mov	r9, #1
 2869 01f6 1DE7     		b	.L172
 2870              	.LVL463:
 2871              	.L176:
 753:Tests.c       ****                 if(!txFlag){
 2872              		.loc 1 753 0
 2873 01f8 BAF1000F 		cmp	r10, #0
 2874 01fc 12D1     		bne	.L186
 2875              	.LVL464:
 755:Tests.c       ****                     LCD_ClearDisplay();
 2876              		.loc 1 755 0
 2877 01fe 0120     		movs	r0, #1
 2878 0200 FFF7FEFF 		bl	LCD_WriteControl
 2879              	.LVL465:
 756:Tests.c       ****                     LCD_Position(0,0);
 2880              		.loc 1 756 0
 2881 0204 0021     		movs	r1, #0
 2882 0206 0846     		mov	r0, r1
 2883 0208 FFF7FEFF 		bl	LCD_Position
 2884              	.LVL466:
 757:Tests.c       ****                     LCD_PrintString("Transmit");
 2885              		.loc 1 757 0
 2886 020c 4E48     		ldr	r0, .L207+20
 2887 020e FFF7FEFF 		bl	LCD_PrintString
 2888              	.LVL467:
 758:Tests.c       ****                     LCD_Position(1,0);
 2889              		.loc 1 758 0
ARM GAS  C:\Users\HENRIC~1\AppData\Local\Temp\ccRPnI9G.s 			page 81


 2890 0212 0021     		movs	r1, #0
 2891 0214 0120     		movs	r0, #1
 2892 0216 FFF7FEFF 		bl	LCD_Position
 2893              	.LVL468:
 759:Tests.c       ****                     LCD_PrintInt8(txState);
 2894              		.loc 1 759 0
 2895 021a 3046     		mov	r0, r6
 2896 021c FFF7FEFF 		bl	LCD_PrintInt8
 2897              	.LVL469:
 754:Tests.c       ****                     txFlag = true;
 2898              		.loc 1 754 0
 2899 0220 4FF0010A 		mov	r10, #1
 2900              	.LVL470:
 2901              	.L186:
 762:Tests.c       ****                 switch(txState){
 2902              		.loc 1 762 0
 2903 0224 032E     		cmp	r6, #3
 2904 0226 6BD8     		bhi	.L201
 2905 0228 DFE806F0 		tbb	[pc, r6]
 2906              	.L189:
 2907 022c 02       		.byte	(.L188-.L189)/2
 2908 022d 1C       		.byte	(.L190-.L189)/2
 2909 022e 37       		.byte	(.L191-.L189)/2
 2910 022f 51       		.byte	(.L192-.L189)/2
 2911              		.p2align 1
 2912              	.L188:
 764:Tests.c       ****                         if(dll_tx_finished()){
 2913              		.loc 1 764 0
 2914 0230 FFF7FEFF 		bl	dll_tx_finished
 2915              	.LVL471:
 2916 0234 0028     		cmp	r0, #0
 2917 0236 64D0     		beq	.L187
 765:Tests.c       ****                             CyDelay(50);
 2918              		.loc 1 765 0
 2919 0238 3220     		movs	r0, #50
 2920 023a FFF7FEFF 		bl	CyDelay
 2921              	.LVL472:
 766:Tests.c       ****                             msg.src = 0x0A;
 2922              		.loc 1 766 0
 2923 023e 0A23     		movs	r3, #10
 2924 0240 8DF84C30 		strb	r3, [sp, #76]
 767:Tests.c       ****                             msg.dst = 0x00;
 2925              		.loc 1 767 0
 2926 0244 0023     		movs	r3, #0
 2927 0246 8DF84D30 		strb	r3, [sp, #77]
 768:Tests.c       ****                             msg.msg_size = 3;
 2928              		.loc 1 768 0
 2929 024a 0323     		movs	r3, #3
 2930 024c 8DF87B30 		strb	r3, [sp, #123]
 769:Tests.c       ****                             strcpy(msg.msg,"DAz");
 2931              		.loc 1 769 0
 2932 0250 3E4A     		ldr	r2, .L207+24
 2933 0252 1068     		ldr	r0, [r2]	@ unaligned
 2934 0254 CDF84F00 		str	r0, [sp, #79]	@ unaligned
 770:Tests.c       ****                             msg.use_crc = DLL_BOTH_CRC;
 2935              		.loc 1 770 0
 2936 0258 8DF84E30 		strb	r3, [sp, #78]
ARM GAS  C:\Users\HENRIC~1\AppData\Local\Temp\ccRPnI9G.s 			page 82


 771:Tests.c       ****                             dll_write(&msg);
 2937              		.loc 1 771 0
 2938 025c 13A8     		add	r0, sp, #76
 2939 025e FFF7FEFF 		bl	dll_write
 2940              	.LVL473:
 2941 0262 4EE0     		b	.L187
 2942              	.L190:
 775:Tests.c       ****                         if(dll_tx_finished()){
 2943              		.loc 1 775 0
 2944 0264 FFF7FEFF 		bl	dll_tx_finished
 2945              	.LVL474:
 2946 0268 0028     		cmp	r0, #0
 2947 026a 4AD0     		beq	.L187
 776:Tests.c       ****                             CyDelay(50);
 2948              		.loc 1 776 0
 2949 026c 3220     		movs	r0, #50
 2950 026e FFF7FEFF 		bl	CyDelay
 2951              	.LVL475:
 777:Tests.c       ****                             msg.src = 0x0A;
 2952              		.loc 1 777 0
 2953 0272 0A23     		movs	r3, #10
 2954 0274 8DF84C30 		strb	r3, [sp, #76]
 778:Tests.c       ****                             msg.dst = 0x00;
 2955              		.loc 1 778 0
 2956 0278 0023     		movs	r3, #0
 2957 027a 8DF84D30 		strb	r3, [sp, #77]
 779:Tests.c       ****                             msg.msg_size = 3;
 2958              		.loc 1 779 0
 2959 027e 0323     		movs	r3, #3
 2960 0280 8DF87B30 		strb	r3, [sp, #123]
 780:Tests.c       ****                             strcpy(msg.msg,"DAz");
 2961              		.loc 1 780 0
 2962 0284 314B     		ldr	r3, .L207+24
 2963 0286 1868     		ldr	r0, [r3]	@ unaligned
 2964 0288 CDF84F00 		str	r0, [sp, #79]	@ unaligned
 781:Tests.c       ****                             msg.use_crc = DLL_HEADER_CRC;
 2965              		.loc 1 781 0
 2966 028c 0123     		movs	r3, #1
 2967 028e 8DF84E30 		strb	r3, [sp, #78]
 782:Tests.c       ****                             dll_write(&msg);
 2968              		.loc 1 782 0
 2969 0292 13A8     		add	r0, sp, #76
 2970 0294 FFF7FEFF 		bl	dll_write
 2971              	.LVL476:
 2972 0298 33E0     		b	.L187
 2973              	.L191:
 786:Tests.c       ****                         if(dll_tx_finished()){
 2974              		.loc 1 786 0
 2975 029a FFF7FEFF 		bl	dll_tx_finished
 2976              	.LVL477:
 2977 029e 80B3     		cbz	r0, .L187
 787:Tests.c       ****                             CyDelay(50);
 2978              		.loc 1 787 0
 2979 02a0 3220     		movs	r0, #50
 2980 02a2 FFF7FEFF 		bl	CyDelay
 2981              	.LVL478:
 788:Tests.c       ****                             msg.src = 0x0A;
ARM GAS  C:\Users\HENRIC~1\AppData\Local\Temp\ccRPnI9G.s 			page 83


 2982              		.loc 1 788 0
 2983 02a6 0A23     		movs	r3, #10
 2984 02a8 8DF84C30 		strb	r3, [sp, #76]
 789:Tests.c       ****                             msg.dst = 0x00;
 2985              		.loc 1 789 0
 2986 02ac 0023     		movs	r3, #0
 2987 02ae 8DF84D30 		strb	r3, [sp, #77]
 790:Tests.c       ****                             msg.msg_size = 3;
 2988              		.loc 1 790 0
 2989 02b2 0323     		movs	r3, #3
 2990 02b4 8DF87B30 		strb	r3, [sp, #123]
 791:Tests.c       ****                             strcpy(msg.msg,"DAz");
 2991              		.loc 1 791 0
 2992 02b8 244B     		ldr	r3, .L207+24
 2993 02ba 1868     		ldr	r0, [r3]	@ unaligned
 2994 02bc CDF84F00 		str	r0, [sp, #79]	@ unaligned
 792:Tests.c       ****                             msg.use_crc = DLL_MESSAGE_CRC;
 2995              		.loc 1 792 0
 2996 02c0 0223     		movs	r3, #2
 2997 02c2 8DF84E30 		strb	r3, [sp, #78]
 793:Tests.c       ****                             dll_write(&msg);
 2998              		.loc 1 793 0
 2999 02c6 13A8     		add	r0, sp, #76
 3000 02c8 FFF7FEFF 		bl	dll_write
 3001              	.LVL479:
 3002 02cc 19E0     		b	.L187
 3003              	.L192:
 797:Tests.c       ****                         if(dll_tx_finished()){
 3004              		.loc 1 797 0
 3005 02ce FFF7FEFF 		bl	dll_tx_finished
 3006              	.LVL480:
 3007 02d2 B0B1     		cbz	r0, .L187
 798:Tests.c       ****                             CyDelay(50);
 3008              		.loc 1 798 0
 3009 02d4 3220     		movs	r0, #50
 3010 02d6 FFF7FEFF 		bl	CyDelay
 3011              	.LVL481:
 799:Tests.c       ****                             msg.src = 0x0A;
 3012              		.loc 1 799 0
 3013 02da 0A23     		movs	r3, #10
 3014 02dc 8DF84C30 		strb	r3, [sp, #76]
 800:Tests.c       ****                             msg.dst = 0x00;
 3015              		.loc 1 800 0
 3016 02e0 0023     		movs	r3, #0
 3017 02e2 8DF84D30 		strb	r3, [sp, #77]
 801:Tests.c       ****                             msg.msg_size = 3;
 3018              		.loc 1 801 0
 3019 02e6 0322     		movs	r2, #3
 3020 02e8 8DF87B20 		strb	r2, [sp, #123]
 802:Tests.c       ****                             strcpy(msg.msg,"DAz");
 3021              		.loc 1 802 0
 3022 02ec 174A     		ldr	r2, .L207+24
 3023 02ee 1068     		ldr	r0, [r2]	@ unaligned
 3024 02f0 CDF84F00 		str	r0, [sp, #79]	@ unaligned
 803:Tests.c       ****                             msg.use_crc = DLL_NO_CRC;
 3025              		.loc 1 803 0
 3026 02f4 8DF84E30 		strb	r3, [sp, #78]
ARM GAS  C:\Users\HENRIC~1\AppData\Local\Temp\ccRPnI9G.s 			page 84


 804:Tests.c       ****                             dll_write(&msg);
 3027              		.loc 1 804 0
 3028 02f8 13A8     		add	r0, sp, #76
 3029 02fa FFF7FEFF 		bl	dll_write
 3030              	.LVL482:
 3031 02fe 00E0     		b	.L187
 3032              	.L201:
 808:Tests.c       ****                         txState = 0;
 3033              		.loc 1 808 0
 3034 0300 0026     		movs	r6, #0
 3035              	.LVL483:
 3036              	.L187:
 812:Tests.c       ****                 if(CapSense_CheckIsWidgetActive(CapSense_RIGHT__BTN)){
 3037              		.loc 1 812 0
 3038 0302 0020     		movs	r0, #0
 3039 0304 FFF7FEFF 		bl	CapSense_CheckIsWidgetActive
 3040              	.LVL484:
 3041 0308 0028     		cmp	r0, #0
 3042 030a 3FF491AE 		beq	.L202
 813:Tests.c       ****                     if(!right_button_held_down){
 3043              		.loc 1 813 0
 3044 030e B9F1000F 		cmp	r9, #0
 3045 0312 7FF48FAE 		bne	.L172
 3046              	.LVL485:
 815:Tests.c       ****                         txState = (txState + 1) % 4;
 3047              		.loc 1 815 0
 3048 0316 0136     		adds	r6, r6, #1
 3049              	.LVL486:
 3050 0318 0A4B     		ldr	r3, .L207+16
 3051 031a 1E40     		ands	r6, r6, r3
 3052 031c 03D5     		bpl	.L193
 3053 031e 013E     		subs	r6, r6, #1
 3054 0320 66F00306 		orn	r6, r6, #3
 3055 0324 0136     		adds	r6, r6, #1
 3056              	.L193:
 3057 0326 F6B2     		uxtb	r6, r6
 3058              	.LVL487:
 816:Tests.c       ****                         txFlag = false;
 3059              		.loc 1 816 0
 3060 0328 4FF0000A 		mov	r10, #0
 814:Tests.c       ****                         right_button_held_down = true;
 3061              		.loc 1 814 0
 3062 032c 4FF00109 		mov	r9, #1
 3063 0330 80E6     		b	.L172
 3064              	.L208:
 3065 0332 00BF     		.align	2
 3066              	.L207:
 3067 0334 56555555 		.word	1431655766
 3068 0338 30010000 		.word	.LC33
 3069 033c 0C000000 		.word	.LANCHOR1+12
 3070 0340 00000000 		.word	.LANCHOR1
 3071 0344 03000080 		.word	-2147483645
 3072 0348 DC000000 		.word	.LC25
 3073 034c 38010000 		.word	.LC34
 3074              	.LVL488:
 3075              	.L178:
 823:Tests.c       ****                 if(!rxFlag){
ARM GAS  C:\Users\HENRIC~1\AppData\Local\Temp\ccRPnI9G.s 			page 85


 3076              		.loc 1 823 0
 3077 0350 55B9     		cbnz	r5, .L194
 3078              	.LVL489:
 825:Tests.c       ****                     LCD_ClearDisplay();
 3079              		.loc 1 825 0
 3080 0352 0120     		movs	r0, #1
 3081 0354 FFF7FEFF 		bl	LCD_WriteControl
 3082              	.LVL490:
 826:Tests.c       ****                     LCD_Position(0,0);
 3083              		.loc 1 826 0
 3084 0358 0021     		movs	r1, #0
 3085 035a 0846     		mov	r0, r1
 3086 035c FFF7FEFF 		bl	LCD_Position
 3087              	.LVL491:
 827:Tests.c       ****                     LCD_PrintString("Receive");
 3088              		.loc 1 827 0
 3089 0360 2248     		ldr	r0, .L209
 3090 0362 FFF7FEFF 		bl	LCD_PrintString
 3091              	.LVL492:
 824:Tests.c       ****                     rxFlag = true;   
 3092              		.loc 1 824 0
 3093 0366 0125     		movs	r5, #1
 3094              	.LVL493:
 3095              	.L194:
 830:Tests.c       ****                 if(dll_has_data()){
 3096              		.loc 1 830 0
 3097 0368 FFF7FEFF 		bl	dll_has_data
 3098              	.LVL494:
 3099 036c 0028     		cmp	r0, #0
 3100 036e 3FF461AE 		beq	.L172
 3101              	.LBB20:
 831:Tests.c       ****                     uint8_t count = dll_read(&msg);
 3102              		.loc 1 831 0
 3103 0372 13A8     		add	r0, sp, #76
 3104 0374 FFF7FEFF 		bl	dll_read
 3105              	.LVL495:
 3106 0378 0390     		str	r0, [sp, #12]
 3107              	.LVL496:
 832:Tests.c       ****                     sprintf(str,"SRC: %d, DST: %d, SIZE: %d, MSG: ",msg.src,
 3108              		.loc 1 832 0
 3109 037a 9DF84C20 		ldrb	r2, [sp, #76]	@ zero_extendqisi2
 833:Tests.c       ****                             msg.dst,msg.msg_size);
 3110              		.loc 1 833 0
 3111 037e 9DF84D30 		ldrb	r3, [sp, #77]	@ zero_extendqisi2
 3112 0382 9DF87B10 		ldrb	r1, [sp, #123]	@ zero_extendqisi2
 832:Tests.c       ****                     sprintf(str,"SRC: %d, DST: %d, SIZE: %d, MSG: ",msg.src,
 3113              		.loc 1 832 0
 3114 0386 0091     		str	r1, [sp]
 3115 0388 1949     		ldr	r1, .L209+4
 3116 038a 06A8     		add	r0, sp, #24
 3117 038c FFF7FEFF 		bl	sprintf
 3118              	.LVL497:
 834:Tests.c       ****                     uart_write(str,strlen(str));
 3119              		.loc 1 834 0
 3120 0390 06AB     		add	r3, sp, #24
 3121 0392 1846     		mov	r0, r3
 3122 0394 FFF7FEFF 		bl	strlen
ARM GAS  C:\Users\HENRIC~1\AppData\Local\Temp\ccRPnI9G.s 			page 86


 3123              	.LVL498:
 3124 0398 81B2     		uxth	r1, r0
 3125 039a 06AB     		add	r3, sp, #24
 3126 039c 1846     		mov	r0, r3
 3127 039e FFF7FEFF 		bl	uart_write
 3128              	.LVL499:
 835:Tests.c       ****                     uart_write(msg.msg,count);
 3129              		.loc 1 835 0
 3130 03a2 BDF80C10 		ldrh	r1, [sp, #12]
 3131 03a6 0DF14F00 		add	r0, sp, #79
 3132 03aa FFF7FEFF 		bl	uart_write
 3133              	.LVL500:
 836:Tests.c       ****                     uart_write("\n\r",2);
 3134              		.loc 1 836 0
 3135 03ae 0221     		movs	r1, #2
 3136 03b0 1048     		ldr	r0, .L209+8
 3137 03b2 FFF7FEFF 		bl	uart_write
 3138              	.LVL501:
 838:Tests.c       ****                             msg.use_crc,(msg.failed_header_crc) ? "N" : "Y",
 3139              		.loc 1 838 0
 3140 03b6 9DF84E20 		ldrb	r2, [sp, #78]	@ zero_extendqisi2
 3141 03ba 9DF87C30 		ldrb	r3, [sp, #124]	@ zero_extendqisi2
 837:Tests.c       ****                     sprintf(str,"CRC_MODE: %d, HEADER CRC: %s, DATA CRC: %s\n\r",
 3142              		.loc 1 837 0
 3143 03be 0BB1     		cbz	r3, .L203
 3144 03c0 0D4B     		ldr	r3, .L209+12
 3145 03c2 00E0     		b	.L195
 3146              	.L203:
 3147 03c4 0D4B     		ldr	r3, .L209+16
 3148              	.L195:
 839:Tests.c       ****                             (msg.failed_data_crc) ? "N" : "Y");
 3149              		.loc 1 839 0 discriminator 4
 3150 03c6 9DF87D10 		ldrb	r1, [sp, #125]	@ zero_extendqisi2
 837:Tests.c       ****                     sprintf(str,"CRC_MODE: %d, HEADER CRC: %s, DATA CRC: %s\n\r",
 3151              		.loc 1 837 0 discriminator 4
 3152 03ca 09B1     		cbz	r1, .L204
 837:Tests.c       ****                     sprintf(str,"CRC_MODE: %d, HEADER CRC: %s, DATA CRC: %s\n\r",
 3153              		.loc 1 837 0 is_stmt 0
 3154 03cc 0A49     		ldr	r1, .L209+12
 3155 03ce 00E0     		b	.L196
 3156              	.L204:
 3157 03d0 0A49     		ldr	r1, .L209+16
 3158              	.L196:
 837:Tests.c       ****                     sprintf(str,"CRC_MODE: %d, HEADER CRC: %s, DATA CRC: %s\n\r",
 3159              		.loc 1 837 0 discriminator 8
 3160 03d2 0091     		str	r1, [sp]
 3161 03d4 0A49     		ldr	r1, .L209+20
 3162 03d6 06A8     		add	r0, sp, #24
 3163 03d8 FFF7FEFF 		bl	sprintf
 3164              	.LVL502:
 840:Tests.c       ****                     uart_write(str,strlen(str));
 3165              		.loc 1 840 0 is_stmt 1 discriminator 8
 3166 03dc 06A8     		add	r0, sp, #24
 3167 03de FFF7FEFF 		bl	strlen
 3168              	.LVL503:
 3169 03e2 81B2     		uxth	r1, r0
 3170 03e4 06A8     		add	r0, sp, #24
ARM GAS  C:\Users\HENRIC~1\AppData\Local\Temp\ccRPnI9G.s 			page 87


 3171 03e6 FFF7FEFF 		bl	uart_write
 3172              	.LVL504:
 3173 03ea 23E6     		b	.L172
 3174              	.L210:
 3175              		.align	2
 3176              	.L209:
 3177 03ec F0000000 		.word	.LC27
 3178 03f0 F8000000 		.word	.LC28
 3179 03f4 1C010000 		.word	.LC29
 3180 03f8 28010000 		.word	.LC31
 3181 03fc 2C010000 		.word	.LC32
 3182 0400 3C010000 		.word	.LC35
 3183              	.LBE20:
 3184              		.cfi_endproc
 3185              	.LFE70:
 3186              		.size	tests_week10, .-tests_week10
 3187              		.section	.text.tests_main,"ax",%progbits
 3188              		.align	2
 3189              		.global	tests_main
 3190              		.thumb
 3191              		.thumb_func
 3192              		.type	tests_main, %function
 3193              	tests_main:
 3194              	.LFB64:
 130:Tests.c       **** int tests_main(void){
 3195              		.loc 1 130 0
 3196              		.cfi_startproc
 3197              		@ Volatile: function does not return.
 3198              		@ args = 0, pretend = 0, frame = 0
 3199              		@ frame_needed = 0, uses_anonymous_args = 0
 3200 0000 08B5     		push	{r3, lr}
 3201              		.cfi_def_cfa_offset 8
 3202              		.cfi_offset 3, -8
 3203              		.cfi_offset 14, -4
 133:Tests.c       ****     CyGlobalIntEnable; 
 3204              		.loc 1 133 0
 3205              		.syntax unified
 3206              	@ 133 "Tests.c" 1
 3207 0002 62B6     		CPSIE   i
 3208              	@ 0 "" 2
 134:Tests.c       ****     uart_init();
 3209              		.loc 1 134 0
 3210              		.thumb
 3211              		.syntax unified
 3212 0004 FFF7FEFF 		bl	uart_init
 3213              	.LVL505:
 135:Tests.c       ****     LCD_Start();
 3214              		.loc 1 135 0
 3215 0008 FFF7FEFF 		bl	LCD_Start
 3216              	.LVL506:
 136:Tests.c       ****     LCD_ClearDisplay();
 3217              		.loc 1 136 0
 3218 000c 0120     		movs	r0, #1
 3219 000e FFF7FEFF 		bl	LCD_WriteControl
 3220              	.LVL507:
 137:Tests.c       ****     CapSense_Start();
 3221              		.loc 1 137 0
ARM GAS  C:\Users\HENRIC~1\AppData\Local\Temp\ccRPnI9G.s 			page 88


 3222 0012 FFF7FEFF 		bl	CapSense_Start
 3223              	.LVL508:
 138:Tests.c       ****     CyDelay(CAPSENSE_SETTLE_TIME);
 3224              		.loc 1 138 0
 3225 0016 6420     		movs	r0, #100
 3226 0018 FFF7FEFF 		bl	CyDelay
 3227              	.LVL509:
 139:Tests.c       ****     CapSense_InitializeAllBaselines();
 3228              		.loc 1 139 0
 3229 001c FFF7FEFF 		bl	CapSense_InitializeAllBaselines
 3230              	.LVL510:
 158:Tests.c       ****             tests_week10();
 3231              		.loc 1 158 0
 3232 0020 FFF7FEFF 		bl	tests_week10
 3233              	.LVL511:
 3234              		.cfi_endproc
 3235              	.LFE64:
 3236              		.size	tests_main, .-tests_main
 3237              		.section	.rodata
 3238              		.align	2
 3239              		.set	.LANCHOR1,. + 0
 3240              	.LC0:
 3241 0000 AA       		.byte	-86
 3242 0001 AA       		.byte	-86
 3243 0002 AA       		.byte	-86
 3244 0003 AA       		.byte	-86
 3245              	.LC1:
 3246 0004 55       		.byte	85
 3247 0005 55       		.byte	85
 3248 0006 55       		.byte	85
 3249 0007 55       		.byte	85
 3250              	.LC2:
 3251 0008 FF       		.byte	-1
 3252 0009 FF       		.byte	-1
 3253 000a FF       		.byte	-1
 3254 000b FF       		.byte	-1
 3255              	.LC3:
 3256 000c 85       		.byte	-123
 3257 000d AC       		.byte	-84
 3258 000e 0000     		.space	2
 3259              	.LC4:
 3260 0010 C4       		.byte	-60
 3261 0011 C1       		.byte	-63
 3262 0012 FA       		.byte	-6
 3263 0013 00       		.space	1
 3264              	.LC5:
 3265 0014 80       		.byte	-128
 3266 0015 81       		.byte	-127
 3267 0016 8A       		.byte	-118
 3268 0017 80       		.byte	-128
 3269 0018 83       		.byte	-125
 3270 0019 83       		.byte	-125
 3271              		.section	.rodata.str1.4,"aMS",%progbits,1
 3272              		.align	2
 3273              	.LC6:
 3274 0000 4D454E55 		.ascii	"MENU:\000"
 3274      3A00
ARM GAS  C:\Users\HENRIC~1\AppData\Local\Temp\ccRPnI9G.s 			page 89


 3275 0006 0000     		.space	2
 3276              	.LC7:
 3277 0008 55415254 		.ascii	"UART:\000"
 3277      3A00
 3278 000e 0000     		.space	2
 3279              	.LC8:
 3280 0010 5472616E 		.ascii	"Transmitting\000"
 3280      736D6974 
 3280      74696E67 
 3280      00
 3281 001d 000000   		.space	3
 3282              	.LC9:
 3283 0020 20202020 		.ascii	"            \000"
 3283      20202020 
 3283      20202020 
 3283      00
 3284 002d 000000   		.space	3
 3285              	.LC10:
 3286 0030 52455045 		.ascii	"REPEAT 0x00:\000"
 3286      41542030 
 3286      7830303A 
 3286      00
 3287 003d 000000   		.space	3
 3288              	.LC11:
 3289 0040 52455045 		.ascii	"REPEAT 0xAA:\000"
 3289      41542030 
 3289      7841413A 
 3289      00
 3290 004d 000000   		.space	3
 3291              	.LC12:
 3292 0050 52455045 		.ascii	"REPEAT 0x55:\000"
 3292      41542030 
 3292      7835353A 
 3292      00
 3293 005d 000000   		.space	3
 3294              	.LC13:
 3295 0060 52455045 		.ascii	"REPEAT 0xFF:\000"
 3295      41542030 
 3295      7846463A 
 3295      00
 3296 006d 000000   		.space	3
 3297              	.LC14:
 3298 0070 494E4954 		.ascii	"INIT\000"
 3298      00
 3299 0075 000000   		.space	3
 3300              	.LC15:
 3301 0078 49444C45 		.ascii	"IDLE\000"
 3301      00
 3302 007d 000000   		.space	3
 3303              	.LC16:
 3304 0080 42555359 		.ascii	"BUSY\000"
 3304      00
 3305 0085 000000   		.space	3
 3306              	.LC17:
 3307 0088 434F4C4C 		.ascii	"COLLISION\000"
 3307      4953494F 
 3307      4E00
ARM GAS  C:\Users\HENRIC~1\AppData\Local\Temp\ccRPnI9G.s 			page 90


 3308 0092 0000     		.space	2
 3309              	.LC18:
 3310 0094 00       		.ascii	"\000"
 3311 0095 000000   		.space	3
 3312              	.LC19:
 3313 0098 55415254 		.ascii	"UART\000"
 3313      00
 3314 009d 000000   		.space	3
 3315              	.LC20:
 3316 00a0 52455045 		.ascii	"REPEAT 0x00\000"
 3316      41542030 
 3316      78303000 
 3317              	.LC21:
 3318 00ac 52455045 		.ascii	"REPEAT 0xAA\000"
 3318      41542030 
 3318      78414100 
 3319              	.LC22:
 3320 00b8 52455045 		.ascii	"REPEAT 0x55\000"
 3320      41542030 
 3320      78353500 
 3321              	.LC23:
 3322 00c4 52455045 		.ascii	"REPEAT 0xFF\000"
 3322      41542030 
 3322      78464600 
 3323              	.LC24:
 3324 00d0 53697A65 		.ascii	"Size: %d\000"
 3324      3A202564 
 3324      00
 3325 00d9 000000   		.space	3
 3326              	.LC25:
 3327 00dc 5472616E 		.ascii	"Transmit\000"
 3327      736D6974 
 3327      00
 3328 00e5 000000   		.space	3
 3329              	.LC26:
 3330 00e8 48656C6C 		.ascii	"Hello\000"
 3330      6F00
 3331 00ee 0000     		.space	2
 3332              	.LC27:
 3333 00f0 52656365 		.ascii	"Receive\000"
 3333      69766500 
 3334              	.LC28:
 3335 00f8 5352433A 		.ascii	"SRC: %d, DST: %d, SIZE: %d, MSG: \000"
 3335      2025642C 
 3335      20445354 
 3335      3A202564 
 3335      2C205349 
 3336 011a 0000     		.space	2
 3337              	.LC29:
 3338 011c 0A0D00   		.ascii	"\012\015\000"
 3339 011f 00       		.space	1
 3340              	.LC30:
 3341 0120 4C696E6B 		.ascii	"Linked\000"
 3341      656400
 3342 0127 00       		.space	1
 3343              	.LC31:
 3344 0128 4E00     		.ascii	"N\000"
ARM GAS  C:\Users\HENRIC~1\AppData\Local\Temp\ccRPnI9G.s 			page 91


 3345 012a 0000     		.space	2
 3346              	.LC32:
 3347 012c 5900     		.ascii	"Y\000"
 3348 012e 0000     		.space	2
 3349              	.LC33:
 3350 0130 4352433A 		.ascii	"CRC:\000"
 3350      00
 3351 0135 000000   		.space	3
 3352              	.LC34:
 3353 0138 44417A00 		.ascii	"DAz\000"
 3354              	.LC35:
 3355 013c 4352435F 		.ascii	"CRC_MODE: %d, HEADER CRC: %s, DATA CRC: %s\012\015\000"
 3355      4D4F4445 
 3355      3A202564 
 3355      2C204845 
 3355      41444552 
 3356              		.bss
 3357              		.align	2
 3358              		.set	.LANCHOR0,. + 0
 3359              		.type	index.7762, %object
 3360              		.size	index.7762, 1
 3361              	index.7762:
 3362 0000 00       		.space	1
 3363              		.type	hold.7763, %object
 3364              		.size	hold.7763, 1
 3365              	hold.7763:
 3366 0001 00       		.space	1
 3367 0002 0000     		.space	2
 3368              		.type	MENU_OPTIONS_TAGS, %object
 3369              		.size	MENU_OPTIONS_TAGS, 20
 3370              	MENU_OPTIONS_TAGS:
 3371 0004 00000000 		.space	20
 3371      00000000 
 3371      00000000 
 3371      00000000 
 3371      00000000 
 3372              		.type	MENU_OPTIONS_LIST, %object
 3373              		.size	MENU_OPTIONS_LIST, 5
 3374              	MENU_OPTIONS_LIST:
 3375 0018 00000000 		.space	5
 3375      00
 3376 001d 000000   		.space	3
 3377              		.type	txStr.7772, %object
 3378              		.size	txStr.7772, 33
 3379              	txStr.7772:
 3380 0020 00000000 		.space	33
 3380      00000000 
 3380      00000000 
 3380      00000000 
 3380      00000000 
 3381              		.type	txStr_index.7773, %object
 3382              		.size	txStr_index.7773, 1
 3383              	txStr_index.7773:
 3384 0041 00       		.space	1
 3385 0042 0000     		.space	2
 3386              		.type	buffer.7770, %object
 3387              		.size	buffer.7770, 64
ARM GAS  C:\Users\HENRIC~1\AppData\Local\Temp\ccRPnI9G.s 			page 92


 3388              	buffer.7770:
 3389 0044 00000000 		.space	64
 3389      00000000 
 3389      00000000 
 3389      00000000 
 3389      00000000 
 3390              		.type	disp.7771, %object
 3391              		.size	disp.7771, 16
 3392              	disp.7771:
 3393 0084 00000000 		.space	16
 3393      00000000 
 3393      00000000 
 3393      00000000 
 3394              		.type	hold.7789, %object
 3395              		.size	hold.7789, 1
 3396              	hold.7789:
 3397 0094 00       		.space	1
 3398              		.type	hold.7800, %object
 3399              		.size	hold.7800, 1
 3400              	hold.7800:
 3401 0095 00       		.space	1
 3402              		.type	hold.7811, %object
 3403              		.size	hold.7811, 1
 3404              	hold.7811:
 3405 0096 00       		.space	1
 3406              		.type	hold.7822, %object
 3407              		.size	hold.7822, 1
 3408              	hold.7822:
 3409 0097 00       		.space	1
 3410              		.type	txStr.7643, %object
 3411              		.size	txStr.7643, 33
 3412              	txStr.7643:
 3413 0098 00000000 		.space	33
 3413      00000000 
 3413      00000000 
 3413      00000000 
 3413      00000000 
 3414              		.type	txStr_index.7644, %object
 3415              		.size	txStr_index.7644, 1
 3416              	txStr_index.7644:
 3417 00b9 00       		.space	1
 3418 00ba 0000     		.space	2
 3419              		.type	buffer.7641, %object
 3420              		.size	buffer.7641, 64
 3421              	buffer.7641:
 3422 00bc 00000000 		.space	64
 3422      00000000 
 3422      00000000 
 3422      00000000 
 3422      00000000 
 3423              		.type	disp.7642, %object
 3424              		.size	disp.7642, 16
 3425              	disp.7642:
 3426 00fc 00000000 		.space	16
 3426      00000000 
 3426      00000000 
 3426      00000000 
ARM GAS  C:\Users\HENRIC~1\AppData\Local\Temp\ccRPnI9G.s 			page 93


 3427              		.type	txStr.7659, %object
 3428              		.size	txStr.7659, 33
 3429              	txStr.7659:
 3430 010c 00000000 		.space	33
 3430      00000000 
 3430      00000000 
 3430      00000000 
 3430      00000000 
 3431              		.type	txStr_index.7660, %object
 3432              		.size	txStr_index.7660, 1
 3433              	txStr_index.7660:
 3434 012d 00       		.space	1
 3435 012e 0000     		.space	2
 3436              		.type	txStr.7679, %object
 3437              		.size	txStr.7679, 45
 3438              	txStr.7679:
 3439 0130 00000000 		.space	45
 3439      00000000 
 3439      00000000 
 3439      00000000 
 3439      00000000 
 3440              		.type	txStr_index.7680, %object
 3441              		.size	txStr_index.7680, 1
 3442              	txStr_index.7680:
 3443 015d 00       		.space	1
 3444              		.text
 3445              	.Letext0:
 3446              		.file 2 "c:\\program files (x86)\\cypress\\psoc creator\\4.1\\psoc creator\\import\\gnu\\arm\\5.4.
 3447              		.file 3 "c:\\program files (x86)\\cypress\\psoc creator\\4.1\\psoc creator\\import\\gnu\\arm\\5.4.
 3448              		.file 4 "Tests.h"
 3449              		.file 5 "UserAddressAllocation.h"
 3450              		.file 6 "ChannelMonitor.h"
 3451              		.file 7 "Transmitter.h"
 3452              		.file 8 "DataLinkLayer.h"
 3453              		.file 9 "Generated_Source\\PSoC5/LCD.h"
 3454              		.file 10 "Generated_Source\\PSoC5/CapSense_CSHL.h"
 3455              		.file 11 "Uart.h"
 3456              		.file 12 "c:\\program files (x86)\\cypress\\psoc creator\\4.1\\psoc creator\\import\\gnu\\arm\\5.4
 3457              		.file 13 "Generated_Source\\PSoC5/CyLib.h"
 3458              		.file 14 "CSMA_CD_Bus.h"
 3459              		.file 15 "Receiver.h"
 3460              		.file 16 "Generated_Source\\PSoC5/CM_Test_State_Reg.h"
 3461              		.file 17 "Generated_Source\\PSoC5/CapSense.h"
 3462              		.file 18 "c:\\program files (x86)\\cypress\\psoc creator\\4.1\\psoc creator\\import\\gnu\\arm\\5.4
 3463              		.file 19 "Generated_Source\\PSoC5/core_cm3.h"
 3464              		.section	.debug_info,"",%progbits
 3465              	.Ldebug_info0:
 3466 0000 71250000 		.4byte	0x2571
 3467 0004 0400     		.2byte	0x4
 3468 0006 00000000 		.4byte	.Ldebug_abbrev0
 3469 000a 04       		.byte	0x4
 3470 000b 01       		.uleb128 0x1
 3471 000c F2060000 		.4byte	.LASF191
 3472 0010 0C       		.byte	0xc
 3473 0011 34050000 		.4byte	.LASF192
 3474 0015 BE070000 		.4byte	.LASF193
 3475 0019 00000000 		.4byte	.Ldebug_ranges0+0
ARM GAS  C:\Users\HENRIC~1\AppData\Local\Temp\ccRPnI9G.s 			page 94


 3476 001d 00000000 		.4byte	0
 3477 0021 00000000 		.4byte	.Ldebug_line0
 3478 0025 02       		.uleb128 0x2
 3479 0026 120A0000 		.4byte	.LASF26
 3480 002a 01       		.byte	0x1
 3481 002b 5A000000 		.4byte	0x5a
 3482 002f 04       		.byte	0x4
 3483 0030 19       		.byte	0x19
 3484 0031 5A000000 		.4byte	0x5a
 3485 0035 03       		.uleb128 0x3
 3486 0036 20020000 		.4byte	.LASF0
 3487 003a 00       		.byte	0
 3488 003b 03       		.uleb128 0x3
 3489 003c 31020000 		.4byte	.LASF1
 3490 0040 01       		.byte	0x1
 3491 0041 03       		.uleb128 0x3
 3492 0042 42020000 		.4byte	.LASF2
 3493 0046 02       		.byte	0x2
 3494 0047 03       		.uleb128 0x3
 3495 0048 53020000 		.4byte	.LASF3
 3496 004c 03       		.byte	0x3
 3497 004d 03       		.uleb128 0x3
 3498 004e 64020000 		.4byte	.LASF4
 3499 0052 04       		.byte	0x4
 3500 0053 03       		.uleb128 0x3
 3501 0054 CD000000 		.4byte	.LASF5
 3502 0058 05       		.byte	0x5
 3503 0059 00       		.byte	0
 3504 005a 04       		.uleb128 0x4
 3505 005b 01       		.byte	0x1
 3506 005c 08       		.byte	0x8
 3507 005d 2A060000 		.4byte	.LASF6
 3508 0061 04       		.uleb128 0x4
 3509 0062 01       		.byte	0x1
 3510 0063 06       		.byte	0x6
 3511 0064 71010000 		.4byte	.LASF7
 3512 0068 05       		.uleb128 0x5
 3513 0069 8B000000 		.4byte	.LASF9
 3514 006d 02       		.byte	0x2
 3515 006e 1D       		.byte	0x1d
 3516 006f 5A000000 		.4byte	0x5a
 3517 0073 04       		.uleb128 0x4
 3518 0074 02       		.byte	0x2
 3519 0075 05       		.byte	0x5
 3520 0076 8B060000 		.4byte	.LASF8
 3521 007a 05       		.uleb128 0x5
 3522 007b DD020000 		.4byte	.LASF10
 3523 007f 02       		.byte	0x2
 3524 0080 2B       		.byte	0x2b
 3525 0081 85000000 		.4byte	0x85
 3526 0085 04       		.uleb128 0x4
 3527 0086 02       		.byte	0x2
 3528 0087 07       		.byte	0x7
 3529 0088 F9030000 		.4byte	.LASF11
 3530 008c 05       		.uleb128 0x5
 3531 008d C3040000 		.4byte	.LASF12
 3532 0091 02       		.byte	0x2
ARM GAS  C:\Users\HENRIC~1\AppData\Local\Temp\ccRPnI9G.s 			page 95


 3533 0092 3F       		.byte	0x3f
 3534 0093 97000000 		.4byte	0x97
 3535 0097 04       		.uleb128 0x4
 3536 0098 04       		.byte	0x4
 3537 0099 05       		.byte	0x5
 3538 009a F5010000 		.4byte	.LASF13
 3539 009e 04       		.uleb128 0x4
 3540 009f 04       		.byte	0x4
 3541 00a0 07       		.byte	0x7
 3542 00a1 9A030000 		.4byte	.LASF14
 3543 00a5 04       		.uleb128 0x4
 3544 00a6 08       		.byte	0x8
 3545 00a7 05       		.byte	0x5
 3546 00a8 63010000 		.4byte	.LASF15
 3547 00ac 04       		.uleb128 0x4
 3548 00ad 08       		.byte	0x8
 3549 00ae 07       		.byte	0x7
 3550 00af B6000000 		.4byte	.LASF16
 3551 00b3 06       		.uleb128 0x6
 3552 00b4 04       		.byte	0x4
 3553 00b5 05       		.byte	0x5
 3554 00b6 696E7400 		.ascii	"int\000"
 3555 00ba 04       		.uleb128 0x4
 3556 00bb 04       		.byte	0x4
 3557 00bc 07       		.byte	0x7
 3558 00bd 68080000 		.4byte	.LASF17
 3559 00c1 05       		.uleb128 0x5
 3560 00c2 D1090000 		.4byte	.LASF18
 3561 00c6 03       		.byte	0x3
 3562 00c7 18       		.byte	0x18
 3563 00c8 68000000 		.4byte	0x68
 3564 00cc 05       		.uleb128 0x5
 3565 00cd 68030000 		.4byte	.LASF19
 3566 00d1 03       		.byte	0x3
 3567 00d2 24       		.byte	0x24
 3568 00d3 7A000000 		.4byte	0x7a
 3569 00d7 05       		.uleb128 0x5
 3570 00d8 22060000 		.4byte	.LASF20
 3571 00dc 03       		.byte	0x3
 3572 00dd 2C       		.byte	0x2c
 3573 00de 8C000000 		.4byte	0x8c
 3574 00e2 04       		.uleb128 0x4
 3575 00e3 04       		.byte	0x4
 3576 00e4 04       		.byte	0x4
 3577 00e5 97050000 		.4byte	.LASF21
 3578 00e9 04       		.uleb128 0x4
 3579 00ea 08       		.byte	0x8
 3580 00eb 04       		.byte	0x4
 3581 00ec 8C020000 		.4byte	.LASF22
 3582 00f0 04       		.uleb128 0x4
 3583 00f1 01       		.byte	0x1
 3584 00f2 08       		.byte	0x8
 3585 00f3 4B080000 		.4byte	.LASF23
 3586 00f7 04       		.uleb128 0x4
 3587 00f8 08       		.byte	0x8
 3588 00f9 04       		.byte	0x4
 3589 00fa 33080000 		.4byte	.LASF24
ARM GAS  C:\Users\HENRIC~1\AppData\Local\Temp\ccRPnI9G.s 			page 96


 3590 00fe 04       		.uleb128 0x4
 3591 00ff 04       		.byte	0x4
 3592 0100 07       		.byte	0x7
 3593 0101 1D050000 		.4byte	.LASF25
 3594 0105 07       		.uleb128 0x7
 3595 0106 04       		.byte	0x4
 3596 0107 0B010000 		.4byte	0x10b
 3597 010b 08       		.uleb128 0x8
 3598 010c F0000000 		.4byte	0xf0
 3599 0110 02       		.uleb128 0x2
 3600 0111 A0070000 		.4byte	.LASF27
 3601 0115 01       		.byte	0x1
 3602 0116 5A000000 		.4byte	0x5a
 3603 011a 05       		.byte	0x5
 3604 011b 26       		.byte	0x26
 3605 011c 2F020000 		.4byte	0x22f
 3606 0120 03       		.uleb128 0x3
 3607 0121 79000000 		.4byte	.LASF28
 3608 0125 00       		.byte	0
 3609 0126 03       		.uleb128 0x3
 3610 0127 EF080000 		.4byte	.LASF29
 3611 012b 01       		.byte	0x1
 3612 012c 03       		.uleb128 0x3
 3613 012d F7050000 		.4byte	.LASF30
 3614 0131 02       		.byte	0x2
 3615 0132 03       		.uleb128 0x3
 3616 0133 57030000 		.4byte	.LASF31
 3617 0137 03       		.byte	0x3
 3618 0138 03       		.uleb128 0x3
 3619 0139 50080000 		.4byte	.LASF32
 3620 013d 04       		.byte	0x4
 3621 013e 03       		.uleb128 0x3
 3622 013f C0060000 		.4byte	.LASF33
 3623 0143 05       		.byte	0x5
 3624 0144 03       		.uleb128 0x3
 3625 0145 670A0000 		.4byte	.LASF34
 3626 0149 06       		.byte	0x6
 3627 014a 03       		.uleb128 0x3
 3628 014b FE000000 		.4byte	.LASF35
 3629 014f 07       		.byte	0x7
 3630 0150 03       		.uleb128 0x3
 3631 0151 A5040000 		.4byte	.LASF36
 3632 0155 08       		.byte	0x8
 3633 0156 03       		.uleb128 0x3
 3634 0157 83040000 		.4byte	.LASF37
 3635 015b 09       		.byte	0x9
 3636 015c 03       		.uleb128 0x3
 3637 015d 770A0000 		.4byte	.LASF38
 3638 0161 0A       		.byte	0xa
 3639 0162 03       		.uleb128 0x3
 3640 0163 B1040000 		.4byte	.LASF39
 3641 0167 0B       		.byte	0xb
 3642 0168 03       		.uleb128 0x3
 3643 0169 04050000 		.4byte	.LASF40
 3644 016d 0C       		.byte	0xc
 3645 016e 03       		.uleb128 0x3
 3646 016f E2080000 		.4byte	.LASF41
ARM GAS  C:\Users\HENRIC~1\AppData\Local\Temp\ccRPnI9G.s 			page 97


 3647 0173 0D       		.byte	0xd
 3648 0174 03       		.uleb128 0x3
 3649 0175 37040000 		.4byte	.LASF42
 3650 0179 0E       		.byte	0xe
 3651 017a 03       		.uleb128 0x3
 3652 017b 73050000 		.4byte	.LASF43
 3653 017f 0F       		.byte	0xf
 3654 0180 03       		.uleb128 0x3
 3655 0181 3F080000 		.4byte	.LASF44
 3656 0185 10       		.byte	0x10
 3657 0186 03       		.uleb128 0x3
 3658 0187 FF020000 		.4byte	.LASF45
 3659 018b 11       		.byte	0x11
 3660 018c 03       		.uleb128 0x3
 3661 018d 3D090000 		.4byte	.LASF46
 3662 0191 12       		.byte	0x12
 3663 0192 03       		.uleb128 0x3
 3664 0193 58060000 		.4byte	.LASF47
 3665 0197 13       		.byte	0x13
 3666 0198 03       		.uleb128 0x3
 3667 0199 95060000 		.4byte	.LASF48
 3668 019d 14       		.byte	0x14
 3669 019e 03       		.uleb128 0x3
 3670 019f D4080000 		.4byte	.LASF49
 3671 01a3 15       		.byte	0x15
 3672 01a4 03       		.uleb128 0x3
 3673 01a5 B7030000 		.4byte	.LASF50
 3674 01a9 16       		.byte	0x16
 3675 01aa 03       		.uleb128 0x3
 3676 01ab BD080000 		.4byte	.LASF51
 3677 01af 17       		.byte	0x17
 3678 01b0 03       		.uleb128 0x3
 3679 01b1 B2010000 		.4byte	.LASF52
 3680 01b5 18       		.byte	0x18
 3681 01b6 03       		.uleb128 0x3
 3682 01b7 80070000 		.4byte	.LASF53
 3683 01bb 19       		.byte	0x19
 3684 01bc 03       		.uleb128 0x3
 3685 01bd 7C020000 		.4byte	.LASF54
 3686 01c1 1A       		.byte	0x1a
 3687 01c2 03       		.uleb128 0x3
 3688 01c3 BC090000 		.4byte	.LASF55
 3689 01c7 1B       		.byte	0x1b
 3690 01c8 03       		.uleb128 0x3
 3691 01c9 2F090000 		.4byte	.LASF56
 3692 01cd 1C       		.byte	0x1c
 3693 01ce 03       		.uleb128 0x3
 3694 01cf 75040000 		.4byte	.LASF57
 3695 01d3 1D       		.byte	0x1d
 3696 01d4 03       		.uleb128 0x3
 3697 01d5 4B090000 		.4byte	.LASF58
 3698 01d9 1E       		.byte	0x1e
 3699 01da 03       		.uleb128 0x3
 3700 01db F3000000 		.4byte	.LASF59
 3701 01df 1F       		.byte	0x1f
 3702 01e0 03       		.uleb128 0x3
 3703 01e1 9D050000 		.4byte	.LASF60
ARM GAS  C:\Users\HENRIC~1\AppData\Local\Temp\ccRPnI9G.s 			page 98


 3704 01e5 20       		.byte	0x20
 3705 01e6 03       		.uleb128 0x3
 3706 01e7 11090000 		.4byte	.LASF61
 3707 01eb 21       		.byte	0x21
 3708 01ec 03       		.uleb128 0x3
 3709 01ed A9080000 		.4byte	.LASF62
 3710 01f1 22       		.byte	0x22
 3711 01f2 03       		.uleb128 0x3
 3712 01f3 EA040000 		.4byte	.LASF63
 3713 01f7 23       		.byte	0x23
 3714 01f8 03       		.uleb128 0x3
 3715 01f9 90070000 		.4byte	.LASF64
 3716 01fd 24       		.byte	0x24
 3717 01fe 03       		.uleb128 0x3
 3718 01ff C8080000 		.4byte	.LASF65
 3719 0203 25       		.byte	0x25
 3720 0204 03       		.uleb128 0x3
 3721 0205 6D090000 		.4byte	.LASF66
 3722 0209 26       		.byte	0x26
 3723 020a 03       		.uleb128 0x3
 3724 020b 98090000 		.4byte	.LASF67
 3725 020f 27       		.byte	0x27
 3726 0210 03       		.uleb128 0x3
 3727 0211 67040000 		.4byte	.LASF68
 3728 0215 28       		.byte	0x28
 3729 0216 03       		.uleb128 0x3
 3730 0217 09020000 		.4byte	.LASF69
 3731 021b 29       		.byte	0x29
 3732 021c 03       		.uleb128 0x3
 3733 021d 46030000 		.4byte	.LASF70
 3734 0221 2A       		.byte	0x2a
 3735 0222 03       		.uleb128 0x3
 3736 0223 3B000000 		.4byte	.LASF71
 3737 0227 2B       		.byte	0x2b
 3738 0228 03       		.uleb128 0x3
 3739 0229 3C050000 		.4byte	.LASF72
 3740 022d 2C       		.byte	0x2c
 3741 022e 00       		.byte	0
 3742 022f 02       		.uleb128 0x2
 3743 0230 EA000000 		.4byte	.LASF73
 3744 0234 01       		.byte	0x1
 3745 0235 5A000000 		.4byte	0x5a
 3746 0239 06       		.byte	0x6
 3747 023a 1A       		.byte	0x1a
 3748 023b 58020000 		.4byte	0x258
 3749 023f 03       		.uleb128 0x3
 3750 0240 9A0A0000 		.4byte	.LASF74
 3751 0244 00       		.byte	0
 3752 0245 03       		.uleb128 0x3
 3753 0246 8E010000 		.4byte	.LASF75
 3754 024a 01       		.byte	0x1
 3755 024b 03       		.uleb128 0x3
 3756 024c FC080000 		.4byte	.LASF76
 3757 0250 02       		.byte	0x2
 3758 0251 03       		.uleb128 0x3
 3759 0252 470A0000 		.4byte	.LASF77
 3760 0256 03       		.byte	0x3
ARM GAS  C:\Users\HENRIC~1\AppData\Local\Temp\ccRPnI9G.s 			page 99


 3761 0257 00       		.byte	0
 3762 0258 05       		.uleb128 0x5
 3763 0259 FE010000 		.4byte	.LASF78
 3764 025d 06       		.byte	0x6
 3765 025e 1F       		.byte	0x1f
 3766 025f 2F020000 		.4byte	0x22f
 3767 0263 02       		.uleb128 0x2
 3768 0264 47010000 		.4byte	.LASF79
 3769 0268 01       		.byte	0x1
 3770 0269 5A000000 		.4byte	0x5a
 3771 026d 07       		.byte	0x7
 3772 026e 1D       		.byte	0x1d
 3773 026f 8C020000 		.4byte	0x28c
 3774 0273 03       		.uleb128 0x3
 3775 0274 18020000 		.4byte	.LASF80
 3776 0278 00       		.byte	0
 3777 0279 03       		.uleb128 0x3
 3778 027a 90080000 		.4byte	.LASF81
 3779 027e 01       		.byte	0x1
 3780 027f 03       		.uleb128 0x3
 3781 0280 85080000 		.4byte	.LASF82
 3782 0284 02       		.byte	0x2
 3783 0285 03       		.uleb128 0x3
 3784 0286 AE000000 		.4byte	.LASF83
 3785 028a 03       		.byte	0x3
 3786 028b 00       		.byte	0
 3787 028c 02       		.uleb128 0x2
 3788 028d 74060000 		.4byte	.LASF84
 3789 0291 01       		.byte	0x1
 3790 0292 5A000000 		.4byte	0x5a
 3791 0296 08       		.byte	0x8
 3792 0297 34       		.byte	0x34
 3793 0298 B5020000 		.4byte	0x2b5
 3794 029c 03       		.uleb128 0x3
 3795 029d 98080000 		.4byte	.LASF85
 3796 02a1 00       		.byte	0
 3797 02a2 03       		.uleb128 0x3
 3798 02a3 0C040000 		.4byte	.LASF86
 3799 02a7 01       		.byte	0x1
 3800 02a8 03       		.uleb128 0x3
 3801 02a9 8A0A0000 		.4byte	.LASF87
 3802 02ad 02       		.byte	0x2
 3803 02ae 03       		.uleb128 0x3
 3804 02af 66050000 		.4byte	.LASF88
 3805 02b3 03       		.byte	0x3
 3806 02b4 00       		.byte	0
 3807 02b5 05       		.uleb128 0x5
 3808 02b6 E6090000 		.4byte	.LASF89
 3809 02ba 08       		.byte	0x8
 3810 02bb 39       		.byte	0x39
 3811 02bc 8C020000 		.4byte	0x28c
 3812 02c0 09       		.uleb128 0x9
 3813 02c1 D5040000 		.4byte	.LASF194
 3814 02c5 32       		.byte	0x32
 3815 02c6 08       		.byte	0x8
 3816 02c7 46       		.byte	0x46
 3817 02c8 21030000 		.4byte	0x321
ARM GAS  C:\Users\HENRIC~1\AppData\Local\Temp\ccRPnI9G.s 			page 100


 3818 02cc 0A       		.uleb128 0xa
 3819 02cd 73726300 		.ascii	"src\000"
 3820 02d1 08       		.byte	0x8
 3821 02d2 47       		.byte	0x47
 3822 02d3 C1000000 		.4byte	0xc1
 3823 02d7 00       		.byte	0
 3824 02d8 0A       		.uleb128 0xa
 3825 02d9 64737400 		.ascii	"dst\000"
 3826 02dd 08       		.byte	0x8
 3827 02de 48       		.byte	0x48
 3828 02df C1000000 		.4byte	0xc1
 3829 02e3 01       		.byte	0x1
 3830 02e4 0B       		.uleb128 0xb
 3831 02e5 DA030000 		.4byte	.LASF90
 3832 02e9 08       		.byte	0x8
 3833 02ea 49       		.byte	0x49
 3834 02eb B5020000 		.4byte	0x2b5
 3835 02ef 02       		.byte	0x2
 3836 02f0 0A       		.uleb128 0xa
 3837 02f1 6D736700 		.ascii	"msg\000"
 3838 02f5 08       		.byte	0x8
 3839 02f6 4A       		.byte	0x4a
 3840 02f7 21030000 		.4byte	0x321
 3841 02fb 03       		.byte	0x3
 3842 02fc 0B       		.uleb128 0xb
 3843 02fd B3090000 		.4byte	.LASF91
 3844 0301 08       		.byte	0x8
 3845 0302 4B       		.byte	0x4b
 3846 0303 C1000000 		.4byte	0xc1
 3847 0307 2F       		.byte	0x2f
 3848 0308 0B       		.uleb128 0xb
 3849 0309 51010000 		.4byte	.LASF92
 3850 030d 08       		.byte	0x8
 3851 030e 4C       		.byte	0x4c
 3852 030f 31030000 		.4byte	0x331
 3853 0313 30       		.byte	0x30
 3854 0314 0B       		.uleb128 0xb
 3855 0315 B7020000 		.4byte	.LASF93
 3856 0319 08       		.byte	0x8
 3857 031a 4D       		.byte	0x4d
 3858 031b 31030000 		.4byte	0x331
 3859 031f 31       		.byte	0x31
 3860 0320 00       		.byte	0
 3861 0321 0C       		.uleb128 0xc
 3862 0322 F0000000 		.4byte	0xf0
 3863 0326 31030000 		.4byte	0x331
 3864 032a 0D       		.uleb128 0xd
 3865 032b FE000000 		.4byte	0xfe
 3866 032f 2B       		.byte	0x2b
 3867 0330 00       		.byte	0
 3868 0331 04       		.uleb128 0x4
 3869 0332 01       		.byte	0x1
 3870 0333 02       		.byte	0x2
 3871 0334 1C060000 		.4byte	.LASF94
 3872 0338 05       		.uleb128 0x5
 3873 0339 2D000000 		.4byte	.LASF95
 3874 033d 08       		.byte	0x8
ARM GAS  C:\Users\HENRIC~1\AppData\Local\Temp\ccRPnI9G.s 			page 101


 3875 033e 4E       		.byte	0x4e
 3876 033f C0020000 		.4byte	0x2c0
 3877 0343 02       		.uleb128 0x2
 3878 0344 5B040000 		.4byte	.LASF96
 3879 0348 01       		.byte	0x1
 3880 0349 5A000000 		.4byte	0x5a
 3881 034d 01       		.byte	0x1
 3882 034e 2A       		.byte	0x2a
 3883 034f 7E030000 		.4byte	0x37e
 3884 0353 03       		.uleb128 0x3
 3885 0354 50040000 		.4byte	.LASF97
 3886 0358 00       		.byte	0
 3887 0359 03       		.uleb128 0x3
 3888 035a 5A0A0000 		.4byte	.LASF98
 3889 035e 01       		.byte	0x1
 3890 035f 03       		.uleb128 0x3
 3891 0360 9E060000 		.4byte	.LASF99
 3892 0364 02       		.byte	0x2
 3893 0365 03       		.uleb128 0x3
 3894 0366 BF010000 		.4byte	.LASF100
 3895 036a 03       		.byte	0x3
 3896 036b 03       		.uleb128 0x3
 3897 036c 4A050000 		.4byte	.LASF101
 3898 0370 04       		.byte	0x4
 3899 0371 03       		.uleb128 0x3
 3900 0372 58050000 		.4byte	.LASF102
 3901 0376 05       		.byte	0x5
 3902 0377 03       		.uleb128 0x3
 3903 0378 1A000000 		.4byte	.LASF103
 3904 037c 06       		.byte	0x6
 3905 037d 00       		.byte	0
 3906 037e 05       		.uleb128 0x5
 3907 037f 1D0A0000 		.4byte	.LASF104
 3908 0383 01       		.byte	0x1
 3909 0384 32       		.byte	0x32
 3910 0385 43030000 		.4byte	0x343
 3911 0389 0E       		.uleb128 0xe
 3912 038a 6B000000 		.4byte	.LASF106
 3913 038e 01       		.byte	0x1
 3914 038f 5104     		.2byte	0x451
 3915 0391 C1000000 		.4byte	0xc1
 3916 0395 00000000 		.4byte	.LFB77
 3917 0399 76000000 		.4byte	.LFE77-.LFB77
 3918 039d 01       		.uleb128 0x1
 3919 039e 9C       		.byte	0x9c
 3920 039f 19040000 		.4byte	0x419
 3921 03a3 0F       		.uleb128 0xf
 3922 03a4 B6080000 		.4byte	.LASF105
 3923 03a8 01       		.byte	0x1
 3924 03a9 5104     		.2byte	0x451
 3925 03ab 19040000 		.4byte	0x419
 3926 03af 00000000 		.4byte	.LLST0
 3927 03b3 10       		.uleb128 0x10
 3928 03b4 6C656E00 		.ascii	"len\000"
 3929 03b8 01       		.byte	0x1
 3930 03b9 5104     		.2byte	0x451
 3931 03bb C1000000 		.4byte	0xc1
ARM GAS  C:\Users\HENRIC~1\AppData\Local\Temp\ccRPnI9G.s 			page 102


 3932 03bf 1E000000 		.4byte	.LLST1
 3933 03c3 11       		.uleb128 0x11
 3934 03c4 67656E00 		.ascii	"gen\000"
 3935 03c8 01       		.byte	0x1
 3936 03c9 5204     		.2byte	0x452
 3937 03cb 1F040000 		.4byte	0x41f
 3938 03cf 13       		.byte	0x13
 3939 03d0 12       		.uleb128 0x12
 3940 03d1 6900     		.ascii	"i\000"
 3941 03d3 01       		.byte	0x1
 3942 03d4 5304     		.2byte	0x453
 3943 03d6 C1000000 		.4byte	0xc1
 3944 03da 3F000000 		.4byte	.LLST2
 3945 03de 12       		.uleb128 0x12
 3946 03df 6B00     		.ascii	"k\000"
 3947 03e1 01       		.byte	0x1
 3948 03e2 5304     		.2byte	0x453
 3949 03e4 C1000000 		.4byte	0xc1
 3950 03e8 69000000 		.4byte	.LLST3
 3951 03ec 12       		.uleb128 0x12
 3952 03ed 6200     		.ascii	"b\000"
 3953 03ef 01       		.byte	0x1
 3954 03f0 5304     		.2byte	0x453
 3955 03f2 C1000000 		.4byte	0xc1
 3956 03f6 A9000000 		.4byte	.LLST4
 3957 03fa 12       		.uleb128 0x12
 3958 03fb 6D736200 		.ascii	"msb\000"
 3959 03ff 01       		.byte	0x1
 3960 0400 5304     		.2byte	0x453
 3961 0402 C1000000 		.4byte	0xc1
 3962 0406 BC000000 		.4byte	.LLST5
 3963 040a 12       		.uleb128 0x12
 3964 040b 7800     		.ascii	"x\000"
 3965 040d 01       		.byte	0x1
 3966 040e 5404     		.2byte	0x454
 3967 0410 C1000000 		.4byte	0xc1
 3968 0414 DA000000 		.4byte	.LLST6
 3969 0418 00       		.byte	0
 3970 0419 07       		.uleb128 0x7
 3971 041a 04       		.byte	0x4
 3972 041b C1000000 		.4byte	0xc1
 3973 041f 08       		.uleb128 0x8
 3974 0420 C1000000 		.4byte	0xc1
 3975 0424 0E       		.uleb128 0xe
 3976 0425 2F040000 		.4byte	.LASF107
 3977 0429 01       		.byte	0x1
 3978 042a 5B03     		.2byte	0x35b
 3979 042c 7E030000 		.4byte	0x37e
 3980 0430 00000000 		.4byte	.LFB71
 3981 0434 B4000000 		.4byte	.LFE71-.LFB71
 3982 0438 01       		.uleb128 0x1
 3983 0439 9C       		.byte	0x9c
 3984 043a 8E050000 		.4byte	0x58e
 3985 043e 0F       		.uleb128 0xf
 3986 043f 71030000 		.4byte	.LASF108
 3987 0443 01       		.byte	0x1
 3988 0444 5B03     		.2byte	0x35b
ARM GAS  C:\Users\HENRIC~1\AppData\Local\Temp\ccRPnI9G.s 			page 103


 3989 0446 31030000 		.4byte	0x331
 3990 044a 25010000 		.4byte	.LLST7
 3991 044e 13       		.uleb128 0x13
 3992 044f A3080000 		.4byte	.LASF109
 3993 0453 01       		.byte	0x1
 3994 0454 5C03     		.2byte	0x35c
 3995 0456 C1000000 		.4byte	0xc1
 3996 045a 05       		.uleb128 0x5
 3997 045b 03       		.byte	0x3
 3998 045c 00000000 		.4byte	index.7762
 3999 0460 13       		.uleb128 0x13
 4000 0461 D5030000 		.4byte	.LASF110
 4001 0465 01       		.byte	0x1
 4002 0466 5D03     		.2byte	0x35d
 4003 0468 31030000 		.4byte	0x331
 4004 046c 05       		.uleb128 0x5
 4005 046d 03       		.byte	0x3
 4006 046e 01000000 		.4byte	hold.7763
 4007 0472 14       		.uleb128 0x14
 4008 0473 65090000 		.4byte	.LASF111
 4009 0477 01       		.byte	0x1
 4010 0478 6903     		.2byte	0x369
 4011 047a 31030000 		.4byte	0x331
 4012 047e 46010000 		.4byte	.LLST8
 4013 0482 14       		.uleb128 0x14
 4014 0483 F4090000 		.4byte	.LASF112
 4015 0487 01       		.byte	0x1
 4016 0488 7403     		.2byte	0x374
 4017 048a 31030000 		.4byte	0x331
 4018 048e 59010000 		.4byte	.LLST9
 4019 0492 13       		.uleb128 0x13
 4020 0493 75020000 		.4byte	.LASF113
 4021 0497 01       		.byte	0x1
 4022 0498 7503     		.2byte	0x375
 4023 049a 7E030000 		.4byte	0x37e
 4024 049e 01       		.uleb128 0x1
 4025 049f 50       		.byte	0x50
 4026 04a0 15       		.uleb128 0x15
 4027 04a1 14000000 		.4byte	.LVL25
 4028 04a5 CB230000 		.4byte	0x23cb
 4029 04a9 B4040000 		.4byte	0x4b4
 4030 04ad 16       		.uleb128 0x16
 4031 04ae 01       		.uleb128 0x1
 4032 04af 50       		.byte	0x50
 4033 04b0 02       		.uleb128 0x2
 4034 04b1 76       		.byte	0x76
 4035 04b2 00       		.sleb128 0
 4036 04b3 00       		.byte	0
 4037 04b4 15       		.uleb128 0x15
 4038 04b5 1C000000 		.4byte	.LVL26
 4039 04b9 D6230000 		.4byte	0x23d6
 4040 04bd CE040000 		.4byte	0x4ce
 4041 04c1 16       		.uleb128 0x16
 4042 04c2 01       		.uleb128 0x1
 4043 04c3 50       		.byte	0x50
 4044 04c4 02       		.uleb128 0x2
 4045 04c5 75       		.byte	0x75
ARM GAS  C:\Users\HENRIC~1\AppData\Local\Temp\ccRPnI9G.s 			page 104


 4046 04c6 00       		.sleb128 0
 4047 04c7 16       		.uleb128 0x16
 4048 04c8 01       		.uleb128 0x1
 4049 04c9 51       		.byte	0x51
 4050 04ca 02       		.uleb128 0x2
 4051 04cb 75       		.byte	0x75
 4052 04cc 00       		.sleb128 0
 4053 04cd 00       		.byte	0
 4054 04ce 15       		.uleb128 0x15
 4055 04cf 22000000 		.4byte	.LVL27
 4056 04d3 E1230000 		.4byte	0x23e1
 4057 04d7 E5040000 		.4byte	0x4e5
 4058 04db 16       		.uleb128 0x16
 4059 04dc 01       		.uleb128 0x1
 4060 04dd 50       		.byte	0x50
 4061 04de 05       		.uleb128 0x5
 4062 04df 03       		.byte	0x3
 4063 04e0 00000000 		.4byte	.LC6
 4064 04e4 00       		.byte	0
 4065 04e5 15       		.uleb128 0x15
 4066 04e6 2A000000 		.4byte	.LVL28
 4067 04ea D6230000 		.4byte	0x23d6
 4068 04ee FF040000 		.4byte	0x4ff
 4069 04f2 16       		.uleb128 0x16
 4070 04f3 01       		.uleb128 0x1
 4071 04f4 50       		.byte	0x50
 4072 04f5 02       		.uleb128 0x2
 4073 04f6 76       		.byte	0x76
 4074 04f7 00       		.sleb128 0
 4075 04f8 16       		.uleb128 0x16
 4076 04f9 01       		.uleb128 0x1
 4077 04fa 51       		.byte	0x51
 4078 04fb 02       		.uleb128 0x2
 4079 04fc 75       		.byte	0x75
 4080 04fd 00       		.sleb128 0
 4081 04fe 00       		.byte	0
 4082 04ff 17       		.uleb128 0x17
 4083 0500 36000000 		.4byte	.LVL29
 4084 0504 E1230000 		.4byte	0x23e1
 4085 0508 15       		.uleb128 0x15
 4086 0509 3C000000 		.4byte	.LVL30
 4087 050d EC230000 		.4byte	0x23ec
 4088 0511 1B050000 		.4byte	0x51b
 4089 0515 16       		.uleb128 0x16
 4090 0516 01       		.uleb128 0x1
 4091 0517 50       		.byte	0x50
 4092 0518 01       		.uleb128 0x1
 4093 0519 31       		.byte	0x31
 4094 051a 00       		.byte	0
 4095 051b 15       		.uleb128 0x15
 4096 051c 6E000000 		.4byte	.LVL32
 4097 0520 CB230000 		.4byte	0x23cb
 4098 0524 2E050000 		.4byte	0x52e
 4099 0528 16       		.uleb128 0x16
 4100 0529 01       		.uleb128 0x1
 4101 052a 50       		.byte	0x50
 4102 052b 01       		.uleb128 0x1
ARM GAS  C:\Users\HENRIC~1\AppData\Local\Temp\ccRPnI9G.s 			page 105


 4103 052c 31       		.byte	0x31
 4104 052d 00       		.byte	0
 4105 052e 15       		.uleb128 0x15
 4106 052f 76000000 		.4byte	.LVL33
 4107 0533 D6230000 		.4byte	0x23d6
 4108 0537 46050000 		.4byte	0x546
 4109 053b 16       		.uleb128 0x16
 4110 053c 01       		.uleb128 0x1
 4111 053d 50       		.byte	0x50
 4112 053e 01       		.uleb128 0x1
 4113 053f 30       		.byte	0x30
 4114 0540 16       		.uleb128 0x16
 4115 0541 01       		.uleb128 0x1
 4116 0542 51       		.byte	0x51
 4117 0543 01       		.uleb128 0x1
 4118 0544 30       		.byte	0x30
 4119 0545 00       		.byte	0
 4120 0546 15       		.uleb128 0x15
 4121 0547 7C000000 		.4byte	.LVL34
 4122 054b E1230000 		.4byte	0x23e1
 4123 054f 5D050000 		.4byte	0x55d
 4124 0553 16       		.uleb128 0x16
 4125 0554 01       		.uleb128 0x1
 4126 0555 50       		.byte	0x50
 4127 0556 05       		.uleb128 0x5
 4128 0557 03       		.byte	0x3
 4129 0558 00000000 		.4byte	.LC6
 4130 055c 00       		.byte	0
 4131 055d 15       		.uleb128 0x15
 4132 055e 84000000 		.4byte	.LVL35
 4133 0562 D6230000 		.4byte	0x23d6
 4134 0566 75050000 		.4byte	0x575
 4135 056a 16       		.uleb128 0x16
 4136 056b 01       		.uleb128 0x1
 4137 056c 50       		.byte	0x50
 4138 056d 01       		.uleb128 0x1
 4139 056e 31       		.byte	0x31
 4140 056f 16       		.uleb128 0x16
 4141 0570 01       		.uleb128 0x1
 4142 0571 51       		.byte	0x51
 4143 0572 01       		.uleb128 0x1
 4144 0573 30       		.byte	0x30
 4145 0574 00       		.byte	0
 4146 0575 17       		.uleb128 0x17
 4147 0576 90000000 		.4byte	.LVL36
 4148 057a E1230000 		.4byte	0x23e1
 4149 057e 18       		.uleb128 0x18
 4150 057f 9A000000 		.4byte	.LVL37
 4151 0583 EC230000 		.4byte	0x23ec
 4152 0587 16       		.uleb128 0x16
 4153 0588 01       		.uleb128 0x1
 4154 0589 50       		.byte	0x50
 4155 058a 01       		.uleb128 0x1
 4156 058b 30       		.byte	0x30
 4157 058c 00       		.byte	0
 4158 058d 00       		.byte	0
 4159 058e 0E       		.uleb128 0xe
ARM GAS  C:\Users\HENRIC~1\AppData\Local\Temp\ccRPnI9G.s 			page 106


 4160 058f 5E080000 		.4byte	.LASF114
 4161 0593 01       		.byte	0x1
 4162 0594 7E03     		.2byte	0x37e
 4163 0596 7E030000 		.4byte	0x37e
 4164 059a 00000000 		.4byte	.LFB72
 4165 059e 60010000 		.4byte	.LFE72-.LFB72
 4166 05a2 01       		.uleb128 0x1
 4167 05a3 9C       		.byte	0x9c
 4168 05a4 5E080000 		.4byte	0x85e
 4169 05a8 0F       		.uleb128 0xf
 4170 05a9 71030000 		.4byte	.LASF108
 4171 05ad 01       		.byte	0x1
 4172 05ae 7E03     		.2byte	0x37e
 4173 05b0 31030000 		.4byte	0x331
 4174 05b4 83010000 		.4byte	.LLST10
 4175 05b8 13       		.uleb128 0x13
 4176 05b9 B6080000 		.4byte	.LASF105
 4177 05bd 01       		.byte	0x1
 4178 05be 7F03     		.2byte	0x37f
 4179 05c0 5E080000 		.4byte	0x85e
 4180 05c4 05       		.uleb128 0x5
 4181 05c5 03       		.byte	0x3
 4182 05c6 44000000 		.4byte	buffer.7770
 4183 05ca 13       		.uleb128 0x13
 4184 05cb 22090000 		.4byte	.LASF115
 4185 05cf 01       		.byte	0x1
 4186 05d0 8003     		.2byte	0x380
 4187 05d2 6E080000 		.4byte	0x86e
 4188 05d6 05       		.uleb128 0x5
 4189 05d7 03       		.byte	0x3
 4190 05d8 84000000 		.4byte	disp.7771
 4191 05dc 13       		.uleb128 0x13
 4192 05dd 0C0A0000 		.4byte	.LASF116
 4193 05e1 01       		.byte	0x1
 4194 05e2 8103     		.2byte	0x381
 4195 05e4 7E080000 		.4byte	0x87e
 4196 05e8 05       		.uleb128 0x5
 4197 05e9 03       		.byte	0x3
 4198 05ea 20000000 		.4byte	txStr.7772
 4199 05ee 13       		.uleb128 0x13
 4200 05ef A7090000 		.4byte	.LASF117
 4201 05f3 01       		.byte	0x1
 4202 05f4 8203     		.2byte	0x382
 4203 05f6 C1000000 		.4byte	0xc1
 4204 05fa 05       		.uleb128 0x5
 4205 05fb 03       		.byte	0x3
 4206 05fc 41000000 		.4byte	txStr_index.7773
 4207 0600 14       		.uleb128 0x14
 4208 0601 8F030000 		.4byte	.LASF118
 4209 0605 01       		.byte	0x1
 4210 0606 BE03     		.2byte	0x3be
 4211 0608 31030000 		.4byte	0x331
 4212 060c A4010000 		.4byte	.LLST11
 4213 0610 13       		.uleb128 0x13
 4214 0611 75020000 		.4byte	.LASF113
 4215 0615 01       		.byte	0x1
 4216 0616 BF03     		.2byte	0x3bf
ARM GAS  C:\Users\HENRIC~1\AppData\Local\Temp\ccRPnI9G.s 			page 107


 4217 0618 7E030000 		.4byte	0x37e
 4218 061c 01       		.uleb128 0x1
 4219 061d 50       		.byte	0x50
 4220 061e 19       		.uleb128 0x19
 4221 061f 3A000000 		.4byte	.LBB2
 4222 0623 06010000 		.4byte	.LBE2-.LBB2
 4223 0627 D9070000 		.4byte	0x7d9
 4224 062b 14       		.uleb128 0x14
 4225 062c 27030000 		.4byte	.LASF119
 4226 0630 01       		.byte	0x1
 4227 0631 9103     		.2byte	0x391
 4228 0633 CC000000 		.4byte	0xcc
 4229 0637 CE010000 		.4byte	.LLST12
 4230 063b 14       		.uleb128 0x14
 4231 063c A5000000 		.4byte	.LASF120
 4232 0640 01       		.byte	0x1
 4233 0641 9C03     		.2byte	0x39c
 4234 0643 31030000 		.4byte	0x331
 4235 0647 E1010000 		.4byte	.LLST13
 4236 064b 14       		.uleb128 0x14
 4237 064c A3080000 		.4byte	.LASF109
 4238 0650 01       		.byte	0x1
 4239 0651 9D03     		.2byte	0x39d
 4240 0653 C1000000 		.4byte	0xc1
 4241 0657 2E020000 		.4byte	.LLST14
 4242 065b 12       		.uleb128 0x12
 4243 065c 6300     		.ascii	"c\000"
 4244 065e 01       		.byte	0x1
 4245 065f 9E03     		.2byte	0x39e
 4246 0661 F0000000 		.4byte	0xf0
 4247 0665 58020000 		.4byte	.LLST15
 4248 0669 15       		.uleb128 0x15
 4249 066a 4C000000 		.4byte	.LVL50
 4250 066e F7230000 		.4byte	0x23f7
 4251 0672 88060000 		.4byte	0x688
 4252 0676 16       		.uleb128 0x16
 4253 0677 01       		.uleb128 0x1
 4254 0678 50       		.byte	0x50
 4255 0679 02       		.uleb128 0x2
 4256 067a 76       		.byte	0x76
 4257 067b 00       		.sleb128 0
 4258 067c 16       		.uleb128 0x16
 4259 067d 01       		.uleb128 0x1
 4260 067e 51       		.byte	0x51
 4261 067f 01       		.uleb128 0x1
 4262 0680 30       		.byte	0x30
 4263 0681 16       		.uleb128 0x16
 4264 0682 01       		.uleb128 0x1
 4265 0683 52       		.byte	0x52
 4266 0684 02       		.uleb128 0x2
 4267 0685 74       		.byte	0x74
 4268 0686 00       		.sleb128 0
 4269 0687 00       		.byte	0
 4270 0688 15       		.uleb128 0x15
 4271 0689 54000000 		.4byte	.LVL51
 4272 068d 00240000 		.4byte	0x2400
 4273 0691 A2060000 		.4byte	0x6a2
ARM GAS  C:\Users\HENRIC~1\AppData\Local\Temp\ccRPnI9G.s 			page 108


 4274 0695 16       		.uleb128 0x16
 4275 0696 01       		.uleb128 0x1
 4276 0697 50       		.byte	0x50
 4277 0698 02       		.uleb128 0x2
 4278 0699 76       		.byte	0x76
 4279 069a 00       		.sleb128 0
 4280 069b 16       		.uleb128 0x16
 4281 069c 01       		.uleb128 0x1
 4282 069d 51       		.byte	0x51
 4283 069e 02       		.uleb128 0x2
 4284 069f 74       		.byte	0x74
 4285 06a0 00       		.sleb128 0
 4286 06a1 00       		.byte	0
 4287 06a2 15       		.uleb128 0x15
 4288 06a3 5C000000 		.4byte	.LVL53
 4289 06a7 0B240000 		.4byte	0x240b
 4290 06ab B6060000 		.4byte	0x6b6
 4291 06af 16       		.uleb128 0x16
 4292 06b0 01       		.uleb128 0x1
 4293 06b1 50       		.byte	0x50
 4294 06b2 02       		.uleb128 0x2
 4295 06b3 76       		.byte	0x76
 4296 06b4 00       		.sleb128 0
 4297 06b5 00       		.byte	0
 4298 06b6 15       		.uleb128 0x15
 4299 06b7 64000000 		.4byte	.LVL54
 4300 06bb 16240000 		.4byte	0x2416
 4301 06bf CA060000 		.4byte	0x6ca
 4302 06c3 16       		.uleb128 0x16
 4303 06c4 01       		.uleb128 0x1
 4304 06c5 50       		.byte	0x50
 4305 06c6 02       		.uleb128 0x2
 4306 06c7 76       		.byte	0x76
 4307 06c8 00       		.sleb128 0
 4308 06c9 00       		.byte	0
 4309 06ca 15       		.uleb128 0x15
 4310 06cb 6A000000 		.4byte	.LVL55
 4311 06cf CB230000 		.4byte	0x23cb
 4312 06d3 DD060000 		.4byte	0x6dd
 4313 06d7 16       		.uleb128 0x16
 4314 06d8 01       		.uleb128 0x1
 4315 06d9 50       		.byte	0x50
 4316 06da 01       		.uleb128 0x1
 4317 06db 31       		.byte	0x31
 4318 06dc 00       		.byte	0
 4319 06dd 15       		.uleb128 0x15
 4320 06de 72000000 		.4byte	.LVL56
 4321 06e2 D6230000 		.4byte	0x23d6
 4322 06e6 F5060000 		.4byte	0x6f5
 4323 06ea 16       		.uleb128 0x16
 4324 06eb 01       		.uleb128 0x1
 4325 06ec 50       		.byte	0x50
 4326 06ed 01       		.uleb128 0x1
 4327 06ee 30       		.byte	0x30
 4328 06ef 16       		.uleb128 0x16
 4329 06f0 01       		.uleb128 0x1
 4330 06f1 51       		.byte	0x51
ARM GAS  C:\Users\HENRIC~1\AppData\Local\Temp\ccRPnI9G.s 			page 109


 4331 06f2 01       		.uleb128 0x1
 4332 06f3 30       		.byte	0x30
 4333 06f4 00       		.byte	0
 4334 06f5 15       		.uleb128 0x15
 4335 06f6 78000000 		.4byte	.LVL57
 4336 06fa E1230000 		.4byte	0x23e1
 4337 06fe 0C070000 		.4byte	0x70c
 4338 0702 16       		.uleb128 0x16
 4339 0703 01       		.uleb128 0x1
 4340 0704 50       		.byte	0x50
 4341 0705 05       		.uleb128 0x5
 4342 0706 03       		.byte	0x3
 4343 0707 08000000 		.4byte	.LC7
 4344 070b 00       		.byte	0
 4345 070c 15       		.uleb128 0x15
 4346 070d 80000000 		.4byte	.LVL58
 4347 0711 D6230000 		.4byte	0x23d6
 4348 0715 24070000 		.4byte	0x724
 4349 0719 16       		.uleb128 0x16
 4350 071a 01       		.uleb128 0x1
 4351 071b 50       		.byte	0x50
 4352 071c 01       		.uleb128 0x1
 4353 071d 31       		.byte	0x31
 4354 071e 16       		.uleb128 0x16
 4355 071f 01       		.uleb128 0x1
 4356 0720 51       		.byte	0x51
 4357 0721 01       		.uleb128 0x1
 4358 0722 30       		.byte	0x30
 4359 0723 00       		.byte	0
 4360 0724 15       		.uleb128 0x15
 4361 0725 A0000000 		.4byte	.LVL59
 4362 0729 E1230000 		.4byte	0x23e1
 4363 072d 39070000 		.4byte	0x739
 4364 0731 16       		.uleb128 0x16
 4365 0732 01       		.uleb128 0x1
 4366 0733 50       		.byte	0x50
 4367 0734 03       		.uleb128 0x3
 4368 0735 77       		.byte	0x77
 4369 0736 8401     		.sleb128 132
 4370 0738 00       		.byte	0
 4371 0739 15       		.uleb128 0x15
 4372 073a 0E010000 		.4byte	.LVL75
 4373 073e D6230000 		.4byte	0x23d6
 4374 0742 51070000 		.4byte	0x751
 4375 0746 16       		.uleb128 0x16
 4376 0747 01       		.uleb128 0x1
 4377 0748 50       		.byte	0x50
 4378 0749 01       		.uleb128 0x1
 4379 074a 31       		.byte	0x31
 4380 074b 16       		.uleb128 0x16
 4381 074c 01       		.uleb128 0x1
 4382 074d 51       		.byte	0x51
 4383 074e 01       		.uleb128 0x1
 4384 074f 30       		.byte	0x30
 4385 0750 00       		.byte	0
 4386 0751 15       		.uleb128 0x15
 4387 0752 14010000 		.4byte	.LVL76
ARM GAS  C:\Users\HENRIC~1\AppData\Local\Temp\ccRPnI9G.s 			page 110


 4388 0756 E1230000 		.4byte	0x23e1
 4389 075a 68070000 		.4byte	0x768
 4390 075e 16       		.uleb128 0x16
 4391 075f 01       		.uleb128 0x1
 4392 0760 50       		.byte	0x50
 4393 0761 05       		.uleb128 0x5
 4394 0762 03       		.byte	0x3
 4395 0763 10000000 		.4byte	.LC8
 4396 0767 00       		.byte	0
 4397 0768 15       		.uleb128 0x15
 4398 0769 1C010000 		.4byte	.LVL77
 4399 076d 0B240000 		.4byte	0x240b
 4400 0771 7C070000 		.4byte	0x77c
 4401 0775 16       		.uleb128 0x16
 4402 0776 01       		.uleb128 0x1
 4403 0777 50       		.byte	0x50
 4404 0778 02       		.uleb128 0x2
 4405 0779 74       		.byte	0x74
 4406 077a 00       		.sleb128 0
 4407 077b 00       		.byte	0
 4408 077c 15       		.uleb128 0x15
 4409 077d 24010000 		.4byte	.LVL78
 4410 0781 21240000 		.4byte	0x2421
 4411 0785 90070000 		.4byte	0x790
 4412 0789 16       		.uleb128 0x16
 4413 078a 01       		.uleb128 0x1
 4414 078b 50       		.byte	0x50
 4415 078c 02       		.uleb128 0x2
 4416 078d 74       		.byte	0x74
 4417 078e 00       		.sleb128 0
 4418 078f 00       		.byte	0
 4419 0790 17       		.uleb128 0x17
 4420 0791 28010000 		.4byte	.LVL79
 4421 0795 2C240000 		.4byte	0x242c
 4422 0799 15       		.uleb128 0x15
 4423 079a 32010000 		.4byte	.LVL80
 4424 079e 37240000 		.4byte	0x2437
 4425 07a2 AD070000 		.4byte	0x7ad
 4426 07a6 16       		.uleb128 0x16
 4427 07a7 01       		.uleb128 0x1
 4428 07a8 50       		.byte	0x50
 4429 07a9 02       		.uleb128 0x2
 4430 07aa 08       		.byte	0x8
 4431 07ab 64       		.byte	0x64
 4432 07ac 00       		.byte	0
 4433 07ad 15       		.uleb128 0x15
 4434 07ae 3A010000 		.4byte	.LVL81
 4435 07b2 D6230000 		.4byte	0x23d6
 4436 07b6 C5070000 		.4byte	0x7c5
 4437 07ba 16       		.uleb128 0x16
 4438 07bb 01       		.uleb128 0x1
 4439 07bc 50       		.byte	0x50
 4440 07bd 01       		.uleb128 0x1
 4441 07be 31       		.byte	0x31
 4442 07bf 16       		.uleb128 0x16
 4443 07c0 01       		.uleb128 0x1
 4444 07c1 51       		.byte	0x51
ARM GAS  C:\Users\HENRIC~1\AppData\Local\Temp\ccRPnI9G.s 			page 111


 4445 07c2 01       		.uleb128 0x1
 4446 07c3 30       		.byte	0x30
 4447 07c4 00       		.byte	0
 4448 07c5 18       		.uleb128 0x18
 4449 07c6 40010000 		.4byte	.LVL82
 4450 07ca E1230000 		.4byte	0x23e1
 4451 07ce 16       		.uleb128 0x16
 4452 07cf 01       		.uleb128 0x1
 4453 07d0 50       		.byte	0x50
 4454 07d1 05       		.uleb128 0x5
 4455 07d2 03       		.byte	0x3
 4456 07d3 20000000 		.4byte	.LC9
 4457 07d7 00       		.byte	0
 4458 07d8 00       		.byte	0
 4459 07d9 15       		.uleb128 0x15
 4460 07da 12000000 		.4byte	.LVL44
 4461 07de F7230000 		.4byte	0x23f7
 4462 07e2 F8070000 		.4byte	0x7f8
 4463 07e6 16       		.uleb128 0x16
 4464 07e7 01       		.uleb128 0x1
 4465 07e8 50       		.byte	0x50
 4466 07e9 02       		.uleb128 0x2
 4467 07ea 75       		.byte	0x75
 4468 07eb 20       		.sleb128 32
 4469 07ec 16       		.uleb128 0x16
 4470 07ed 01       		.uleb128 0x1
 4471 07ee 51       		.byte	0x51
 4472 07ef 01       		.uleb128 0x1
 4473 07f0 30       		.byte	0x30
 4474 07f1 16       		.uleb128 0x16
 4475 07f2 01       		.uleb128 0x1
 4476 07f3 52       		.byte	0x52
 4477 07f4 02       		.uleb128 0x2
 4478 07f5 08       		.byte	0x8
 4479 07f6 21       		.byte	0x21
 4480 07f7 00       		.byte	0
 4481 07f8 15       		.uleb128 0x15
 4482 07f9 1E000000 		.4byte	.LVL45
 4483 07fd CB230000 		.4byte	0x23cb
 4484 0801 0B080000 		.4byte	0x80b
 4485 0805 16       		.uleb128 0x16
 4486 0806 01       		.uleb128 0x1
 4487 0807 50       		.byte	0x50
 4488 0808 01       		.uleb128 0x1
 4489 0809 31       		.byte	0x31
 4490 080a 00       		.byte	0
 4491 080b 15       		.uleb128 0x15
 4492 080c 26000000 		.4byte	.LVL46
 4493 0810 D6230000 		.4byte	0x23d6
 4494 0814 25080000 		.4byte	0x825
 4495 0818 16       		.uleb128 0x16
 4496 0819 01       		.uleb128 0x1
 4497 081a 50       		.byte	0x50
 4498 081b 02       		.uleb128 0x2
 4499 081c 74       		.byte	0x74
 4500 081d 00       		.sleb128 0
 4501 081e 16       		.uleb128 0x16
ARM GAS  C:\Users\HENRIC~1\AppData\Local\Temp\ccRPnI9G.s 			page 112


 4502 081f 01       		.uleb128 0x1
 4503 0820 51       		.byte	0x51
 4504 0821 02       		.uleb128 0x2
 4505 0822 74       		.byte	0x74
 4506 0823 00       		.sleb128 0
 4507 0824 00       		.byte	0
 4508 0825 15       		.uleb128 0x15
 4509 0826 2C000000 		.4byte	.LVL47
 4510 082a E1230000 		.4byte	0x23e1
 4511 082e 3C080000 		.4byte	0x83c
 4512 0832 16       		.uleb128 0x16
 4513 0833 01       		.uleb128 0x1
 4514 0834 50       		.byte	0x50
 4515 0835 05       		.uleb128 0x5
 4516 0836 03       		.byte	0x3
 4517 0837 08000000 		.4byte	.LC7
 4518 083b 00       		.byte	0
 4519 083c 17       		.uleb128 0x17
 4520 083d 30000000 		.4byte	.LVL48
 4521 0841 42240000 		.4byte	0x2442
 4522 0845 17       		.uleb128 0x17
 4523 0846 34000000 		.4byte	.LVL49
 4524 084a 4D240000 		.4byte	0x244d
 4525 084e 18       		.uleb128 0x18
 4526 084f 46010000 		.4byte	.LVL83
 4527 0853 EC230000 		.4byte	0x23ec
 4528 0857 16       		.uleb128 0x16
 4529 0858 01       		.uleb128 0x1
 4530 0859 50       		.byte	0x50
 4531 085a 01       		.uleb128 0x1
 4532 085b 31       		.byte	0x31
 4533 085c 00       		.byte	0
 4534 085d 00       		.byte	0
 4535 085e 0C       		.uleb128 0xc
 4536 085f F0000000 		.4byte	0xf0
 4537 0863 6E080000 		.4byte	0x86e
 4538 0867 0D       		.uleb128 0xd
 4539 0868 FE000000 		.4byte	0xfe
 4540 086c 3F       		.byte	0x3f
 4541 086d 00       		.byte	0
 4542 086e 0C       		.uleb128 0xc
 4543 086f F0000000 		.4byte	0xf0
 4544 0873 7E080000 		.4byte	0x87e
 4545 0877 0D       		.uleb128 0xd
 4546 0878 FE000000 		.4byte	0xfe
 4547 087c 0F       		.byte	0xf
 4548 087d 00       		.byte	0
 4549 087e 0C       		.uleb128 0xc
 4550 087f F0000000 		.4byte	0xf0
 4551 0883 8E080000 		.4byte	0x88e
 4552 0887 0D       		.uleb128 0xd
 4553 0888 FE000000 		.4byte	0xfe
 4554 088c 20       		.byte	0x20
 4555 088d 00       		.byte	0
 4556 088e 0E       		.uleb128 0xe
 4557 088f 5B000000 		.4byte	.LASF121
 4558 0893 01       		.byte	0x1
ARM GAS  C:\Users\HENRIC~1\AppData\Local\Temp\ccRPnI9G.s 			page 113


 4559 0894 C803     		.2byte	0x3c8
 4560 0896 7E030000 		.4byte	0x37e
 4561 089a 00000000 		.4byte	.LFB73
 4562 089e 9C000000 		.4byte	.LFE73-.LFB73
 4563 08a2 01       		.uleb128 0x1
 4564 08a3 9C       		.byte	0x9c
 4565 08a4 0A0A0000 		.4byte	0xa0a
 4566 08a8 0F       		.uleb128 0xf
 4567 08a9 71030000 		.4byte	.LASF108
 4568 08ad 01       		.byte	0x1
 4569 08ae C803     		.2byte	0x3c8
 4570 08b0 31030000 		.4byte	0x331
 4571 08b4 76020000 		.4byte	.LLST16
 4572 08b8 13       		.uleb128 0x13
 4573 08b9 D5030000 		.4byte	.LASF110
 4574 08bd 01       		.byte	0x1
 4575 08be C903     		.2byte	0x3c9
 4576 08c0 31030000 		.4byte	0x331
 4577 08c4 05       		.uleb128 0x5
 4578 08c5 03       		.byte	0x3
 4579 08c6 94000000 		.4byte	hold.7789
 4580 08ca 14       		.uleb128 0x14
 4581 08cb D1010000 		.4byte	.LASF122
 4582 08cf 01       		.byte	0x1
 4583 08d0 CA03     		.2byte	0x3ca
 4584 08d2 31030000 		.4byte	0x331
 4585 08d6 97020000 		.4byte	.LLST17
 4586 08da 14       		.uleb128 0x14
 4587 08db 8F030000 		.4byte	.LASF118
 4588 08df 01       		.byte	0x1
 4589 08e0 DF03     		.2byte	0x3df
 4590 08e2 31030000 		.4byte	0x331
 4591 08e6 AA020000 		.4byte	.LLST18
 4592 08ea 13       		.uleb128 0x13
 4593 08eb 75020000 		.4byte	.LASF113
 4594 08ef 01       		.byte	0x1
 4595 08f0 E003     		.2byte	0x3e0
 4596 08f2 7E030000 		.4byte	0x37e
 4597 08f6 01       		.uleb128 0x1
 4598 08f7 50       		.byte	0x50
 4599 08f8 19       		.uleb128 0x19
 4600 08f9 3A000000 		.4byte	.LBB3
 4601 08fd 38000000 		.4byte	.LBE3-.LBB3
 4602 0901 A5090000 		.4byte	0x9a5
 4603 0905 13       		.uleb128 0x13
 4604 0906 B6080000 		.4byte	.LASF105
 4605 090a 01       		.byte	0x1
 4606 090b D603     		.2byte	0x3d6
 4607 090d 0A0A0000 		.4byte	0xa0a
 4608 0911 02       		.uleb128 0x2
 4609 0912 91       		.byte	0x91
 4610 0913 6C       		.sleb128 -20
 4611 0914 15       		.uleb128 0x15
 4612 0915 42000000 		.4byte	.LVL94
 4613 0919 D6230000 		.4byte	0x23d6
 4614 091d 2C090000 		.4byte	0x92c
 4615 0921 16       		.uleb128 0x16
ARM GAS  C:\Users\HENRIC~1\AppData\Local\Temp\ccRPnI9G.s 			page 114


 4616 0922 01       		.uleb128 0x1
 4617 0923 50       		.byte	0x50
 4618 0924 01       		.uleb128 0x1
 4619 0925 31       		.byte	0x31
 4620 0926 16       		.uleb128 0x16
 4621 0927 01       		.uleb128 0x1
 4622 0928 51       		.byte	0x51
 4623 0929 01       		.uleb128 0x1
 4624 092a 30       		.byte	0x30
 4625 092b 00       		.byte	0
 4626 092c 15       		.uleb128 0x15
 4627 092d 48000000 		.4byte	.LVL95
 4628 0931 E1230000 		.4byte	0x23e1
 4629 0935 43090000 		.4byte	0x943
 4630 0939 16       		.uleb128 0x16
 4631 093a 01       		.uleb128 0x1
 4632 093b 50       		.byte	0x50
 4633 093c 05       		.uleb128 0x5
 4634 093d 03       		.byte	0x3
 4635 093e 10000000 		.4byte	.LC8
 4636 0942 00       		.byte	0
 4637 0943 15       		.uleb128 0x15
 4638 0944 56000000 		.4byte	.LVL96
 4639 0948 21240000 		.4byte	0x2421
 4640 094c 5C090000 		.4byte	0x95c
 4641 0950 16       		.uleb128 0x16
 4642 0951 01       		.uleb128 0x1
 4643 0952 50       		.byte	0x50
 4644 0953 02       		.uleb128 0x2
 4645 0954 91       		.byte	0x91
 4646 0955 6C       		.sleb128 -20
 4647 0956 16       		.uleb128 0x16
 4648 0957 01       		.uleb128 0x1
 4649 0958 51       		.byte	0x51
 4650 0959 01       		.uleb128 0x1
 4651 095a 34       		.byte	0x34
 4652 095b 00       		.byte	0
 4653 095c 17       		.uleb128 0x17
 4654 095d 5A000000 		.4byte	.LVL97
 4655 0961 2C240000 		.4byte	0x242c
 4656 0965 15       		.uleb128 0x15
 4657 0966 64000000 		.4byte	.LVL98
 4658 096a 37240000 		.4byte	0x2437
 4659 096e 79090000 		.4byte	0x979
 4660 0972 16       		.uleb128 0x16
 4661 0973 01       		.uleb128 0x1
 4662 0974 50       		.byte	0x50
 4663 0975 02       		.uleb128 0x2
 4664 0976 08       		.byte	0x8
 4665 0977 64       		.byte	0x64
 4666 0978 00       		.byte	0
 4667 0979 15       		.uleb128 0x15
 4668 097a 6C000000 		.4byte	.LVL99
 4669 097e D6230000 		.4byte	0x23d6
 4670 0982 91090000 		.4byte	0x991
 4671 0986 16       		.uleb128 0x16
 4672 0987 01       		.uleb128 0x1
ARM GAS  C:\Users\HENRIC~1\AppData\Local\Temp\ccRPnI9G.s 			page 115


 4673 0988 50       		.byte	0x50
 4674 0989 01       		.uleb128 0x1
 4675 098a 31       		.byte	0x31
 4676 098b 16       		.uleb128 0x16
 4677 098c 01       		.uleb128 0x1
 4678 098d 51       		.byte	0x51
 4679 098e 01       		.uleb128 0x1
 4680 098f 30       		.byte	0x30
 4681 0990 00       		.byte	0
 4682 0991 18       		.uleb128 0x18
 4683 0992 72000000 		.4byte	.LVL100
 4684 0996 E1230000 		.4byte	0x23e1
 4685 099a 16       		.uleb128 0x16
 4686 099b 01       		.uleb128 0x1
 4687 099c 50       		.byte	0x50
 4688 099d 05       		.uleb128 0x5
 4689 099e 03       		.byte	0x3
 4690 099f 20000000 		.4byte	.LC9
 4691 09a3 00       		.byte	0
 4692 09a4 00       		.byte	0
 4693 09a5 15       		.uleb128 0x15
 4694 09a6 0C000000 		.4byte	.LVL89
 4695 09aa EC230000 		.4byte	0x23ec
 4696 09ae B8090000 		.4byte	0x9b8
 4697 09b2 16       		.uleb128 0x16
 4698 09b3 01       		.uleb128 0x1
 4699 09b4 50       		.byte	0x50
 4700 09b5 01       		.uleb128 0x1
 4701 09b6 30       		.byte	0x30
 4702 09b7 00       		.byte	0
 4703 09b8 15       		.uleb128 0x15
 4704 09b9 22000000 		.4byte	.LVL91
 4705 09bd CB230000 		.4byte	0x23cb
 4706 09c1 CB090000 		.4byte	0x9cb
 4707 09c5 16       		.uleb128 0x16
 4708 09c6 01       		.uleb128 0x1
 4709 09c7 50       		.byte	0x50
 4710 09c8 01       		.uleb128 0x1
 4711 09c9 31       		.byte	0x31
 4712 09ca 00       		.byte	0
 4713 09cb 15       		.uleb128 0x15
 4714 09cc 2A000000 		.4byte	.LVL92
 4715 09d0 D6230000 		.4byte	0x23d6
 4716 09d4 E3090000 		.4byte	0x9e3
 4717 09d8 16       		.uleb128 0x16
 4718 09d9 01       		.uleb128 0x1
 4719 09da 50       		.byte	0x50
 4720 09db 01       		.uleb128 0x1
 4721 09dc 30       		.byte	0x30
 4722 09dd 16       		.uleb128 0x16
 4723 09de 01       		.uleb128 0x1
 4724 09df 51       		.byte	0x51
 4725 09e0 01       		.uleb128 0x1
 4726 09e1 30       		.byte	0x30
 4727 09e2 00       		.byte	0
 4728 09e3 15       		.uleb128 0x15
 4729 09e4 30000000 		.4byte	.LVL93
ARM GAS  C:\Users\HENRIC~1\AppData\Local\Temp\ccRPnI9G.s 			page 116


 4730 09e8 E1230000 		.4byte	0x23e1
 4731 09ec FA090000 		.4byte	0x9fa
 4732 09f0 16       		.uleb128 0x16
 4733 09f1 01       		.uleb128 0x1
 4734 09f2 50       		.byte	0x50
 4735 09f3 05       		.uleb128 0x5
 4736 09f4 03       		.byte	0x3
 4737 09f5 30000000 		.4byte	.LC10
 4738 09f9 00       		.byte	0
 4739 09fa 18       		.uleb128 0x18
 4740 09fb 7E000000 		.4byte	.LVL101
 4741 09ff EC230000 		.4byte	0x23ec
 4742 0a03 16       		.uleb128 0x16
 4743 0a04 01       		.uleb128 0x1
 4744 0a05 50       		.byte	0x50
 4745 0a06 01       		.uleb128 0x1
 4746 0a07 31       		.byte	0x31
 4747 0a08 00       		.byte	0
 4748 0a09 00       		.byte	0
 4749 0a0a 0C       		.uleb128 0xc
 4750 0a0b F0000000 		.4byte	0xf0
 4751 0a0f 1A0A0000 		.4byte	0xa1a
 4752 0a13 0D       		.uleb128 0xd
 4753 0a14 FE000000 		.4byte	0xfe
 4754 0a18 03       		.byte	0x3
 4755 0a19 00       		.byte	0
 4756 0a1a 0E       		.uleb128 0xe
 4757 0a1b A9070000 		.4byte	.LASF123
 4758 0a1f 01       		.byte	0x1
 4759 0a20 E903     		.2byte	0x3e9
 4760 0a22 7E030000 		.4byte	0x37e
 4761 0a26 00000000 		.4byte	.LFB74
 4762 0a2a A0000000 		.4byte	.LFE74-.LFB74
 4763 0a2e 01       		.uleb128 0x1
 4764 0a2f 9C       		.byte	0x9c
 4765 0a30 960B0000 		.4byte	0xb96
 4766 0a34 0F       		.uleb128 0xf
 4767 0a35 71030000 		.4byte	.LASF108
 4768 0a39 01       		.byte	0x1
 4769 0a3a E903     		.2byte	0x3e9
 4770 0a3c 31030000 		.4byte	0x331
 4771 0a40 D4020000 		.4byte	.LLST19
 4772 0a44 13       		.uleb128 0x13
 4773 0a45 D5030000 		.4byte	.LASF110
 4774 0a49 01       		.byte	0x1
 4775 0a4a EA03     		.2byte	0x3ea
 4776 0a4c 31030000 		.4byte	0x331
 4777 0a50 05       		.uleb128 0x5
 4778 0a51 03       		.byte	0x3
 4779 0a52 95000000 		.4byte	hold.7800
 4780 0a56 14       		.uleb128 0x14
 4781 0a57 D1010000 		.4byte	.LASF122
 4782 0a5b 01       		.byte	0x1
 4783 0a5c EB03     		.2byte	0x3eb
 4784 0a5e 31030000 		.4byte	0x331
 4785 0a62 F5020000 		.4byte	.LLST20
 4786 0a66 14       		.uleb128 0x14
ARM GAS  C:\Users\HENRIC~1\AppData\Local\Temp\ccRPnI9G.s 			page 117


 4787 0a67 8F030000 		.4byte	.LASF118
 4788 0a6b 01       		.byte	0x1
 4789 0a6c 0004     		.2byte	0x400
 4790 0a6e 31030000 		.4byte	0x331
 4791 0a72 08030000 		.4byte	.LLST21
 4792 0a76 13       		.uleb128 0x13
 4793 0a77 75020000 		.4byte	.LASF113
 4794 0a7b 01       		.byte	0x1
 4795 0a7c 0104     		.2byte	0x401
 4796 0a7e 7E030000 		.4byte	0x37e
 4797 0a82 01       		.uleb128 0x1
 4798 0a83 50       		.byte	0x50
 4799 0a84 19       		.uleb128 0x19
 4800 0a85 3A000000 		.4byte	.LBB4
 4801 0a89 3A000000 		.4byte	.LBE4-.LBB4
 4802 0a8d 310B0000 		.4byte	0xb31
 4803 0a91 13       		.uleb128 0x13
 4804 0a92 B6080000 		.4byte	.LASF105
 4805 0a96 01       		.byte	0x1
 4806 0a97 F703     		.2byte	0x3f7
 4807 0a99 0A0A0000 		.4byte	0xa0a
 4808 0a9d 02       		.uleb128 0x2
 4809 0a9e 91       		.byte	0x91
 4810 0a9f 6C       		.sleb128 -20
 4811 0aa0 15       		.uleb128 0x15
 4812 0aa1 42000000 		.4byte	.LVL113
 4813 0aa5 D6230000 		.4byte	0x23d6
 4814 0aa9 B80A0000 		.4byte	0xab8
 4815 0aad 16       		.uleb128 0x16
 4816 0aae 01       		.uleb128 0x1
 4817 0aaf 50       		.byte	0x50
 4818 0ab0 01       		.uleb128 0x1
 4819 0ab1 31       		.byte	0x31
 4820 0ab2 16       		.uleb128 0x16
 4821 0ab3 01       		.uleb128 0x1
 4822 0ab4 51       		.byte	0x51
 4823 0ab5 01       		.uleb128 0x1
 4824 0ab6 30       		.byte	0x30
 4825 0ab7 00       		.byte	0
 4826 0ab8 15       		.uleb128 0x15
 4827 0ab9 48000000 		.4byte	.LVL114
 4828 0abd E1230000 		.4byte	0x23e1
 4829 0ac1 CF0A0000 		.4byte	0xacf
 4830 0ac5 16       		.uleb128 0x16
 4831 0ac6 01       		.uleb128 0x1
 4832 0ac7 50       		.byte	0x50
 4833 0ac8 05       		.uleb128 0x5
 4834 0ac9 03       		.byte	0x3
 4835 0aca 10000000 		.4byte	.LC8
 4836 0ace 00       		.byte	0
 4837 0acf 15       		.uleb128 0x15
 4838 0ad0 58000000 		.4byte	.LVL115
 4839 0ad4 21240000 		.4byte	0x2421
 4840 0ad8 E80A0000 		.4byte	0xae8
 4841 0adc 16       		.uleb128 0x16
 4842 0add 01       		.uleb128 0x1
 4843 0ade 50       		.byte	0x50
ARM GAS  C:\Users\HENRIC~1\AppData\Local\Temp\ccRPnI9G.s 			page 118


 4844 0adf 02       		.uleb128 0x2
 4845 0ae0 91       		.byte	0x91
 4846 0ae1 6C       		.sleb128 -20
 4847 0ae2 16       		.uleb128 0x16
 4848 0ae3 01       		.uleb128 0x1
 4849 0ae4 51       		.byte	0x51
 4850 0ae5 01       		.uleb128 0x1
 4851 0ae6 34       		.byte	0x34
 4852 0ae7 00       		.byte	0
 4853 0ae8 17       		.uleb128 0x17
 4854 0ae9 5C000000 		.4byte	.LVL116
 4855 0aed 2C240000 		.4byte	0x242c
 4856 0af1 15       		.uleb128 0x15
 4857 0af2 66000000 		.4byte	.LVL117
 4858 0af6 37240000 		.4byte	0x2437
 4859 0afa 050B0000 		.4byte	0xb05
 4860 0afe 16       		.uleb128 0x16
 4861 0aff 01       		.uleb128 0x1
 4862 0b00 50       		.byte	0x50
 4863 0b01 02       		.uleb128 0x2
 4864 0b02 08       		.byte	0x8
 4865 0b03 64       		.byte	0x64
 4866 0b04 00       		.byte	0
 4867 0b05 15       		.uleb128 0x15
 4868 0b06 6E000000 		.4byte	.LVL118
 4869 0b0a D6230000 		.4byte	0x23d6
 4870 0b0e 1D0B0000 		.4byte	0xb1d
 4871 0b12 16       		.uleb128 0x16
 4872 0b13 01       		.uleb128 0x1
 4873 0b14 50       		.byte	0x50
 4874 0b15 01       		.uleb128 0x1
 4875 0b16 31       		.byte	0x31
 4876 0b17 16       		.uleb128 0x16
 4877 0b18 01       		.uleb128 0x1
 4878 0b19 51       		.byte	0x51
 4879 0b1a 01       		.uleb128 0x1
 4880 0b1b 30       		.byte	0x30
 4881 0b1c 00       		.byte	0
 4882 0b1d 18       		.uleb128 0x18
 4883 0b1e 74000000 		.4byte	.LVL119
 4884 0b22 E1230000 		.4byte	0x23e1
 4885 0b26 16       		.uleb128 0x16
 4886 0b27 01       		.uleb128 0x1
 4887 0b28 50       		.byte	0x50
 4888 0b29 05       		.uleb128 0x5
 4889 0b2a 03       		.byte	0x3
 4890 0b2b 20000000 		.4byte	.LC9
 4891 0b2f 00       		.byte	0
 4892 0b30 00       		.byte	0
 4893 0b31 15       		.uleb128 0x15
 4894 0b32 0C000000 		.4byte	.LVL108
 4895 0b36 EC230000 		.4byte	0x23ec
 4896 0b3a 440B0000 		.4byte	0xb44
 4897 0b3e 16       		.uleb128 0x16
 4898 0b3f 01       		.uleb128 0x1
 4899 0b40 50       		.byte	0x50
 4900 0b41 01       		.uleb128 0x1
ARM GAS  C:\Users\HENRIC~1\AppData\Local\Temp\ccRPnI9G.s 			page 119


 4901 0b42 30       		.byte	0x30
 4902 0b43 00       		.byte	0
 4903 0b44 15       		.uleb128 0x15
 4904 0b45 22000000 		.4byte	.LVL110
 4905 0b49 CB230000 		.4byte	0x23cb
 4906 0b4d 570B0000 		.4byte	0xb57
 4907 0b51 16       		.uleb128 0x16
 4908 0b52 01       		.uleb128 0x1
 4909 0b53 50       		.byte	0x50
 4910 0b54 01       		.uleb128 0x1
 4911 0b55 31       		.byte	0x31
 4912 0b56 00       		.byte	0
 4913 0b57 15       		.uleb128 0x15
 4914 0b58 2A000000 		.4byte	.LVL111
 4915 0b5c D6230000 		.4byte	0x23d6
 4916 0b60 6F0B0000 		.4byte	0xb6f
 4917 0b64 16       		.uleb128 0x16
 4918 0b65 01       		.uleb128 0x1
 4919 0b66 50       		.byte	0x50
 4920 0b67 01       		.uleb128 0x1
 4921 0b68 30       		.byte	0x30
 4922 0b69 16       		.uleb128 0x16
 4923 0b6a 01       		.uleb128 0x1
 4924 0b6b 51       		.byte	0x51
 4925 0b6c 01       		.uleb128 0x1
 4926 0b6d 30       		.byte	0x30
 4927 0b6e 00       		.byte	0
 4928 0b6f 15       		.uleb128 0x15
 4929 0b70 30000000 		.4byte	.LVL112
 4930 0b74 E1230000 		.4byte	0x23e1
 4931 0b78 860B0000 		.4byte	0xb86
 4932 0b7c 16       		.uleb128 0x16
 4933 0b7d 01       		.uleb128 0x1
 4934 0b7e 50       		.byte	0x50
 4935 0b7f 05       		.uleb128 0x5
 4936 0b80 03       		.byte	0x3
 4937 0b81 40000000 		.4byte	.LC11
 4938 0b85 00       		.byte	0
 4939 0b86 18       		.uleb128 0x18
 4940 0b87 80000000 		.4byte	.LVL120
 4941 0b8b EC230000 		.4byte	0x23ec
 4942 0b8f 16       		.uleb128 0x16
 4943 0b90 01       		.uleb128 0x1
 4944 0b91 50       		.byte	0x50
 4945 0b92 01       		.uleb128 0x1
 4946 0b93 31       		.byte	0x31
 4947 0b94 00       		.byte	0
 4948 0b95 00       		.byte	0
 4949 0b96 0E       		.uleb128 0xe
 4950 0b97 7C090000 		.4byte	.LASF124
 4951 0b9b 01       		.byte	0x1
 4952 0b9c 0A04     		.2byte	0x40a
 4953 0b9e 7E030000 		.4byte	0x37e
 4954 0ba2 00000000 		.4byte	.LFB75
 4955 0ba6 A0000000 		.4byte	.LFE75-.LFB75
 4956 0baa 01       		.uleb128 0x1
 4957 0bab 9C       		.byte	0x9c
ARM GAS  C:\Users\HENRIC~1\AppData\Local\Temp\ccRPnI9G.s 			page 120


 4958 0bac 120D0000 		.4byte	0xd12
 4959 0bb0 0F       		.uleb128 0xf
 4960 0bb1 71030000 		.4byte	.LASF108
 4961 0bb5 01       		.byte	0x1
 4962 0bb6 0A04     		.2byte	0x40a
 4963 0bb8 31030000 		.4byte	0x331
 4964 0bbc 32030000 		.4byte	.LLST22
 4965 0bc0 13       		.uleb128 0x13
 4966 0bc1 D5030000 		.4byte	.LASF110
 4967 0bc5 01       		.byte	0x1
 4968 0bc6 0B04     		.2byte	0x40b
 4969 0bc8 31030000 		.4byte	0x331
 4970 0bcc 05       		.uleb128 0x5
 4971 0bcd 03       		.byte	0x3
 4972 0bce 96000000 		.4byte	hold.7811
 4973 0bd2 14       		.uleb128 0x14
 4974 0bd3 D1010000 		.4byte	.LASF122
 4975 0bd7 01       		.byte	0x1
 4976 0bd8 0C04     		.2byte	0x40c
 4977 0bda 31030000 		.4byte	0x331
 4978 0bde 53030000 		.4byte	.LLST23
 4979 0be2 14       		.uleb128 0x14
 4980 0be3 8F030000 		.4byte	.LASF118
 4981 0be7 01       		.byte	0x1
 4982 0be8 2104     		.2byte	0x421
 4983 0bea 31030000 		.4byte	0x331
 4984 0bee 66030000 		.4byte	.LLST24
 4985 0bf2 13       		.uleb128 0x13
 4986 0bf3 75020000 		.4byte	.LASF113
 4987 0bf7 01       		.byte	0x1
 4988 0bf8 2204     		.2byte	0x422
 4989 0bfa 7E030000 		.4byte	0x37e
 4990 0bfe 01       		.uleb128 0x1
 4991 0bff 50       		.byte	0x50
 4992 0c00 19       		.uleb128 0x19
 4993 0c01 3A000000 		.4byte	.LBB5
 4994 0c05 3A000000 		.4byte	.LBE5-.LBB5
 4995 0c09 AD0C0000 		.4byte	0xcad
 4996 0c0d 13       		.uleb128 0x13
 4997 0c0e B6080000 		.4byte	.LASF105
 4998 0c12 01       		.byte	0x1
 4999 0c13 1804     		.2byte	0x418
 5000 0c15 0A0A0000 		.4byte	0xa0a
 5001 0c19 02       		.uleb128 0x2
 5002 0c1a 91       		.byte	0x91
 5003 0c1b 6C       		.sleb128 -20
 5004 0c1c 15       		.uleb128 0x15
 5005 0c1d 42000000 		.4byte	.LVL132
 5006 0c21 D6230000 		.4byte	0x23d6
 5007 0c25 340C0000 		.4byte	0xc34
 5008 0c29 16       		.uleb128 0x16
 5009 0c2a 01       		.uleb128 0x1
 5010 0c2b 50       		.byte	0x50
 5011 0c2c 01       		.uleb128 0x1
 5012 0c2d 31       		.byte	0x31
 5013 0c2e 16       		.uleb128 0x16
 5014 0c2f 01       		.uleb128 0x1
ARM GAS  C:\Users\HENRIC~1\AppData\Local\Temp\ccRPnI9G.s 			page 121


 5015 0c30 51       		.byte	0x51
 5016 0c31 01       		.uleb128 0x1
 5017 0c32 30       		.byte	0x30
 5018 0c33 00       		.byte	0
 5019 0c34 15       		.uleb128 0x15
 5020 0c35 48000000 		.4byte	.LVL133
 5021 0c39 E1230000 		.4byte	0x23e1
 5022 0c3d 4B0C0000 		.4byte	0xc4b
 5023 0c41 16       		.uleb128 0x16
 5024 0c42 01       		.uleb128 0x1
 5025 0c43 50       		.byte	0x50
 5026 0c44 05       		.uleb128 0x5
 5027 0c45 03       		.byte	0x3
 5028 0c46 10000000 		.4byte	.LC8
 5029 0c4a 00       		.byte	0
 5030 0c4b 15       		.uleb128 0x15
 5031 0c4c 58000000 		.4byte	.LVL134
 5032 0c50 21240000 		.4byte	0x2421
 5033 0c54 640C0000 		.4byte	0xc64
 5034 0c58 16       		.uleb128 0x16
 5035 0c59 01       		.uleb128 0x1
 5036 0c5a 50       		.byte	0x50
 5037 0c5b 02       		.uleb128 0x2
 5038 0c5c 91       		.byte	0x91
 5039 0c5d 6C       		.sleb128 -20
 5040 0c5e 16       		.uleb128 0x16
 5041 0c5f 01       		.uleb128 0x1
 5042 0c60 51       		.byte	0x51
 5043 0c61 01       		.uleb128 0x1
 5044 0c62 34       		.byte	0x34
 5045 0c63 00       		.byte	0
 5046 0c64 17       		.uleb128 0x17
 5047 0c65 5C000000 		.4byte	.LVL135
 5048 0c69 2C240000 		.4byte	0x242c
 5049 0c6d 15       		.uleb128 0x15
 5050 0c6e 66000000 		.4byte	.LVL136
 5051 0c72 37240000 		.4byte	0x2437
 5052 0c76 810C0000 		.4byte	0xc81
 5053 0c7a 16       		.uleb128 0x16
 5054 0c7b 01       		.uleb128 0x1
 5055 0c7c 50       		.byte	0x50
 5056 0c7d 02       		.uleb128 0x2
 5057 0c7e 08       		.byte	0x8
 5058 0c7f 64       		.byte	0x64
 5059 0c80 00       		.byte	0
 5060 0c81 15       		.uleb128 0x15
 5061 0c82 6E000000 		.4byte	.LVL137
 5062 0c86 D6230000 		.4byte	0x23d6
 5063 0c8a 990C0000 		.4byte	0xc99
 5064 0c8e 16       		.uleb128 0x16
 5065 0c8f 01       		.uleb128 0x1
 5066 0c90 50       		.byte	0x50
 5067 0c91 01       		.uleb128 0x1
 5068 0c92 31       		.byte	0x31
 5069 0c93 16       		.uleb128 0x16
 5070 0c94 01       		.uleb128 0x1
 5071 0c95 51       		.byte	0x51
ARM GAS  C:\Users\HENRIC~1\AppData\Local\Temp\ccRPnI9G.s 			page 122


 5072 0c96 01       		.uleb128 0x1
 5073 0c97 30       		.byte	0x30
 5074 0c98 00       		.byte	0
 5075 0c99 18       		.uleb128 0x18
 5076 0c9a 74000000 		.4byte	.LVL138
 5077 0c9e E1230000 		.4byte	0x23e1
 5078 0ca2 16       		.uleb128 0x16
 5079 0ca3 01       		.uleb128 0x1
 5080 0ca4 50       		.byte	0x50
 5081 0ca5 05       		.uleb128 0x5
 5082 0ca6 03       		.byte	0x3
 5083 0ca7 20000000 		.4byte	.LC9
 5084 0cab 00       		.byte	0
 5085 0cac 00       		.byte	0
 5086 0cad 15       		.uleb128 0x15
 5087 0cae 0C000000 		.4byte	.LVL127
 5088 0cb2 EC230000 		.4byte	0x23ec
 5089 0cb6 C00C0000 		.4byte	0xcc0
 5090 0cba 16       		.uleb128 0x16
 5091 0cbb 01       		.uleb128 0x1
 5092 0cbc 50       		.byte	0x50
 5093 0cbd 01       		.uleb128 0x1
 5094 0cbe 30       		.byte	0x30
 5095 0cbf 00       		.byte	0
 5096 0cc0 15       		.uleb128 0x15
 5097 0cc1 22000000 		.4byte	.LVL129
 5098 0cc5 CB230000 		.4byte	0x23cb
 5099 0cc9 D30C0000 		.4byte	0xcd3
 5100 0ccd 16       		.uleb128 0x16
 5101 0cce 01       		.uleb128 0x1
 5102 0ccf 50       		.byte	0x50
 5103 0cd0 01       		.uleb128 0x1
 5104 0cd1 31       		.byte	0x31
 5105 0cd2 00       		.byte	0
 5106 0cd3 15       		.uleb128 0x15
 5107 0cd4 2A000000 		.4byte	.LVL130
 5108 0cd8 D6230000 		.4byte	0x23d6
 5109 0cdc EB0C0000 		.4byte	0xceb
 5110 0ce0 16       		.uleb128 0x16
 5111 0ce1 01       		.uleb128 0x1
 5112 0ce2 50       		.byte	0x50
 5113 0ce3 01       		.uleb128 0x1
 5114 0ce4 30       		.byte	0x30
 5115 0ce5 16       		.uleb128 0x16
 5116 0ce6 01       		.uleb128 0x1
 5117 0ce7 51       		.byte	0x51
 5118 0ce8 01       		.uleb128 0x1
 5119 0ce9 30       		.byte	0x30
 5120 0cea 00       		.byte	0
 5121 0ceb 15       		.uleb128 0x15
 5122 0cec 30000000 		.4byte	.LVL131
 5123 0cf0 E1230000 		.4byte	0x23e1
 5124 0cf4 020D0000 		.4byte	0xd02
 5125 0cf8 16       		.uleb128 0x16
 5126 0cf9 01       		.uleb128 0x1
 5127 0cfa 50       		.byte	0x50
 5128 0cfb 05       		.uleb128 0x5
ARM GAS  C:\Users\HENRIC~1\AppData\Local\Temp\ccRPnI9G.s 			page 123


 5129 0cfc 03       		.byte	0x3
 5130 0cfd 50000000 		.4byte	.LC12
 5131 0d01 00       		.byte	0
 5132 0d02 18       		.uleb128 0x18
 5133 0d03 80000000 		.4byte	.LVL139
 5134 0d07 EC230000 		.4byte	0x23ec
 5135 0d0b 16       		.uleb128 0x16
 5136 0d0c 01       		.uleb128 0x1
 5137 0d0d 50       		.byte	0x50
 5138 0d0e 01       		.uleb128 0x1
 5139 0d0f 31       		.byte	0x31
 5140 0d10 00       		.byte	0
 5141 0d11 00       		.byte	0
 5142 0d12 0E       		.uleb128 0xe
 5143 0d13 1D010000 		.4byte	.LASF125
 5144 0d17 01       		.byte	0x1
 5145 0d18 2B04     		.2byte	0x42b
 5146 0d1a 7E030000 		.4byte	0x37e
 5147 0d1e 00000000 		.4byte	.LFB76
 5148 0d22 A0000000 		.4byte	.LFE76-.LFB76
 5149 0d26 01       		.uleb128 0x1
 5150 0d27 9C       		.byte	0x9c
 5151 0d28 8E0E0000 		.4byte	0xe8e
 5152 0d2c 0F       		.uleb128 0xf
 5153 0d2d 71030000 		.4byte	.LASF108
 5154 0d31 01       		.byte	0x1
 5155 0d32 2B04     		.2byte	0x42b
 5156 0d34 31030000 		.4byte	0x331
 5157 0d38 90030000 		.4byte	.LLST25
 5158 0d3c 13       		.uleb128 0x13
 5159 0d3d D5030000 		.4byte	.LASF110
 5160 0d41 01       		.byte	0x1
 5161 0d42 2C04     		.2byte	0x42c
 5162 0d44 31030000 		.4byte	0x331
 5163 0d48 05       		.uleb128 0x5
 5164 0d49 03       		.byte	0x3
 5165 0d4a 97000000 		.4byte	hold.7822
 5166 0d4e 14       		.uleb128 0x14
 5167 0d4f D1010000 		.4byte	.LASF122
 5168 0d53 01       		.byte	0x1
 5169 0d54 2D04     		.2byte	0x42d
 5170 0d56 31030000 		.4byte	0x331
 5171 0d5a B1030000 		.4byte	.LLST26
 5172 0d5e 14       		.uleb128 0x14
 5173 0d5f 8F030000 		.4byte	.LASF118
 5174 0d63 01       		.byte	0x1
 5175 0d64 4204     		.2byte	0x442
 5176 0d66 31030000 		.4byte	0x331
 5177 0d6a C4030000 		.4byte	.LLST27
 5178 0d6e 13       		.uleb128 0x13
 5179 0d6f 75020000 		.4byte	.LASF113
 5180 0d73 01       		.byte	0x1
 5181 0d74 4304     		.2byte	0x443
 5182 0d76 7E030000 		.4byte	0x37e
 5183 0d7a 01       		.uleb128 0x1
 5184 0d7b 50       		.byte	0x50
 5185 0d7c 19       		.uleb128 0x19
ARM GAS  C:\Users\HENRIC~1\AppData\Local\Temp\ccRPnI9G.s 			page 124


 5186 0d7d 3A000000 		.4byte	.LBB6
 5187 0d81 3A000000 		.4byte	.LBE6-.LBB6
 5188 0d85 290E0000 		.4byte	0xe29
 5189 0d89 13       		.uleb128 0x13
 5190 0d8a B6080000 		.4byte	.LASF105
 5191 0d8e 01       		.byte	0x1
 5192 0d8f 3904     		.2byte	0x439
 5193 0d91 0A0A0000 		.4byte	0xa0a
 5194 0d95 02       		.uleb128 0x2
 5195 0d96 91       		.byte	0x91
 5196 0d97 6C       		.sleb128 -20
 5197 0d98 15       		.uleb128 0x15
 5198 0d99 42000000 		.4byte	.LVL151
 5199 0d9d D6230000 		.4byte	0x23d6
 5200 0da1 B00D0000 		.4byte	0xdb0
 5201 0da5 16       		.uleb128 0x16
 5202 0da6 01       		.uleb128 0x1
 5203 0da7 50       		.byte	0x50
 5204 0da8 01       		.uleb128 0x1
 5205 0da9 31       		.byte	0x31
 5206 0daa 16       		.uleb128 0x16
 5207 0dab 01       		.uleb128 0x1
 5208 0dac 51       		.byte	0x51
 5209 0dad 01       		.uleb128 0x1
 5210 0dae 30       		.byte	0x30
 5211 0daf 00       		.byte	0
 5212 0db0 15       		.uleb128 0x15
 5213 0db1 48000000 		.4byte	.LVL152
 5214 0db5 E1230000 		.4byte	0x23e1
 5215 0db9 C70D0000 		.4byte	0xdc7
 5216 0dbd 16       		.uleb128 0x16
 5217 0dbe 01       		.uleb128 0x1
 5218 0dbf 50       		.byte	0x50
 5219 0dc0 05       		.uleb128 0x5
 5220 0dc1 03       		.byte	0x3
 5221 0dc2 10000000 		.4byte	.LC8
 5222 0dc6 00       		.byte	0
 5223 0dc7 15       		.uleb128 0x15
 5224 0dc8 58000000 		.4byte	.LVL153
 5225 0dcc 21240000 		.4byte	0x2421
 5226 0dd0 E00D0000 		.4byte	0xde0
 5227 0dd4 16       		.uleb128 0x16
 5228 0dd5 01       		.uleb128 0x1
 5229 0dd6 50       		.byte	0x50
 5230 0dd7 02       		.uleb128 0x2
 5231 0dd8 91       		.byte	0x91
 5232 0dd9 6C       		.sleb128 -20
 5233 0dda 16       		.uleb128 0x16
 5234 0ddb 01       		.uleb128 0x1
 5235 0ddc 51       		.byte	0x51
 5236 0ddd 01       		.uleb128 0x1
 5237 0dde 34       		.byte	0x34
 5238 0ddf 00       		.byte	0
 5239 0de0 17       		.uleb128 0x17
 5240 0de1 5C000000 		.4byte	.LVL154
 5241 0de5 2C240000 		.4byte	0x242c
 5242 0de9 15       		.uleb128 0x15
ARM GAS  C:\Users\HENRIC~1\AppData\Local\Temp\ccRPnI9G.s 			page 125


 5243 0dea 66000000 		.4byte	.LVL155
 5244 0dee 37240000 		.4byte	0x2437
 5245 0df2 FD0D0000 		.4byte	0xdfd
 5246 0df6 16       		.uleb128 0x16
 5247 0df7 01       		.uleb128 0x1
 5248 0df8 50       		.byte	0x50
 5249 0df9 02       		.uleb128 0x2
 5250 0dfa 08       		.byte	0x8
 5251 0dfb 64       		.byte	0x64
 5252 0dfc 00       		.byte	0
 5253 0dfd 15       		.uleb128 0x15
 5254 0dfe 6E000000 		.4byte	.LVL156
 5255 0e02 D6230000 		.4byte	0x23d6
 5256 0e06 150E0000 		.4byte	0xe15
 5257 0e0a 16       		.uleb128 0x16
 5258 0e0b 01       		.uleb128 0x1
 5259 0e0c 50       		.byte	0x50
 5260 0e0d 01       		.uleb128 0x1
 5261 0e0e 31       		.byte	0x31
 5262 0e0f 16       		.uleb128 0x16
 5263 0e10 01       		.uleb128 0x1
 5264 0e11 51       		.byte	0x51
 5265 0e12 01       		.uleb128 0x1
 5266 0e13 30       		.byte	0x30
 5267 0e14 00       		.byte	0
 5268 0e15 18       		.uleb128 0x18
 5269 0e16 74000000 		.4byte	.LVL157
 5270 0e1a E1230000 		.4byte	0x23e1
 5271 0e1e 16       		.uleb128 0x16
 5272 0e1f 01       		.uleb128 0x1
 5273 0e20 50       		.byte	0x50
 5274 0e21 05       		.uleb128 0x5
 5275 0e22 03       		.byte	0x3
 5276 0e23 20000000 		.4byte	.LC9
 5277 0e27 00       		.byte	0
 5278 0e28 00       		.byte	0
 5279 0e29 15       		.uleb128 0x15
 5280 0e2a 0C000000 		.4byte	.LVL146
 5281 0e2e EC230000 		.4byte	0x23ec
 5282 0e32 3C0E0000 		.4byte	0xe3c
 5283 0e36 16       		.uleb128 0x16
 5284 0e37 01       		.uleb128 0x1
 5285 0e38 50       		.byte	0x50
 5286 0e39 01       		.uleb128 0x1
 5287 0e3a 30       		.byte	0x30
 5288 0e3b 00       		.byte	0
 5289 0e3c 15       		.uleb128 0x15
 5290 0e3d 22000000 		.4byte	.LVL148
 5291 0e41 CB230000 		.4byte	0x23cb
 5292 0e45 4F0E0000 		.4byte	0xe4f
 5293 0e49 16       		.uleb128 0x16
 5294 0e4a 01       		.uleb128 0x1
 5295 0e4b 50       		.byte	0x50
 5296 0e4c 01       		.uleb128 0x1
 5297 0e4d 31       		.byte	0x31
 5298 0e4e 00       		.byte	0
 5299 0e4f 15       		.uleb128 0x15
ARM GAS  C:\Users\HENRIC~1\AppData\Local\Temp\ccRPnI9G.s 			page 126


 5300 0e50 2A000000 		.4byte	.LVL149
 5301 0e54 D6230000 		.4byte	0x23d6
 5302 0e58 670E0000 		.4byte	0xe67
 5303 0e5c 16       		.uleb128 0x16
 5304 0e5d 01       		.uleb128 0x1
 5305 0e5e 50       		.byte	0x50
 5306 0e5f 01       		.uleb128 0x1
 5307 0e60 30       		.byte	0x30
 5308 0e61 16       		.uleb128 0x16
 5309 0e62 01       		.uleb128 0x1
 5310 0e63 51       		.byte	0x51
 5311 0e64 01       		.uleb128 0x1
 5312 0e65 30       		.byte	0x30
 5313 0e66 00       		.byte	0
 5314 0e67 15       		.uleb128 0x15
 5315 0e68 30000000 		.4byte	.LVL150
 5316 0e6c E1230000 		.4byte	0x23e1
 5317 0e70 7E0E0000 		.4byte	0xe7e
 5318 0e74 16       		.uleb128 0x16
 5319 0e75 01       		.uleb128 0x1
 5320 0e76 50       		.byte	0x50
 5321 0e77 05       		.uleb128 0x5
 5322 0e78 03       		.byte	0x3
 5323 0e79 60000000 		.4byte	.LC13
 5324 0e7d 00       		.byte	0
 5325 0e7e 18       		.uleb128 0x18
 5326 0e7f 80000000 		.4byte	.LVL158
 5327 0e83 EC230000 		.4byte	0x23ec
 5328 0e87 16       		.uleb128 0x16
 5329 0e88 01       		.uleb128 0x1
 5330 0e89 50       		.byte	0x50
 5331 0e8a 01       		.uleb128 0x1
 5332 0e8b 31       		.byte	0x31
 5333 0e8c 00       		.byte	0
 5334 0e8d 00       		.byte	0
 5335 0e8e 1A       		.uleb128 0x1a
 5336 0e8f B6050000 		.4byte	.LASF128
 5337 0e93 01       		.byte	0x1
 5338 0e94 AA       		.byte	0xaa
 5339 0e95 00000000 		.4byte	.LFB65
 5340 0e99 80000000 		.4byte	.LFE65-.LFB65
 5341 0e9d 01       		.uleb128 0x1
 5342 0e9e 9C       		.byte	0x9c
 5343 0e9f 8A0F0000 		.4byte	0xf8a
 5344 0ea3 1B       		.uleb128 0x1b
 5345 0ea4 C8010000 		.4byte	.LASF126
 5346 0ea8 01       		.byte	0x1
 5347 0ea9 B0       		.byte	0xb0
 5348 0eaa 58020000 		.4byte	0x258
 5349 0eae EE030000 		.4byte	.LLST28
 5350 0eb2 1C       		.uleb128 0x1c
 5351 0eb3 73747200 		.ascii	"str\000"
 5352 0eb7 01       		.byte	0x1
 5353 0eb8 B1       		.byte	0xb1
 5354 0eb9 05010000 		.4byte	0x105
 5355 0ebd 01040000 		.4byte	.LLST29
 5356 0ec1 1B       		.uleb128 0x1b
ARM GAS  C:\Users\HENRIC~1\AppData\Local\Temp\ccRPnI9G.s 			page 127


 5357 0ec2 80060000 		.4byte	.LASF127
 5358 0ec6 01       		.byte	0x1
 5359 0ec7 B2       		.byte	0xb2
 5360 0ec8 C1000000 		.4byte	0xc1
 5361 0ecc 50040000 		.4byte	.LLST30
 5362 0ed0 17       		.uleb128 0x17
 5363 0ed1 06000000 		.4byte	.LVL163
 5364 0ed5 58240000 		.4byte	0x2458
 5365 0ed9 17       		.uleb128 0x17
 5366 0eda 0A000000 		.4byte	.LVL164
 5367 0ede 63240000 		.4byte	0x2463
 5368 0ee2 17       		.uleb128 0x17
 5369 0ee3 0E000000 		.4byte	.LVL165
 5370 0ee7 6E240000 		.4byte	0x246e
 5371 0eeb 17       		.uleb128 0x17
 5372 0eec 12000000 		.4byte	.LVL166
 5373 0ef0 79240000 		.4byte	0x2479
 5374 0ef4 17       		.uleb128 0x17
 5375 0ef5 16000000 		.4byte	.LVL167
 5376 0ef9 84240000 		.4byte	0x2484
 5377 0efd 17       		.uleb128 0x17
 5378 0efe 1C000000 		.4byte	.LVL169
 5379 0f02 84240000 		.4byte	0x2484
 5380 0f06 15       		.uleb128 0x15
 5381 0f07 40000000 		.4byte	.LVL176
 5382 0f0b CB230000 		.4byte	0x23cb
 5383 0f0f 190F0000 		.4byte	0xf19
 5384 0f13 16       		.uleb128 0x16
 5385 0f14 01       		.uleb128 0x1
 5386 0f15 50       		.byte	0x50
 5387 0f16 01       		.uleb128 0x1
 5388 0f17 31       		.byte	0x31
 5389 0f18 00       		.byte	0
 5390 0f19 15       		.uleb128 0x15
 5391 0f1a 48000000 		.4byte	.LVL177
 5392 0f1e D6230000 		.4byte	0x23d6
 5393 0f22 310F0000 		.4byte	0xf31
 5394 0f26 16       		.uleb128 0x16
 5395 0f27 01       		.uleb128 0x1
 5396 0f28 50       		.byte	0x50
 5397 0f29 01       		.uleb128 0x1
 5398 0f2a 30       		.byte	0x30
 5399 0f2b 16       		.uleb128 0x16
 5400 0f2c 01       		.uleb128 0x1
 5401 0f2d 51       		.byte	0x51
 5402 0f2e 01       		.uleb128 0x1
 5403 0f2f 30       		.byte	0x30
 5404 0f30 00       		.byte	0
 5405 0f31 15       		.uleb128 0x15
 5406 0f32 4E000000 		.4byte	.LVL178
 5407 0f36 E1230000 		.4byte	0x23e1
 5408 0f3a 450F0000 		.4byte	0xf45
 5409 0f3e 16       		.uleb128 0x16
 5410 0f3f 01       		.uleb128 0x1
 5411 0f40 50       		.byte	0x50
 5412 0f41 02       		.uleb128 0x2
 5413 0f42 75       		.byte	0x75
ARM GAS  C:\Users\HENRIC~1\AppData\Local\Temp\ccRPnI9G.s 			page 128


 5414 0f43 00       		.sleb128 0
 5415 0f44 00       		.byte	0
 5416 0f45 15       		.uleb128 0x15
 5417 0f46 56000000 		.4byte	.LVL179
 5418 0f4a D6230000 		.4byte	0x23d6
 5419 0f4e 5D0F0000 		.4byte	0xf5d
 5420 0f52 16       		.uleb128 0x16
 5421 0f53 01       		.uleb128 0x1
 5422 0f54 50       		.byte	0x50
 5423 0f55 01       		.uleb128 0x1
 5424 0f56 31       		.byte	0x31
 5425 0f57 16       		.uleb128 0x16
 5426 0f58 01       		.uleb128 0x1
 5427 0f59 51       		.byte	0x51
 5428 0f5a 01       		.uleb128 0x1
 5429 0f5b 30       		.byte	0x30
 5430 0f5c 00       		.byte	0
 5431 0f5d 15       		.uleb128 0x15
 5432 0f5e 5C000000 		.4byte	.LVL180
 5433 0f62 8F240000 		.4byte	0x248f
 5434 0f66 710F0000 		.4byte	0xf71
 5435 0f6a 16       		.uleb128 0x16
 5436 0f6b 01       		.uleb128 0x1
 5437 0f6c 50       		.byte	0x50
 5438 0f6d 02       		.uleb128 0x2
 5439 0f6e 74       		.byte	0x74
 5440 0f6f 00       		.sleb128 0
 5441 0f70 00       		.byte	0
 5442 0f71 17       		.uleb128 0x17
 5443 0f72 60000000 		.4byte	.LVL181
 5444 0f76 9A240000 		.4byte	0x249a
 5445 0f7a 18       		.uleb128 0x18
 5446 0f7b 6A000000 		.4byte	.LVL183
 5447 0f7f 37240000 		.4byte	0x2437
 5448 0f83 16       		.uleb128 0x16
 5449 0f84 01       		.uleb128 0x1
 5450 0f85 50       		.byte	0x50
 5451 0f86 01       		.uleb128 0x1
 5452 0f87 3A       		.byte	0x3a
 5453 0f88 00       		.byte	0
 5454 0f89 00       		.byte	0
 5455 0f8a 1A       		.uleb128 0x1a
 5456 0f8b DF050000 		.4byte	.LASF129
 5457 0f8f 01       		.byte	0x1
 5458 0f90 D7       		.byte	0xd7
 5459 0f91 00000000 		.4byte	.LFB66
 5460 0f95 B4000000 		.4byte	.LFE66-.LFB66
 5461 0f99 01       		.uleb128 0x1
 5462 0f9a 9C       		.byte	0x9c
 5463 0f9b 80100000 		.4byte	0x1080
 5464 0f9f 1B       		.uleb128 0x1b
 5465 0fa0 AC030000 		.4byte	.LASF130
 5466 0fa4 01       		.byte	0x1
 5467 0fa5 EA       		.byte	0xea
 5468 0fa6 7E030000 		.4byte	0x37e
 5469 0faa 6F040000 		.4byte	.LLST31
 5470 0fae 1B       		.uleb128 0x1b
ARM GAS  C:\Users\HENRIC~1\AppData\Local\Temp\ccRPnI9G.s 			page 129


 5471 0faf DF000000 		.4byte	.LASF131
 5472 0fb3 01       		.byte	0x1
 5473 0fb4 EB       		.byte	0xeb
 5474 0fb5 7E030000 		.4byte	0x37e
 5475 0fb9 99040000 		.4byte	.LLST32
 5476 0fbd 1B       		.uleb128 0x1b
 5477 0fbe 71030000 		.4byte	.LASF108
 5478 0fc2 01       		.byte	0x1
 5479 0fc3 EC       		.byte	0xec
 5480 0fc4 31030000 		.4byte	0x331
 5481 0fc8 FA040000 		.4byte	.LLST33
 5482 0fcc 17       		.uleb128 0x17
 5483 0fcd 06000000 		.4byte	.LVL184
 5484 0fd1 58240000 		.4byte	0x2458
 5485 0fd5 17       		.uleb128 0x17
 5486 0fd6 0A000000 		.4byte	.LVL185
 5487 0fda 63240000 		.4byte	0x2463
 5488 0fde 17       		.uleb128 0x17
 5489 0fdf 0E000000 		.4byte	.LVL186
 5490 0fe3 6E240000 		.4byte	0x246e
 5491 0fe7 17       		.uleb128 0x17
 5492 0fe8 12000000 		.4byte	.LVL187
 5493 0fec 79240000 		.4byte	0x2479
 5494 0ff0 17       		.uleb128 0x17
 5495 0ff1 44000000 		.4byte	.LVL190
 5496 0ff5 A5240000 		.4byte	0x24a5
 5497 0ff9 17       		.uleb128 0x17
 5498 0ffa 4A000000 		.4byte	.LVL191
 5499 0ffe B0240000 		.4byte	0x24b0
 5500 1002 17       		.uleb128 0x17
 5501 1003 4E000000 		.4byte	.LVL192
 5502 1007 BB240000 		.4byte	0x24bb
 5503 100b 15       		.uleb128 0x15
 5504 100c 64000000 		.4byte	.LVL193
 5505 1010 24040000 		.4byte	0x424
 5506 1014 1F100000 		.4byte	0x101f
 5507 1018 16       		.uleb128 0x16
 5508 1019 01       		.uleb128 0x1
 5509 101a 50       		.byte	0x50
 5510 101b 02       		.uleb128 0x2
 5511 101c 75       		.byte	0x75
 5512 101d 00       		.sleb128 0
 5513 101e 00       		.byte	0
 5514 101f 15       		.uleb128 0x15
 5515 1020 6C000000 		.4byte	.LVL195
 5516 1024 8E050000 		.4byte	0x58e
 5517 1028 33100000 		.4byte	0x1033
 5518 102c 16       		.uleb128 0x16
 5519 102d 01       		.uleb128 0x1
 5520 102e 50       		.byte	0x50
 5521 102f 02       		.uleb128 0x2
 5522 1030 75       		.byte	0x75
 5523 1031 00       		.sleb128 0
 5524 1032 00       		.byte	0
 5525 1033 15       		.uleb128 0x15
 5526 1034 74000000 		.4byte	.LVL197
 5527 1038 8E080000 		.4byte	0x88e
ARM GAS  C:\Users\HENRIC~1\AppData\Local\Temp\ccRPnI9G.s 			page 130


 5528 103c 47100000 		.4byte	0x1047
 5529 1040 16       		.uleb128 0x16
 5530 1041 01       		.uleb128 0x1
 5531 1042 50       		.byte	0x50
 5532 1043 02       		.uleb128 0x2
 5533 1044 75       		.byte	0x75
 5534 1045 00       		.sleb128 0
 5535 1046 00       		.byte	0
 5536 1047 15       		.uleb128 0x15
 5537 1048 7C000000 		.4byte	.LVL199
 5538 104c 1A0A0000 		.4byte	0xa1a
 5539 1050 5B100000 		.4byte	0x105b
 5540 1054 16       		.uleb128 0x16
 5541 1055 01       		.uleb128 0x1
 5542 1056 50       		.byte	0x50
 5543 1057 02       		.uleb128 0x2
 5544 1058 75       		.byte	0x75
 5545 1059 00       		.sleb128 0
 5546 105a 00       		.byte	0
 5547 105b 15       		.uleb128 0x15
 5548 105c 84000000 		.4byte	.LVL201
 5549 1060 960B0000 		.4byte	0xb96
 5550 1064 6F100000 		.4byte	0x106f
 5551 1068 16       		.uleb128 0x16
 5552 1069 01       		.uleb128 0x1
 5553 106a 50       		.byte	0x50
 5554 106b 02       		.uleb128 0x2
 5555 106c 75       		.byte	0x75
 5556 106d 00       		.sleb128 0
 5557 106e 00       		.byte	0
 5558 106f 18       		.uleb128 0x18
 5559 1070 8C000000 		.4byte	.LVL203
 5560 1074 120D0000 		.4byte	0xd12
 5561 1078 16       		.uleb128 0x16
 5562 1079 01       		.uleb128 0x1
 5563 107a 50       		.byte	0x50
 5564 107b 02       		.uleb128 0x2
 5565 107c 75       		.byte	0x75
 5566 107d 00       		.sleb128 0
 5567 107e 00       		.byte	0
 5568 107f 00       		.byte	0
 5569 1080 1D       		.uleb128 0x1d
 5570 1081 EB050000 		.4byte	.LASF132
 5571 1085 01       		.byte	0x1
 5572 1086 1601     		.2byte	0x116
 5573 1088 00000000 		.4byte	.LFB67
 5574 108c 60010000 		.4byte	.LFE67-.LFB67
 5575 1090 01       		.uleb128 0x1
 5576 1091 9C       		.byte	0x9c
 5577 1092 34130000 		.4byte	0x1334
 5578 1096 13       		.uleb128 0x13
 5579 1097 B6080000 		.4byte	.LASF105
 5580 109b 01       		.byte	0x1
 5581 109c 1C01     		.2byte	0x11c
 5582 109e 5E080000 		.4byte	0x85e
 5583 10a2 05       		.uleb128 0x5
 5584 10a3 03       		.byte	0x3
ARM GAS  C:\Users\HENRIC~1\AppData\Local\Temp\ccRPnI9G.s 			page 131


 5585 10a4 BC000000 		.4byte	buffer.7641
 5586 10a8 13       		.uleb128 0x13
 5587 10a9 22090000 		.4byte	.LASF115
 5588 10ad 01       		.byte	0x1
 5589 10ae 1D01     		.2byte	0x11d
 5590 10b0 6E080000 		.4byte	0x86e
 5591 10b4 05       		.uleb128 0x5
 5592 10b5 03       		.byte	0x3
 5593 10b6 FC000000 		.4byte	disp.7642
 5594 10ba 13       		.uleb128 0x13
 5595 10bb 0C0A0000 		.4byte	.LASF116
 5596 10bf 01       		.byte	0x1
 5597 10c0 1E01     		.2byte	0x11e
 5598 10c2 7E080000 		.4byte	0x87e
 5599 10c6 05       		.uleb128 0x5
 5600 10c7 03       		.byte	0x3
 5601 10c8 98000000 		.4byte	txStr.7643
 5602 10cc 13       		.uleb128 0x13
 5603 10cd A7090000 		.4byte	.LASF117
 5604 10d1 01       		.byte	0x1
 5605 10d2 1F01     		.2byte	0x11f
 5606 10d4 C1000000 		.4byte	0xc1
 5607 10d8 05       		.uleb128 0x5
 5608 10d9 03       		.byte	0x3
 5609 10da B9000000 		.4byte	txStr_index.7644
 5610 10de 19       		.uleb128 0x19
 5611 10df 46000000 		.4byte	.LBB7
 5612 10e3 1A010000 		.4byte	.LBE7-.LBB7
 5613 10e7 99120000 		.4byte	0x1299
 5614 10eb 14       		.uleb128 0x14
 5615 10ec 27030000 		.4byte	.LASF119
 5616 10f0 01       		.byte	0x1
 5617 10f1 2D01     		.2byte	0x12d
 5618 10f3 CC000000 		.4byte	0xcc
 5619 10f7 24050000 		.4byte	.LLST34
 5620 10fb 14       		.uleb128 0x14
 5621 10fc A5000000 		.4byte	.LASF120
 5622 1100 01       		.byte	0x1
 5623 1101 3801     		.2byte	0x138
 5624 1103 31030000 		.4byte	0x331
 5625 1107 37050000 		.4byte	.LLST35
 5626 110b 14       		.uleb128 0x14
 5627 110c A3080000 		.4byte	.LASF109
 5628 1110 01       		.byte	0x1
 5629 1111 3901     		.2byte	0x139
 5630 1113 C1000000 		.4byte	0xc1
 5631 1117 84050000 		.4byte	.LLST36
 5632 111b 12       		.uleb128 0x12
 5633 111c 6300     		.ascii	"c\000"
 5634 111e 01       		.byte	0x1
 5635 111f 3A01     		.2byte	0x13a
 5636 1121 F0000000 		.4byte	0xf0
 5637 1125 AE050000 		.4byte	.LLST37
 5638 1129 15       		.uleb128 0x15
 5639 112a 58000000 		.4byte	.LVL218
 5640 112e F7230000 		.4byte	0x23f7
 5641 1132 48110000 		.4byte	0x1148
ARM GAS  C:\Users\HENRIC~1\AppData\Local\Temp\ccRPnI9G.s 			page 132


 5642 1136 16       		.uleb128 0x16
 5643 1137 01       		.uleb128 0x1
 5644 1138 50       		.byte	0x50
 5645 1139 02       		.uleb128 0x2
 5646 113a 76       		.byte	0x76
 5647 113b 00       		.sleb128 0
 5648 113c 16       		.uleb128 0x16
 5649 113d 01       		.uleb128 0x1
 5650 113e 51       		.byte	0x51
 5651 113f 01       		.uleb128 0x1
 5652 1140 30       		.byte	0x30
 5653 1141 16       		.uleb128 0x16
 5654 1142 01       		.uleb128 0x1
 5655 1143 52       		.byte	0x52
 5656 1144 02       		.uleb128 0x2
 5657 1145 74       		.byte	0x74
 5658 1146 00       		.sleb128 0
 5659 1147 00       		.byte	0
 5660 1148 15       		.uleb128 0x15
 5661 1149 60000000 		.4byte	.LVL219
 5662 114d 00240000 		.4byte	0x2400
 5663 1151 62110000 		.4byte	0x1162
 5664 1155 16       		.uleb128 0x16
 5665 1156 01       		.uleb128 0x1
 5666 1157 50       		.byte	0x50
 5667 1158 02       		.uleb128 0x2
 5668 1159 76       		.byte	0x76
 5669 115a 00       		.sleb128 0
 5670 115b 16       		.uleb128 0x16
 5671 115c 01       		.uleb128 0x1
 5672 115d 51       		.byte	0x51
 5673 115e 02       		.uleb128 0x2
 5674 115f 74       		.byte	0x74
 5675 1160 00       		.sleb128 0
 5676 1161 00       		.byte	0
 5677 1162 15       		.uleb128 0x15
 5678 1163 68000000 		.4byte	.LVL221
 5679 1167 0B240000 		.4byte	0x240b
 5680 116b 76110000 		.4byte	0x1176
 5681 116f 16       		.uleb128 0x16
 5682 1170 01       		.uleb128 0x1
 5683 1171 50       		.byte	0x50
 5684 1172 02       		.uleb128 0x2
 5685 1173 76       		.byte	0x76
 5686 1174 00       		.sleb128 0
 5687 1175 00       		.byte	0
 5688 1176 15       		.uleb128 0x15
 5689 1177 70000000 		.4byte	.LVL222
 5690 117b 16240000 		.4byte	0x2416
 5691 117f 8A110000 		.4byte	0x118a
 5692 1183 16       		.uleb128 0x16
 5693 1184 01       		.uleb128 0x1
 5694 1185 50       		.byte	0x50
 5695 1186 02       		.uleb128 0x2
 5696 1187 76       		.byte	0x76
 5697 1188 00       		.sleb128 0
 5698 1189 00       		.byte	0
ARM GAS  C:\Users\HENRIC~1\AppData\Local\Temp\ccRPnI9G.s 			page 133


 5699 118a 15       		.uleb128 0x15
 5700 118b 76000000 		.4byte	.LVL223
 5701 118f CB230000 		.4byte	0x23cb
 5702 1193 9D110000 		.4byte	0x119d
 5703 1197 16       		.uleb128 0x16
 5704 1198 01       		.uleb128 0x1
 5705 1199 50       		.byte	0x50
 5706 119a 01       		.uleb128 0x1
 5707 119b 31       		.byte	0x31
 5708 119c 00       		.byte	0
 5709 119d 15       		.uleb128 0x15
 5710 119e 7E000000 		.4byte	.LVL224
 5711 11a2 D6230000 		.4byte	0x23d6
 5712 11a6 B5110000 		.4byte	0x11b5
 5713 11aa 16       		.uleb128 0x16
 5714 11ab 01       		.uleb128 0x1
 5715 11ac 50       		.byte	0x50
 5716 11ad 01       		.uleb128 0x1
 5717 11ae 30       		.byte	0x30
 5718 11af 16       		.uleb128 0x16
 5719 11b0 01       		.uleb128 0x1
 5720 11b1 51       		.byte	0x51
 5721 11b2 01       		.uleb128 0x1
 5722 11b3 30       		.byte	0x30
 5723 11b4 00       		.byte	0
 5724 11b5 15       		.uleb128 0x15
 5725 11b6 84000000 		.4byte	.LVL225
 5726 11ba E1230000 		.4byte	0x23e1
 5727 11be CC110000 		.4byte	0x11cc
 5728 11c2 16       		.uleb128 0x16
 5729 11c3 01       		.uleb128 0x1
 5730 11c4 50       		.byte	0x50
 5731 11c5 05       		.uleb128 0x5
 5732 11c6 03       		.byte	0x3
 5733 11c7 08000000 		.4byte	.LC7
 5734 11cb 00       		.byte	0
 5735 11cc 15       		.uleb128 0x15
 5736 11cd 8C000000 		.4byte	.LVL226
 5737 11d1 D6230000 		.4byte	0x23d6
 5738 11d5 E4110000 		.4byte	0x11e4
 5739 11d9 16       		.uleb128 0x16
 5740 11da 01       		.uleb128 0x1
 5741 11db 50       		.byte	0x50
 5742 11dc 01       		.uleb128 0x1
 5743 11dd 31       		.byte	0x31
 5744 11de 16       		.uleb128 0x16
 5745 11df 01       		.uleb128 0x1
 5746 11e0 51       		.byte	0x51
 5747 11e1 01       		.uleb128 0x1
 5748 11e2 30       		.byte	0x30
 5749 11e3 00       		.byte	0
 5750 11e4 15       		.uleb128 0x15
 5751 11e5 AC000000 		.4byte	.LVL227
 5752 11e9 E1230000 		.4byte	0x23e1
 5753 11ed F9110000 		.4byte	0x11f9
 5754 11f1 16       		.uleb128 0x16
 5755 11f2 01       		.uleb128 0x1
ARM GAS  C:\Users\HENRIC~1\AppData\Local\Temp\ccRPnI9G.s 			page 134


 5756 11f3 50       		.byte	0x50
 5757 11f4 03       		.uleb128 0x3
 5758 11f5 77       		.byte	0x77
 5759 11f6 FC01     		.sleb128 252
 5760 11f8 00       		.byte	0
 5761 11f9 15       		.uleb128 0x15
 5762 11fa 1A010000 		.4byte	.LVL241
 5763 11fe D6230000 		.4byte	0x23d6
 5764 1202 11120000 		.4byte	0x1211
 5765 1206 16       		.uleb128 0x16
 5766 1207 01       		.uleb128 0x1
 5767 1208 50       		.byte	0x50
 5768 1209 01       		.uleb128 0x1
 5769 120a 31       		.byte	0x31
 5770 120b 16       		.uleb128 0x16
 5771 120c 01       		.uleb128 0x1
 5772 120d 51       		.byte	0x51
 5773 120e 01       		.uleb128 0x1
 5774 120f 30       		.byte	0x30
 5775 1210 00       		.byte	0
 5776 1211 15       		.uleb128 0x15
 5777 1212 20010000 		.4byte	.LVL242
 5778 1216 E1230000 		.4byte	0x23e1
 5779 121a 28120000 		.4byte	0x1228
 5780 121e 16       		.uleb128 0x16
 5781 121f 01       		.uleb128 0x1
 5782 1220 50       		.byte	0x50
 5783 1221 05       		.uleb128 0x5
 5784 1222 03       		.byte	0x3
 5785 1223 10000000 		.4byte	.LC8
 5786 1227 00       		.byte	0
 5787 1228 15       		.uleb128 0x15
 5788 1229 28010000 		.4byte	.LVL243
 5789 122d 0B240000 		.4byte	0x240b
 5790 1231 3C120000 		.4byte	0x123c
 5791 1235 16       		.uleb128 0x16
 5792 1236 01       		.uleb128 0x1
 5793 1237 50       		.byte	0x50
 5794 1238 02       		.uleb128 0x2
 5795 1239 74       		.byte	0x74
 5796 123a 00       		.sleb128 0
 5797 123b 00       		.byte	0
 5798 123c 15       		.uleb128 0x15
 5799 123d 30010000 		.4byte	.LVL244
 5800 1241 21240000 		.4byte	0x2421
 5801 1245 50120000 		.4byte	0x1250
 5802 1249 16       		.uleb128 0x16
 5803 124a 01       		.uleb128 0x1
 5804 124b 50       		.byte	0x50
 5805 124c 02       		.uleb128 0x2
 5806 124d 74       		.byte	0x74
 5807 124e 00       		.sleb128 0
 5808 124f 00       		.byte	0
 5809 1250 17       		.uleb128 0x17
 5810 1251 34010000 		.4byte	.LVL245
 5811 1255 2C240000 		.4byte	0x242c
 5812 1259 15       		.uleb128 0x15
ARM GAS  C:\Users\HENRIC~1\AppData\Local\Temp\ccRPnI9G.s 			page 135


 5813 125a 3E010000 		.4byte	.LVL246
 5814 125e 37240000 		.4byte	0x2437
 5815 1262 6D120000 		.4byte	0x126d
 5816 1266 16       		.uleb128 0x16
 5817 1267 01       		.uleb128 0x1
 5818 1268 50       		.byte	0x50
 5819 1269 02       		.uleb128 0x2
 5820 126a 08       		.byte	0x8
 5821 126b 64       		.byte	0x64
 5822 126c 00       		.byte	0
 5823 126d 15       		.uleb128 0x15
 5824 126e 46010000 		.4byte	.LVL247
 5825 1272 D6230000 		.4byte	0x23d6
 5826 1276 85120000 		.4byte	0x1285
 5827 127a 16       		.uleb128 0x16
 5828 127b 01       		.uleb128 0x1
 5829 127c 50       		.byte	0x50
 5830 127d 01       		.uleb128 0x1
 5831 127e 31       		.byte	0x31
 5832 127f 16       		.uleb128 0x16
 5833 1280 01       		.uleb128 0x1
 5834 1281 51       		.byte	0x51
 5835 1282 01       		.uleb128 0x1
 5836 1283 30       		.byte	0x30
 5837 1284 00       		.byte	0
 5838 1285 18       		.uleb128 0x18
 5839 1286 4C010000 		.4byte	.LVL248
 5840 128a E1230000 		.4byte	0x23e1
 5841 128e 16       		.uleb128 0x16
 5842 128f 01       		.uleb128 0x1
 5843 1290 50       		.byte	0x50
 5844 1291 05       		.uleb128 0x5
 5845 1292 03       		.byte	0x3
 5846 1293 20000000 		.4byte	.LC9
 5847 1297 00       		.byte	0
 5848 1298 00       		.byte	0
 5849 1299 17       		.uleb128 0x17
 5850 129a 06000000 		.4byte	.LVL208
 5851 129e 58240000 		.4byte	0x2458
 5852 12a2 17       		.uleb128 0x17
 5853 12a3 0A000000 		.4byte	.LVL209
 5854 12a7 63240000 		.4byte	0x2463
 5855 12ab 17       		.uleb128 0x17
 5856 12ac 0E000000 		.4byte	.LVL210
 5857 12b0 6E240000 		.4byte	0x246e
 5858 12b4 17       		.uleb128 0x17
 5859 12b5 12000000 		.4byte	.LVL211
 5860 12b9 79240000 		.4byte	0x2479
 5861 12bd 15       		.uleb128 0x15
 5862 12be 20000000 		.4byte	.LVL212
 5863 12c2 F7230000 		.4byte	0x23f7
 5864 12c6 DD120000 		.4byte	0x12dd
 5865 12ca 16       		.uleb128 0x16
 5866 12cb 01       		.uleb128 0x1
 5867 12cc 50       		.byte	0x50
 5868 12cd 03       		.uleb128 0x3
 5869 12ce 75       		.byte	0x75
ARM GAS  C:\Users\HENRIC~1\AppData\Local\Temp\ccRPnI9G.s 			page 136


 5870 12cf 9801     		.sleb128 152
 5871 12d1 16       		.uleb128 0x16
 5872 12d2 01       		.uleb128 0x1
 5873 12d3 51       		.byte	0x51
 5874 12d4 01       		.uleb128 0x1
 5875 12d5 30       		.byte	0x30
 5876 12d6 16       		.uleb128 0x16
 5877 12d7 01       		.uleb128 0x1
 5878 12d8 52       		.byte	0x52
 5879 12d9 02       		.uleb128 0x2
 5880 12da 08       		.byte	0x8
 5881 12db 21       		.byte	0x21
 5882 12dc 00       		.byte	0
 5883 12dd 15       		.uleb128 0x15
 5884 12de 2C000000 		.4byte	.LVL213
 5885 12e2 CB230000 		.4byte	0x23cb
 5886 12e6 F0120000 		.4byte	0x12f0
 5887 12ea 16       		.uleb128 0x16
 5888 12eb 01       		.uleb128 0x1
 5889 12ec 50       		.byte	0x50
 5890 12ed 01       		.uleb128 0x1
 5891 12ee 31       		.byte	0x31
 5892 12ef 00       		.byte	0
 5893 12f0 15       		.uleb128 0x15
 5894 12f1 34000000 		.4byte	.LVL214
 5895 12f5 D6230000 		.4byte	0x23d6
 5896 12f9 0A130000 		.4byte	0x130a
 5897 12fd 16       		.uleb128 0x16
 5898 12fe 01       		.uleb128 0x1
 5899 12ff 50       		.byte	0x50
 5900 1300 02       		.uleb128 0x2
 5901 1301 74       		.byte	0x74
 5902 1302 00       		.sleb128 0
 5903 1303 16       		.uleb128 0x16
 5904 1304 01       		.uleb128 0x1
 5905 1305 51       		.byte	0x51
 5906 1306 02       		.uleb128 0x2
 5907 1307 74       		.byte	0x74
 5908 1308 00       		.sleb128 0
 5909 1309 00       		.byte	0
 5910 130a 15       		.uleb128 0x15
 5911 130b 3A000000 		.4byte	.LVL215
 5912 130f E1230000 		.4byte	0x23e1
 5913 1313 21130000 		.4byte	0x1321
 5914 1317 16       		.uleb128 0x16
 5915 1318 01       		.uleb128 0x1
 5916 1319 50       		.byte	0x50
 5917 131a 05       		.uleb128 0x5
 5918 131b 03       		.byte	0x3
 5919 131c 08000000 		.4byte	.LC7
 5920 1320 00       		.byte	0
 5921 1321 17       		.uleb128 0x17
 5922 1322 3E000000 		.4byte	.LVL216
 5923 1326 42240000 		.4byte	0x2442
 5924 132a 17       		.uleb128 0x17
 5925 132b 42000000 		.4byte	.LVL217
 5926 132f 4D240000 		.4byte	0x244d
ARM GAS  C:\Users\HENRIC~1\AppData\Local\Temp\ccRPnI9G.s 			page 137


 5927 1333 00       		.byte	0
 5928 1334 1D       		.uleb128 0x1d
 5929 1335 A8060000 		.4byte	.LASF133
 5930 1339 01       		.byte	0x1
 5931 133a 6001     		.2byte	0x160
 5932 133c 00000000 		.4byte	.LFB68
 5933 1340 6C010000 		.4byte	.LFE68-.LFB68
 5934 1344 01       		.uleb128 0x1
 5935 1345 9C       		.byte	0x9c
 5936 1346 33160000 		.4byte	0x1633
 5937 134a 13       		.uleb128 0x13
 5938 134b 0C0A0000 		.4byte	.LASF116
 5939 134f 01       		.byte	0x1
 5940 1350 6601     		.2byte	0x166
 5941 1352 7E080000 		.4byte	0x87e
 5942 1356 05       		.uleb128 0x5
 5943 1357 03       		.byte	0x3
 5944 1358 0C010000 		.4byte	txStr.7659
 5945 135c 13       		.uleb128 0x13
 5946 135d A7090000 		.4byte	.LASF117
 5947 1361 01       		.byte	0x1
 5948 1362 6701     		.2byte	0x167
 5949 1364 C1000000 		.4byte	0xc1
 5950 1368 05       		.uleb128 0x5
 5951 1369 03       		.byte	0x3
 5952 136a 2D010000 		.4byte	txStr_index.7660
 5953 136e 13       		.uleb128 0x13
 5954 136f B6080000 		.4byte	.LASF105
 5955 1373 01       		.byte	0x1
 5956 1374 6B01     		.2byte	0x16b
 5957 1376 5E080000 		.4byte	0x85e
 5958 137a 03       		.uleb128 0x3
 5959 137b 91       		.byte	0x91
 5960 137c B07F     		.sleb128 -80
 5961 137e 1E       		.uleb128 0x1e
 5962 137f 73747200 		.ascii	"str\000"
 5963 1383 01       		.byte	0x1
 5964 1384 6C01     		.2byte	0x16c
 5965 1386 33160000 		.4byte	0x1633
 5966 138a 03       		.uleb128 0x3
 5967 138b 91       		.byte	0x91
 5968 138c 9C7F     		.sleb128 -100
 5969 138e 19       		.uleb128 0x19
 5970 138f 3A000000 		.4byte	.LBB8
 5971 1393 A6000000 		.4byte	.LBE8-.LBB8
 5972 1397 70140000 		.4byte	0x1470
 5973 139b 14       		.uleb128 0x14
 5974 139c 27030000 		.4byte	.LASF119
 5975 13a0 01       		.byte	0x1
 5976 13a1 7501     		.2byte	0x175
 5977 13a3 CC000000 		.4byte	0xcc
 5978 13a7 CC050000 		.4byte	.LLST38
 5979 13ab 14       		.uleb128 0x14
 5980 13ac A5000000 		.4byte	.LASF120
 5981 13b0 01       		.byte	0x1
 5982 13b1 7801     		.2byte	0x178
 5983 13b3 31030000 		.4byte	0x331
ARM GAS  C:\Users\HENRIC~1\AppData\Local\Temp\ccRPnI9G.s 			page 138


 5984 13b7 DF050000 		.4byte	.LLST39
 5985 13bb 14       		.uleb128 0x14
 5986 13bc A3080000 		.4byte	.LASF109
 5987 13c0 01       		.byte	0x1
 5988 13c1 7901     		.2byte	0x179
 5989 13c3 C1000000 		.4byte	0xc1
 5990 13c7 2C060000 		.4byte	.LLST40
 5991 13cb 12       		.uleb128 0x12
 5992 13cc 6300     		.ascii	"c\000"
 5993 13ce 01       		.byte	0x1
 5994 13cf 7A01     		.2byte	0x17a
 5995 13d1 F0000000 		.4byte	0xf0
 5996 13d5 56060000 		.4byte	.LLST41
 5997 13d9 15       		.uleb128 0x15
 5998 13da 46000000 		.4byte	.LVL257
 5999 13de F7230000 		.4byte	0x23f7
 6000 13e2 F9130000 		.4byte	0x13f9
 6001 13e6 16       		.uleb128 0x16
 6002 13e7 01       		.uleb128 0x1
 6003 13e8 50       		.byte	0x50
 6004 13e9 03       		.uleb128 0x3
 6005 13ea 91       		.byte	0x91
 6006 13eb B07F     		.sleb128 -80
 6007 13ed 16       		.uleb128 0x16
 6008 13ee 01       		.uleb128 0x1
 6009 13ef 51       		.byte	0x51
 6010 13f0 01       		.uleb128 0x1
 6011 13f1 30       		.byte	0x30
 6012 13f2 16       		.uleb128 0x16
 6013 13f3 01       		.uleb128 0x1
 6014 13f4 52       		.byte	0x52
 6015 13f5 02       		.uleb128 0x2
 6016 13f6 74       		.byte	0x74
 6017 13f7 00       		.sleb128 0
 6018 13f8 00       		.byte	0
 6019 13f9 15       		.uleb128 0x15
 6020 13fa 4E000000 		.4byte	.LVL258
 6021 13fe 00240000 		.4byte	0x2400
 6022 1402 14140000 		.4byte	0x1414
 6023 1406 16       		.uleb128 0x16
 6024 1407 01       		.uleb128 0x1
 6025 1408 50       		.byte	0x50
 6026 1409 03       		.uleb128 0x3
 6027 140a 91       		.byte	0x91
 6028 140b B07F     		.sleb128 -80
 6029 140d 16       		.uleb128 0x16
 6030 140e 01       		.uleb128 0x1
 6031 140f 51       		.byte	0x51
 6032 1410 02       		.uleb128 0x2
 6033 1411 74       		.byte	0x74
 6034 1412 00       		.sleb128 0
 6035 1413 00       		.byte	0
 6036 1414 15       		.uleb128 0x15
 6037 1415 56000000 		.4byte	.LVL260
 6038 1419 0B240000 		.4byte	0x240b
 6039 141d 29140000 		.4byte	0x1429
 6040 1421 16       		.uleb128 0x16
ARM GAS  C:\Users\HENRIC~1\AppData\Local\Temp\ccRPnI9G.s 			page 139


 6041 1422 01       		.uleb128 0x1
 6042 1423 50       		.byte	0x50
 6043 1424 03       		.uleb128 0x3
 6044 1425 91       		.byte	0x91
 6045 1426 B07F     		.sleb128 -80
 6046 1428 00       		.byte	0
 6047 1429 15       		.uleb128 0x15
 6048 142a 5E000000 		.4byte	.LVL261
 6049 142e 16240000 		.4byte	0x2416
 6050 1432 3E140000 		.4byte	0x143e
 6051 1436 16       		.uleb128 0x16
 6052 1437 01       		.uleb128 0x1
 6053 1438 50       		.byte	0x50
 6054 1439 03       		.uleb128 0x3
 6055 143a 91       		.byte	0x91
 6056 143b B07F     		.sleb128 -80
 6057 143d 00       		.byte	0
 6058 143e 15       		.uleb128 0x15
 6059 143f D0000000 		.4byte	.LVL275
 6060 1443 0B240000 		.4byte	0x240b
 6061 1447 52140000 		.4byte	0x1452
 6062 144b 16       		.uleb128 0x16
 6063 144c 01       		.uleb128 0x1
 6064 144d 50       		.byte	0x50
 6065 144e 02       		.uleb128 0x2
 6066 144f 74       		.byte	0x74
 6067 1450 00       		.sleb128 0
 6068 1451 00       		.byte	0
 6069 1452 15       		.uleb128 0x15
 6070 1453 D8000000 		.4byte	.LVL276
 6071 1457 21240000 		.4byte	0x2421
 6072 145b 66140000 		.4byte	0x1466
 6073 145f 16       		.uleb128 0x16
 6074 1460 01       		.uleb128 0x1
 6075 1461 50       		.byte	0x50
 6076 1462 02       		.uleb128 0x2
 6077 1463 74       		.byte	0x74
 6078 1464 00       		.sleb128 0
 6079 1465 00       		.byte	0
 6080 1466 17       		.uleb128 0x17
 6081 1467 DC000000 		.4byte	.LVL277
 6082 146b 2C240000 		.4byte	0x242c
 6083 146f 00       		.byte	0
 6084 1470 19       		.uleb128 0x19
 6085 1471 E6000000 		.4byte	.LBB9
 6086 1475 5C000000 		.4byte	.LBE9-.LBB9
 6087 1479 83150000 		.4byte	0x1583
 6088 147d 14       		.uleb128 0x14
 6089 147e 14000000 		.4byte	.LASF134
 6090 1482 01       		.byte	0x1
 6091 1483 9601     		.2byte	0x196
 6092 1485 C1000000 		.4byte	0xc1
 6093 1489 74060000 		.4byte	.LLST42
 6094 148d 12       		.uleb128 0x12
 6095 148e 63707900 		.ascii	"cpy\000"
 6096 1492 01       		.byte	0x1
 6097 1493 9C01     		.2byte	0x19c
ARM GAS  C:\Users\HENRIC~1\AppData\Local\Temp\ccRPnI9G.s 			page 140


 6098 1495 C1000000 		.4byte	0xc1
 6099 1499 87060000 		.4byte	.LLST43
 6100 149d 15       		.uleb128 0x15
 6101 149e EE000000 		.4byte	.LVL280
 6102 14a2 C6240000 		.4byte	0x24c6
 6103 14a6 B8140000 		.4byte	0x14b8
 6104 14aa 16       		.uleb128 0x16
 6105 14ab 01       		.uleb128 0x1
 6106 14ac 50       		.byte	0x50
 6107 14ad 03       		.uleb128 0x3
 6108 14ae 91       		.byte	0x91
 6109 14af B07F     		.sleb128 -80
 6110 14b1 16       		.uleb128 0x16
 6111 14b2 01       		.uleb128 0x1
 6112 14b3 51       		.byte	0x51
 6113 14b4 02       		.uleb128 0x2
 6114 14b5 08       		.byte	0x8
 6115 14b6 40       		.byte	0x40
 6116 14b7 00       		.byte	0
 6117 14b8 15       		.uleb128 0x15
 6118 14b9 F6000000 		.4byte	.LVL282
 6119 14bd CB230000 		.4byte	0x23cb
 6120 14c1 CB140000 		.4byte	0x14cb
 6121 14c5 16       		.uleb128 0x16
 6122 14c6 01       		.uleb128 0x1
 6123 14c7 50       		.byte	0x50
 6124 14c8 01       		.uleb128 0x1
 6125 14c9 31       		.byte	0x31
 6126 14ca 00       		.byte	0
 6127 14cb 15       		.uleb128 0x15
 6128 14cc FE000000 		.4byte	.LVL283
 6129 14d0 D6230000 		.4byte	0x23d6
 6130 14d4 E3140000 		.4byte	0x14e3
 6131 14d8 16       		.uleb128 0x16
 6132 14d9 01       		.uleb128 0x1
 6133 14da 50       		.byte	0x50
 6134 14db 01       		.uleb128 0x1
 6135 14dc 30       		.byte	0x30
 6136 14dd 16       		.uleb128 0x16
 6137 14de 01       		.uleb128 0x1
 6138 14df 51       		.byte	0x51
 6139 14e0 01       		.uleb128 0x1
 6140 14e1 30       		.byte	0x30
 6141 14e2 00       		.byte	0
 6142 14e3 15       		.uleb128 0x15
 6143 14e4 08010000 		.4byte	.LVL284
 6144 14e8 D1240000 		.4byte	0x24d1
 6145 14ec 07150000 		.4byte	0x1507
 6146 14f0 16       		.uleb128 0x16
 6147 14f1 01       		.uleb128 0x1
 6148 14f2 50       		.byte	0x50
 6149 14f3 03       		.uleb128 0x3
 6150 14f4 91       		.byte	0x91
 6151 14f5 9C7F     		.sleb128 -100
 6152 14f7 16       		.uleb128 0x16
 6153 14f8 01       		.uleb128 0x1
 6154 14f9 51       		.byte	0x51
ARM GAS  C:\Users\HENRIC~1\AppData\Local\Temp\ccRPnI9G.s 			page 141


 6155 14fa 05       		.uleb128 0x5
 6156 14fb 03       		.byte	0x3
 6157 14fc D0000000 		.4byte	.LC24
 6158 1500 16       		.uleb128 0x16
 6159 1501 01       		.uleb128 0x1
 6160 1502 52       		.byte	0x52
 6161 1503 02       		.uleb128 0x2
 6162 1504 75       		.byte	0x75
 6163 1505 00       		.sleb128 0
 6164 1506 00       		.byte	0
 6165 1507 15       		.uleb128 0x15
 6166 1508 0E010000 		.4byte	.LVL285
 6167 150c E1230000 		.4byte	0x23e1
 6168 1510 1C150000 		.4byte	0x151c
 6169 1514 16       		.uleb128 0x16
 6170 1515 01       		.uleb128 0x1
 6171 1516 50       		.byte	0x50
 6172 1517 03       		.uleb128 0x3
 6173 1518 91       		.byte	0x91
 6174 1519 9C7F     		.sleb128 -100
 6175 151b 00       		.byte	0
 6176 151c 15       		.uleb128 0x15
 6177 151d 16010000 		.4byte	.LVL286
 6178 1521 D6230000 		.4byte	0x23d6
 6179 1525 34150000 		.4byte	0x1534
 6180 1529 16       		.uleb128 0x16
 6181 152a 01       		.uleb128 0x1
 6182 152b 50       		.byte	0x50
 6183 152c 01       		.uleb128 0x1
 6184 152d 31       		.byte	0x31
 6185 152e 16       		.uleb128 0x16
 6186 152f 01       		.uleb128 0x1
 6187 1530 51       		.byte	0x51
 6188 1531 01       		.uleb128 0x1
 6189 1532 30       		.byte	0x30
 6190 1533 00       		.byte	0
 6191 1534 15       		.uleb128 0x15
 6192 1535 2A010000 		.4byte	.LVL288
 6193 1539 DC240000 		.4byte	0x24dc
 6194 153d 56150000 		.4byte	0x1556
 6195 1541 16       		.uleb128 0x16
 6196 1542 01       		.uleb128 0x1
 6197 1543 50       		.byte	0x50
 6198 1544 03       		.uleb128 0x3
 6199 1545 91       		.byte	0x91
 6200 1546 9C7F     		.sleb128 -100
 6201 1548 16       		.uleb128 0x16
 6202 1549 01       		.uleb128 0x1
 6203 154a 51       		.byte	0x51
 6204 154b 03       		.uleb128 0x3
 6205 154c 91       		.byte	0x91
 6206 154d B07F     		.sleb128 -80
 6207 154f 16       		.uleb128 0x16
 6208 1550 01       		.uleb128 0x1
 6209 1551 52       		.byte	0x52
 6210 1552 02       		.uleb128 0x2
 6211 1553 74       		.byte	0x74
ARM GAS  C:\Users\HENRIC~1\AppData\Local\Temp\ccRPnI9G.s 			page 142


 6212 1554 00       		.sleb128 0
 6213 1555 00       		.byte	0
 6214 1556 15       		.uleb128 0x15
 6215 1557 3A010000 		.4byte	.LVL290
 6216 155b E1230000 		.4byte	0x23e1
 6217 155f 6B150000 		.4byte	0x156b
 6218 1563 16       		.uleb128 0x16
 6219 1564 01       		.uleb128 0x1
 6220 1565 50       		.byte	0x50
 6221 1566 03       		.uleb128 0x3
 6222 1567 91       		.byte	0x91
 6223 1568 9C7F     		.sleb128 -100
 6224 156a 00       		.byte	0
 6225 156b 18       		.uleb128 0x18
 6226 156c 42010000 		.4byte	.LVL291
 6227 1570 16240000 		.4byte	0x2416
 6228 1574 16       		.uleb128 0x16
 6229 1575 01       		.uleb128 0x1
 6230 1576 50       		.byte	0x50
 6231 1577 03       		.uleb128 0x3
 6232 1578 91       		.byte	0x91
 6233 1579 B07F     		.sleb128 -80
 6234 157b 16       		.uleb128 0x16
 6235 157c 01       		.uleb128 0x1
 6236 157d 51       		.byte	0x51
 6237 157e 02       		.uleb128 0x2
 6238 157f 75       		.byte	0x75
 6239 1580 00       		.sleb128 0
 6240 1581 00       		.byte	0
 6241 1582 00       		.byte	0
 6242 1583 17       		.uleb128 0x17
 6243 1584 08000000 		.4byte	.LVL249
 6244 1588 58240000 		.4byte	0x2458
 6245 158c 17       		.uleb128 0x17
 6246 158d 0C000000 		.4byte	.LVL250
 6247 1591 63240000 		.4byte	0x2463
 6248 1595 17       		.uleb128 0x17
 6249 1596 10000000 		.4byte	.LVL251
 6250 159a 6E240000 		.4byte	0x246e
 6251 159e 17       		.uleb128 0x17
 6252 159f 14000000 		.4byte	.LVL252
 6253 15a3 79240000 		.4byte	0x2479
 6254 15a7 15       		.uleb128 0x15
 6255 15a8 22000000 		.4byte	.LVL253
 6256 15ac F7230000 		.4byte	0x23f7
 6257 15b0 C7150000 		.4byte	0x15c7
 6258 15b4 16       		.uleb128 0x16
 6259 15b5 01       		.uleb128 0x1
 6260 15b6 50       		.byte	0x50
 6261 15b7 03       		.uleb128 0x3
 6262 15b8 74       		.byte	0x74
 6263 15b9 8C02     		.sleb128 268
 6264 15bb 16       		.uleb128 0x16
 6265 15bc 01       		.uleb128 0x1
 6266 15bd 51       		.byte	0x51
 6267 15be 01       		.uleb128 0x1
 6268 15bf 30       		.byte	0x30
ARM GAS  C:\Users\HENRIC~1\AppData\Local\Temp\ccRPnI9G.s 			page 143


 6269 15c0 16       		.uleb128 0x16
 6270 15c1 01       		.uleb128 0x1
 6271 15c2 52       		.byte	0x52
 6272 15c3 02       		.uleb128 0x2
 6273 15c4 08       		.byte	0x8
 6274 15c5 21       		.byte	0x21
 6275 15c6 00       		.byte	0
 6276 15c7 15       		.uleb128 0x15
 6277 15c8 2E000000 		.4byte	.LVL254
 6278 15cc CB230000 		.4byte	0x23cb
 6279 15d0 DA150000 		.4byte	0x15da
 6280 15d4 16       		.uleb128 0x16
 6281 15d5 01       		.uleb128 0x1
 6282 15d6 50       		.byte	0x50
 6283 15d7 01       		.uleb128 0x1
 6284 15d8 31       		.byte	0x31
 6285 15d9 00       		.byte	0
 6286 15da 17       		.uleb128 0x17
 6287 15db 32000000 		.4byte	.LVL255
 6288 15df 42240000 		.4byte	0x2442
 6289 15e3 17       		.uleb128 0x17
 6290 15e4 36000000 		.4byte	.LVL256
 6291 15e8 4D240000 		.4byte	0x244d
 6292 15ec 17       		.uleb128 0x17
 6293 15ed E4000000 		.4byte	.LVL279
 6294 15f1 E5240000 		.4byte	0x24e5
 6295 15f5 17       		.uleb128 0x17
 6296 15f6 46010000 		.4byte	.LVL292
 6297 15fa A5240000 		.4byte	0x24a5
 6298 15fe 17       		.uleb128 0x17
 6299 15ff 4C010000 		.4byte	.LVL293
 6300 1603 B0240000 		.4byte	0x24b0
 6301 1607 17       		.uleb128 0x17
 6302 1608 50010000 		.4byte	.LVL294
 6303 160c BB240000 		.4byte	0x24bb
 6304 1610 15       		.uleb128 0x15
 6305 1611 56010000 		.4byte	.LVL295
 6306 1615 EC230000 		.4byte	0x23ec
 6307 1619 23160000 		.4byte	0x1623
 6308 161d 16       		.uleb128 0x16
 6309 161e 01       		.uleb128 0x1
 6310 161f 50       		.byte	0x50
 6311 1620 01       		.uleb128 0x1
 6312 1621 31       		.byte	0x31
 6313 1622 00       		.byte	0
 6314 1623 18       		.uleb128 0x18
 6315 1624 62010000 		.4byte	.LVL296
 6316 1628 CB230000 		.4byte	0x23cb
 6317 162c 16       		.uleb128 0x16
 6318 162d 01       		.uleb128 0x1
 6319 162e 50       		.byte	0x50
 6320 162f 01       		.uleb128 0x1
 6321 1630 31       		.byte	0x31
 6322 1631 00       		.byte	0
 6323 1632 00       		.byte	0
 6324 1633 0C       		.uleb128 0xc
 6325 1634 F0000000 		.4byte	0xf0
ARM GAS  C:\Users\HENRIC~1\AppData\Local\Temp\ccRPnI9G.s 			page 144


 6326 1638 43160000 		.4byte	0x1643
 6327 163c 0D       		.uleb128 0xd
 6328 163d FE000000 		.4byte	0xfe
 6329 1641 10       		.byte	0x10
 6330 1642 00       		.byte	0
 6331 1643 1D       		.uleb128 0x1d
 6332 1644 B4060000 		.4byte	.LASF135
 6333 1648 01       		.byte	0x1
 6334 1649 B301     		.2byte	0x1b3
 6335 164b 00000000 		.4byte	.LFB69
 6336 164f 80030000 		.4byte	.LFE69-.LFB69
 6337 1653 01       		.uleb128 0x1
 6338 1654 9C       		.byte	0x9c
 6339 1655 DE1B0000 		.4byte	0x1bde
 6340 1659 13       		.uleb128 0x13
 6341 165a 0C0A0000 		.4byte	.LASF116
 6342 165e 01       		.byte	0x1
 6343 165f B801     		.2byte	0x1b8
 6344 1661 DE1B0000 		.4byte	0x1bde
 6345 1665 05       		.uleb128 0x5
 6346 1666 03       		.byte	0x3
 6347 1667 30010000 		.4byte	txStr.7679
 6348 166b 13       		.uleb128 0x13
 6349 166c A7090000 		.4byte	.LASF117
 6350 1670 01       		.byte	0x1
 6351 1671 B901     		.2byte	0x1b9
 6352 1673 C1000000 		.4byte	0xc1
 6353 1677 05       		.uleb128 0x5
 6354 1678 03       		.byte	0x3
 6355 1679 5D010000 		.4byte	txStr_index.7680
 6356 167d 13       		.uleb128 0x13
 6357 167e B6080000 		.4byte	.LASF105
 6358 1682 01       		.byte	0x1
 6359 1683 BD01     		.2byte	0x1bd
 6360 1685 5E080000 		.4byte	0x85e
 6361 1689 03       		.uleb128 0x3
 6362 168a 91       		.byte	0x91
 6363 168b 987F     		.sleb128 -104
 6364 168d 1E       		.uleb128 0x1e
 6365 168e 73747200 		.ascii	"str\000"
 6366 1692 01       		.byte	0x1
 6367 1693 BE01     		.2byte	0x1be
 6368 1695 EE1B0000 		.4byte	0x1bee
 6369 1699 03       		.uleb128 0x3
 6370 169a 91       		.byte	0x91
 6371 169b E47E     		.sleb128 -156
 6372 169d 14       		.uleb128 0x14
 6373 169e EF010000 		.4byte	.LASF136
 6374 16a2 01       		.byte	0x1
 6375 16a3 C201     		.2byte	0x1c2
 6376 16a5 C1000000 		.4byte	0xc1
 6377 16a9 B9060000 		.4byte	.LLST44
 6378 16ad 14       		.uleb128 0x14
 6379 16ae 0C010000 		.4byte	.LASF137
 6380 16b2 01       		.byte	0x1
 6381 16b3 C301     		.2byte	0x1c3
 6382 16b5 31030000 		.4byte	0x331
ARM GAS  C:\Users\HENRIC~1\AppData\Local\Temp\ccRPnI9G.s 			page 145


 6383 16b9 EE060000 		.4byte	.LLST45
 6384 16bd 14       		.uleb128 0x14
 6385 16be C8090000 		.4byte	.LASF138
 6386 16c2 01       		.byte	0x1
 6387 16c3 C501     		.2byte	0x1c5
 6388 16c5 C1000000 		.4byte	0xc1
 6389 16c9 24070000 		.4byte	.LLST46
 6390 16cd 14       		.uleb128 0x14
 6391 16ce E0060000 		.4byte	.LASF139
 6392 16d2 01       		.byte	0x1
 6393 16d3 C601     		.2byte	0x1c6
 6394 16d5 31030000 		.4byte	0x331
 6395 16d9 B6070000 		.4byte	.LLST47
 6396 16dd 14       		.uleb128 0x14
 6397 16de 24000000 		.4byte	.LASF140
 6398 16e2 01       		.byte	0x1
 6399 16e3 C701     		.2byte	0x1c7
 6400 16e5 C1000000 		.4byte	0xc1
 6401 16e9 03080000 		.4byte	.LLST48
 6402 16ed 14       		.uleb128 0x14
 6403 16ee 1E030000 		.4byte	.LASF141
 6404 16f2 01       		.byte	0x1
 6405 16f3 C801     		.2byte	0x1c8
 6406 16f5 C1000000 		.4byte	0xc1
 6407 16f9 50080000 		.4byte	.LLST49
 6408 16fd 19       		.uleb128 0x19
 6409 16fe 38000000 		.4byte	.LBB10
 6410 1702 42030000 		.4byte	.LBE10-.LBB10
 6411 1706 891B0000 		.4byte	0x1b89
 6412 170a 1E       		.uleb128 0x1e
 6413 170b 6D736700 		.ascii	"msg\000"
 6414 170f 01       		.byte	0x1
 6415 1710 E101     		.2byte	0x1e1
 6416 1712 38030000 		.4byte	0x338
 6417 1716 03       		.uleb128 0x3
 6418 1717 91       		.byte	0x91
 6419 1718 B07E     		.sleb128 -208
 6420 171a 19       		.uleb128 0x19
 6421 171b 0A010000 		.4byte	.LBB11
 6422 171f 14000000 		.4byte	.LBE11-.LBB11
 6423 1723 36170000 		.4byte	0x1736
 6424 1727 12       		.uleb128 0x12
 6425 1728 6900     		.ascii	"i\000"
 6426 172a 01       		.byte	0x1
 6427 172b 0002     		.2byte	0x200
 6428 172d B3000000 		.4byte	0xb3
 6429 1731 9D080000 		.4byte	.LLST50
 6430 1735 00       		.byte	0
 6431 1736 19       		.uleb128 0x19
 6432 1737 94010000 		.4byte	.LBB12
 6433 173b 14000000 		.4byte	.LBE12-.LBB12
 6434 173f 52170000 		.4byte	0x1752
 6435 1743 12       		.uleb128 0x12
 6436 1744 6900     		.ascii	"i\000"
 6437 1746 01       		.byte	0x1
 6438 1747 1C02     		.2byte	0x21c
 6439 1749 B3000000 		.4byte	0xb3
ARM GAS  C:\Users\HENRIC~1\AppData\Local\Temp\ccRPnI9G.s 			page 146


 6440 174d BC080000 		.4byte	.LLST51
 6441 1751 00       		.byte	0
 6442 1752 19       		.uleb128 0x19
 6443 1753 E0010000 		.4byte	.LBB13
 6444 1757 40000000 		.4byte	.LBE13-.LBB13
 6445 175b 00180000 		.4byte	0x1800
 6446 175f 14       		.uleb128 0x14
 6447 1760 14000000 		.4byte	.LASF134
 6448 1764 01       		.byte	0x1
 6449 1765 3102     		.2byte	0x231
 6450 1767 C1000000 		.4byte	0xc1
 6451 176b DB080000 		.4byte	.LLST52
 6452 176f 15       		.uleb128 0x15
 6453 1770 E6010000 		.4byte	.LVL348
 6454 1774 F0240000 		.4byte	0x24f0
 6455 1778 84170000 		.4byte	0x1784
 6456 177c 16       		.uleb128 0x16
 6457 177d 01       		.uleb128 0x1
 6458 177e 50       		.byte	0x50
 6459 177f 03       		.uleb128 0x3
 6460 1780 91       		.byte	0x91
 6461 1781 B07E     		.sleb128 -208
 6462 1783 00       		.byte	0
 6463 1784 15       		.uleb128 0x15
 6464 1785 FE010000 		.4byte	.LVL350
 6465 1789 D1240000 		.4byte	0x24d1
 6466 178d A2170000 		.4byte	0x17a2
 6467 1791 16       		.uleb128 0x16
 6468 1792 01       		.uleb128 0x1
 6469 1793 50       		.byte	0x50
 6470 1794 03       		.uleb128 0x3
 6471 1795 91       		.byte	0x91
 6472 1796 E47E     		.sleb128 -156
 6473 1798 16       		.uleb128 0x16
 6474 1799 01       		.uleb128 0x1
 6475 179a 51       		.byte	0x51
 6476 179b 05       		.uleb128 0x5
 6477 179c 03       		.byte	0x3
 6478 179d F8000000 		.4byte	.LC28
 6479 17a1 00       		.byte	0
 6480 17a2 15       		.uleb128 0x15
 6481 17a3 04020000 		.4byte	.LVL351
 6482 17a7 0B240000 		.4byte	0x240b
 6483 17ab B7170000 		.4byte	0x17b7
 6484 17af 16       		.uleb128 0x16
 6485 17b0 01       		.uleb128 0x1
 6486 17b1 50       		.byte	0x50
 6487 17b2 03       		.uleb128 0x3
 6488 17b3 91       		.byte	0x91
 6489 17b4 E47E     		.sleb128 -156
 6490 17b6 00       		.byte	0
 6491 17b7 15       		.uleb128 0x15
 6492 17b8 0C020000 		.4byte	.LVL352
 6493 17bc 16240000 		.4byte	0x2416
 6494 17c0 CC170000 		.4byte	0x17cc
 6495 17c4 16       		.uleb128 0x16
 6496 17c5 01       		.uleb128 0x1
ARM GAS  C:\Users\HENRIC~1\AppData\Local\Temp\ccRPnI9G.s 			page 147


 6497 17c6 50       		.byte	0x50
 6498 17c7 03       		.uleb128 0x3
 6499 17c8 91       		.byte	0x91
 6500 17c9 E47E     		.sleb128 -156
 6501 17cb 00       		.byte	0
 6502 17cc 15       		.uleb128 0x15
 6503 17cd 16020000 		.4byte	.LVL353
 6504 17d1 16240000 		.4byte	0x2416
 6505 17d5 E7170000 		.4byte	0x17e7
 6506 17d9 16       		.uleb128 0x16
 6507 17da 01       		.uleb128 0x1
 6508 17db 50       		.byte	0x50
 6509 17dc 03       		.uleb128 0x3
 6510 17dd 91       		.byte	0x91
 6511 17de B37E     		.sleb128 -205
 6512 17e0 16       		.uleb128 0x16
 6513 17e1 01       		.uleb128 0x1
 6514 17e2 51       		.byte	0x51
 6515 17e3 02       		.uleb128 0x2
 6516 17e4 77       		.byte	0x77
 6517 17e5 00       		.sleb128 0
 6518 17e6 00       		.byte	0
 6519 17e7 18       		.uleb128 0x18
 6520 17e8 1E020000 		.4byte	.LVL354
 6521 17ec 16240000 		.4byte	0x2416
 6522 17f0 16       		.uleb128 0x16
 6523 17f1 01       		.uleb128 0x1
 6524 17f2 50       		.byte	0x50
 6525 17f3 05       		.uleb128 0x5
 6526 17f4 03       		.byte	0x3
 6527 17f5 1C010000 		.4byte	.LC29
 6528 17f9 16       		.uleb128 0x16
 6529 17fa 01       		.uleb128 0x1
 6530 17fb 51       		.byte	0x51
 6531 17fc 01       		.uleb128 0x1
 6532 17fd 32       		.byte	0x32
 6533 17fe 00       		.byte	0
 6534 17ff 00       		.byte	0
 6535 1800 19       		.uleb128 0x19
 6536 1801 3E020000 		.4byte	.LBB14
 6537 1805 3E000000 		.4byte	.LBE14-.LBB14
 6538 1809 AE180000 		.4byte	0x18ae
 6539 180d 14       		.uleb128 0x14
 6540 180e 14000000 		.4byte	.LASF134
 6541 1812 01       		.byte	0x1
 6542 1813 4202     		.2byte	0x242
 6543 1815 C1000000 		.4byte	0xc1
 6544 1819 EE080000 		.4byte	.LLST53
 6545 181d 15       		.uleb128 0x15
 6546 181e 44020000 		.4byte	.LVL362
 6547 1822 F0240000 		.4byte	0x24f0
 6548 1826 32180000 		.4byte	0x1832
 6549 182a 16       		.uleb128 0x16
 6550 182b 01       		.uleb128 0x1
 6551 182c 50       		.byte	0x50
 6552 182d 03       		.uleb128 0x3
 6553 182e 91       		.byte	0x91
ARM GAS  C:\Users\HENRIC~1\AppData\Local\Temp\ccRPnI9G.s 			page 148


 6554 182f B07E     		.sleb128 -208
 6555 1831 00       		.byte	0
 6556 1832 15       		.uleb128 0x15
 6557 1833 5C020000 		.4byte	.LVL364
 6558 1837 D1240000 		.4byte	0x24d1
 6559 183b 50180000 		.4byte	0x1850
 6560 183f 16       		.uleb128 0x16
 6561 1840 01       		.uleb128 0x1
 6562 1841 50       		.byte	0x50
 6563 1842 03       		.uleb128 0x3
 6564 1843 91       		.byte	0x91
 6565 1844 E47E     		.sleb128 -156
 6566 1846 16       		.uleb128 0x16
 6567 1847 01       		.uleb128 0x1
 6568 1848 51       		.byte	0x51
 6569 1849 05       		.uleb128 0x5
 6570 184a 03       		.byte	0x3
 6571 184b F8000000 		.4byte	.LC28
 6572 184f 00       		.byte	0
 6573 1850 15       		.uleb128 0x15
 6574 1851 62020000 		.4byte	.LVL365
 6575 1855 0B240000 		.4byte	0x240b
 6576 1859 65180000 		.4byte	0x1865
 6577 185d 16       		.uleb128 0x16
 6578 185e 01       		.uleb128 0x1
 6579 185f 50       		.byte	0x50
 6580 1860 03       		.uleb128 0x3
 6581 1861 91       		.byte	0x91
 6582 1862 E47E     		.sleb128 -156
 6583 1864 00       		.byte	0
 6584 1865 15       		.uleb128 0x15
 6585 1866 6A020000 		.4byte	.LVL366
 6586 186a 16240000 		.4byte	0x2416
 6587 186e 7A180000 		.4byte	0x187a
 6588 1872 16       		.uleb128 0x16
 6589 1873 01       		.uleb128 0x1
 6590 1874 50       		.byte	0x50
 6591 1875 03       		.uleb128 0x3
 6592 1876 91       		.byte	0x91
 6593 1877 E47E     		.sleb128 -156
 6594 1879 00       		.byte	0
 6595 187a 15       		.uleb128 0x15
 6596 187b 74020000 		.4byte	.LVL367
 6597 187f 16240000 		.4byte	0x2416
 6598 1883 95180000 		.4byte	0x1895
 6599 1887 16       		.uleb128 0x16
 6600 1888 01       		.uleb128 0x1
 6601 1889 50       		.byte	0x50
 6602 188a 03       		.uleb128 0x3
 6603 188b 91       		.byte	0x91
 6604 188c B37E     		.sleb128 -205
 6605 188e 16       		.uleb128 0x16
 6606 188f 01       		.uleb128 0x1
 6607 1890 51       		.byte	0x51
 6608 1891 02       		.uleb128 0x2
 6609 1892 77       		.byte	0x77
 6610 1893 00       		.sleb128 0
ARM GAS  C:\Users\HENRIC~1\AppData\Local\Temp\ccRPnI9G.s 			page 149


 6611 1894 00       		.byte	0
 6612 1895 18       		.uleb128 0x18
 6613 1896 7C020000 		.4byte	.LVL368
 6614 189a 16240000 		.4byte	0x2416
 6615 189e 16       		.uleb128 0x16
 6616 189f 01       		.uleb128 0x1
 6617 18a0 50       		.byte	0x50
 6618 18a1 05       		.uleb128 0x5
 6619 18a2 03       		.byte	0x3
 6620 18a3 1C010000 		.4byte	.LC29
 6621 18a7 16       		.uleb128 0x16
 6622 18a8 01       		.uleb128 0x1
 6623 18a9 51       		.byte	0x51
 6624 18aa 01       		.uleb128 0x1
 6625 18ab 32       		.byte	0x32
 6626 18ac 00       		.byte	0
 6627 18ad 00       		.byte	0
 6628 18ae 19       		.uleb128 0x19
 6629 18af 86020000 		.4byte	.LBB15
 6630 18b3 EC000000 		.4byte	.LBE15-.LBB15
 6631 18b7 9F190000 		.4byte	0x199f
 6632 18bb 14       		.uleb128 0x14
 6633 18bc 27030000 		.4byte	.LASF119
 6634 18c0 01       		.byte	0x1
 6635 18c1 4C02     		.2byte	0x24c
 6636 18c3 CC000000 		.4byte	0xcc
 6637 18c7 01090000 		.4byte	.LLST54
 6638 18cb 14       		.uleb128 0x14
 6639 18cc A5000000 		.4byte	.LASF120
 6640 18d0 01       		.byte	0x1
 6641 18d1 4F02     		.2byte	0x24f
 6642 18d3 31030000 		.4byte	0x331
 6643 18d7 14090000 		.4byte	.LLST55
 6644 18db 14       		.uleb128 0x14
 6645 18dc A3080000 		.4byte	.LASF109
 6646 18e0 01       		.byte	0x1
 6647 18e1 5002     		.2byte	0x250
 6648 18e3 C1000000 		.4byte	0xc1
 6649 18e7 61090000 		.4byte	.LLST56
 6650 18eb 12       		.uleb128 0x12
 6651 18ec 6300     		.ascii	"c\000"
 6652 18ee 01       		.byte	0x1
 6653 18ef 5102     		.2byte	0x251
 6654 18f1 F0000000 		.4byte	0xf0
 6655 18f5 8B090000 		.4byte	.LLST57
 6656 18f9 15       		.uleb128 0x15
 6657 18fa 92020000 		.4byte	.LVL370
 6658 18fe F7230000 		.4byte	0x23f7
 6659 1902 19190000 		.4byte	0x1919
 6660 1906 16       		.uleb128 0x16
 6661 1907 01       		.uleb128 0x1
 6662 1908 50       		.byte	0x50
 6663 1909 03       		.uleb128 0x3
 6664 190a 91       		.byte	0x91
 6665 190b 987F     		.sleb128 -104
 6666 190d 16       		.uleb128 0x16
 6667 190e 01       		.uleb128 0x1
ARM GAS  C:\Users\HENRIC~1\AppData\Local\Temp\ccRPnI9G.s 			page 150


 6668 190f 51       		.byte	0x51
 6669 1910 01       		.uleb128 0x1
 6670 1911 30       		.byte	0x30
 6671 1912 16       		.uleb128 0x16
 6672 1913 01       		.uleb128 0x1
 6673 1914 52       		.byte	0x52
 6674 1915 02       		.uleb128 0x2
 6675 1916 77       		.byte	0x77
 6676 1917 00       		.sleb128 0
 6677 1918 00       		.byte	0
 6678 1919 15       		.uleb128 0x15
 6679 191a 9A020000 		.4byte	.LVL371
 6680 191e 00240000 		.4byte	0x2400
 6681 1922 34190000 		.4byte	0x1934
 6682 1926 16       		.uleb128 0x16
 6683 1927 01       		.uleb128 0x1
 6684 1928 50       		.byte	0x50
 6685 1929 03       		.uleb128 0x3
 6686 192a 91       		.byte	0x91
 6687 192b 987F     		.sleb128 -104
 6688 192d 16       		.uleb128 0x16
 6689 192e 01       		.uleb128 0x1
 6690 192f 51       		.byte	0x51
 6691 1930 02       		.uleb128 0x2
 6692 1931 77       		.byte	0x77
 6693 1932 00       		.sleb128 0
 6694 1933 00       		.byte	0
 6695 1934 15       		.uleb128 0x15
 6696 1935 A2020000 		.4byte	.LVL373
 6697 1939 0B240000 		.4byte	0x240b
 6698 193d 49190000 		.4byte	0x1949
 6699 1941 16       		.uleb128 0x16
 6700 1942 01       		.uleb128 0x1
 6701 1943 50       		.byte	0x50
 6702 1944 03       		.uleb128 0x3
 6703 1945 91       		.byte	0x91
 6704 1946 987F     		.sleb128 -104
 6705 1948 00       		.byte	0
 6706 1949 15       		.uleb128 0x15
 6707 194a AA020000 		.4byte	.LVL374
 6708 194e 16240000 		.4byte	0x2416
 6709 1952 5E190000 		.4byte	0x195e
 6710 1956 16       		.uleb128 0x16
 6711 1957 01       		.uleb128 0x1
 6712 1958 50       		.byte	0x50
 6713 1959 03       		.uleb128 0x3
 6714 195a 91       		.byte	0x91
 6715 195b 987F     		.sleb128 -104
 6716 195d 00       		.byte	0
 6717 195e 15       		.uleb128 0x15
 6718 195f 56030000 		.4byte	.LVL388
 6719 1963 0B240000 		.4byte	0x240b
 6720 1967 72190000 		.4byte	0x1972
 6721 196b 16       		.uleb128 0x16
 6722 196c 01       		.uleb128 0x1
 6723 196d 50       		.byte	0x50
 6724 196e 02       		.uleb128 0x2
ARM GAS  C:\Users\HENRIC~1\AppData\Local\Temp\ccRPnI9G.s 			page 151


 6725 196f 77       		.byte	0x77
 6726 1970 00       		.sleb128 0
 6727 1971 00       		.byte	0
 6728 1972 15       		.uleb128 0x15
 6729 1973 66030000 		.4byte	.LVL389
 6730 1977 DC240000 		.4byte	0x24dc
 6731 197b 8D190000 		.4byte	0x198d
 6732 197f 16       		.uleb128 0x16
 6733 1980 01       		.uleb128 0x1
 6734 1981 50       		.byte	0x50
 6735 1982 03       		.uleb128 0x3
 6736 1983 91       		.byte	0x91
 6737 1984 B37E     		.sleb128 -205
 6738 1986 16       		.uleb128 0x16
 6739 1987 01       		.uleb128 0x1
 6740 1988 51       		.byte	0x51
 6741 1989 02       		.uleb128 0x2
 6742 198a 77       		.byte	0x77
 6743 198b 00       		.sleb128 0
 6744 198c 00       		.byte	0
 6745 198d 18       		.uleb128 0x18
 6746 198e 70030000 		.4byte	.LVL390
 6747 1992 FB240000 		.4byte	0x24fb
 6748 1996 16       		.uleb128 0x16
 6749 1997 01       		.uleb128 0x1
 6750 1998 50       		.byte	0x50
 6751 1999 03       		.uleb128 0x3
 6752 199a 91       		.byte	0x91
 6753 199b B07E     		.sleb128 -208
 6754 199d 00       		.byte	0
 6755 199e 00       		.byte	0
 6756 199f 17       		.uleb128 0x17
 6757 19a0 3C000000 		.4byte	.LVL303
 6758 19a4 06250000 		.4byte	0x2506
 6759 19a8 17       		.uleb128 0x17
 6760 19a9 40000000 		.4byte	.LVL304
 6761 19ad A5240000 		.4byte	0x24a5
 6762 19b1 17       		.uleb128 0x17
 6763 19b2 46000000 		.4byte	.LVL305
 6764 19b6 B0240000 		.4byte	0x24b0
 6765 19ba 17       		.uleb128 0x17
 6766 19bb 4A000000 		.4byte	.LVL306
 6767 19bf BB240000 		.4byte	0x24bb
 6768 19c3 15       		.uleb128 0x15
 6769 19c4 50000000 		.4byte	.LVL307
 6770 19c8 EC230000 		.4byte	0x23ec
 6771 19cc D6190000 		.4byte	0x19d6
 6772 19d0 16       		.uleb128 0x16
 6773 19d1 01       		.uleb128 0x1
 6774 19d2 50       		.byte	0x50
 6775 19d3 01       		.uleb128 0x1
 6776 19d4 31       		.byte	0x31
 6777 19d5 00       		.byte	0
 6778 19d6 17       		.uleb128 0x17
 6779 19d7 7A000000 		.4byte	.LVL313
 6780 19db 42240000 		.4byte	0x2442
 6781 19df 15       		.uleb128 0x15
ARM GAS  C:\Users\HENRIC~1\AppData\Local\Temp\ccRPnI9G.s 			page 152


 6782 19e0 96000000 		.4byte	.LVL315
 6783 19e4 CB230000 		.4byte	0x23cb
 6784 19e8 F2190000 		.4byte	0x19f2
 6785 19ec 16       		.uleb128 0x16
 6786 19ed 01       		.uleb128 0x1
 6787 19ee 50       		.byte	0x50
 6788 19ef 01       		.uleb128 0x1
 6789 19f0 31       		.byte	0x31
 6790 19f1 00       		.byte	0
 6791 19f2 15       		.uleb128 0x15
 6792 19f3 9E000000 		.4byte	.LVL316
 6793 19f7 D6230000 		.4byte	0x23d6
 6794 19fb 0A1A0000 		.4byte	0x1a0a
 6795 19ff 16       		.uleb128 0x16
 6796 1a00 01       		.uleb128 0x1
 6797 1a01 50       		.byte	0x50
 6798 1a02 01       		.uleb128 0x1
 6799 1a03 30       		.byte	0x30
 6800 1a04 16       		.uleb128 0x16
 6801 1a05 01       		.uleb128 0x1
 6802 1a06 51       		.byte	0x51
 6803 1a07 01       		.uleb128 0x1
 6804 1a08 30       		.byte	0x30
 6805 1a09 00       		.byte	0
 6806 1a0a 15       		.uleb128 0x15
 6807 1a0b A4000000 		.4byte	.LVL317
 6808 1a0f E1230000 		.4byte	0x23e1
 6809 1a13 211A0000 		.4byte	0x1a21
 6810 1a17 16       		.uleb128 0x16
 6811 1a18 01       		.uleb128 0x1
 6812 1a19 50       		.byte	0x50
 6813 1a1a 05       		.uleb128 0x5
 6814 1a1b 03       		.byte	0x3
 6815 1a1c DC000000 		.4byte	.LC25
 6816 1a20 00       		.byte	0
 6817 1a21 17       		.uleb128 0x17
 6818 1a22 BC000000 		.4byte	.LVL319
 6819 1a26 11250000 		.4byte	0x2511
 6820 1a2a 15       		.uleb128 0x15
 6821 1a2b C6000000 		.4byte	.LVL320
 6822 1a2f 37240000 		.4byte	0x2437
 6823 1a33 3E1A0000 		.4byte	0x1a3e
 6824 1a37 16       		.uleb128 0x16
 6825 1a38 01       		.uleb128 0x1
 6826 1a39 50       		.byte	0x50
 6827 1a3a 02       		.uleb128 0x2
 6828 1a3b 08       		.byte	0x8
 6829 1a3c 32       		.byte	0x32
 6830 1a3d 00       		.byte	0
 6831 1a3e 15       		.uleb128 0x15
 6832 1a3f E4000000 		.4byte	.LVL321
 6833 1a43 FB240000 		.4byte	0x24fb
 6834 1a47 531A0000 		.4byte	0x1a53
 6835 1a4b 16       		.uleb128 0x16
 6836 1a4c 01       		.uleb128 0x1
 6837 1a4d 50       		.byte	0x50
 6838 1a4e 03       		.uleb128 0x3
ARM GAS  C:\Users\HENRIC~1\AppData\Local\Temp\ccRPnI9G.s 			page 153


 6839 1a4f 91       		.byte	0x91
 6840 1a50 B07E     		.sleb128 -208
 6841 1a52 00       		.byte	0
 6842 1a53 17       		.uleb128 0x17
 6843 1a54 EE000000 		.4byte	.LVL323
 6844 1a58 11250000 		.4byte	0x2511
 6845 1a5c 15       		.uleb128 0x15
 6846 1a5d F8000000 		.4byte	.LVL324
 6847 1a61 37240000 		.4byte	0x2437
 6848 1a65 701A0000 		.4byte	0x1a70
 6849 1a69 16       		.uleb128 0x16
 6850 1a6a 01       		.uleb128 0x1
 6851 1a6b 50       		.byte	0x50
 6852 1a6c 02       		.uleb128 0x2
 6853 1a6d 08       		.byte	0x8
 6854 1a6e 32       		.byte	0x32
 6855 1a6f 00       		.byte	0
 6856 1a70 15       		.uleb128 0x15
 6857 1a71 2A010000 		.4byte	.LVL329
 6858 1a75 FB240000 		.4byte	0x24fb
 6859 1a79 851A0000 		.4byte	0x1a85
 6860 1a7d 16       		.uleb128 0x16
 6861 1a7e 01       		.uleb128 0x1
 6862 1a7f 50       		.byte	0x50
 6863 1a80 03       		.uleb128 0x3
 6864 1a81 91       		.byte	0x91
 6865 1a82 B07E     		.sleb128 -208
 6866 1a84 00       		.byte	0
 6867 1a85 17       		.uleb128 0x17
 6868 1a86 34010000 		.4byte	.LVL331
 6869 1a8a 11250000 		.4byte	0x2511
 6870 1a8e 15       		.uleb128 0x15
 6871 1a8f 40010000 		.4byte	.LVL332
 6872 1a93 37240000 		.4byte	0x2437
 6873 1a97 A21A0000 		.4byte	0x1aa2
 6874 1a9b 16       		.uleb128 0x16
 6875 1a9c 01       		.uleb128 0x1
 6876 1a9d 50       		.byte	0x50
 6877 1a9e 02       		.uleb128 0x2
 6878 1a9f 08       		.byte	0x8
 6879 1aa0 32       		.byte	0x32
 6880 1aa1 00       		.byte	0
 6881 1aa2 15       		.uleb128 0x15
 6882 1aa3 6C010000 		.4byte	.LVL333
 6883 1aa7 FB240000 		.4byte	0x24fb
 6884 1aab B71A0000 		.4byte	0x1ab7
 6885 1aaf 16       		.uleb128 0x16
 6886 1ab0 01       		.uleb128 0x1
 6887 1ab1 50       		.byte	0x50
 6888 1ab2 03       		.uleb128 0x3
 6889 1ab3 91       		.byte	0x91
 6890 1ab4 B07E     		.sleb128 -208
 6891 1ab6 00       		.byte	0
 6892 1ab7 17       		.uleb128 0x17
 6893 1ab8 76010000 		.4byte	.LVL335
 6894 1abc 11250000 		.4byte	0x2511
 6895 1ac0 15       		.uleb128 0x15
ARM GAS  C:\Users\HENRIC~1\AppData\Local\Temp\ccRPnI9G.s 			page 154


 6896 1ac1 82010000 		.4byte	.LVL336
 6897 1ac5 37240000 		.4byte	0x2437
 6898 1ac9 D41A0000 		.4byte	0x1ad4
 6899 1acd 16       		.uleb128 0x16
 6900 1ace 01       		.uleb128 0x1
 6901 1acf 50       		.byte	0x50
 6902 1ad0 02       		.uleb128 0x2
 6903 1ad1 08       		.byte	0x8
 6904 1ad2 32       		.byte	0x32
 6905 1ad3 00       		.byte	0
 6906 1ad4 15       		.uleb128 0x15
 6907 1ad5 B6010000 		.4byte	.LVL340
 6908 1ad9 FB240000 		.4byte	0x24fb
 6909 1add E91A0000 		.4byte	0x1ae9
 6910 1ae1 16       		.uleb128 0x16
 6911 1ae2 01       		.uleb128 0x1
 6912 1ae3 50       		.byte	0x50
 6913 1ae4 03       		.uleb128 0x3
 6914 1ae5 91       		.byte	0x91
 6915 1ae6 B07E     		.sleb128 -208
 6916 1ae8 00       		.byte	0
 6917 1ae9 15       		.uleb128 0x15
 6918 1aea C4010000 		.4byte	.LVL343
 6919 1aee CB230000 		.4byte	0x23cb
 6920 1af2 FC1A0000 		.4byte	0x1afc
 6921 1af6 16       		.uleb128 0x16
 6922 1af7 01       		.uleb128 0x1
 6923 1af8 50       		.byte	0x50
 6924 1af9 01       		.uleb128 0x1
 6925 1afa 31       		.byte	0x31
 6926 1afb 00       		.byte	0
 6927 1afc 15       		.uleb128 0x15
 6928 1afd CC010000 		.4byte	.LVL344
 6929 1b01 D6230000 		.4byte	0x23d6
 6930 1b05 141B0000 		.4byte	0x1b14
 6931 1b09 16       		.uleb128 0x16
 6932 1b0a 01       		.uleb128 0x1
 6933 1b0b 50       		.byte	0x50
 6934 1b0c 01       		.uleb128 0x1
 6935 1b0d 30       		.byte	0x30
 6936 1b0e 16       		.uleb128 0x16
 6937 1b0f 01       		.uleb128 0x1
 6938 1b10 51       		.byte	0x51
 6939 1b11 01       		.uleb128 0x1
 6940 1b12 30       		.byte	0x30
 6941 1b13 00       		.byte	0
 6942 1b14 15       		.uleb128 0x15
 6943 1b15 D2010000 		.4byte	.LVL345
 6944 1b19 E1230000 		.4byte	0x23e1
 6945 1b1d 2B1B0000 		.4byte	0x1b2b
 6946 1b21 16       		.uleb128 0x16
 6947 1b22 01       		.uleb128 0x1
 6948 1b23 50       		.byte	0x50
 6949 1b24 05       		.uleb128 0x5
 6950 1b25 03       		.byte	0x3
 6951 1b26 F0000000 		.4byte	.LC27
 6952 1b2a 00       		.byte	0
ARM GAS  C:\Users\HENRIC~1\AppData\Local\Temp\ccRPnI9G.s 			page 155


 6953 1b2b 17       		.uleb128 0x17
 6954 1b2c DA010000 		.4byte	.LVL347
 6955 1b30 1C250000 		.4byte	0x251c
 6956 1b34 15       		.uleb128 0x15
 6957 1b35 28020000 		.4byte	.LVL357
 6958 1b39 CB230000 		.4byte	0x23cb
 6959 1b3d 471B0000 		.4byte	0x1b47
 6960 1b41 16       		.uleb128 0x16
 6961 1b42 01       		.uleb128 0x1
 6962 1b43 50       		.byte	0x50
 6963 1b44 01       		.uleb128 0x1
 6964 1b45 31       		.byte	0x31
 6965 1b46 00       		.byte	0
 6966 1b47 15       		.uleb128 0x15
 6967 1b48 30020000 		.4byte	.LVL358
 6968 1b4c D6230000 		.4byte	0x23d6
 6969 1b50 5F1B0000 		.4byte	0x1b5f
 6970 1b54 16       		.uleb128 0x16
 6971 1b55 01       		.uleb128 0x1
 6972 1b56 50       		.byte	0x50
 6973 1b57 01       		.uleb128 0x1
 6974 1b58 30       		.byte	0x30
 6975 1b59 16       		.uleb128 0x16
 6976 1b5a 01       		.uleb128 0x1
 6977 1b5b 51       		.byte	0x51
 6978 1b5c 01       		.uleb128 0x1
 6979 1b5d 30       		.byte	0x30
 6980 1b5e 00       		.byte	0
 6981 1b5f 15       		.uleb128 0x15
 6982 1b60 36020000 		.4byte	.LVL359
 6983 1b64 E1230000 		.4byte	0x23e1
 6984 1b68 761B0000 		.4byte	0x1b76
 6985 1b6c 16       		.uleb128 0x16
 6986 1b6d 01       		.uleb128 0x1
 6987 1b6e 50       		.byte	0x50
 6988 1b6f 05       		.uleb128 0x5
 6989 1b70 03       		.byte	0x3
 6990 1b71 20010000 		.4byte	.LC30
 6991 1b75 00       		.byte	0
 6992 1b76 17       		.uleb128 0x17
 6993 1b77 3C020000 		.4byte	.LVL361
 6994 1b7b 1C250000 		.4byte	0x251c
 6995 1b7f 17       		.uleb128 0x17
 6996 1b80 80020000 		.4byte	.LVL369
 6997 1b84 4D240000 		.4byte	0x244d
 6998 1b88 00       		.byte	0
 6999 1b89 17       		.uleb128 0x17
 7000 1b8a 0A000000 		.4byte	.LVL297
 7001 1b8e 27250000 		.4byte	0x2527
 7002 1b92 17       		.uleb128 0x17
 7003 1b93 0E000000 		.4byte	.LVL298
 7004 1b97 32250000 		.4byte	0x2532
 7005 1b9b 15       		.uleb128 0x15
 7006 1b9c 14000000 		.4byte	.LVL299
 7007 1ba0 3D250000 		.4byte	0x253d
 7008 1ba4 AE1B0000 		.4byte	0x1bae
 7009 1ba8 16       		.uleb128 0x16
ARM GAS  C:\Users\HENRIC~1\AppData\Local\Temp\ccRPnI9G.s 			page 156


 7010 1ba9 01       		.uleb128 0x1
 7011 1baa 50       		.byte	0x50
 7012 1bab 01       		.uleb128 0x1
 7013 1bac 34       		.byte	0x34
 7014 1bad 00       		.byte	0
 7015 1bae 15       		.uleb128 0x15
 7016 1baf 22000000 		.4byte	.LVL300
 7017 1bb3 F7230000 		.4byte	0x23f7
 7018 1bb7 CE1B0000 		.4byte	0x1bce
 7019 1bbb 16       		.uleb128 0x16
 7020 1bbc 01       		.uleb128 0x1
 7021 1bbd 50       		.byte	0x50
 7022 1bbe 03       		.uleb128 0x3
 7023 1bbf 75       		.byte	0x75
 7024 1bc0 B002     		.sleb128 304
 7025 1bc2 16       		.uleb128 0x16
 7026 1bc3 01       		.uleb128 0x1
 7027 1bc4 51       		.byte	0x51
 7028 1bc5 01       		.uleb128 0x1
 7029 1bc6 30       		.byte	0x30
 7030 1bc7 16       		.uleb128 0x16
 7031 1bc8 01       		.uleb128 0x1
 7032 1bc9 52       		.byte	0x52
 7033 1bca 02       		.uleb128 0x2
 7034 1bcb 08       		.byte	0x8
 7035 1bcc 2D       		.byte	0x2d
 7036 1bcd 00       		.byte	0
 7037 1bce 18       		.uleb128 0x18
 7038 1bcf 2E000000 		.4byte	.LVL301
 7039 1bd3 CB230000 		.4byte	0x23cb
 7040 1bd7 16       		.uleb128 0x16
 7041 1bd8 01       		.uleb128 0x1
 7042 1bd9 50       		.byte	0x50
 7043 1bda 01       		.uleb128 0x1
 7044 1bdb 31       		.byte	0x31
 7045 1bdc 00       		.byte	0
 7046 1bdd 00       		.byte	0
 7047 1bde 0C       		.uleb128 0xc
 7048 1bdf F0000000 		.4byte	0xf0
 7049 1be3 EE1B0000 		.4byte	0x1bee
 7050 1be7 0D       		.uleb128 0xd
 7051 1be8 FE000000 		.4byte	0xfe
 7052 1bec 2C       		.byte	0x2c
 7053 1bed 00       		.byte	0
 7054 1bee 0C       		.uleb128 0xc
 7055 1bef F0000000 		.4byte	0xf0
 7056 1bf3 FE1B0000 		.4byte	0x1bfe
 7057 1bf7 0D       		.uleb128 0xd
 7058 1bf8 FE000000 		.4byte	0xfe
 7059 1bfc 31       		.byte	0x31
 7060 1bfd 00       		.byte	0
 7061 1bfe 1D       		.uleb128 0x1d
 7062 1bff 0F060000 		.4byte	.LASF142
 7063 1c03 01       		.byte	0x1
 7064 1c04 7C02     		.2byte	0x27c
 7065 1c06 00000000 		.4byte	.LFB70
 7066 1c0a 04040000 		.4byte	.LFE70-.LFB70
ARM GAS  C:\Users\HENRIC~1\AppData\Local\Temp\ccRPnI9G.s 			page 157


 7067 1c0e 01       		.uleb128 0x1
 7068 1c0f 9C       		.byte	0x9c
 7069 1c10 CA220000 		.4byte	0x22ca
 7070 1c14 14       		.uleb128 0x14
 7071 1c15 C7020000 		.4byte	.LASF143
 7072 1c19 01       		.byte	0x1
 7073 1c1a 8202     		.2byte	0x282
 7074 1c1c 31030000 		.4byte	0x331
 7075 1c20 A9090000 		.4byte	.LLST58
 7076 1c24 14       		.uleb128 0x14
 7077 1c25 E2030000 		.4byte	.LASF144
 7078 1c29 01       		.byte	0x1
 7079 1c2a 8302     		.2byte	0x283
 7080 1c2c 31030000 		.4byte	0x331
 7081 1c30 DF090000 		.4byte	.LLST59
 7082 1c34 14       		.uleb128 0x14
 7083 1c35 EF010000 		.4byte	.LASF136
 7084 1c39 01       		.byte	0x1
 7085 1c3a 8402     		.2byte	0x284
 7086 1c3c C1000000 		.4byte	0xc1
 7087 1c40 4E0A0000 		.4byte	.LLST60
 7088 1c44 14       		.uleb128 0x14
 7089 1c45 00000000 		.4byte	.LASF145
 7090 1c49 01       		.byte	0x1
 7091 1c4a 8502     		.2byte	0x285
 7092 1c4c C1000000 		.4byte	0xc1
 7093 1c50 830A0000 		.4byte	.LLST61
 7094 1c54 14       		.uleb128 0x14
 7095 1c55 2F030000 		.4byte	.LASF146
 7096 1c59 01       		.byte	0x1
 7097 1c5a 8602     		.2byte	0x286
 7098 1c5c 31030000 		.4byte	0x331
 7099 1c60 C40A0000 		.4byte	.LLST62
 7100 1c64 14       		.uleb128 0x14
 7101 1c65 9D000000 		.4byte	.LASF147
 7102 1c69 01       		.byte	0x1
 7103 1c6a 8702     		.2byte	0x287
 7104 1c6c C1000000 		.4byte	0xc1
 7105 1c70 6D0B0000 		.4byte	.LLST63
 7106 1c74 14       		.uleb128 0x14
 7107 1c75 E8020000 		.4byte	.LASF148
 7108 1c79 01       		.byte	0x1
 7109 1c7a 8802     		.2byte	0x288
 7110 1c7c 31030000 		.4byte	0x331
 7111 1c80 AE0B0000 		.4byte	.LLST64
 7112 1c84 14       		.uleb128 0x14
 7113 1c85 54000000 		.4byte	.LASF149
 7114 1c89 01       		.byte	0x1
 7115 1c8a 8902     		.2byte	0x289
 7116 1c8c 31030000 		.4byte	0x331
 7117 1c90 120C0000 		.4byte	.LLST65
 7118 1c94 1E       		.uleb128 0x1e
 7119 1c95 6D736700 		.ascii	"msg\000"
 7120 1c99 01       		.byte	0x1
 7121 1c9a 8B02     		.2byte	0x28b
 7122 1c9c 38030000 		.4byte	0x338
 7123 1ca0 03       		.uleb128 0x3
ARM GAS  C:\Users\HENRIC~1\AppData\Local\Temp\ccRPnI9G.s 			page 158


 7124 1ca1 91       		.byte	0x91
 7125 1ca2 A47F     		.sleb128 -92
 7126 1ca4 1E       		.uleb128 0x1e
 7127 1ca5 73747200 		.ascii	"str\000"
 7128 1ca9 01       		.byte	0x1
 7129 1caa 8C02     		.2byte	0x28c
 7130 1cac EE1B0000 		.4byte	0x1bee
 7131 1cb0 03       		.uleb128 0x3
 7132 1cb1 91       		.byte	0x91
 7133 1cb2 F07E     		.sleb128 -144
 7134 1cb4 19       		.uleb128 0x19
 7135 1cb5 A8000000 		.4byte	.LBB16
 7136 1cb9 3E000000 		.4byte	.LBE16-.LBB16
 7137 1cbd 781D0000 		.4byte	0x1d78
 7138 1cc1 13       		.uleb128 0x13
 7139 1cc2 B6080000 		.4byte	.LASF105
 7140 1cc6 01       		.byte	0x1
 7141 1cc7 B002     		.2byte	0x2b0
 7142 1cc9 CA220000 		.4byte	0x22ca
 7143 1ccd 03       		.uleb128 0x3
 7144 1cce 91       		.byte	0x91
 7145 1ccf E87E     		.sleb128 -152
 7146 1cd1 12       		.uleb128 0x12
 7147 1cd2 7800     		.ascii	"x\000"
 7148 1cd4 01       		.byte	0x1
 7149 1cd5 B102     		.2byte	0x2b1
 7150 1cd7 C1000000 		.4byte	0xc1
 7151 1cdb 5F0C0000 		.4byte	.LLST66
 7152 1cdf 15       		.uleb128 0x15
 7153 1ce0 B6000000 		.4byte	.LVL415
 7154 1ce4 89030000 		.4byte	0x389
 7155 1ce8 F91C0000 		.4byte	0x1cf9
 7156 1cec 16       		.uleb128 0x16
 7157 1ced 01       		.uleb128 0x1
 7158 1cee 50       		.byte	0x50
 7159 1cef 03       		.uleb128 0x3
 7160 1cf0 91       		.byte	0x91
 7161 1cf1 E87E     		.sleb128 -152
 7162 1cf3 16       		.uleb128 0x16
 7163 1cf4 01       		.uleb128 0x1
 7164 1cf5 51       		.byte	0x51
 7165 1cf6 01       		.uleb128 0x1
 7166 1cf7 31       		.byte	0x31
 7167 1cf8 00       		.byte	0
 7168 1cf9 15       		.uleb128 0x15
 7169 1cfa BE000000 		.4byte	.LVL417
 7170 1cfe CB230000 		.4byte	0x23cb
 7171 1d02 0C1D0000 		.4byte	0x1d0c
 7172 1d06 16       		.uleb128 0x16
 7173 1d07 01       		.uleb128 0x1
 7174 1d08 50       		.byte	0x50
 7175 1d09 01       		.uleb128 0x1
 7176 1d0a 31       		.byte	0x31
 7177 1d0b 00       		.byte	0
 7178 1d0c 15       		.uleb128 0x15
 7179 1d0d C6000000 		.4byte	.LVL418
 7180 1d11 D6230000 		.4byte	0x23d6
ARM GAS  C:\Users\HENRIC~1\AppData\Local\Temp\ccRPnI9G.s 			page 159


 7181 1d15 241D0000 		.4byte	0x1d24
 7182 1d19 16       		.uleb128 0x16
 7183 1d1a 01       		.uleb128 0x1
 7184 1d1b 50       		.byte	0x50
 7185 1d1c 01       		.uleb128 0x1
 7186 1d1d 30       		.byte	0x30
 7187 1d1e 16       		.uleb128 0x16
 7188 1d1f 01       		.uleb128 0x1
 7189 1d20 51       		.byte	0x51
 7190 1d21 01       		.uleb128 0x1
 7191 1d22 30       		.byte	0x30
 7192 1d23 00       		.byte	0
 7193 1d24 15       		.uleb128 0x15
 7194 1d25 CC000000 		.4byte	.LVL419
 7195 1d29 E1230000 		.4byte	0x23e1
 7196 1d2d 3B1D0000 		.4byte	0x1d3b
 7197 1d31 16       		.uleb128 0x16
 7198 1d32 01       		.uleb128 0x1
 7199 1d33 50       		.byte	0x50
 7200 1d34 05       		.uleb128 0x5
 7201 1d35 03       		.byte	0x3
 7202 1d36 30010000 		.4byte	.LC33
 7203 1d3a 00       		.byte	0
 7204 1d3b 15       		.uleb128 0x15
 7205 1d3c D2000000 		.4byte	.LVL420
 7206 1d40 8F240000 		.4byte	0x248f
 7207 1d44 4F1D0000 		.4byte	0x1d4f
 7208 1d48 16       		.uleb128 0x16
 7209 1d49 01       		.uleb128 0x1
 7210 1d4a 50       		.byte	0x50
 7211 1d4b 02       		.uleb128 0x2
 7212 1d4c 77       		.byte	0x77
 7213 1d4d 00       		.sleb128 0
 7214 1d4e 00       		.byte	0
 7215 1d4f 15       		.uleb128 0x15
 7216 1d50 DA000000 		.4byte	.LVL421
 7217 1d54 D6230000 		.4byte	0x23d6
 7218 1d58 671D0000 		.4byte	0x1d67
 7219 1d5c 16       		.uleb128 0x16
 7220 1d5d 01       		.uleb128 0x1
 7221 1d5e 50       		.byte	0x50
 7222 1d5f 01       		.uleb128 0x1
 7223 1d60 31       		.byte	0x31
 7224 1d61 16       		.uleb128 0x16
 7225 1d62 01       		.uleb128 0x1
 7226 1d63 51       		.byte	0x51
 7227 1d64 01       		.uleb128 0x1
 7228 1d65 30       		.byte	0x30
 7229 1d66 00       		.byte	0
 7230 1d67 18       		.uleb128 0x18
 7231 1d68 E0000000 		.4byte	.LVL422
 7232 1d6c 8F240000 		.4byte	0x248f
 7233 1d70 16       		.uleb128 0x16
 7234 1d71 01       		.uleb128 0x1
 7235 1d72 50       		.byte	0x50
 7236 1d73 02       		.uleb128 0x2
 7237 1d74 7B       		.byte	0x7b
ARM GAS  C:\Users\HENRIC~1\AppData\Local\Temp\ccRPnI9G.s 			page 160


 7238 1d75 00       		.sleb128 0
 7239 1d76 00       		.byte	0
 7240 1d77 00       		.byte	0
 7241 1d78 19       		.uleb128 0x19
 7242 1d79 EC000000 		.4byte	.LBB17
 7243 1d7d 40000000 		.4byte	.LBE17-.LBB17
 7244 1d81 3C1E0000 		.4byte	0x1e3c
 7245 1d85 13       		.uleb128 0x13
 7246 1d86 B6080000 		.4byte	.LASF105
 7247 1d8a 01       		.byte	0x1
 7248 1d8b BD02     		.2byte	0x2bd
 7249 1d8d DA220000 		.4byte	0x22da
 7250 1d91 03       		.uleb128 0x3
 7251 1d92 91       		.byte	0x91
 7252 1d93 E87E     		.sleb128 -152
 7253 1d95 12       		.uleb128 0x12
 7254 1d96 7800     		.ascii	"x\000"
 7255 1d98 01       		.byte	0x1
 7256 1d99 BE02     		.2byte	0x2be
 7257 1d9b C1000000 		.4byte	0xc1
 7258 1d9f 720C0000 		.4byte	.LLST67
 7259 1da3 15       		.uleb128 0x15
 7260 1da4 FC000000 		.4byte	.LVL426
 7261 1da8 89030000 		.4byte	0x389
 7262 1dac BD1D0000 		.4byte	0x1dbd
 7263 1db0 16       		.uleb128 0x16
 7264 1db1 01       		.uleb128 0x1
 7265 1db2 50       		.byte	0x50
 7266 1db3 03       		.uleb128 0x3
 7267 1db4 91       		.byte	0x91
 7268 1db5 E87E     		.sleb128 -152
 7269 1db7 16       		.uleb128 0x16
 7270 1db8 01       		.uleb128 0x1
 7271 1db9 51       		.byte	0x51
 7272 1dba 01       		.uleb128 0x1
 7273 1dbb 32       		.byte	0x32
 7274 1dbc 00       		.byte	0
 7275 1dbd 15       		.uleb128 0x15
 7276 1dbe 04010000 		.4byte	.LVL428
 7277 1dc2 CB230000 		.4byte	0x23cb
 7278 1dc6 D01D0000 		.4byte	0x1dd0
 7279 1dca 16       		.uleb128 0x16
 7280 1dcb 01       		.uleb128 0x1
 7281 1dcc 50       		.byte	0x50
 7282 1dcd 01       		.uleb128 0x1
 7283 1dce 31       		.byte	0x31
 7284 1dcf 00       		.byte	0
 7285 1dd0 15       		.uleb128 0x15
 7286 1dd1 0C010000 		.4byte	.LVL429
 7287 1dd5 D6230000 		.4byte	0x23d6
 7288 1dd9 E81D0000 		.4byte	0x1de8
 7289 1ddd 16       		.uleb128 0x16
 7290 1dde 01       		.uleb128 0x1
 7291 1ddf 50       		.byte	0x50
 7292 1de0 01       		.uleb128 0x1
 7293 1de1 30       		.byte	0x30
 7294 1de2 16       		.uleb128 0x16
ARM GAS  C:\Users\HENRIC~1\AppData\Local\Temp\ccRPnI9G.s 			page 161


 7295 1de3 01       		.uleb128 0x1
 7296 1de4 51       		.byte	0x51
 7297 1de5 01       		.uleb128 0x1
 7298 1de6 30       		.byte	0x30
 7299 1de7 00       		.byte	0
 7300 1de8 15       		.uleb128 0x15
 7301 1de9 12010000 		.4byte	.LVL430
 7302 1ded E1230000 		.4byte	0x23e1
 7303 1df1 FF1D0000 		.4byte	0x1dff
 7304 1df5 16       		.uleb128 0x16
 7305 1df6 01       		.uleb128 0x1
 7306 1df7 50       		.byte	0x50
 7307 1df8 05       		.uleb128 0x5
 7308 1df9 03       		.byte	0x3
 7309 1dfa 30010000 		.4byte	.LC33
 7310 1dfe 00       		.byte	0
 7311 1dff 15       		.uleb128 0x15
 7312 1e00 18010000 		.4byte	.LVL431
 7313 1e04 8F240000 		.4byte	0x248f
 7314 1e08 131E0000 		.4byte	0x1e13
 7315 1e0c 16       		.uleb128 0x16
 7316 1e0d 01       		.uleb128 0x1
 7317 1e0e 50       		.byte	0x50
 7318 1e0f 02       		.uleb128 0x2
 7319 1e10 77       		.byte	0x77
 7320 1e11 00       		.sleb128 0
 7321 1e12 00       		.byte	0
 7322 1e13 15       		.uleb128 0x15
 7323 1e14 20010000 		.4byte	.LVL432
 7324 1e18 D6230000 		.4byte	0x23d6
 7325 1e1c 2B1E0000 		.4byte	0x1e2b
 7326 1e20 16       		.uleb128 0x16
 7327 1e21 01       		.uleb128 0x1
 7328 1e22 50       		.byte	0x50
 7329 1e23 01       		.uleb128 0x1
 7330 1e24 31       		.byte	0x31
 7331 1e25 16       		.uleb128 0x16
 7332 1e26 01       		.uleb128 0x1
 7333 1e27 51       		.byte	0x51
 7334 1e28 01       		.uleb128 0x1
 7335 1e29 30       		.byte	0x30
 7336 1e2a 00       		.byte	0
 7337 1e2b 18       		.uleb128 0x18
 7338 1e2c 26010000 		.4byte	.LVL433
 7339 1e30 8F240000 		.4byte	0x248f
 7340 1e34 16       		.uleb128 0x16
 7341 1e35 01       		.uleb128 0x1
 7342 1e36 50       		.byte	0x50
 7343 1e37 02       		.uleb128 0x2
 7344 1e38 7B       		.byte	0x7b
 7345 1e39 00       		.sleb128 0
 7346 1e3a 00       		.byte	0
 7347 1e3b 00       		.byte	0
 7348 1e3c 19       		.uleb128 0x19
 7349 1e3d 32010000 		.4byte	.LBB18
 7350 1e41 48000000 		.4byte	.LBE18-.LBB18
 7351 1e45 001F0000 		.4byte	0x1f00
ARM GAS  C:\Users\HENRIC~1\AppData\Local\Temp\ccRPnI9G.s 			page 162


 7352 1e49 13       		.uleb128 0x13
 7353 1e4a B6080000 		.4byte	.LASF105
 7354 1e4e 01       		.byte	0x1
 7355 1e4f CA02     		.2byte	0x2ca
 7356 1e51 EA220000 		.4byte	0x22ea
 7357 1e55 03       		.uleb128 0x3
 7358 1e56 91       		.byte	0x91
 7359 1e57 E87E     		.sleb128 -152
 7360 1e59 12       		.uleb128 0x12
 7361 1e5a 7800     		.ascii	"x\000"
 7362 1e5c 01       		.byte	0x1
 7363 1e5d CB02     		.2byte	0x2cb
 7364 1e5f C1000000 		.4byte	0xc1
 7365 1e63 850C0000 		.4byte	.LLST68
 7366 1e67 15       		.uleb128 0x15
 7367 1e68 4A010000 		.4byte	.LVL437
 7368 1e6c 89030000 		.4byte	0x389
 7369 1e70 811E0000 		.4byte	0x1e81
 7370 1e74 16       		.uleb128 0x16
 7371 1e75 01       		.uleb128 0x1
 7372 1e76 50       		.byte	0x50
 7373 1e77 03       		.uleb128 0x3
 7374 1e78 91       		.byte	0x91
 7375 1e79 E87E     		.sleb128 -152
 7376 1e7b 16       		.uleb128 0x16
 7377 1e7c 01       		.uleb128 0x1
 7378 1e7d 51       		.byte	0x51
 7379 1e7e 01       		.uleb128 0x1
 7380 1e7f 33       		.byte	0x33
 7381 1e80 00       		.byte	0
 7382 1e81 15       		.uleb128 0x15
 7383 1e82 52010000 		.4byte	.LVL439
 7384 1e86 CB230000 		.4byte	0x23cb
 7385 1e8a 941E0000 		.4byte	0x1e94
 7386 1e8e 16       		.uleb128 0x16
 7387 1e8f 01       		.uleb128 0x1
 7388 1e90 50       		.byte	0x50
 7389 1e91 01       		.uleb128 0x1
 7390 1e92 31       		.byte	0x31
 7391 1e93 00       		.byte	0
 7392 1e94 15       		.uleb128 0x15
 7393 1e95 5A010000 		.4byte	.LVL440
 7394 1e99 D6230000 		.4byte	0x23d6
 7395 1e9d AC1E0000 		.4byte	0x1eac
 7396 1ea1 16       		.uleb128 0x16
 7397 1ea2 01       		.uleb128 0x1
 7398 1ea3 50       		.byte	0x50
 7399 1ea4 01       		.uleb128 0x1
 7400 1ea5 30       		.byte	0x30
 7401 1ea6 16       		.uleb128 0x16
 7402 1ea7 01       		.uleb128 0x1
 7403 1ea8 51       		.byte	0x51
 7404 1ea9 01       		.uleb128 0x1
 7405 1eaa 30       		.byte	0x30
 7406 1eab 00       		.byte	0
 7407 1eac 15       		.uleb128 0x15
 7408 1ead 60010000 		.4byte	.LVL441
ARM GAS  C:\Users\HENRIC~1\AppData\Local\Temp\ccRPnI9G.s 			page 163


 7409 1eb1 E1230000 		.4byte	0x23e1
 7410 1eb5 C31E0000 		.4byte	0x1ec3
 7411 1eb9 16       		.uleb128 0x16
 7412 1eba 01       		.uleb128 0x1
 7413 1ebb 50       		.byte	0x50
 7414 1ebc 05       		.uleb128 0x5
 7415 1ebd 03       		.byte	0x3
 7416 1ebe 30010000 		.4byte	.LC33
 7417 1ec2 00       		.byte	0
 7418 1ec3 15       		.uleb128 0x15
 7419 1ec4 66010000 		.4byte	.LVL442
 7420 1ec8 8F240000 		.4byte	0x248f
 7421 1ecc D71E0000 		.4byte	0x1ed7
 7422 1ed0 16       		.uleb128 0x16
 7423 1ed1 01       		.uleb128 0x1
 7424 1ed2 50       		.byte	0x50
 7425 1ed3 02       		.uleb128 0x2
 7426 1ed4 77       		.byte	0x77
 7427 1ed5 00       		.sleb128 0
 7428 1ed6 00       		.byte	0
 7429 1ed7 15       		.uleb128 0x15
 7430 1ed8 6E010000 		.4byte	.LVL443
 7431 1edc D6230000 		.4byte	0x23d6
 7432 1ee0 EF1E0000 		.4byte	0x1eef
 7433 1ee4 16       		.uleb128 0x16
 7434 1ee5 01       		.uleb128 0x1
 7435 1ee6 50       		.byte	0x50
 7436 1ee7 01       		.uleb128 0x1
 7437 1ee8 31       		.byte	0x31
 7438 1ee9 16       		.uleb128 0x16
 7439 1eea 01       		.uleb128 0x1
 7440 1eeb 51       		.byte	0x51
 7441 1eec 01       		.uleb128 0x1
 7442 1eed 30       		.byte	0x30
 7443 1eee 00       		.byte	0
 7444 1eef 18       		.uleb128 0x18
 7445 1ef0 74010000 		.4byte	.LVL444
 7446 1ef4 8F240000 		.4byte	0x248f
 7447 1ef8 16       		.uleb128 0x16
 7448 1ef9 01       		.uleb128 0x1
 7449 1efa 50       		.byte	0x50
 7450 1efb 02       		.uleb128 0x2
 7451 1efc 7B       		.byte	0x7b
 7452 1efd 00       		.sleb128 0
 7453 1efe 00       		.byte	0
 7454 1eff 00       		.byte	0
 7455 1f00 19       		.uleb128 0x19
 7456 1f01 80010000 		.4byte	.LBB19
 7457 1f05 46000000 		.4byte	.LBE19-.LBB19
 7458 1f09 C41F0000 		.4byte	0x1fc4
 7459 1f0d 13       		.uleb128 0x13
 7460 1f0e B6080000 		.4byte	.LASF105
 7461 1f12 01       		.byte	0x1
 7462 1f13 D702     		.2byte	0x2d7
 7463 1f15 FA220000 		.4byte	0x22fa
 7464 1f19 03       		.uleb128 0x3
 7465 1f1a 91       		.byte	0x91
ARM GAS  C:\Users\HENRIC~1\AppData\Local\Temp\ccRPnI9G.s 			page 164


 7466 1f1b E87E     		.sleb128 -152
 7467 1f1d 12       		.uleb128 0x12
 7468 1f1e 7800     		.ascii	"x\000"
 7469 1f20 01       		.byte	0x1
 7470 1f21 D802     		.2byte	0x2d8
 7471 1f23 C1000000 		.4byte	0xc1
 7472 1f27 980C0000 		.4byte	.LLST69
 7473 1f2b 15       		.uleb128 0x15
 7474 1f2c 96010000 		.4byte	.LVL448
 7475 1f30 89030000 		.4byte	0x389
 7476 1f34 451F0000 		.4byte	0x1f45
 7477 1f38 16       		.uleb128 0x16
 7478 1f39 01       		.uleb128 0x1
 7479 1f3a 50       		.byte	0x50
 7480 1f3b 03       		.uleb128 0x3
 7481 1f3c 91       		.byte	0x91
 7482 1f3d E87E     		.sleb128 -152
 7483 1f3f 16       		.uleb128 0x16
 7484 1f40 01       		.uleb128 0x1
 7485 1f41 51       		.byte	0x51
 7486 1f42 01       		.uleb128 0x1
 7487 1f43 36       		.byte	0x36
 7488 1f44 00       		.byte	0
 7489 1f45 15       		.uleb128 0x15
 7490 1f46 9E010000 		.4byte	.LVL450
 7491 1f4a CB230000 		.4byte	0x23cb
 7492 1f4e 581F0000 		.4byte	0x1f58
 7493 1f52 16       		.uleb128 0x16
 7494 1f53 01       		.uleb128 0x1
 7495 1f54 50       		.byte	0x50
 7496 1f55 01       		.uleb128 0x1
 7497 1f56 31       		.byte	0x31
 7498 1f57 00       		.byte	0
 7499 1f58 15       		.uleb128 0x15
 7500 1f59 A6010000 		.4byte	.LVL451
 7501 1f5d D6230000 		.4byte	0x23d6
 7502 1f61 701F0000 		.4byte	0x1f70
 7503 1f65 16       		.uleb128 0x16
 7504 1f66 01       		.uleb128 0x1
 7505 1f67 50       		.byte	0x50
 7506 1f68 01       		.uleb128 0x1
 7507 1f69 30       		.byte	0x30
 7508 1f6a 16       		.uleb128 0x16
 7509 1f6b 01       		.uleb128 0x1
 7510 1f6c 51       		.byte	0x51
 7511 1f6d 01       		.uleb128 0x1
 7512 1f6e 30       		.byte	0x30
 7513 1f6f 00       		.byte	0
 7514 1f70 15       		.uleb128 0x15
 7515 1f71 AC010000 		.4byte	.LVL452
 7516 1f75 E1230000 		.4byte	0x23e1
 7517 1f79 871F0000 		.4byte	0x1f87
 7518 1f7d 16       		.uleb128 0x16
 7519 1f7e 01       		.uleb128 0x1
 7520 1f7f 50       		.byte	0x50
 7521 1f80 05       		.uleb128 0x5
 7522 1f81 03       		.byte	0x3
ARM GAS  C:\Users\HENRIC~1\AppData\Local\Temp\ccRPnI9G.s 			page 165


 7523 1f82 30010000 		.4byte	.LC33
 7524 1f86 00       		.byte	0
 7525 1f87 15       		.uleb128 0x15
 7526 1f88 B2010000 		.4byte	.LVL453
 7527 1f8c 8F240000 		.4byte	0x248f
 7528 1f90 9B1F0000 		.4byte	0x1f9b
 7529 1f94 16       		.uleb128 0x16
 7530 1f95 01       		.uleb128 0x1
 7531 1f96 50       		.byte	0x50
 7532 1f97 02       		.uleb128 0x2
 7533 1f98 77       		.byte	0x77
 7534 1f99 00       		.sleb128 0
 7535 1f9a 00       		.byte	0
 7536 1f9b 15       		.uleb128 0x15
 7537 1f9c BA010000 		.4byte	.LVL454
 7538 1fa0 D6230000 		.4byte	0x23d6
 7539 1fa4 B31F0000 		.4byte	0x1fb3
 7540 1fa8 16       		.uleb128 0x16
 7541 1fa9 01       		.uleb128 0x1
 7542 1faa 50       		.byte	0x50
 7543 1fab 01       		.uleb128 0x1
 7544 1fac 31       		.byte	0x31
 7545 1fad 16       		.uleb128 0x16
 7546 1fae 01       		.uleb128 0x1
 7547 1faf 51       		.byte	0x51
 7548 1fb0 01       		.uleb128 0x1
 7549 1fb1 30       		.byte	0x30
 7550 1fb2 00       		.byte	0
 7551 1fb3 18       		.uleb128 0x18
 7552 1fb4 C0010000 		.4byte	.LVL455
 7553 1fb8 8F240000 		.4byte	0x248f
 7554 1fbc 16       		.uleb128 0x16
 7555 1fbd 01       		.uleb128 0x1
 7556 1fbe 50       		.byte	0x50
 7557 1fbf 02       		.uleb128 0x2
 7558 1fc0 7B       		.byte	0x7b
 7559 1fc1 00       		.sleb128 0
 7560 1fc2 00       		.byte	0
 7561 1fc3 00       		.byte	0
 7562 1fc4 19       		.uleb128 0x19
 7563 1fc5 72030000 		.4byte	.LBB20
 7564 1fc9 92000000 		.4byte	.LBE20-.LBB20
 7565 1fcd BD200000 		.4byte	0x20bd
 7566 1fd1 13       		.uleb128 0x13
 7567 1fd2 14000000 		.4byte	.LASF134
 7568 1fd6 01       		.byte	0x1
 7569 1fd7 3F03     		.2byte	0x33f
 7570 1fd9 C1000000 		.4byte	0xc1
 7571 1fdd 03       		.uleb128 0x3
 7572 1fde 91       		.byte	0x91
 7573 1fdf E47E     		.sleb128 -156
 7574 1fe1 15       		.uleb128 0x15
 7575 1fe2 78030000 		.4byte	.LVL495
 7576 1fe6 F0240000 		.4byte	0x24f0
 7577 1fea F61F0000 		.4byte	0x1ff6
 7578 1fee 16       		.uleb128 0x16
 7579 1fef 01       		.uleb128 0x1
ARM GAS  C:\Users\HENRIC~1\AppData\Local\Temp\ccRPnI9G.s 			page 166


 7580 1ff0 50       		.byte	0x50
 7581 1ff1 03       		.uleb128 0x3
 7582 1ff2 91       		.byte	0x91
 7583 1ff3 A47F     		.sleb128 -92
 7584 1ff5 00       		.byte	0
 7585 1ff6 15       		.uleb128 0x15
 7586 1ff7 90030000 		.4byte	.LVL497
 7587 1ffb D1240000 		.4byte	0x24d1
 7588 1fff 14200000 		.4byte	0x2014
 7589 2003 16       		.uleb128 0x16
 7590 2004 01       		.uleb128 0x1
 7591 2005 50       		.byte	0x50
 7592 2006 03       		.uleb128 0x3
 7593 2007 91       		.byte	0x91
 7594 2008 F07E     		.sleb128 -144
 7595 200a 16       		.uleb128 0x16
 7596 200b 01       		.uleb128 0x1
 7597 200c 51       		.byte	0x51
 7598 200d 05       		.uleb128 0x5
 7599 200e 03       		.byte	0x3
 7600 200f F8000000 		.4byte	.LC28
 7601 2013 00       		.byte	0
 7602 2014 15       		.uleb128 0x15
 7603 2015 98030000 		.4byte	.LVL498
 7604 2019 0B240000 		.4byte	0x240b
 7605 201d 29200000 		.4byte	0x2029
 7606 2021 16       		.uleb128 0x16
 7607 2022 01       		.uleb128 0x1
 7608 2023 50       		.byte	0x50
 7609 2024 03       		.uleb128 0x3
 7610 2025 91       		.byte	0x91
 7611 2026 F07E     		.sleb128 -144
 7612 2028 00       		.byte	0
 7613 2029 15       		.uleb128 0x15
 7614 202a A2030000 		.4byte	.LVL499
 7615 202e 16240000 		.4byte	0x2416
 7616 2032 3E200000 		.4byte	0x203e
 7617 2036 16       		.uleb128 0x16
 7618 2037 01       		.uleb128 0x1
 7619 2038 50       		.byte	0x50
 7620 2039 03       		.uleb128 0x3
 7621 203a 91       		.byte	0x91
 7622 203b F07E     		.sleb128 -144
 7623 203d 00       		.byte	0
 7624 203e 15       		.uleb128 0x15
 7625 203f AE030000 		.4byte	.LVL500
 7626 2043 16240000 		.4byte	0x2416
 7627 2047 5C200000 		.4byte	0x205c
 7628 204b 16       		.uleb128 0x16
 7629 204c 01       		.uleb128 0x1
 7630 204d 50       		.byte	0x50
 7631 204e 03       		.uleb128 0x3
 7632 204f 91       		.byte	0x91
 7633 2050 A77F     		.sleb128 -89
 7634 2052 16       		.uleb128 0x16
 7635 2053 01       		.uleb128 0x1
 7636 2054 51       		.byte	0x51
ARM GAS  C:\Users\HENRIC~1\AppData\Local\Temp\ccRPnI9G.s 			page 167


 7637 2055 05       		.uleb128 0x5
 7638 2056 91       		.byte	0x91
 7639 2057 E47E     		.sleb128 -156
 7640 2059 94       		.byte	0x94
 7641 205a 02       		.byte	0x2
 7642 205b 00       		.byte	0
 7643 205c 15       		.uleb128 0x15
 7644 205d B6030000 		.4byte	.LVL501
 7645 2061 16240000 		.4byte	0x2416
 7646 2065 78200000 		.4byte	0x2078
 7647 2069 16       		.uleb128 0x16
 7648 206a 01       		.uleb128 0x1
 7649 206b 50       		.byte	0x50
 7650 206c 05       		.uleb128 0x5
 7651 206d 03       		.byte	0x3
 7652 206e 1C010000 		.4byte	.LC29
 7653 2072 16       		.uleb128 0x16
 7654 2073 01       		.uleb128 0x1
 7655 2074 51       		.byte	0x51
 7656 2075 01       		.uleb128 0x1
 7657 2076 32       		.byte	0x32
 7658 2077 00       		.byte	0
 7659 2078 15       		.uleb128 0x15
 7660 2079 DC030000 		.4byte	.LVL502
 7661 207d D1240000 		.4byte	0x24d1
 7662 2081 96200000 		.4byte	0x2096
 7663 2085 16       		.uleb128 0x16
 7664 2086 01       		.uleb128 0x1
 7665 2087 50       		.byte	0x50
 7666 2088 03       		.uleb128 0x3
 7667 2089 91       		.byte	0x91
 7668 208a F07E     		.sleb128 -144
 7669 208c 16       		.uleb128 0x16
 7670 208d 01       		.uleb128 0x1
 7671 208e 51       		.byte	0x51
 7672 208f 05       		.uleb128 0x5
 7673 2090 03       		.byte	0x3
 7674 2091 3C010000 		.4byte	.LC35
 7675 2095 00       		.byte	0
 7676 2096 15       		.uleb128 0x15
 7677 2097 E2030000 		.4byte	.LVL503
 7678 209b 0B240000 		.4byte	0x240b
 7679 209f AB200000 		.4byte	0x20ab
 7680 20a3 16       		.uleb128 0x16
 7681 20a4 01       		.uleb128 0x1
 7682 20a5 50       		.byte	0x50
 7683 20a6 03       		.uleb128 0x3
 7684 20a7 91       		.byte	0x91
 7685 20a8 F07E     		.sleb128 -144
 7686 20aa 00       		.byte	0
 7687 20ab 18       		.uleb128 0x18
 7688 20ac EA030000 		.4byte	.LVL504
 7689 20b0 16240000 		.4byte	0x2416
 7690 20b4 16       		.uleb128 0x16
 7691 20b5 01       		.uleb128 0x1
 7692 20b6 50       		.byte	0x50
 7693 20b7 03       		.uleb128 0x3
ARM GAS  C:\Users\HENRIC~1\AppData\Local\Temp\ccRPnI9G.s 			page 168


 7694 20b8 91       		.byte	0x91
 7695 20b9 F07E     		.sleb128 -144
 7696 20bb 00       		.byte	0
 7697 20bc 00       		.byte	0
 7698 20bd 17       		.uleb128 0x17
 7699 20be 0A000000 		.4byte	.LVL394
 7700 20c2 27250000 		.4byte	0x2527
 7701 20c6 17       		.uleb128 0x17
 7702 20c7 0E000000 		.4byte	.LVL395
 7703 20cb 32250000 		.4byte	0x2532
 7704 20cf 15       		.uleb128 0x15
 7705 20d0 14000000 		.4byte	.LVL396
 7706 20d4 3D250000 		.4byte	0x253d
 7707 20d8 E2200000 		.4byte	0x20e2
 7708 20dc 16       		.uleb128 0x16
 7709 20dd 01       		.uleb128 0x1
 7710 20de 50       		.byte	0x50
 7711 20df 01       		.uleb128 0x1
 7712 20e0 34       		.byte	0x34
 7713 20e1 00       		.byte	0
 7714 20e2 17       		.uleb128 0x17
 7715 20e3 38000000 		.4byte	.LVL403
 7716 20e7 06250000 		.4byte	0x2506
 7717 20eb 17       		.uleb128 0x17
 7718 20ec 3C000000 		.4byte	.LVL404
 7719 20f0 A5240000 		.4byte	0x24a5
 7720 20f4 17       		.uleb128 0x17
 7721 20f5 42000000 		.4byte	.LVL405
 7722 20f9 B0240000 		.4byte	0x24b0
 7723 20fd 17       		.uleb128 0x17
 7724 20fe 46000000 		.4byte	.LVL406
 7725 2102 BB240000 		.4byte	0x24bb
 7726 2106 15       		.uleb128 0x15
 7727 2107 4C000000 		.4byte	.LVL407
 7728 210b EC230000 		.4byte	0x23ec
 7729 210f 19210000 		.4byte	0x2119
 7730 2113 16       		.uleb128 0x16
 7731 2114 01       		.uleb128 0x1
 7732 2115 50       		.byte	0x50
 7733 2116 01       		.uleb128 0x1
 7734 2117 31       		.byte	0x31
 7735 2118 00       		.byte	0
 7736 2119 17       		.uleb128 0x17
 7737 211a 82000000 		.4byte	.LVL413
 7738 211e 42240000 		.4byte	0x2442
 7739 2122 15       		.uleb128 0x15
 7740 2123 CE010000 		.4byte	.LVL459
 7741 2127 EC230000 		.4byte	0x23ec
 7742 212b 35210000 		.4byte	0x2135
 7743 212f 16       		.uleb128 0x16
 7744 2130 01       		.uleb128 0x1
 7745 2131 50       		.byte	0x50
 7746 2132 01       		.uleb128 0x1
 7747 2133 30       		.byte	0x30
 7748 2134 00       		.byte	0
 7749 2135 15       		.uleb128 0x15
 7750 2136 04020000 		.4byte	.LVL465
ARM GAS  C:\Users\HENRIC~1\AppData\Local\Temp\ccRPnI9G.s 			page 169


 7751 213a CB230000 		.4byte	0x23cb
 7752 213e 48210000 		.4byte	0x2148
 7753 2142 16       		.uleb128 0x16
 7754 2143 01       		.uleb128 0x1
 7755 2144 50       		.byte	0x50
 7756 2145 01       		.uleb128 0x1
 7757 2146 31       		.byte	0x31
 7758 2147 00       		.byte	0
 7759 2148 15       		.uleb128 0x15
 7760 2149 0C020000 		.4byte	.LVL466
 7761 214d D6230000 		.4byte	0x23d6
 7762 2151 60210000 		.4byte	0x2160
 7763 2155 16       		.uleb128 0x16
 7764 2156 01       		.uleb128 0x1
 7765 2157 50       		.byte	0x50
 7766 2158 01       		.uleb128 0x1
 7767 2159 30       		.byte	0x30
 7768 215a 16       		.uleb128 0x16
 7769 215b 01       		.uleb128 0x1
 7770 215c 51       		.byte	0x51
 7771 215d 01       		.uleb128 0x1
 7772 215e 30       		.byte	0x30
 7773 215f 00       		.byte	0
 7774 2160 15       		.uleb128 0x15
 7775 2161 12020000 		.4byte	.LVL467
 7776 2165 E1230000 		.4byte	0x23e1
 7777 2169 77210000 		.4byte	0x2177
 7778 216d 16       		.uleb128 0x16
 7779 216e 01       		.uleb128 0x1
 7780 216f 50       		.byte	0x50
 7781 2170 05       		.uleb128 0x5
 7782 2171 03       		.byte	0x3
 7783 2172 DC000000 		.4byte	.LC25
 7784 2176 00       		.byte	0
 7785 2177 15       		.uleb128 0x15
 7786 2178 1A020000 		.4byte	.LVL468
 7787 217c D6230000 		.4byte	0x23d6
 7788 2180 8F210000 		.4byte	0x218f
 7789 2184 16       		.uleb128 0x16
 7790 2185 01       		.uleb128 0x1
 7791 2186 50       		.byte	0x50
 7792 2187 01       		.uleb128 0x1
 7793 2188 31       		.byte	0x31
 7794 2189 16       		.uleb128 0x16
 7795 218a 01       		.uleb128 0x1
 7796 218b 51       		.byte	0x51
 7797 218c 01       		.uleb128 0x1
 7798 218d 30       		.byte	0x30
 7799 218e 00       		.byte	0
 7800 218f 15       		.uleb128 0x15
 7801 2190 20020000 		.4byte	.LVL469
 7802 2194 8F240000 		.4byte	0x248f
 7803 2198 A3210000 		.4byte	0x21a3
 7804 219c 16       		.uleb128 0x16
 7805 219d 01       		.uleb128 0x1
 7806 219e 50       		.byte	0x50
 7807 219f 02       		.uleb128 0x2
ARM GAS  C:\Users\HENRIC~1\AppData\Local\Temp\ccRPnI9G.s 			page 170


 7808 21a0 76       		.byte	0x76
 7809 21a1 00       		.sleb128 0
 7810 21a2 00       		.byte	0
 7811 21a3 17       		.uleb128 0x17
 7812 21a4 34020000 		.4byte	.LVL471
 7813 21a8 11250000 		.4byte	0x2511
 7814 21ac 15       		.uleb128 0x15
 7815 21ad 3E020000 		.4byte	.LVL472
 7816 21b1 37240000 		.4byte	0x2437
 7817 21b5 C0210000 		.4byte	0x21c0
 7818 21b9 16       		.uleb128 0x16
 7819 21ba 01       		.uleb128 0x1
 7820 21bb 50       		.byte	0x50
 7821 21bc 02       		.uleb128 0x2
 7822 21bd 08       		.byte	0x8
 7823 21be 32       		.byte	0x32
 7824 21bf 00       		.byte	0
 7825 21c0 15       		.uleb128 0x15
 7826 21c1 62020000 		.4byte	.LVL473
 7827 21c5 FB240000 		.4byte	0x24fb
 7828 21c9 D5210000 		.4byte	0x21d5
 7829 21cd 16       		.uleb128 0x16
 7830 21ce 01       		.uleb128 0x1
 7831 21cf 50       		.byte	0x50
 7832 21d0 03       		.uleb128 0x3
 7833 21d1 91       		.byte	0x91
 7834 21d2 A47F     		.sleb128 -92
 7835 21d4 00       		.byte	0
 7836 21d5 17       		.uleb128 0x17
 7837 21d6 68020000 		.4byte	.LVL474
 7838 21da 11250000 		.4byte	0x2511
 7839 21de 15       		.uleb128 0x15
 7840 21df 72020000 		.4byte	.LVL475
 7841 21e3 37240000 		.4byte	0x2437
 7842 21e7 F2210000 		.4byte	0x21f2
 7843 21eb 16       		.uleb128 0x16
 7844 21ec 01       		.uleb128 0x1
 7845 21ed 50       		.byte	0x50
 7846 21ee 02       		.uleb128 0x2
 7847 21ef 08       		.byte	0x8
 7848 21f0 32       		.byte	0x32
 7849 21f1 00       		.byte	0
 7850 21f2 15       		.uleb128 0x15
 7851 21f3 98020000 		.4byte	.LVL476
 7852 21f7 FB240000 		.4byte	0x24fb
 7853 21fb 07220000 		.4byte	0x2207
 7854 21ff 16       		.uleb128 0x16
 7855 2200 01       		.uleb128 0x1
 7856 2201 50       		.byte	0x50
 7857 2202 03       		.uleb128 0x3
 7858 2203 91       		.byte	0x91
 7859 2204 A47F     		.sleb128 -92
 7860 2206 00       		.byte	0
 7861 2207 17       		.uleb128 0x17
 7862 2208 9E020000 		.4byte	.LVL477
 7863 220c 11250000 		.4byte	0x2511
 7864 2210 15       		.uleb128 0x15
ARM GAS  C:\Users\HENRIC~1\AppData\Local\Temp\ccRPnI9G.s 			page 171


 7865 2211 A6020000 		.4byte	.LVL478
 7866 2215 37240000 		.4byte	0x2437
 7867 2219 24220000 		.4byte	0x2224
 7868 221d 16       		.uleb128 0x16
 7869 221e 01       		.uleb128 0x1
 7870 221f 50       		.byte	0x50
 7871 2220 02       		.uleb128 0x2
 7872 2221 08       		.byte	0x8
 7873 2222 32       		.byte	0x32
 7874 2223 00       		.byte	0
 7875 2224 15       		.uleb128 0x15
 7876 2225 CC020000 		.4byte	.LVL479
 7877 2229 FB240000 		.4byte	0x24fb
 7878 222d 39220000 		.4byte	0x2239
 7879 2231 16       		.uleb128 0x16
 7880 2232 01       		.uleb128 0x1
 7881 2233 50       		.byte	0x50
 7882 2234 03       		.uleb128 0x3
 7883 2235 91       		.byte	0x91
 7884 2236 A47F     		.sleb128 -92
 7885 2238 00       		.byte	0
 7886 2239 17       		.uleb128 0x17
 7887 223a D2020000 		.4byte	.LVL480
 7888 223e 11250000 		.4byte	0x2511
 7889 2242 15       		.uleb128 0x15
 7890 2243 DA020000 		.4byte	.LVL481
 7891 2247 37240000 		.4byte	0x2437
 7892 224b 56220000 		.4byte	0x2256
 7893 224f 16       		.uleb128 0x16
 7894 2250 01       		.uleb128 0x1
 7895 2251 50       		.byte	0x50
 7896 2252 02       		.uleb128 0x2
 7897 2253 08       		.byte	0x8
 7898 2254 32       		.byte	0x32
 7899 2255 00       		.byte	0
 7900 2256 15       		.uleb128 0x15
 7901 2257 FE020000 		.4byte	.LVL482
 7902 225b FB240000 		.4byte	0x24fb
 7903 225f 6B220000 		.4byte	0x226b
 7904 2263 16       		.uleb128 0x16
 7905 2264 01       		.uleb128 0x1
 7906 2265 50       		.byte	0x50
 7907 2266 03       		.uleb128 0x3
 7908 2267 91       		.byte	0x91
 7909 2268 A47F     		.sleb128 -92
 7910 226a 00       		.byte	0
 7911 226b 15       		.uleb128 0x15
 7912 226c 08030000 		.4byte	.LVL484
 7913 2270 EC230000 		.4byte	0x23ec
 7914 2274 7E220000 		.4byte	0x227e
 7915 2278 16       		.uleb128 0x16
 7916 2279 01       		.uleb128 0x1
 7917 227a 50       		.byte	0x50
 7918 227b 01       		.uleb128 0x1
 7919 227c 30       		.byte	0x30
 7920 227d 00       		.byte	0
 7921 227e 15       		.uleb128 0x15
ARM GAS  C:\Users\HENRIC~1\AppData\Local\Temp\ccRPnI9G.s 			page 172


 7922 227f 58030000 		.4byte	.LVL490
 7923 2283 CB230000 		.4byte	0x23cb
 7924 2287 91220000 		.4byte	0x2291
 7925 228b 16       		.uleb128 0x16
 7926 228c 01       		.uleb128 0x1
 7927 228d 50       		.byte	0x50
 7928 228e 01       		.uleb128 0x1
 7929 228f 31       		.byte	0x31
 7930 2290 00       		.byte	0
 7931 2291 15       		.uleb128 0x15
 7932 2292 60030000 		.4byte	.LVL491
 7933 2296 D6230000 		.4byte	0x23d6
 7934 229a A9220000 		.4byte	0x22a9
 7935 229e 16       		.uleb128 0x16
 7936 229f 01       		.uleb128 0x1
 7937 22a0 50       		.byte	0x50
 7938 22a1 01       		.uleb128 0x1
 7939 22a2 30       		.byte	0x30
 7940 22a3 16       		.uleb128 0x16
 7941 22a4 01       		.uleb128 0x1
 7942 22a5 51       		.byte	0x51
 7943 22a6 01       		.uleb128 0x1
 7944 22a7 30       		.byte	0x30
 7945 22a8 00       		.byte	0
 7946 22a9 15       		.uleb128 0x15
 7947 22aa 66030000 		.4byte	.LVL492
 7948 22ae E1230000 		.4byte	0x23e1
 7949 22b2 C0220000 		.4byte	0x22c0
 7950 22b6 16       		.uleb128 0x16
 7951 22b7 01       		.uleb128 0x1
 7952 22b8 50       		.byte	0x50
 7953 22b9 05       		.uleb128 0x5
 7954 22ba 03       		.byte	0x3
 7955 22bb F0000000 		.4byte	.LC27
 7956 22bf 00       		.byte	0
 7957 22c0 17       		.uleb128 0x17
 7958 22c1 6C030000 		.4byte	.LVL494
 7959 22c5 1C250000 		.4byte	0x251c
 7960 22c9 00       		.byte	0
 7961 22ca 0C       		.uleb128 0xc
 7962 22cb C1000000 		.4byte	0xc1
 7963 22cf DA220000 		.4byte	0x22da
 7964 22d3 0D       		.uleb128 0xd
 7965 22d4 FE000000 		.4byte	0xfe
 7966 22d8 00       		.byte	0
 7967 22d9 00       		.byte	0
 7968 22da 0C       		.uleb128 0xc
 7969 22db C1000000 		.4byte	0xc1
 7970 22df EA220000 		.4byte	0x22ea
 7971 22e3 0D       		.uleb128 0xd
 7972 22e4 FE000000 		.4byte	0xfe
 7973 22e8 01       		.byte	0x1
 7974 22e9 00       		.byte	0
 7975 22ea 0C       		.uleb128 0xc
 7976 22eb C1000000 		.4byte	0xc1
 7977 22ef FA220000 		.4byte	0x22fa
 7978 22f3 0D       		.uleb128 0xd
ARM GAS  C:\Users\HENRIC~1\AppData\Local\Temp\ccRPnI9G.s 			page 173


 7979 22f4 FE000000 		.4byte	0xfe
 7980 22f8 02       		.byte	0x2
 7981 22f9 00       		.byte	0
 7982 22fa 0C       		.uleb128 0xc
 7983 22fb C1000000 		.4byte	0xc1
 7984 22ff 0A230000 		.4byte	0x230a
 7985 2303 0D       		.uleb128 0xd
 7986 2304 FE000000 		.4byte	0xfe
 7987 2308 05       		.byte	0x5
 7988 2309 00       		.byte	0
 7989 230a 1F       		.uleb128 0x1f
 7990 230b CA030000 		.4byte	.LASF195
 7991 230f 01       		.byte	0x1
 7992 2310 82       		.byte	0x82
 7993 2311 B3000000 		.4byte	0xb3
 7994 2315 00000000 		.4byte	.LFB64
 7995 2319 24000000 		.4byte	.LFE64-.LFB64
 7996 231d 01       		.uleb128 0x1
 7997 231e 9C       		.byte	0x9c
 7998 231f 78230000 		.4byte	0x2378
 7999 2323 17       		.uleb128 0x17
 8000 2324 08000000 		.4byte	.LVL505
 8001 2328 48250000 		.4byte	0x2548
 8002 232c 17       		.uleb128 0x17
 8003 232d 0C000000 		.4byte	.LVL506
 8004 2331 53250000 		.4byte	0x2553
 8005 2335 15       		.uleb128 0x15
 8006 2336 12000000 		.4byte	.LVL507
 8007 233a CB230000 		.4byte	0x23cb
 8008 233e 48230000 		.4byte	0x2348
 8009 2342 16       		.uleb128 0x16
 8010 2343 01       		.uleb128 0x1
 8011 2344 50       		.byte	0x50
 8012 2345 01       		.uleb128 0x1
 8013 2346 31       		.byte	0x31
 8014 2347 00       		.byte	0
 8015 2348 17       		.uleb128 0x17
 8016 2349 16000000 		.4byte	.LVL508
 8017 234d 5E250000 		.4byte	0x255e
 8018 2351 15       		.uleb128 0x15
 8019 2352 1C000000 		.4byte	.LVL509
 8020 2356 37240000 		.4byte	0x2437
 8021 235a 65230000 		.4byte	0x2365
 8022 235e 16       		.uleb128 0x16
 8023 235f 01       		.uleb128 0x1
 8024 2360 50       		.byte	0x50
 8025 2361 02       		.uleb128 0x2
 8026 2362 08       		.byte	0x8
 8027 2363 64       		.byte	0x64
 8028 2364 00       		.byte	0
 8029 2365 17       		.uleb128 0x17
 8030 2366 20000000 		.4byte	.LVL510
 8031 236a 69250000 		.4byte	0x2569
 8032 236e 17       		.uleb128 0x17
 8033 236f 24000000 		.4byte	.LVL511
 8034 2373 FE1B0000 		.4byte	0x1bfe
 8035 2377 00       		.byte	0
ARM GAS  C:\Users\HENRIC~1\AppData\Local\Temp\ccRPnI9G.s 			page 174


 8036 2378 0C       		.uleb128 0xc
 8037 2379 7E030000 		.4byte	0x37e
 8038 237d 88230000 		.4byte	0x2388
 8039 2381 0D       		.uleb128 0xd
 8040 2382 FE000000 		.4byte	0xfe
 8041 2386 04       		.byte	0x4
 8042 2387 00       		.byte	0
 8043 2388 20       		.uleb128 0x20
 8044 2389 A5020000 		.4byte	.LASF150
 8045 238d 01       		.byte	0x1
 8046 238e 68       		.byte	0x68
 8047 238f 78230000 		.4byte	0x2378
 8048 2393 05       		.uleb128 0x5
 8049 2394 03       		.byte	0x3
 8050 2395 18000000 		.4byte	MENU_OPTIONS_LIST
 8051 2399 0C       		.uleb128 0xc
 8052 239a 05010000 		.4byte	0x105
 8053 239e A9230000 		.4byte	0x23a9
 8054 23a2 0D       		.uleb128 0xd
 8055 23a3 FE000000 		.4byte	0xfe
 8056 23a7 04       		.byte	0x4
 8057 23a8 00       		.byte	0
 8058 23a9 20       		.uleb128 0x20
 8059 23aa 93020000 		.4byte	.LASF151
 8060 23ae 01       		.byte	0x1
 8061 23af 6C       		.byte	0x6c
 8062 23b0 99230000 		.4byte	0x2399
 8063 23b4 05       		.uleb128 0x5
 8064 23b5 03       		.byte	0x3
 8065 23b6 04000000 		.4byte	MENU_OPTIONS_TAGS
 8066 23ba 21       		.uleb128 0x21
 8067 23bb 67060000 		.4byte	.LASF196
 8068 23bf 13       		.byte	0x13
 8069 23c0 1207     		.2byte	0x712
 8070 23c2 C6230000 		.4byte	0x23c6
 8071 23c6 22       		.uleb128 0x22
 8072 23c7 D7000000 		.4byte	0xd7
 8073 23cb 23       		.uleb128 0x23
 8074 23cc 54090000 		.4byte	.LASF152
 8075 23d0 54090000 		.4byte	.LASF152
 8076 23d4 09       		.byte	0x9
 8077 23d5 3A       		.byte	0x3a
 8078 23d6 23       		.uleb128 0x23
 8079 23d7 D9090000 		.4byte	.LASF153
 8080 23db D9090000 		.4byte	.LASF153
 8081 23df 09       		.byte	0x9
 8082 23e0 3D       		.byte	0x3d
 8083 23e1 23       		.uleb128 0x23
 8084 23e2 75080000 		.4byte	.LASF154
 8085 23e6 75080000 		.4byte	.LASF154
 8086 23ea 09       		.byte	0x9
 8087 23eb 3C       		.byte	0x3c
 8088 23ec 23       		.uleb128 0x23
 8089 23ed C2050000 		.4byte	.LASF155
 8090 23f1 C2050000 		.4byte	.LASF155
 8091 23f5 0A       		.byte	0xa
 8092 23f6 9C       		.byte	0x9c
ARM GAS  C:\Users\HENRIC~1\AppData\Local\Temp\ccRPnI9G.s 			page 175


 8093 23f7 24       		.uleb128 0x24
 8094 23f8 91090000 		.4byte	.LASF176
 8095 23fc 91090000 		.4byte	.LASF176
 8096 2400 23       		.uleb128 0x23
 8097 2401 05060000 		.4byte	.LASF156
 8098 2405 05060000 		.4byte	.LASF156
 8099 2409 0B       		.byte	0xb
 8100 240a 45       		.byte	0x45
 8101 240b 23       		.uleb128 0x23
 8102 240c 28040000 		.4byte	.LASF157
 8103 2410 28040000 		.4byte	.LASF157
 8104 2414 0C       		.byte	0xc
 8105 2415 21       		.byte	0x21
 8106 2416 23       		.uleb128 0x23
 8107 2417 84030000 		.4byte	.LASF158
 8108 241b 84030000 		.4byte	.LASF158
 8109 241f 0B       		.byte	0xb
 8110 2420 4C       		.byte	0x4c
 8111 2421 23       		.uleb128 0x23
 8112 2422 E1040000 		.4byte	.LASF159
 8113 2426 E1040000 		.4byte	.LASF159
 8114 242a 07       		.byte	0x7
 8115 242b 37       		.byte	0x37
 8116 242c 23       		.uleb128 0x23
 8117 242d 10030000 		.4byte	.LASF160
 8118 2431 10030000 		.4byte	.LASF160
 8119 2435 07       		.byte	0x7
 8120 2436 3D       		.byte	0x3d
 8121 2437 23       		.uleb128 0x23
 8122 2438 27090000 		.4byte	.LASF161
 8123 243c 27090000 		.4byte	.LASF161
 8124 2440 0D       		.byte	0xd
 8125 2441 76       		.byte	0x76
 8126 2442 23       		.uleb128 0x23
 8127 2443 9C010000 		.4byte	.LASF162
 8128 2447 9C010000 		.4byte	.LASF162
 8129 244b 0B       		.byte	0xb
 8130 244c 34       		.byte	0x34
 8131 244d 23       		.uleb128 0x23
 8132 244e FE090000 		.4byte	.LASF163
 8133 2452 FE090000 		.4byte	.LASF163
 8134 2456 0B       		.byte	0xb
 8135 2457 3E       		.byte	0x3e
 8136 2458 23       		.uleb128 0x23
 8137 2459 26050000 		.4byte	.LASF164
 8138 245d 26050000 		.4byte	.LASF164
 8139 2461 0E       		.byte	0xe
 8140 2462 3E       		.byte	0x3e
 8141 2463 23       		.uleb128 0x23
 8142 2464 CD040000 		.4byte	.LASF165
 8143 2468 CD040000 		.4byte	.LASF165
 8144 246c 06       		.byte	0x6
 8145 246d 3A       		.byte	0x3a
 8146 246e 23       		.uleb128 0x23
 8147 246f 95000000 		.4byte	.LASF166
 8148 2473 95000000 		.4byte	.LASF166
 8149 2477 07       		.byte	0x7
ARM GAS  C:\Users\HENRIC~1\AppData\Local\Temp\ccRPnI9G.s 			page 176


 8150 2478 2D       		.byte	0x2d
 8151 2479 23       		.uleb128 0x23
 8152 247a 7D010000 		.4byte	.LASF167
 8153 247e 7D010000 		.4byte	.LASF167
 8154 2482 0F       		.byte	0xf
 8155 2483 2C       		.byte	0x2c
 8156 2484 23       		.uleb128 0x23
 8157 2485 94040000 		.4byte	.LASF168
 8158 2489 94040000 		.4byte	.LASF168
 8159 248d 06       		.byte	0x6
 8160 248e 3E       		.byte	0x3e
 8161 248f 23       		.uleb128 0x23
 8162 2490 D2060000 		.4byte	.LASF169
 8163 2494 D2060000 		.4byte	.LASF169
 8164 2498 09       		.byte	0x9
 8165 2499 5D       		.byte	0x5d
 8166 249a 23       		.uleb128 0x23
 8167 249b D8010000 		.4byte	.LASF170
 8168 249f D8010000 		.4byte	.LASF170
 8169 24a3 10       		.byte	0x10
 8170 24a4 30       		.byte	0x30
 8171 24a5 23       		.uleb128 0x23
 8172 24a6 A80A0000 		.4byte	.LASF171
 8173 24aa A80A0000 		.4byte	.LASF171
 8174 24ae 11       		.byte	0x11
 8175 24af 99       		.byte	0x99
 8176 24b0 23       		.uleb128 0x23
 8177 24b1 27010000 		.4byte	.LASF172
 8178 24b5 27010000 		.4byte	.LASF172
 8179 24b9 0A       		.byte	0xa
 8180 24ba 9A       		.byte	0x9a
 8181 24bb 23       		.uleb128 0x23
 8182 24bc 2B0A0000 		.4byte	.LASF173
 8183 24c0 2B0A0000 		.4byte	.LASF173
 8184 24c4 11       		.byte	0x11
 8185 24c5 9B       		.byte	0x9b
 8186 24c6 23       		.uleb128 0x23
 8187 24c7 81050000 		.4byte	.LASF174
 8188 24cb 81050000 		.4byte	.LASF174
 8189 24cf 0F       		.byte	0xf
 8190 24d0 3A       		.byte	0x3a
 8191 24d1 23       		.uleb128 0x23
 8192 24d2 4C000000 		.4byte	.LASF175
 8193 24d6 4C000000 		.4byte	.LASF175
 8194 24da 12       		.byte	0x12
 8195 24db E7       		.byte	0xe7
 8196 24dc 24       		.uleb128 0x24
 8197 24dd 0A090000 		.4byte	.LASF177
 8198 24e1 0A090000 		.4byte	.LASF177
 8199 24e5 23       		.uleb128 0x23
 8200 24e6 8B050000 		.4byte	.LASF178
 8201 24ea 8B050000 		.4byte	.LASF178
 8202 24ee 0F       		.byte	0xf
 8203 24ef 31       		.byte	0x31
 8204 24f0 23       		.uleb128 0x23
 8205 24f1 85010000 		.4byte	.LASF179
 8206 24f5 85010000 		.4byte	.LASF179
ARM GAS  C:\Users\HENRIC~1\AppData\Local\Temp\ccRPnI9G.s 			page 177


 8207 24f9 08       		.byte	0x8
 8208 24fa AE       		.byte	0xae
 8209 24fb 23       		.uleb128 0x23
 8210 24fc A8010000 		.4byte	.LASF180
 8211 2500 A8010000 		.4byte	.LASF180
 8212 2504 08       		.byte	0x8
 8213 2505 9D       		.byte	0x9d
 8214 2506 23       		.uleb128 0x23
 8215 2507 09000000 		.4byte	.LASF181
 8216 250b 09000000 		.4byte	.LASF181
 8217 250f 08       		.byte	0x8
 8218 2510 95       		.byte	0x95
 8219 2511 23       		.uleb128 0x23
 8220 2512 EF020000 		.4byte	.LASF182
 8221 2516 EF020000 		.4byte	.LASF182
 8222 251a 08       		.byte	0x8
 8223 251b A8       		.byte	0xa8
 8224 251c 23       		.uleb128 0x23
 8225 251d 1B040000 		.4byte	.LASF183
 8226 2521 1B040000 		.4byte	.LASF183
 8227 2525 08       		.byte	0x8
 8228 2526 A2       		.byte	0xa2
 8229 2527 23       		.uleb128 0x23
 8230 2528 E8060000 		.4byte	.LASF184
 8231 252c E8060000 		.4byte	.LASF184
 8232 2530 05       		.byte	0x5
 8233 2531 60       		.byte	0x60
 8234 2532 23       		.uleb128 0x23
 8235 2533 AD050000 		.4byte	.LASF185
 8236 2537 AD050000 		.4byte	.LASF185
 8237 253b 08       		.byte	0x8
 8238 253c 7F       		.byte	0x7f
 8239 253d 23       		.uleb128 0x23
 8240 253e 10050000 		.4byte	.LASF186
 8241 2542 10050000 		.4byte	.LASF186
 8242 2546 08       		.byte	0x8
 8243 2547 8B       		.byte	0x8b
 8244 2548 23       		.uleb128 0x23
 8245 2549 46040000 		.4byte	.LASF187
 8246 254d 46040000 		.4byte	.LASF187
 8247 2551 0B       		.byte	0xb
 8248 2552 2F       		.byte	0x2f
 8249 2553 23       		.uleb128 0x23
 8250 2554 7A030000 		.4byte	.LASF188
 8251 2558 7A030000 		.4byte	.LASF188
 8252 255c 09       		.byte	0x9
 8253 255d 38       		.byte	0x38
 8254 255e 23       		.uleb128 0x23
 8255 255f 37030000 		.4byte	.LASF189
 8256 2563 37030000 		.4byte	.LASF189
 8257 2567 11       		.byte	0x11
 8258 2568 93       		.byte	0x93
 8259 2569 23       		.uleb128 0x23
 8260 256a 38060000 		.4byte	.LASF190
 8261 256e 38060000 		.4byte	.LASF190
 8262 2572 0A       		.byte	0xa
 8263 2573 96       		.byte	0x96
ARM GAS  C:\Users\HENRIC~1\AppData\Local\Temp\ccRPnI9G.s 			page 178


 8264 2574 00       		.byte	0
 8265              		.section	.debug_abbrev,"",%progbits
 8266              	.Ldebug_abbrev0:
 8267 0000 01       		.uleb128 0x1
 8268 0001 11       		.uleb128 0x11
 8269 0002 01       		.byte	0x1
 8270 0003 25       		.uleb128 0x25
 8271 0004 0E       		.uleb128 0xe
 8272 0005 13       		.uleb128 0x13
 8273 0006 0B       		.uleb128 0xb
 8274 0007 03       		.uleb128 0x3
 8275 0008 0E       		.uleb128 0xe
 8276 0009 1B       		.uleb128 0x1b
 8277 000a 0E       		.uleb128 0xe
 8278 000b 55       		.uleb128 0x55
 8279 000c 17       		.uleb128 0x17
 8280 000d 11       		.uleb128 0x11
 8281 000e 01       		.uleb128 0x1
 8282 000f 10       		.uleb128 0x10
 8283 0010 17       		.uleb128 0x17
 8284 0011 00       		.byte	0
 8285 0012 00       		.byte	0
 8286 0013 02       		.uleb128 0x2
 8287 0014 04       		.uleb128 0x4
 8288 0015 01       		.byte	0x1
 8289 0016 03       		.uleb128 0x3
 8290 0017 0E       		.uleb128 0xe
 8291 0018 0B       		.uleb128 0xb
 8292 0019 0B       		.uleb128 0xb
 8293 001a 49       		.uleb128 0x49
 8294 001b 13       		.uleb128 0x13
 8295 001c 3A       		.uleb128 0x3a
 8296 001d 0B       		.uleb128 0xb
 8297 001e 3B       		.uleb128 0x3b
 8298 001f 0B       		.uleb128 0xb
 8299 0020 01       		.uleb128 0x1
 8300 0021 13       		.uleb128 0x13
 8301 0022 00       		.byte	0
 8302 0023 00       		.byte	0
 8303 0024 03       		.uleb128 0x3
 8304 0025 28       		.uleb128 0x28
 8305 0026 00       		.byte	0
 8306 0027 03       		.uleb128 0x3
 8307 0028 0E       		.uleb128 0xe
 8308 0029 1C       		.uleb128 0x1c
 8309 002a 0B       		.uleb128 0xb
 8310 002b 00       		.byte	0
 8311 002c 00       		.byte	0
 8312 002d 04       		.uleb128 0x4
 8313 002e 24       		.uleb128 0x24
 8314 002f 00       		.byte	0
 8315 0030 0B       		.uleb128 0xb
 8316 0031 0B       		.uleb128 0xb
 8317 0032 3E       		.uleb128 0x3e
 8318 0033 0B       		.uleb128 0xb
 8319 0034 03       		.uleb128 0x3
 8320 0035 0E       		.uleb128 0xe
ARM GAS  C:\Users\HENRIC~1\AppData\Local\Temp\ccRPnI9G.s 			page 179


 8321 0036 00       		.byte	0
 8322 0037 00       		.byte	0
 8323 0038 05       		.uleb128 0x5
 8324 0039 16       		.uleb128 0x16
 8325 003a 00       		.byte	0
 8326 003b 03       		.uleb128 0x3
 8327 003c 0E       		.uleb128 0xe
 8328 003d 3A       		.uleb128 0x3a
 8329 003e 0B       		.uleb128 0xb
 8330 003f 3B       		.uleb128 0x3b
 8331 0040 0B       		.uleb128 0xb
 8332 0041 49       		.uleb128 0x49
 8333 0042 13       		.uleb128 0x13
 8334 0043 00       		.byte	0
 8335 0044 00       		.byte	0
 8336 0045 06       		.uleb128 0x6
 8337 0046 24       		.uleb128 0x24
 8338 0047 00       		.byte	0
 8339 0048 0B       		.uleb128 0xb
 8340 0049 0B       		.uleb128 0xb
 8341 004a 3E       		.uleb128 0x3e
 8342 004b 0B       		.uleb128 0xb
 8343 004c 03       		.uleb128 0x3
 8344 004d 08       		.uleb128 0x8
 8345 004e 00       		.byte	0
 8346 004f 00       		.byte	0
 8347 0050 07       		.uleb128 0x7
 8348 0051 0F       		.uleb128 0xf
 8349 0052 00       		.byte	0
 8350 0053 0B       		.uleb128 0xb
 8351 0054 0B       		.uleb128 0xb
 8352 0055 49       		.uleb128 0x49
 8353 0056 13       		.uleb128 0x13
 8354 0057 00       		.byte	0
 8355 0058 00       		.byte	0
 8356 0059 08       		.uleb128 0x8
 8357 005a 26       		.uleb128 0x26
 8358 005b 00       		.byte	0
 8359 005c 49       		.uleb128 0x49
 8360 005d 13       		.uleb128 0x13
 8361 005e 00       		.byte	0
 8362 005f 00       		.byte	0
 8363 0060 09       		.uleb128 0x9
 8364 0061 13       		.uleb128 0x13
 8365 0062 01       		.byte	0x1
 8366 0063 03       		.uleb128 0x3
 8367 0064 0E       		.uleb128 0xe
 8368 0065 0B       		.uleb128 0xb
 8369 0066 0B       		.uleb128 0xb
 8370 0067 3A       		.uleb128 0x3a
 8371 0068 0B       		.uleb128 0xb
 8372 0069 3B       		.uleb128 0x3b
 8373 006a 0B       		.uleb128 0xb
 8374 006b 01       		.uleb128 0x1
 8375 006c 13       		.uleb128 0x13
 8376 006d 00       		.byte	0
 8377 006e 00       		.byte	0
ARM GAS  C:\Users\HENRIC~1\AppData\Local\Temp\ccRPnI9G.s 			page 180


 8378 006f 0A       		.uleb128 0xa
 8379 0070 0D       		.uleb128 0xd
 8380 0071 00       		.byte	0
 8381 0072 03       		.uleb128 0x3
 8382 0073 08       		.uleb128 0x8
 8383 0074 3A       		.uleb128 0x3a
 8384 0075 0B       		.uleb128 0xb
 8385 0076 3B       		.uleb128 0x3b
 8386 0077 0B       		.uleb128 0xb
 8387 0078 49       		.uleb128 0x49
 8388 0079 13       		.uleb128 0x13
 8389 007a 38       		.uleb128 0x38
 8390 007b 0B       		.uleb128 0xb
 8391 007c 00       		.byte	0
 8392 007d 00       		.byte	0
 8393 007e 0B       		.uleb128 0xb
 8394 007f 0D       		.uleb128 0xd
 8395 0080 00       		.byte	0
 8396 0081 03       		.uleb128 0x3
 8397 0082 0E       		.uleb128 0xe
 8398 0083 3A       		.uleb128 0x3a
 8399 0084 0B       		.uleb128 0xb
 8400 0085 3B       		.uleb128 0x3b
 8401 0086 0B       		.uleb128 0xb
 8402 0087 49       		.uleb128 0x49
 8403 0088 13       		.uleb128 0x13
 8404 0089 38       		.uleb128 0x38
 8405 008a 0B       		.uleb128 0xb
 8406 008b 00       		.byte	0
 8407 008c 00       		.byte	0
 8408 008d 0C       		.uleb128 0xc
 8409 008e 01       		.uleb128 0x1
 8410 008f 01       		.byte	0x1
 8411 0090 49       		.uleb128 0x49
 8412 0091 13       		.uleb128 0x13
 8413 0092 01       		.uleb128 0x1
 8414 0093 13       		.uleb128 0x13
 8415 0094 00       		.byte	0
 8416 0095 00       		.byte	0
 8417 0096 0D       		.uleb128 0xd
 8418 0097 21       		.uleb128 0x21
 8419 0098 00       		.byte	0
 8420 0099 49       		.uleb128 0x49
 8421 009a 13       		.uleb128 0x13
 8422 009b 2F       		.uleb128 0x2f
 8423 009c 0B       		.uleb128 0xb
 8424 009d 00       		.byte	0
 8425 009e 00       		.byte	0
 8426 009f 0E       		.uleb128 0xe
 8427 00a0 2E       		.uleb128 0x2e
 8428 00a1 01       		.byte	0x1
 8429 00a2 03       		.uleb128 0x3
 8430 00a3 0E       		.uleb128 0xe
 8431 00a4 3A       		.uleb128 0x3a
 8432 00a5 0B       		.uleb128 0xb
 8433 00a6 3B       		.uleb128 0x3b
 8434 00a7 05       		.uleb128 0x5
ARM GAS  C:\Users\HENRIC~1\AppData\Local\Temp\ccRPnI9G.s 			page 181


 8435 00a8 27       		.uleb128 0x27
 8436 00a9 19       		.uleb128 0x19
 8437 00aa 49       		.uleb128 0x49
 8438 00ab 13       		.uleb128 0x13
 8439 00ac 11       		.uleb128 0x11
 8440 00ad 01       		.uleb128 0x1
 8441 00ae 12       		.uleb128 0x12
 8442 00af 06       		.uleb128 0x6
 8443 00b0 40       		.uleb128 0x40
 8444 00b1 18       		.uleb128 0x18
 8445 00b2 9742     		.uleb128 0x2117
 8446 00b4 19       		.uleb128 0x19
 8447 00b5 01       		.uleb128 0x1
 8448 00b6 13       		.uleb128 0x13
 8449 00b7 00       		.byte	0
 8450 00b8 00       		.byte	0
 8451 00b9 0F       		.uleb128 0xf
 8452 00ba 05       		.uleb128 0x5
 8453 00bb 00       		.byte	0
 8454 00bc 03       		.uleb128 0x3
 8455 00bd 0E       		.uleb128 0xe
 8456 00be 3A       		.uleb128 0x3a
 8457 00bf 0B       		.uleb128 0xb
 8458 00c0 3B       		.uleb128 0x3b
 8459 00c1 05       		.uleb128 0x5
 8460 00c2 49       		.uleb128 0x49
 8461 00c3 13       		.uleb128 0x13
 8462 00c4 02       		.uleb128 0x2
 8463 00c5 17       		.uleb128 0x17
 8464 00c6 00       		.byte	0
 8465 00c7 00       		.byte	0
 8466 00c8 10       		.uleb128 0x10
 8467 00c9 05       		.uleb128 0x5
 8468 00ca 00       		.byte	0
 8469 00cb 03       		.uleb128 0x3
 8470 00cc 08       		.uleb128 0x8
 8471 00cd 3A       		.uleb128 0x3a
 8472 00ce 0B       		.uleb128 0xb
 8473 00cf 3B       		.uleb128 0x3b
 8474 00d0 05       		.uleb128 0x5
 8475 00d1 49       		.uleb128 0x49
 8476 00d2 13       		.uleb128 0x13
 8477 00d3 02       		.uleb128 0x2
 8478 00d4 17       		.uleb128 0x17
 8479 00d5 00       		.byte	0
 8480 00d6 00       		.byte	0
 8481 00d7 11       		.uleb128 0x11
 8482 00d8 34       		.uleb128 0x34
 8483 00d9 00       		.byte	0
 8484 00da 03       		.uleb128 0x3
 8485 00db 08       		.uleb128 0x8
 8486 00dc 3A       		.uleb128 0x3a
 8487 00dd 0B       		.uleb128 0xb
 8488 00de 3B       		.uleb128 0x3b
 8489 00df 05       		.uleb128 0x5
 8490 00e0 49       		.uleb128 0x49
 8491 00e1 13       		.uleb128 0x13
ARM GAS  C:\Users\HENRIC~1\AppData\Local\Temp\ccRPnI9G.s 			page 182


 8492 00e2 1C       		.uleb128 0x1c
 8493 00e3 0B       		.uleb128 0xb
 8494 00e4 00       		.byte	0
 8495 00e5 00       		.byte	0
 8496 00e6 12       		.uleb128 0x12
 8497 00e7 34       		.uleb128 0x34
 8498 00e8 00       		.byte	0
 8499 00e9 03       		.uleb128 0x3
 8500 00ea 08       		.uleb128 0x8
 8501 00eb 3A       		.uleb128 0x3a
 8502 00ec 0B       		.uleb128 0xb
 8503 00ed 3B       		.uleb128 0x3b
 8504 00ee 05       		.uleb128 0x5
 8505 00ef 49       		.uleb128 0x49
 8506 00f0 13       		.uleb128 0x13
 8507 00f1 02       		.uleb128 0x2
 8508 00f2 17       		.uleb128 0x17
 8509 00f3 00       		.byte	0
 8510 00f4 00       		.byte	0
 8511 00f5 13       		.uleb128 0x13
 8512 00f6 34       		.uleb128 0x34
 8513 00f7 00       		.byte	0
 8514 00f8 03       		.uleb128 0x3
 8515 00f9 0E       		.uleb128 0xe
 8516 00fa 3A       		.uleb128 0x3a
 8517 00fb 0B       		.uleb128 0xb
 8518 00fc 3B       		.uleb128 0x3b
 8519 00fd 05       		.uleb128 0x5
 8520 00fe 49       		.uleb128 0x49
 8521 00ff 13       		.uleb128 0x13
 8522 0100 02       		.uleb128 0x2
 8523 0101 18       		.uleb128 0x18
 8524 0102 00       		.byte	0
 8525 0103 00       		.byte	0
 8526 0104 14       		.uleb128 0x14
 8527 0105 34       		.uleb128 0x34
 8528 0106 00       		.byte	0
 8529 0107 03       		.uleb128 0x3
 8530 0108 0E       		.uleb128 0xe
 8531 0109 3A       		.uleb128 0x3a
 8532 010a 0B       		.uleb128 0xb
 8533 010b 3B       		.uleb128 0x3b
 8534 010c 05       		.uleb128 0x5
 8535 010d 49       		.uleb128 0x49
 8536 010e 13       		.uleb128 0x13
 8537 010f 02       		.uleb128 0x2
 8538 0110 17       		.uleb128 0x17
 8539 0111 00       		.byte	0
 8540 0112 00       		.byte	0
 8541 0113 15       		.uleb128 0x15
 8542 0114 898201   		.uleb128 0x4109
 8543 0117 01       		.byte	0x1
 8544 0118 11       		.uleb128 0x11
 8545 0119 01       		.uleb128 0x1
 8546 011a 31       		.uleb128 0x31
 8547 011b 13       		.uleb128 0x13
 8548 011c 01       		.uleb128 0x1
ARM GAS  C:\Users\HENRIC~1\AppData\Local\Temp\ccRPnI9G.s 			page 183


 8549 011d 13       		.uleb128 0x13
 8550 011e 00       		.byte	0
 8551 011f 00       		.byte	0
 8552 0120 16       		.uleb128 0x16
 8553 0121 8A8201   		.uleb128 0x410a
 8554 0124 00       		.byte	0
 8555 0125 02       		.uleb128 0x2
 8556 0126 18       		.uleb128 0x18
 8557 0127 9142     		.uleb128 0x2111
 8558 0129 18       		.uleb128 0x18
 8559 012a 00       		.byte	0
 8560 012b 00       		.byte	0
 8561 012c 17       		.uleb128 0x17
 8562 012d 898201   		.uleb128 0x4109
 8563 0130 00       		.byte	0
 8564 0131 11       		.uleb128 0x11
 8565 0132 01       		.uleb128 0x1
 8566 0133 31       		.uleb128 0x31
 8567 0134 13       		.uleb128 0x13
 8568 0135 00       		.byte	0
 8569 0136 00       		.byte	0
 8570 0137 18       		.uleb128 0x18
 8571 0138 898201   		.uleb128 0x4109
 8572 013b 01       		.byte	0x1
 8573 013c 11       		.uleb128 0x11
 8574 013d 01       		.uleb128 0x1
 8575 013e 31       		.uleb128 0x31
 8576 013f 13       		.uleb128 0x13
 8577 0140 00       		.byte	0
 8578 0141 00       		.byte	0
 8579 0142 19       		.uleb128 0x19
 8580 0143 0B       		.uleb128 0xb
 8581 0144 01       		.byte	0x1
 8582 0145 11       		.uleb128 0x11
 8583 0146 01       		.uleb128 0x1
 8584 0147 12       		.uleb128 0x12
 8585 0148 06       		.uleb128 0x6
 8586 0149 01       		.uleb128 0x1
 8587 014a 13       		.uleb128 0x13
 8588 014b 00       		.byte	0
 8589 014c 00       		.byte	0
 8590 014d 1A       		.uleb128 0x1a
 8591 014e 2E       		.uleb128 0x2e
 8592 014f 01       		.byte	0x1
 8593 0150 3F       		.uleb128 0x3f
 8594 0151 19       		.uleb128 0x19
 8595 0152 03       		.uleb128 0x3
 8596 0153 0E       		.uleb128 0xe
 8597 0154 3A       		.uleb128 0x3a
 8598 0155 0B       		.uleb128 0xb
 8599 0156 3B       		.uleb128 0x3b
 8600 0157 0B       		.uleb128 0xb
 8601 0158 27       		.uleb128 0x27
 8602 0159 19       		.uleb128 0x19
 8603 015a 8701     		.uleb128 0x87
 8604 015c 19       		.uleb128 0x19
 8605 015d 11       		.uleb128 0x11
ARM GAS  C:\Users\HENRIC~1\AppData\Local\Temp\ccRPnI9G.s 			page 184


 8606 015e 01       		.uleb128 0x1
 8607 015f 12       		.uleb128 0x12
 8608 0160 06       		.uleb128 0x6
 8609 0161 40       		.uleb128 0x40
 8610 0162 18       		.uleb128 0x18
 8611 0163 9742     		.uleb128 0x2117
 8612 0165 19       		.uleb128 0x19
 8613 0166 01       		.uleb128 0x1
 8614 0167 13       		.uleb128 0x13
 8615 0168 00       		.byte	0
 8616 0169 00       		.byte	0
 8617 016a 1B       		.uleb128 0x1b
 8618 016b 34       		.uleb128 0x34
 8619 016c 00       		.byte	0
 8620 016d 03       		.uleb128 0x3
 8621 016e 0E       		.uleb128 0xe
 8622 016f 3A       		.uleb128 0x3a
 8623 0170 0B       		.uleb128 0xb
 8624 0171 3B       		.uleb128 0x3b
 8625 0172 0B       		.uleb128 0xb
 8626 0173 49       		.uleb128 0x49
 8627 0174 13       		.uleb128 0x13
 8628 0175 02       		.uleb128 0x2
 8629 0176 17       		.uleb128 0x17
 8630 0177 00       		.byte	0
 8631 0178 00       		.byte	0
 8632 0179 1C       		.uleb128 0x1c
 8633 017a 34       		.uleb128 0x34
 8634 017b 00       		.byte	0
 8635 017c 03       		.uleb128 0x3
 8636 017d 08       		.uleb128 0x8
 8637 017e 3A       		.uleb128 0x3a
 8638 017f 0B       		.uleb128 0xb
 8639 0180 3B       		.uleb128 0x3b
 8640 0181 0B       		.uleb128 0xb
 8641 0182 49       		.uleb128 0x49
 8642 0183 13       		.uleb128 0x13
 8643 0184 02       		.uleb128 0x2
 8644 0185 17       		.uleb128 0x17
 8645 0186 00       		.byte	0
 8646 0187 00       		.byte	0
 8647 0188 1D       		.uleb128 0x1d
 8648 0189 2E       		.uleb128 0x2e
 8649 018a 01       		.byte	0x1
 8650 018b 3F       		.uleb128 0x3f
 8651 018c 19       		.uleb128 0x19
 8652 018d 03       		.uleb128 0x3
 8653 018e 0E       		.uleb128 0xe
 8654 018f 3A       		.uleb128 0x3a
 8655 0190 0B       		.uleb128 0xb
 8656 0191 3B       		.uleb128 0x3b
 8657 0192 05       		.uleb128 0x5
 8658 0193 27       		.uleb128 0x27
 8659 0194 19       		.uleb128 0x19
 8660 0195 8701     		.uleb128 0x87
 8661 0197 19       		.uleb128 0x19
 8662 0198 11       		.uleb128 0x11
ARM GAS  C:\Users\HENRIC~1\AppData\Local\Temp\ccRPnI9G.s 			page 185


 8663 0199 01       		.uleb128 0x1
 8664 019a 12       		.uleb128 0x12
 8665 019b 06       		.uleb128 0x6
 8666 019c 40       		.uleb128 0x40
 8667 019d 18       		.uleb128 0x18
 8668 019e 9742     		.uleb128 0x2117
 8669 01a0 19       		.uleb128 0x19
 8670 01a1 01       		.uleb128 0x1
 8671 01a2 13       		.uleb128 0x13
 8672 01a3 00       		.byte	0
 8673 01a4 00       		.byte	0
 8674 01a5 1E       		.uleb128 0x1e
 8675 01a6 34       		.uleb128 0x34
 8676 01a7 00       		.byte	0
 8677 01a8 03       		.uleb128 0x3
 8678 01a9 08       		.uleb128 0x8
 8679 01aa 3A       		.uleb128 0x3a
 8680 01ab 0B       		.uleb128 0xb
 8681 01ac 3B       		.uleb128 0x3b
 8682 01ad 05       		.uleb128 0x5
 8683 01ae 49       		.uleb128 0x49
 8684 01af 13       		.uleb128 0x13
 8685 01b0 02       		.uleb128 0x2
 8686 01b1 18       		.uleb128 0x18
 8687 01b2 00       		.byte	0
 8688 01b3 00       		.byte	0
 8689 01b4 1F       		.uleb128 0x1f
 8690 01b5 2E       		.uleb128 0x2e
 8691 01b6 01       		.byte	0x1
 8692 01b7 3F       		.uleb128 0x3f
 8693 01b8 19       		.uleb128 0x19
 8694 01b9 03       		.uleb128 0x3
 8695 01ba 0E       		.uleb128 0xe
 8696 01bb 3A       		.uleb128 0x3a
 8697 01bc 0B       		.uleb128 0xb
 8698 01bd 3B       		.uleb128 0x3b
 8699 01be 0B       		.uleb128 0xb
 8700 01bf 27       		.uleb128 0x27
 8701 01c0 19       		.uleb128 0x19
 8702 01c1 49       		.uleb128 0x49
 8703 01c2 13       		.uleb128 0x13
 8704 01c3 8701     		.uleb128 0x87
 8705 01c5 19       		.uleb128 0x19
 8706 01c6 11       		.uleb128 0x11
 8707 01c7 01       		.uleb128 0x1
 8708 01c8 12       		.uleb128 0x12
 8709 01c9 06       		.uleb128 0x6
 8710 01ca 40       		.uleb128 0x40
 8711 01cb 18       		.uleb128 0x18
 8712 01cc 9742     		.uleb128 0x2117
 8713 01ce 19       		.uleb128 0x19
 8714 01cf 01       		.uleb128 0x1
 8715 01d0 13       		.uleb128 0x13
 8716 01d1 00       		.byte	0
 8717 01d2 00       		.byte	0
 8718 01d3 20       		.uleb128 0x20
 8719 01d4 34       		.uleb128 0x34
ARM GAS  C:\Users\HENRIC~1\AppData\Local\Temp\ccRPnI9G.s 			page 186


 8720 01d5 00       		.byte	0
 8721 01d6 03       		.uleb128 0x3
 8722 01d7 0E       		.uleb128 0xe
 8723 01d8 3A       		.uleb128 0x3a
 8724 01d9 0B       		.uleb128 0xb
 8725 01da 3B       		.uleb128 0x3b
 8726 01db 0B       		.uleb128 0xb
 8727 01dc 49       		.uleb128 0x49
 8728 01dd 13       		.uleb128 0x13
 8729 01de 02       		.uleb128 0x2
 8730 01df 18       		.uleb128 0x18
 8731 01e0 00       		.byte	0
 8732 01e1 00       		.byte	0
 8733 01e2 21       		.uleb128 0x21
 8734 01e3 34       		.uleb128 0x34
 8735 01e4 00       		.byte	0
 8736 01e5 03       		.uleb128 0x3
 8737 01e6 0E       		.uleb128 0xe
 8738 01e7 3A       		.uleb128 0x3a
 8739 01e8 0B       		.uleb128 0xb
 8740 01e9 3B       		.uleb128 0x3b
 8741 01ea 05       		.uleb128 0x5
 8742 01eb 49       		.uleb128 0x49
 8743 01ec 13       		.uleb128 0x13
 8744 01ed 3F       		.uleb128 0x3f
 8745 01ee 19       		.uleb128 0x19
 8746 01ef 3C       		.uleb128 0x3c
 8747 01f0 19       		.uleb128 0x19
 8748 01f1 00       		.byte	0
 8749 01f2 00       		.byte	0
 8750 01f3 22       		.uleb128 0x22
 8751 01f4 35       		.uleb128 0x35
 8752 01f5 00       		.byte	0
 8753 01f6 49       		.uleb128 0x49
 8754 01f7 13       		.uleb128 0x13
 8755 01f8 00       		.byte	0
 8756 01f9 00       		.byte	0
 8757 01fa 23       		.uleb128 0x23
 8758 01fb 2E       		.uleb128 0x2e
 8759 01fc 00       		.byte	0
 8760 01fd 3F       		.uleb128 0x3f
 8761 01fe 19       		.uleb128 0x19
 8762 01ff 3C       		.uleb128 0x3c
 8763 0200 19       		.uleb128 0x19
 8764 0201 6E       		.uleb128 0x6e
 8765 0202 0E       		.uleb128 0xe
 8766 0203 03       		.uleb128 0x3
 8767 0204 0E       		.uleb128 0xe
 8768 0205 3A       		.uleb128 0x3a
 8769 0206 0B       		.uleb128 0xb
 8770 0207 3B       		.uleb128 0x3b
 8771 0208 0B       		.uleb128 0xb
 8772 0209 00       		.byte	0
 8773 020a 00       		.byte	0
 8774 020b 24       		.uleb128 0x24
 8775 020c 2E       		.uleb128 0x2e
 8776 020d 00       		.byte	0
ARM GAS  C:\Users\HENRIC~1\AppData\Local\Temp\ccRPnI9G.s 			page 187


 8777 020e 3F       		.uleb128 0x3f
 8778 020f 19       		.uleb128 0x19
 8779 0210 3C       		.uleb128 0x3c
 8780 0211 19       		.uleb128 0x19
 8781 0212 6E       		.uleb128 0x6e
 8782 0213 0E       		.uleb128 0xe
 8783 0214 03       		.uleb128 0x3
 8784 0215 0E       		.uleb128 0xe
 8785 0216 00       		.byte	0
 8786 0217 00       		.byte	0
 8787 0218 00       		.byte	0
 8788              		.section	.debug_loc,"",%progbits
 8789              	.Ldebug_loc0:
 8790              	.LLST0:
 8791 0000 00000000 		.4byte	.LVL0
 8792 0004 06000000 		.4byte	.LVL2
 8793 0008 0100     		.2byte	0x1
 8794 000a 50       		.byte	0x50
 8795 000b 06000000 		.4byte	.LVL2
 8796 000f 76000000 		.4byte	.LFE77
 8797 0013 0100     		.2byte	0x1
 8798 0015 5C       		.byte	0x5c
 8799 0016 00000000 		.4byte	0
 8800 001a 00000000 		.4byte	0
 8801              	.LLST1:
 8802 001e 00000000 		.4byte	.LVL0
 8803 0022 52000000 		.4byte	.LVL16
 8804 0026 0100     		.2byte	0x1
 8805 0028 51       		.byte	0x51
 8806 0029 52000000 		.4byte	.LVL16
 8807 002d 76000000 		.4byte	.LFE77
 8808 0031 0400     		.2byte	0x4
 8809 0033 F3       		.byte	0xf3
 8810 0034 01       		.uleb128 0x1
 8811 0035 51       		.byte	0x51
 8812 0036 9F       		.byte	0x9f
 8813 0037 00000000 		.4byte	0
 8814 003b 00000000 		.4byte	0
 8815              	.LLST2:
 8816 003f 04000000 		.4byte	.LVL1
 8817 0043 0A000000 		.4byte	.LVL3
 8818 0047 0200     		.2byte	0x2
 8819 0049 30       		.byte	0x30
 8820 004a 9F       		.byte	0x9f
 8821 004b 0A000000 		.4byte	.LVL3
 8822 004f 48000000 		.4byte	.LVL14
 8823 0053 0100     		.2byte	0x1
 8824 0055 5E       		.byte	0x5e
 8825 0056 4C000000 		.4byte	.LVL15
 8826 005a 76000000 		.4byte	.LFE77
 8827 005e 0100     		.2byte	0x1
 8828 0060 5E       		.byte	0x5e
 8829 0061 00000000 		.4byte	0
 8830 0065 00000000 		.4byte	0
 8831              	.LLST3:
 8832 0069 0E000000 		.4byte	.LVL4
 8833 006d 12000000 		.4byte	.LVL5
ARM GAS  C:\Users\HENRIC~1\AppData\Local\Temp\ccRPnI9G.s 			page 188


 8834 0071 0200     		.2byte	0x2
 8835 0073 30       		.byte	0x30
 8836 0074 9F       		.byte	0x9f
 8837 0075 12000000 		.4byte	.LVL5
 8838 0079 3E000000 		.4byte	.LVL12
 8839 007d 0100     		.2byte	0x1
 8840 007f 55       		.byte	0x55
 8841 0080 40000000 		.4byte	.LVL13
 8842 0084 4C000000 		.4byte	.LVL15
 8843 0088 0100     		.2byte	0x1
 8844 008a 55       		.byte	0x55
 8845 008b 54000000 		.4byte	.LVL17
 8846 008f 6A000000 		.4byte	.LVL20
 8847 0093 0100     		.2byte	0x1
 8848 0095 51       		.byte	0x51
 8849 0096 6C000000 		.4byte	.LVL21
 8850 009a 76000000 		.4byte	.LFE77
 8851 009e 0100     		.2byte	0x1
 8852 00a0 51       		.byte	0x51
 8853 00a1 00000000 		.4byte	0
 8854 00a5 00000000 		.4byte	0
 8855              	.LLST4:
 8856 00a9 0E000000 		.4byte	.LVL4
 8857 00ad 4C000000 		.4byte	.LVL15
 8858 00b1 0100     		.2byte	0x1
 8859 00b3 57       		.byte	0x57
 8860 00b4 00000000 		.4byte	0
 8861 00b8 00000000 		.4byte	0
 8862              	.LLST5:
 8863 00bc 22000000 		.4byte	.LVL6
 8864 00c0 24000000 		.4byte	.LVL7
 8865 00c4 0100     		.2byte	0x1
 8866 00c6 52       		.byte	0x52
 8867 00c7 26000000 		.4byte	.LVL8
 8868 00cb 40000000 		.4byte	.LVL13
 8869 00cf 0100     		.2byte	0x1
 8870 00d1 52       		.byte	0x52
 8871 00d2 00000000 		.4byte	0
 8872 00d6 00000000 		.4byte	0
 8873              	.LLST6:
 8874 00da 04000000 		.4byte	.LVL1
 8875 00de 0A000000 		.4byte	.LVL3
 8876 00e2 0200     		.2byte	0x2
 8877 00e4 30       		.byte	0x30
 8878 00e5 9F       		.byte	0x9f
 8879 00e6 0A000000 		.4byte	.LVL3
 8880 00ea 2C000000 		.4byte	.LVL9
 8881 00ee 0100     		.2byte	0x1
 8882 00f0 50       		.byte	0x50
 8883 00f1 2C000000 		.4byte	.LVL9
 8884 00f5 3A000000 		.4byte	.LVL10
 8885 00f9 0100     		.2byte	0x1
 8886 00fb 53       		.byte	0x53
 8887 00fc 3C000000 		.4byte	.LVL11
 8888 0100 58000000 		.4byte	.LVL18
 8889 0104 0100     		.2byte	0x1
 8890 0106 50       		.byte	0x50
ARM GAS  C:\Users\HENRIC~1\AppData\Local\Temp\ccRPnI9G.s 			page 189


 8891 0107 58000000 		.4byte	.LVL18
 8892 010b 68000000 		.4byte	.LVL19
 8893 010f 0100     		.2byte	0x1
 8894 0111 53       		.byte	0x53
 8895 0112 68000000 		.4byte	.LVL19
 8896 0116 74000000 		.4byte	.LVL22
 8897 011a 0100     		.2byte	0x1
 8898 011c 50       		.byte	0x50
 8899 011d 00000000 		.4byte	0
 8900 0121 00000000 		.4byte	0
 8901              	.LLST7:
 8902 0125 00000000 		.4byte	.LVL23
 8903 0129 10000000 		.4byte	.LVL24
 8904 012d 0100     		.2byte	0x1
 8905 012f 50       		.byte	0x50
 8906 0130 10000000 		.4byte	.LVL24
 8907 0134 B4000000 		.4byte	.LFE71
 8908 0138 0400     		.2byte	0x4
 8909 013a F3       		.byte	0xf3
 8910 013b 01       		.uleb128 0x1
 8911 013c 50       		.byte	0x50
 8912 013d 9F       		.byte	0x9f
 8913 013e 00000000 		.4byte	0
 8914 0142 00000000 		.4byte	0
 8915              	.LLST8:
 8916 0146 44000000 		.4byte	.LVL31
 8917 014a AA000000 		.4byte	.LVL41
 8918 014e 0100     		.2byte	0x1
 8919 0150 54       		.byte	0x54
 8920 0151 00000000 		.4byte	0
 8921 0155 00000000 		.4byte	0
 8922              	.LLST9:
 8923 0159 9A000000 		.4byte	.LVL37
 8924 015d A4000000 		.4byte	.LVL38
 8925 0161 0700     		.2byte	0x7
 8926 0163 70       		.byte	0x70
 8927 0164 00       		.sleb128 0
 8928 0165 48       		.byte	0x48
 8929 0166 24       		.byte	0x24
 8930 0167 30       		.byte	0x30
 8931 0168 2E       		.byte	0x2e
 8932 0169 9F       		.byte	0x9f
 8933 016a A6000000 		.4byte	.LVL39
 8934 016e A8000000 		.4byte	.LVL40
 8935 0172 0700     		.2byte	0x7
 8936 0174 70       		.byte	0x70
 8937 0175 00       		.sleb128 0
 8938 0176 48       		.byte	0x48
 8939 0177 24       		.byte	0x24
 8940 0178 30       		.byte	0x30
 8941 0179 2E       		.byte	0x2e
 8942 017a 9F       		.byte	0x9f
 8943 017b 00000000 		.4byte	0
 8944 017f 00000000 		.4byte	0
 8945              	.LLST10:
 8946 0183 00000000 		.4byte	.LVL42
 8947 0187 0E000000 		.4byte	.LVL43
ARM GAS  C:\Users\HENRIC~1\AppData\Local\Temp\ccRPnI9G.s 			page 190


 8948 018b 0100     		.2byte	0x1
 8949 018d 50       		.byte	0x50
 8950 018e 0E000000 		.4byte	.LVL43
 8951 0192 60010000 		.4byte	.LFE72
 8952 0196 0400     		.2byte	0x4
 8953 0198 F3       		.byte	0xf3
 8954 0199 01       		.uleb128 0x1
 8955 019a 50       		.byte	0x50
 8956 019b 9F       		.byte	0x9f
 8957 019c 00000000 		.4byte	0
 8958 01a0 00000000 		.4byte	0
 8959              	.LLST11:
 8960 01a4 46010000 		.4byte	.LVL83
 8961 01a8 4A010000 		.4byte	.LVL84
 8962 01ac 0700     		.2byte	0x7
 8963 01ae 70       		.byte	0x70
 8964 01af 00       		.sleb128 0
 8965 01b0 48       		.byte	0x48
 8966 01b1 24       		.byte	0x24
 8967 01b2 30       		.byte	0x30
 8968 01b3 2E       		.byte	0x2e
 8969 01b4 9F       		.byte	0x9f
 8970 01b5 4C010000 		.4byte	.LVL85
 8971 01b9 4E010000 		.4byte	.LVL86
 8972 01bd 0700     		.2byte	0x7
 8973 01bf 70       		.byte	0x70
 8974 01c0 00       		.sleb128 0
 8975 01c1 48       		.byte	0x48
 8976 01c2 24       		.byte	0x24
 8977 01c3 30       		.byte	0x30
 8978 01c4 2E       		.byte	0x2e
 8979 01c5 9F       		.byte	0x9f
 8980 01c6 00000000 		.4byte	0
 8981 01ca 00000000 		.4byte	0
 8982              	.LLST12:
 8983 01ce 56000000 		.4byte	.LVL52
 8984 01d2 02010000 		.4byte	.LVL73
 8985 01d6 0100     		.2byte	0x1
 8986 01d8 54       		.byte	0x54
 8987 01d9 00000000 		.4byte	0
 8988 01dd 00000000 		.4byte	0
 8989              	.LLST13:
 8990 01e1 A0000000 		.4byte	.LVL59
 8991 01e5 A6000000 		.4byte	.LVL60
 8992 01e9 0200     		.2byte	0x2
 8993 01eb 30       		.byte	0x30
 8994 01ec 9F       		.byte	0x9f
 8995 01ed A6000000 		.4byte	.LVL60
 8996 01f1 C0000000 		.4byte	.LVL65
 8997 01f5 0100     		.2byte	0x1
 8998 01f7 50       		.byte	0x50
 8999 01f8 C4000000 		.4byte	.LVL66
 9000 01fc C8000000 		.4byte	.LVL67
 9001 0200 0200     		.2byte	0x2
 9002 0202 31       		.byte	0x31
 9003 0203 9F       		.byte	0x9f
 9004 0204 C8000000 		.4byte	.LVL67
ARM GAS  C:\Users\HENRIC~1\AppData\Local\Temp\ccRPnI9G.s 			page 191


 9005 0208 FC000000 		.4byte	.LVL71
 9006 020c 0100     		.2byte	0x1
 9007 020e 50       		.byte	0x50
 9008 020f FC000000 		.4byte	.LVL71
 9009 0213 FE000000 		.4byte	.LVL72
 9010 0217 0200     		.2byte	0x2
 9011 0219 31       		.byte	0x31
 9012 021a 9F       		.byte	0x9f
 9013 021b FE000000 		.4byte	.LVL72
 9014 021f 0A010000 		.4byte	.LVL74
 9015 0223 0100     		.2byte	0x1
 9016 0225 50       		.byte	0x50
 9017 0226 00000000 		.4byte	0
 9018 022a 00000000 		.4byte	0
 9019              	.LLST14:
 9020 022e A0000000 		.4byte	.LVL59
 9021 0232 A6000000 		.4byte	.LVL60
 9022 0236 0200     		.2byte	0x2
 9023 0238 30       		.byte	0x30
 9024 0239 9F       		.byte	0x9f
 9025 023a A6000000 		.4byte	.LVL60
 9026 023e B0000000 		.4byte	.LVL62
 9027 0242 0100     		.2byte	0x1
 9028 0244 52       		.byte	0x52
 9029 0245 B2000000 		.4byte	.LVL63
 9030 0249 F6000000 		.4byte	.LVL70
 9031 024d 0100     		.2byte	0x1
 9032 024f 52       		.byte	0x52
 9033 0250 00000000 		.4byte	0
 9034 0254 00000000 		.4byte	0
 9035              	.LLST15:
 9036 0258 AE000000 		.4byte	.LVL61
 9037 025c BC000000 		.4byte	.LVL64
 9038 0260 0100     		.2byte	0x1
 9039 0262 51       		.byte	0x51
 9040 0263 C8000000 		.4byte	.LVL67
 9041 0267 D0000000 		.4byte	.LVL68
 9042 026b 0100     		.2byte	0x1
 9043 026d 51       		.byte	0x51
 9044 026e 00000000 		.4byte	0
 9045 0272 00000000 		.4byte	0
 9046              	.LLST16:
 9047 0276 00000000 		.4byte	.LVL87
 9048 027a 08000000 		.4byte	.LVL88
 9049 027e 0100     		.2byte	0x1
 9050 0280 50       		.byte	0x50
 9051 0281 08000000 		.4byte	.LVL88
 9052 0285 9C000000 		.4byte	.LFE73
 9053 0289 0400     		.2byte	0x4
 9054 028b F3       		.byte	0xf3
 9055 028c 01       		.uleb128 0x1
 9056 028d 50       		.byte	0x50
 9057 028e 9F       		.byte	0x9f
 9058 028f 00000000 		.4byte	0
 9059 0293 00000000 		.4byte	0
 9060              	.LLST17:
 9061 0297 14000000 		.4byte	.LVL90
ARM GAS  C:\Users\HENRIC~1\AppData\Local\Temp\ccRPnI9G.s 			page 192


 9062 029b 8A000000 		.4byte	.LVL105
 9063 029f 0100     		.2byte	0x1
 9064 02a1 54       		.byte	0x54
 9065 02a2 00000000 		.4byte	0
 9066 02a6 00000000 		.4byte	0
 9067              	.LLST18:
 9068 02aa 7E000000 		.4byte	.LVL101
 9069 02ae 82000000 		.4byte	.LVL102
 9070 02b2 0700     		.2byte	0x7
 9071 02b4 70       		.byte	0x70
 9072 02b5 00       		.sleb128 0
 9073 02b6 48       		.byte	0x48
 9074 02b7 24       		.byte	0x24
 9075 02b8 30       		.byte	0x30
 9076 02b9 2E       		.byte	0x2e
 9077 02ba 9F       		.byte	0x9f
 9078 02bb 84000000 		.4byte	.LVL103
 9079 02bf 86000000 		.4byte	.LVL104
 9080 02c3 0700     		.2byte	0x7
 9081 02c5 70       		.byte	0x70
 9082 02c6 00       		.sleb128 0
 9083 02c7 48       		.byte	0x48
 9084 02c8 24       		.byte	0x24
 9085 02c9 30       		.byte	0x30
 9086 02ca 2E       		.byte	0x2e
 9087 02cb 9F       		.byte	0x9f
 9088 02cc 00000000 		.4byte	0
 9089 02d0 00000000 		.4byte	0
 9090              	.LLST19:
 9091 02d4 00000000 		.4byte	.LVL106
 9092 02d8 08000000 		.4byte	.LVL107
 9093 02dc 0100     		.2byte	0x1
 9094 02de 50       		.byte	0x50
 9095 02df 08000000 		.4byte	.LVL107
 9096 02e3 A0000000 		.4byte	.LFE74
 9097 02e7 0400     		.2byte	0x4
 9098 02e9 F3       		.byte	0xf3
 9099 02ea 01       		.uleb128 0x1
 9100 02eb 50       		.byte	0x50
 9101 02ec 9F       		.byte	0x9f
 9102 02ed 00000000 		.4byte	0
 9103 02f1 00000000 		.4byte	0
 9104              	.LLST20:
 9105 02f5 14000000 		.4byte	.LVL109
 9106 02f9 8C000000 		.4byte	.LVL124
 9107 02fd 0100     		.2byte	0x1
 9108 02ff 54       		.byte	0x54
 9109 0300 00000000 		.4byte	0
 9110 0304 00000000 		.4byte	0
 9111              	.LLST21:
 9112 0308 80000000 		.4byte	.LVL120
 9113 030c 84000000 		.4byte	.LVL121
 9114 0310 0700     		.2byte	0x7
 9115 0312 70       		.byte	0x70
 9116 0313 00       		.sleb128 0
 9117 0314 48       		.byte	0x48
 9118 0315 24       		.byte	0x24
ARM GAS  C:\Users\HENRIC~1\AppData\Local\Temp\ccRPnI9G.s 			page 193


 9119 0316 30       		.byte	0x30
 9120 0317 2E       		.byte	0x2e
 9121 0318 9F       		.byte	0x9f
 9122 0319 86000000 		.4byte	.LVL122
 9123 031d 88000000 		.4byte	.LVL123
 9124 0321 0700     		.2byte	0x7
 9125 0323 70       		.byte	0x70
 9126 0324 00       		.sleb128 0
 9127 0325 48       		.byte	0x48
 9128 0326 24       		.byte	0x24
 9129 0327 30       		.byte	0x30
 9130 0328 2E       		.byte	0x2e
 9131 0329 9F       		.byte	0x9f
 9132 032a 00000000 		.4byte	0
 9133 032e 00000000 		.4byte	0
 9134              	.LLST22:
 9135 0332 00000000 		.4byte	.LVL125
 9136 0336 08000000 		.4byte	.LVL126
 9137 033a 0100     		.2byte	0x1
 9138 033c 50       		.byte	0x50
 9139 033d 08000000 		.4byte	.LVL126
 9140 0341 A0000000 		.4byte	.LFE75
 9141 0345 0400     		.2byte	0x4
 9142 0347 F3       		.byte	0xf3
 9143 0348 01       		.uleb128 0x1
 9144 0349 50       		.byte	0x50
 9145 034a 9F       		.byte	0x9f
 9146 034b 00000000 		.4byte	0
 9147 034f 00000000 		.4byte	0
 9148              	.LLST23:
 9149 0353 14000000 		.4byte	.LVL128
 9150 0357 8C000000 		.4byte	.LVL143
 9151 035b 0100     		.2byte	0x1
 9152 035d 54       		.byte	0x54
 9153 035e 00000000 		.4byte	0
 9154 0362 00000000 		.4byte	0
 9155              	.LLST24:
 9156 0366 80000000 		.4byte	.LVL139
 9157 036a 84000000 		.4byte	.LVL140
 9158 036e 0700     		.2byte	0x7
 9159 0370 70       		.byte	0x70
 9160 0371 00       		.sleb128 0
 9161 0372 48       		.byte	0x48
 9162 0373 24       		.byte	0x24
 9163 0374 30       		.byte	0x30
 9164 0375 2E       		.byte	0x2e
 9165 0376 9F       		.byte	0x9f
 9166 0377 86000000 		.4byte	.LVL141
 9167 037b 88000000 		.4byte	.LVL142
 9168 037f 0700     		.2byte	0x7
 9169 0381 70       		.byte	0x70
 9170 0382 00       		.sleb128 0
 9171 0383 48       		.byte	0x48
 9172 0384 24       		.byte	0x24
 9173 0385 30       		.byte	0x30
 9174 0386 2E       		.byte	0x2e
 9175 0387 9F       		.byte	0x9f
ARM GAS  C:\Users\HENRIC~1\AppData\Local\Temp\ccRPnI9G.s 			page 194


 9176 0388 00000000 		.4byte	0
 9177 038c 00000000 		.4byte	0
 9178              	.LLST25:
 9179 0390 00000000 		.4byte	.LVL144
 9180 0394 08000000 		.4byte	.LVL145
 9181 0398 0100     		.2byte	0x1
 9182 039a 50       		.byte	0x50
 9183 039b 08000000 		.4byte	.LVL145
 9184 039f A0000000 		.4byte	.LFE76
 9185 03a3 0400     		.2byte	0x4
 9186 03a5 F3       		.byte	0xf3
 9187 03a6 01       		.uleb128 0x1
 9188 03a7 50       		.byte	0x50
 9189 03a8 9F       		.byte	0x9f
 9190 03a9 00000000 		.4byte	0
 9191 03ad 00000000 		.4byte	0
 9192              	.LLST26:
 9193 03b1 14000000 		.4byte	.LVL147
 9194 03b5 8C000000 		.4byte	.LVL162
 9195 03b9 0100     		.2byte	0x1
 9196 03bb 54       		.byte	0x54
 9197 03bc 00000000 		.4byte	0
 9198 03c0 00000000 		.4byte	0
 9199              	.LLST27:
 9200 03c4 80000000 		.4byte	.LVL158
 9201 03c8 84000000 		.4byte	.LVL159
 9202 03cc 0700     		.2byte	0x7
 9203 03ce 70       		.byte	0x70
 9204 03cf 00       		.sleb128 0
 9205 03d0 48       		.byte	0x48
 9206 03d1 24       		.byte	0x24
 9207 03d2 30       		.byte	0x30
 9208 03d3 2E       		.byte	0x2e
 9209 03d4 9F       		.byte	0x9f
 9210 03d5 86000000 		.4byte	.LVL160
 9211 03d9 88000000 		.4byte	.LVL161
 9212 03dd 0700     		.2byte	0x7
 9213 03df 70       		.byte	0x70
 9214 03e0 00       		.sleb128 0
 9215 03e1 48       		.byte	0x48
 9216 03e2 24       		.byte	0x24
 9217 03e3 30       		.byte	0x30
 9218 03e4 2E       		.byte	0x2e
 9219 03e5 9F       		.byte	0x9f
 9220 03e6 00000000 		.4byte	0
 9221 03ea 00000000 		.4byte	0
 9222              	.LLST28:
 9223 03ee 1C000000 		.4byte	.LVL169
 9224 03f2 3C000000 		.4byte	.LVL175
 9225 03f6 0100     		.2byte	0x1
 9226 03f8 50       		.byte	0x50
 9227 03f9 00000000 		.4byte	0
 9228 03fd 00000000 		.4byte	0
 9229              	.LLST29:
 9230 0401 16000000 		.4byte	.LVL167
 9231 0405 18000000 		.4byte	.LVL168
 9232 0409 0200     		.2byte	0x2
ARM GAS  C:\Users\HENRIC~1\AppData\Local\Temp\ccRPnI9G.s 			page 195


 9233 040b 30       		.byte	0x30
 9234 040c 9F       		.byte	0x9f
 9235 040d 2C000000 		.4byte	.LVL170
 9236 0411 30000000 		.4byte	.LVL171
 9237 0415 0600     		.2byte	0x6
 9238 0417 03       		.byte	0x3
 9239 0418 80000000 		.4byte	.LC16
 9240 041c 9F       		.byte	0x9f
 9241 041d 30000000 		.4byte	.LVL171
 9242 0421 34000000 		.4byte	.LVL172
 9243 0425 0600     		.2byte	0x6
 9244 0427 03       		.byte	0x3
 9245 0428 88000000 		.4byte	.LC17
 9246 042c 9F       		.byte	0x9f
 9247 042d 34000000 		.4byte	.LVL172
 9248 0431 38000000 		.4byte	.LVL173
 9249 0435 0600     		.2byte	0x6
 9250 0437 03       		.byte	0x3
 9251 0438 94000000 		.4byte	.LC18
 9252 043c 9F       		.byte	0x9f
 9253 043d 3A000000 		.4byte	.LVL174
 9254 0441 80000000 		.4byte	.LFE65
 9255 0445 0100     		.2byte	0x1
 9256 0447 55       		.byte	0x55
 9257 0448 00000000 		.4byte	0
 9258 044c 00000000 		.4byte	0
 9259              	.LLST30:
 9260 0450 16000000 		.4byte	.LVL167
 9261 0454 18000000 		.4byte	.LVL168
 9262 0458 0200     		.2byte	0x2
 9263 045a 30       		.byte	0x30
 9264 045b 9F       		.byte	0x9f
 9265 045c 18000000 		.4byte	.LVL168
 9266 0460 80000000 		.4byte	.LFE65
 9267 0464 0100     		.2byte	0x1
 9268 0466 54       		.byte	0x54
 9269 0467 00000000 		.4byte	0
 9270 046b 00000000 		.4byte	0
 9271              	.LLST31:
 9272 046f 3C000000 		.4byte	.LVL188
 9273 0473 40000000 		.4byte	.LVL189
 9274 0477 0200     		.2byte	0x2
 9275 0479 31       		.byte	0x31
 9276 047a 9F       		.byte	0x9f
 9277 047b 40000000 		.4byte	.LVL189
 9278 047f 96000000 		.4byte	.LVL207
 9279 0483 0100     		.2byte	0x1
 9280 0485 54       		.byte	0x54
 9281 0486 96000000 		.4byte	.LVL207
 9282 048a B4000000 		.4byte	.LFE66
 9283 048e 0100     		.2byte	0x1
 9284 0490 50       		.byte	0x50
 9285 0491 00000000 		.4byte	0
 9286 0495 00000000 		.4byte	0
 9287              	.LLST32:
 9288 0499 3C000000 		.4byte	.LVL188
 9289 049d 40000000 		.4byte	.LVL189
ARM GAS  C:\Users\HENRIC~1\AppData\Local\Temp\ccRPnI9G.s 			page 196


 9290 04a1 0200     		.2byte	0x2
 9291 04a3 30       		.byte	0x30
 9292 04a4 9F       		.byte	0x9f
 9293 04a5 64000000 		.4byte	.LVL193
 9294 04a9 66000000 		.4byte	.LVL194
 9295 04ad 0100     		.2byte	0x1
 9296 04af 50       		.byte	0x50
 9297 04b0 6C000000 		.4byte	.LVL195
 9298 04b4 6E000000 		.4byte	.LVL196
 9299 04b8 0100     		.2byte	0x1
 9300 04ba 50       		.byte	0x50
 9301 04bb 74000000 		.4byte	.LVL197
 9302 04bf 76000000 		.4byte	.LVL198
 9303 04c3 0100     		.2byte	0x1
 9304 04c5 50       		.byte	0x50
 9305 04c6 7C000000 		.4byte	.LVL199
 9306 04ca 7E000000 		.4byte	.LVL200
 9307 04ce 0100     		.2byte	0x1
 9308 04d0 50       		.byte	0x50
 9309 04d1 84000000 		.4byte	.LVL201
 9310 04d5 86000000 		.4byte	.LVL202
 9311 04d9 0100     		.2byte	0x1
 9312 04db 50       		.byte	0x50
 9313 04dc 8C000000 		.4byte	.LVL203
 9314 04e0 8E000000 		.4byte	.LVL204
 9315 04e4 0100     		.2byte	0x1
 9316 04e6 50       		.byte	0x50
 9317 04e7 90000000 		.4byte	.LVL205
 9318 04eb B4000000 		.4byte	.LFE66
 9319 04ef 0100     		.2byte	0x1
 9320 04f1 50       		.byte	0x50
 9321 04f2 00000000 		.4byte	0
 9322 04f6 00000000 		.4byte	0
 9323              	.LLST33:
 9324 04fa 3C000000 		.4byte	.LVL188
 9325 04fe 40000000 		.4byte	.LVL189
 9326 0502 0200     		.2byte	0x2
 9327 0504 31       		.byte	0x31
 9328 0505 9F       		.byte	0x9f
 9329 0506 40000000 		.4byte	.LVL189
 9330 050a 92000000 		.4byte	.LVL206
 9331 050e 0100     		.2byte	0x1
 9332 0510 55       		.byte	0x55
 9333 0511 96000000 		.4byte	.LVL207
 9334 0515 B4000000 		.4byte	.LFE66
 9335 0519 0100     		.2byte	0x1
 9336 051b 55       		.byte	0x55
 9337 051c 00000000 		.4byte	0
 9338 0520 00000000 		.4byte	0
 9339              	.LLST34:
 9340 0524 62000000 		.4byte	.LVL220
 9341 0528 0E010000 		.4byte	.LVL240
 9342 052c 0100     		.2byte	0x1
 9343 052e 54       		.byte	0x54
 9344 052f 00000000 		.4byte	0
 9345 0533 00000000 		.4byte	0
 9346              	.LLST35:
ARM GAS  C:\Users\HENRIC~1\AppData\Local\Temp\ccRPnI9G.s 			page 197


 9347 0537 AC000000 		.4byte	.LVL227
 9348 053b B0000000 		.4byte	.LVL228
 9349 053f 0200     		.2byte	0x2
 9350 0541 30       		.byte	0x30
 9351 0542 9F       		.byte	0x9f
 9352 0543 B0000000 		.4byte	.LVL228
 9353 0547 CE000000 		.4byte	.LVL233
 9354 054b 0100     		.2byte	0x1
 9355 054d 55       		.byte	0x55
 9356 054e CE000000 		.4byte	.LVL233
 9357 0552 D2000000 		.4byte	.LVL234
 9358 0556 0200     		.2byte	0x2
 9359 0558 31       		.byte	0x31
 9360 0559 9F       		.byte	0x9f
 9361 055a D2000000 		.4byte	.LVL234
 9362 055e 06010000 		.4byte	.LVL238
 9363 0562 0100     		.2byte	0x1
 9364 0564 55       		.byte	0x55
 9365 0565 06010000 		.4byte	.LVL238
 9366 0569 08010000 		.4byte	.LVL239
 9367 056d 0200     		.2byte	0x2
 9368 056f 31       		.byte	0x31
 9369 0570 9F       		.byte	0x9f
 9370 0571 08010000 		.4byte	.LVL239
 9371 0575 60010000 		.4byte	.LFE67
 9372 0579 0100     		.2byte	0x1
 9373 057b 55       		.byte	0x55
 9374 057c 00000000 		.4byte	0
 9375 0580 00000000 		.4byte	0
 9376              	.LLST36:
 9377 0584 AC000000 		.4byte	.LVL227
 9378 0588 B0000000 		.4byte	.LVL228
 9379 058c 0200     		.2byte	0x2
 9380 058e 30       		.byte	0x30
 9381 058f 9F       		.byte	0x9f
 9382 0590 B0000000 		.4byte	.LVL228
 9383 0594 BA000000 		.4byte	.LVL230
 9384 0598 0100     		.2byte	0x1
 9385 059a 53       		.byte	0x53
 9386 059b BC000000 		.4byte	.LVL231
 9387 059f F6000000 		.4byte	.LVL237
 9388 05a3 0100     		.2byte	0x1
 9389 05a5 53       		.byte	0x53
 9390 05a6 00000000 		.4byte	0
 9391 05aa 00000000 		.4byte	0
 9392              	.LLST37:
 9393 05ae B8000000 		.4byte	.LVL229
 9394 05b2 C6000000 		.4byte	.LVL232
 9395 05b6 0100     		.2byte	0x1
 9396 05b8 51       		.byte	0x51
 9397 05b9 D2000000 		.4byte	.LVL234
 9398 05bd DA000000 		.4byte	.LVL235
 9399 05c1 0100     		.2byte	0x1
 9400 05c3 51       		.byte	0x51
 9401 05c4 00000000 		.4byte	0
 9402 05c8 00000000 		.4byte	0
 9403              	.LLST38:
ARM GAS  C:\Users\HENRIC~1\AppData\Local\Temp\ccRPnI9G.s 			page 198


 9404 05cc 50000000 		.4byte	.LVL259
 9405 05d0 C0000000 		.4byte	.LVL274
 9406 05d4 0100     		.2byte	0x1
 9407 05d6 54       		.byte	0x54
 9408 05d7 00000000 		.4byte	0
 9409 05db 00000000 		.4byte	0
 9410              	.LLST39:
 9411 05df 5E000000 		.4byte	.LVL261
 9412 05e3 64000000 		.4byte	.LVL262
 9413 05e7 0200     		.2byte	0x2
 9414 05e9 30       		.byte	0x30
 9415 05ea 9F       		.byte	0x9f
 9416 05eb 64000000 		.4byte	.LVL262
 9417 05ef 82000000 		.4byte	.LVL267
 9418 05f3 0100     		.2byte	0x1
 9419 05f5 55       		.byte	0x55
 9420 05f6 82000000 		.4byte	.LVL267
 9421 05fa 86000000 		.4byte	.LVL268
 9422 05fe 0200     		.2byte	0x2
 9423 0600 31       		.byte	0x31
 9424 0601 9F       		.byte	0x9f
 9425 0602 86000000 		.4byte	.LVL268
 9426 0606 BA000000 		.4byte	.LVL272
 9427 060a 0100     		.2byte	0x1
 9428 060c 55       		.byte	0x55
 9429 060d BA000000 		.4byte	.LVL272
 9430 0611 BC000000 		.4byte	.LVL273
 9431 0615 0200     		.2byte	0x2
 9432 0617 31       		.byte	0x31
 9433 0618 9F       		.byte	0x9f
 9434 0619 BC000000 		.4byte	.LVL273
 9435 061d E0000000 		.4byte	.LVL278
 9436 0621 0100     		.2byte	0x1
 9437 0623 55       		.byte	0x55
 9438 0624 00000000 		.4byte	0
 9439 0628 00000000 		.4byte	0
 9440              	.LLST40:
 9441 062c 5E000000 		.4byte	.LVL261
 9442 0630 64000000 		.4byte	.LVL262
 9443 0634 0200     		.2byte	0x2
 9444 0636 30       		.byte	0x30
 9445 0637 9F       		.byte	0x9f
 9446 0638 64000000 		.4byte	.LVL262
 9447 063c 6E000000 		.4byte	.LVL264
 9448 0640 0100     		.2byte	0x1
 9449 0642 53       		.byte	0x53
 9450 0643 70000000 		.4byte	.LVL265
 9451 0647 AA000000 		.4byte	.LVL271
 9452 064b 0100     		.2byte	0x1
 9453 064d 53       		.byte	0x53
 9454 064e 00000000 		.4byte	0
 9455 0652 00000000 		.4byte	0
 9456              	.LLST41:
 9457 0656 6C000000 		.4byte	.LVL263
 9458 065a 7A000000 		.4byte	.LVL266
 9459 065e 0100     		.2byte	0x1
 9460 0660 51       		.byte	0x51
ARM GAS  C:\Users\HENRIC~1\AppData\Local\Temp\ccRPnI9G.s 			page 199


 9461 0661 86000000 		.4byte	.LVL268
 9462 0665 8E000000 		.4byte	.LVL269
 9463 0669 0100     		.2byte	0x1
 9464 066b 51       		.byte	0x51
 9465 066c 00000000 		.4byte	0
 9466 0670 00000000 		.4byte	0
 9467              	.LLST42:
 9468 0674 F0000000 		.4byte	.LVL281
 9469 0678 42010000 		.4byte	.LVL291
 9470 067c 0100     		.2byte	0x1
 9471 067e 55       		.byte	0x55
 9472 067f 00000000 		.4byte	0
 9473 0683 00000000 		.4byte	0
 9474              	.LLST43:
 9475 0687 20010000 		.4byte	.LVL287
 9476 068b 2E010000 		.4byte	.LVL289
 9477 068f 0100     		.2byte	0x1
 9478 0691 54       		.byte	0x54
 9479 0692 2E010000 		.4byte	.LVL289
 9480 0696 42010000 		.4byte	.LVL291
 9481 069a 1500     		.2byte	0x15
 9482 069c 40       		.byte	0x40
 9483 069d 75       		.byte	0x75
 9484 069e 00       		.sleb128 0
 9485 069f 75       		.byte	0x75
 9486 06a0 00       		.sleb128 0
 9487 06a1 40       		.byte	0x40
 9488 06a2 4B       		.byte	0x4b
 9489 06a3 24       		.byte	0x24
 9490 06a4 22       		.byte	0x22
 9491 06a5 0C       		.byte	0xc
 9492 06a6 10000080 		.4byte	0x80000010
 9493 06aa 2A       		.byte	0x2a
 9494 06ab 28       		.byte	0x28
 9495 06ac 0100     		.2byte	0x1
 9496 06ae 16       		.byte	0x16
 9497 06af 13       		.byte	0x13
 9498 06b0 9F       		.byte	0x9f
 9499 06b1 00000000 		.4byte	0
 9500 06b5 00000000 		.4byte	0
 9501              	.LLST44:
 9502 06b9 2E000000 		.4byte	.LVL301
 9503 06bd 38000000 		.4byte	.LVL302
 9504 06c1 0200     		.2byte	0x2
 9505 06c3 30       		.byte	0x30
 9506 06c4 9F       		.byte	0x9f
 9507 06c5 38000000 		.4byte	.LVL302
 9508 06c9 58000000 		.4byte	.LVL309
 9509 06cd 0100     		.2byte	0x1
 9510 06cf 54       		.byte	0x54
 9511 06d0 68000000 		.4byte	.LVL310
 9512 06d4 74030000 		.4byte	.LVL391
 9513 06d8 0100     		.2byte	0x1
 9514 06da 54       		.byte	0x54
 9515 06db 76030000 		.4byte	.LVL392
 9516 06df 80030000 		.4byte	.LFE69
 9517 06e3 0100     		.2byte	0x1
ARM GAS  C:\Users\HENRIC~1\AppData\Local\Temp\ccRPnI9G.s 			page 200


 9518 06e5 54       		.byte	0x54
 9519 06e6 00000000 		.4byte	0
 9520 06ea 00000000 		.4byte	0
 9521              	.LLST45:
 9522 06ee 2E000000 		.4byte	.LVL301
 9523 06f2 38000000 		.4byte	.LVL302
 9524 06f6 0200     		.2byte	0x2
 9525 06f8 30       		.byte	0x30
 9526 06f9 9F       		.byte	0x9f
 9527 06fa 38000000 		.4byte	.LVL302
 9528 06fe 54000000 		.4byte	.LVL308
 9529 0702 0100     		.2byte	0x1
 9530 0704 56       		.byte	0x56
 9531 0705 54000000 		.4byte	.LVL308
 9532 0709 74000000 		.4byte	.LVL311
 9533 070d 0200     		.2byte	0x2
 9534 070f 31       		.byte	0x31
 9535 0710 9F       		.byte	0x9f
 9536 0711 74000000 		.4byte	.LVL311
 9537 0715 80030000 		.4byte	.LFE69
 9538 0719 0100     		.2byte	0x1
 9539 071b 56       		.byte	0x56
 9540 071c 00000000 		.4byte	0
 9541 0720 00000000 		.4byte	0
 9542              	.LLST46:
 9543 0724 2E000000 		.4byte	.LVL301
 9544 0728 38000000 		.4byte	.LVL302
 9545 072c 0200     		.2byte	0x2
 9546 072e 30       		.byte	0x30
 9547 072f 9F       		.byte	0x9f
 9548 0730 38000000 		.4byte	.LVL302
 9549 0734 68000000 		.4byte	.LVL310
 9550 0738 0100     		.2byte	0x1
 9551 073a 58       		.byte	0x58
 9552 073b 68000000 		.4byte	.LVL310
 9553 073f 74000000 		.4byte	.LVL311
 9554 0743 0200     		.2byte	0x2
 9555 0745 30       		.byte	0x30
 9556 0746 9F       		.byte	0x9f
 9557 0747 74000000 		.4byte	.LVL311
 9558 074b C6000000 		.4byte	.LVL320
 9559 074f 0100     		.2byte	0x1
 9560 0751 58       		.byte	0x58
 9561 0752 C6000000 		.4byte	.LVL320
 9562 0756 EA000000 		.4byte	.LVL322
 9563 075a 0200     		.2byte	0x2
 9564 075c 31       		.byte	0x31
 9565 075d 9F       		.byte	0x9f
 9566 075e EA000000 		.4byte	.LVL322
 9567 0762 F8000000 		.4byte	.LVL324
 9568 0766 0100     		.2byte	0x1
 9569 0768 58       		.byte	0x58
 9570 0769 F8000000 		.4byte	.LVL324
 9571 076d 30010000 		.4byte	.LVL330
 9572 0771 0200     		.2byte	0x2
 9573 0773 32       		.byte	0x32
 9574 0774 9F       		.byte	0x9f
ARM GAS  C:\Users\HENRIC~1\AppData\Local\Temp\ccRPnI9G.s 			page 201


 9575 0775 30010000 		.4byte	.LVL330
 9576 0779 40010000 		.4byte	.LVL332
 9577 077d 0100     		.2byte	0x1
 9578 077f 58       		.byte	0x58
 9579 0780 40010000 		.4byte	.LVL332
 9580 0784 72010000 		.4byte	.LVL334
 9581 0788 0200     		.2byte	0x2
 9582 078a 33       		.byte	0x33
 9583 078b 9F       		.byte	0x9f
 9584 078c 72010000 		.4byte	.LVL334
 9585 0790 82010000 		.4byte	.LVL336
 9586 0794 0100     		.2byte	0x1
 9587 0796 58       		.byte	0x58
 9588 0797 82010000 		.4byte	.LVL336
 9589 079b B8010000 		.4byte	.LVL341
 9590 079f 0200     		.2byte	0x2
 9591 07a1 30       		.byte	0x30
 9592 07a2 9F       		.byte	0x9f
 9593 07a3 B8010000 		.4byte	.LVL341
 9594 07a7 80030000 		.4byte	.LFE69
 9595 07ab 0100     		.2byte	0x1
 9596 07ad 58       		.byte	0x58
 9597 07ae 00000000 		.4byte	0
 9598 07b2 00000000 		.4byte	0
 9599              	.LLST47:
 9600 07b6 2E000000 		.4byte	.LVL301
 9601 07ba 38000000 		.4byte	.LVL302
 9602 07be 0200     		.2byte	0x2
 9603 07c0 30       		.byte	0x30
 9604 07c1 9F       		.byte	0x9f
 9605 07c2 38000000 		.4byte	.LVL302
 9606 07c6 68000000 		.4byte	.LVL310
 9607 07ca 0100     		.2byte	0x1
 9608 07cc 59       		.byte	0x59
 9609 07cd 68000000 		.4byte	.LVL310
 9610 07d1 74000000 		.4byte	.LVL311
 9611 07d5 0200     		.2byte	0x2
 9612 07d7 30       		.byte	0x30
 9613 07d8 9F       		.byte	0x9f
 9614 07d9 74000000 		.4byte	.LVL311
 9615 07dd 90000000 		.4byte	.LVL314
 9616 07e1 0100     		.2byte	0x1
 9617 07e3 59       		.byte	0x59
 9618 07e4 90000000 		.4byte	.LVL314
 9619 07e8 A8000000 		.4byte	.LVL318
 9620 07ec 0200     		.2byte	0x2
 9621 07ee 31       		.byte	0x31
 9622 07ef 9F       		.byte	0x9f
 9623 07f0 A8000000 		.4byte	.LVL318
 9624 07f4 80030000 		.4byte	.LFE69
 9625 07f8 0100     		.2byte	0x1
 9626 07fa 59       		.byte	0x59
 9627 07fb 00000000 		.4byte	0
 9628 07ff 00000000 		.4byte	0
 9629              	.LLST48:
 9630 0803 2E000000 		.4byte	.LVL301
 9631 0807 38000000 		.4byte	.LVL302
ARM GAS  C:\Users\HENRIC~1\AppData\Local\Temp\ccRPnI9G.s 			page 202


 9632 080b 0200     		.2byte	0x2
 9633 080d 30       		.byte	0x30
 9634 080e 9F       		.byte	0x9f
 9635 080f 38000000 		.4byte	.LVL302
 9636 0813 68000000 		.4byte	.LVL310
 9637 0817 0100     		.2byte	0x1
 9638 0819 5A       		.byte	0x5a
 9639 081a 68000000 		.4byte	.LVL310
 9640 081e 74000000 		.4byte	.LVL311
 9641 0822 0200     		.2byte	0x2
 9642 0824 30       		.byte	0x30
 9643 0825 9F       		.byte	0x9f
 9644 0826 74000000 		.4byte	.LVL311
 9645 082a BE010000 		.4byte	.LVL342
 9646 082e 0100     		.2byte	0x1
 9647 0830 5A       		.byte	0x5a
 9648 0831 BE010000 		.4byte	.LVL342
 9649 0835 D6010000 		.4byte	.LVL346
 9650 0839 0200     		.2byte	0x2
 9651 083b 31       		.byte	0x31
 9652 083c 9F       		.byte	0x9f
 9653 083d D6010000 		.4byte	.LVL346
 9654 0841 80030000 		.4byte	.LFE69
 9655 0845 0100     		.2byte	0x1
 9656 0847 5A       		.byte	0x5a
 9657 0848 00000000 		.4byte	0
 9658 084c 00000000 		.4byte	0
 9659              	.LLST49:
 9660 0850 2E000000 		.4byte	.LVL301
 9661 0854 38000000 		.4byte	.LVL302
 9662 0858 0200     		.2byte	0x2
 9663 085a 30       		.byte	0x30
 9664 085b 9F       		.byte	0x9f
 9665 085c 38000000 		.4byte	.LVL302
 9666 0860 68000000 		.4byte	.LVL310
 9667 0864 0100     		.2byte	0x1
 9668 0866 55       		.byte	0x55
 9669 0867 68000000 		.4byte	.LVL310
 9670 086b 74000000 		.4byte	.LVL311
 9671 086f 0200     		.2byte	0x2
 9672 0871 30       		.byte	0x30
 9673 0872 9F       		.byte	0x9f
 9674 0873 74000000 		.4byte	.LVL311
 9675 0877 22020000 		.4byte	.LVL356
 9676 087b 0100     		.2byte	0x1
 9677 087d 55       		.byte	0x55
 9678 087e 22020000 		.4byte	.LVL356
 9679 0882 38020000 		.4byte	.LVL360
 9680 0886 0200     		.2byte	0x2
 9681 0888 31       		.byte	0x31
 9682 0889 9F       		.byte	0x9f
 9683 088a 38020000 		.4byte	.LVL360
 9684 088e 80030000 		.4byte	.LFE69
 9685 0892 0100     		.2byte	0x1
 9686 0894 55       		.byte	0x55
 9687 0895 00000000 		.4byte	0
 9688 0899 00000000 		.4byte	0
ARM GAS  C:\Users\HENRIC~1\AppData\Local\Temp\ccRPnI9G.s 			page 203


 9689              	.LLST50:
 9690 089d 0A010000 		.4byte	.LVL325
 9691 08a1 0E010000 		.4byte	.LVL326
 9692 08a5 0200     		.2byte	0x2
 9693 08a7 30       		.byte	0x30
 9694 08a8 9F       		.byte	0x9f
 9695 08a9 0E010000 		.4byte	.LVL326
 9696 08ad 20010000 		.4byte	.LVL328
 9697 08b1 0100     		.2byte	0x1
 9698 08b3 53       		.byte	0x53
 9699 08b4 00000000 		.4byte	0
 9700 08b8 00000000 		.4byte	0
 9701              	.LLST51:
 9702 08bc 94010000 		.4byte	.LVL337
 9703 08c0 98010000 		.4byte	.LVL338
 9704 08c4 0200     		.2byte	0x2
 9705 08c6 30       		.byte	0x30
 9706 08c7 9F       		.byte	0x9f
 9707 08c8 98010000 		.4byte	.LVL338
 9708 08cc B5010000 		.4byte	.LVL340-1
 9709 08d0 0100     		.2byte	0x1
 9710 08d2 53       		.byte	0x53
 9711 08d3 00000000 		.4byte	0
 9712 08d7 00000000 		.4byte	0
 9713              	.LLST52:
 9714 08db E8010000 		.4byte	.LVL349
 9715 08df 20020000 		.4byte	.LVL355
 9716 08e3 0100     		.2byte	0x1
 9717 08e5 57       		.byte	0x57
 9718 08e6 00000000 		.4byte	0
 9719 08ea 00000000 		.4byte	0
 9720              	.LLST53:
 9721 08ee 46020000 		.4byte	.LVL363
 9722 08f2 7C020000 		.4byte	.LVL368
 9723 08f6 0100     		.2byte	0x1
 9724 08f8 57       		.byte	0x57
 9725 08f9 00000000 		.4byte	0
 9726 08fd 00000000 		.4byte	0
 9727              	.LLST54:
 9728 0901 9C020000 		.4byte	.LVL372
 9729 0905 3A030000 		.4byte	.LVL387
 9730 0909 0100     		.2byte	0x1
 9731 090b 57       		.byte	0x57
 9732 090c 00000000 		.4byte	0
 9733 0910 00000000 		.4byte	0
 9734              	.LLST55:
 9735 0914 AA020000 		.4byte	.LVL374
 9736 0918 B0020000 		.4byte	.LVL375
 9737 091c 0200     		.2byte	0x2
 9738 091e 30       		.byte	0x30
 9739 091f 9F       		.byte	0x9f
 9740 0920 B0020000 		.4byte	.LVL375
 9741 0924 CE020000 		.4byte	.LVL380
 9742 0928 0100     		.2byte	0x1
 9743 092a 5E       		.byte	0x5e
 9744 092b CE020000 		.4byte	.LVL380
 9745 092f F4020000 		.4byte	.LVL381
ARM GAS  C:\Users\HENRIC~1\AppData\Local\Temp\ccRPnI9G.s 			page 204


 9746 0933 0200     		.2byte	0x2
 9747 0935 31       		.byte	0x31
 9748 0936 9F       		.byte	0x9f
 9749 0937 F4020000 		.4byte	.LVL381
 9750 093b 2C030000 		.4byte	.LVL385
 9751 093f 0100     		.2byte	0x1
 9752 0941 5E       		.byte	0x5e
 9753 0942 2C030000 		.4byte	.LVL385
 9754 0946 30030000 		.4byte	.LVL386
 9755 094a 0200     		.2byte	0x2
 9756 094c 31       		.byte	0x31
 9757 094d 9F       		.byte	0x9f
 9758 094e 30030000 		.4byte	.LVL386
 9759 0952 55030000 		.4byte	.LVL388-1
 9760 0956 0100     		.2byte	0x1
 9761 0958 5E       		.byte	0x5e
 9762 0959 00000000 		.4byte	0
 9763 095d 00000000 		.4byte	0
 9764              	.LLST56:
 9765 0961 AA020000 		.4byte	.LVL374
 9766 0965 B0020000 		.4byte	.LVL375
 9767 0969 0200     		.2byte	0x2
 9768 096b 30       		.byte	0x30
 9769 096c 9F       		.byte	0x9f
 9770 096d B0020000 		.4byte	.LVL375
 9771 0971 BA020000 		.4byte	.LVL377
 9772 0975 0100     		.2byte	0x1
 9773 0977 53       		.byte	0x53
 9774 0978 BC020000 		.4byte	.LVL378
 9775 097c 1C030000 		.4byte	.LVL384
 9776 0980 0100     		.2byte	0x1
 9777 0982 53       		.byte	0x53
 9778 0983 00000000 		.4byte	0
 9779 0987 00000000 		.4byte	0
 9780              	.LLST57:
 9781 098b B8020000 		.4byte	.LVL376
 9782 098f C6020000 		.4byte	.LVL379
 9783 0993 0100     		.2byte	0x1
 9784 0995 51       		.byte	0x51
 9785 0996 F4020000 		.4byte	.LVL381
 9786 099a FC020000 		.4byte	.LVL382
 9787 099e 0100     		.2byte	0x1
 9788 09a0 51       		.byte	0x51
 9789 09a1 00000000 		.4byte	0
 9790 09a5 00000000 		.4byte	0
 9791              	.LLST58:
 9792 09a9 14000000 		.4byte	.LVL396
 9793 09ad 26000000 		.4byte	.LVL397
 9794 09b1 0200     		.2byte	0x2
 9795 09b3 30       		.byte	0x30
 9796 09b4 9F       		.byte	0x9f
 9797 09b5 26000000 		.4byte	.LVL397
 9798 09b9 54000000 		.4byte	.LVL408
 9799 09bd 0100     		.2byte	0x1
 9800 09bf 58       		.byte	0x58
 9801 09c0 54000000 		.4byte	.LVL408
 9802 09c4 7A000000 		.4byte	.LVL411
ARM GAS  C:\Users\HENRIC~1\AppData\Local\Temp\ccRPnI9G.s 			page 205


 9803 09c8 0200     		.2byte	0x2
 9804 09ca 31       		.byte	0x31
 9805 09cb 9F       		.byte	0x9f
 9806 09cc 7A000000 		.4byte	.LVL411
 9807 09d0 04040000 		.4byte	.LFE70
 9808 09d4 0100     		.2byte	0x1
 9809 09d6 58       		.byte	0x58
 9810 09d7 00000000 		.4byte	0
 9811 09db 00000000 		.4byte	0
 9812              	.LLST59:
 9813 09df 14000000 		.4byte	.LVL396
 9814 09e3 26000000 		.4byte	.LVL397
 9815 09e7 0200     		.2byte	0x2
 9816 09e9 30       		.byte	0x30
 9817 09ea 9F       		.byte	0x9f
 9818 09eb 26000000 		.4byte	.LVL397
 9819 09ef 2E000000 		.4byte	.LVL400
 9820 09f3 0100     		.2byte	0x1
 9821 09f5 59       		.byte	0x59
 9822 09f6 30000000 		.4byte	.LVL401
 9823 09fa 68000000 		.4byte	.LVL410
 9824 09fe 0100     		.2byte	0x1
 9825 0a00 59       		.byte	0x59
 9826 0a01 68000000 		.4byte	.LVL410
 9827 0a05 7A000000 		.4byte	.LVL411
 9828 0a09 0200     		.2byte	0x2
 9829 0a0b 30       		.byte	0x30
 9830 0a0c 9F       		.byte	0x9f
 9831 0a0d 7A000000 		.4byte	.LVL411
 9832 0a11 DC010000 		.4byte	.LVL460
 9833 0a15 0100     		.2byte	0x1
 9834 0a17 59       		.byte	0x59
 9835 0a18 DC010000 		.4byte	.LVL460
 9836 0a1c F8010000 		.4byte	.LVL463
 9837 0a20 0200     		.2byte	0x2
 9838 0a22 31       		.byte	0x31
 9839 0a23 9F       		.byte	0x9f
 9840 0a24 F8010000 		.4byte	.LVL463
 9841 0a28 16030000 		.4byte	.LVL485
 9842 0a2c 0100     		.2byte	0x1
 9843 0a2e 59       		.byte	0x59
 9844 0a2f 16030000 		.4byte	.LVL485
 9845 0a33 50030000 		.4byte	.LVL488
 9846 0a37 0200     		.2byte	0x2
 9847 0a39 31       		.byte	0x31
 9848 0a3a 9F       		.byte	0x9f
 9849 0a3b 50030000 		.4byte	.LVL488
 9850 0a3f 04040000 		.4byte	.LFE70
 9851 0a43 0100     		.2byte	0x1
 9852 0a45 59       		.byte	0x59
 9853 0a46 00000000 		.4byte	0
 9854 0a4a 00000000 		.4byte	0
 9855              	.LLST60:
 9856 0a4e 14000000 		.4byte	.LVL396
 9857 0a52 26000000 		.4byte	.LVL397
 9858 0a56 0200     		.2byte	0x2
 9859 0a58 30       		.byte	0x30
ARM GAS  C:\Users\HENRIC~1\AppData\Local\Temp\ccRPnI9G.s 			page 206


 9860 0a59 9F       		.byte	0x9f
 9861 0a5a 26000000 		.4byte	.LVL397
 9862 0a5e 28000000 		.4byte	.LVL398
 9863 0a62 0100     		.2byte	0x1
 9864 0a64 54       		.byte	0x54
 9865 0a65 2A000000 		.4byte	.LVL399
 9866 0a69 58000000 		.4byte	.LVL409
 9867 0a6d 0100     		.2byte	0x1
 9868 0a6f 54       		.byte	0x54
 9869 0a70 68000000 		.4byte	.LVL410
 9870 0a74 04040000 		.4byte	.LFE70
 9871 0a78 0100     		.2byte	0x1
 9872 0a7a 54       		.byte	0x54
 9873 0a7b 00000000 		.4byte	0
 9874 0a7f 00000000 		.4byte	0
 9875              	.LLST61:
 9876 0a83 14000000 		.4byte	.LVL396
 9877 0a87 26000000 		.4byte	.LVL397
 9878 0a8b 0200     		.2byte	0x2
 9879 0a8d 30       		.byte	0x30
 9880 0a8e 9F       		.byte	0x9f
 9881 0a8f 26000000 		.4byte	.LVL397
 9882 0a93 68000000 		.4byte	.LVL410
 9883 0a97 0100     		.2byte	0x1
 9884 0a99 57       		.byte	0x57
 9885 0a9a 68000000 		.4byte	.LVL410
 9886 0a9e 7A000000 		.4byte	.LVL411
 9887 0aa2 0200     		.2byte	0x2
 9888 0aa4 30       		.byte	0x30
 9889 0aa5 9F       		.byte	0x9f
 9890 0aa6 7A000000 		.4byte	.LVL411
 9891 0aaa DE010000 		.4byte	.LVL461
 9892 0aae 0100     		.2byte	0x1
 9893 0ab0 57       		.byte	0x57
 9894 0ab1 EE010000 		.4byte	.LVL462
 9895 0ab5 04040000 		.4byte	.LFE70
 9896 0ab9 0100     		.2byte	0x1
 9897 0abb 57       		.byte	0x57
 9898 0abc 00000000 		.4byte	0
 9899 0ac0 00000000 		.4byte	0
 9900              	.LLST62:
 9901 0ac4 14000000 		.4byte	.LVL396
 9902 0ac8 26000000 		.4byte	.LVL397
 9903 0acc 0200     		.2byte	0x2
 9904 0ace 30       		.byte	0x30
 9905 0acf 9F       		.byte	0x9f
 9906 0ad0 26000000 		.4byte	.LVL397
 9907 0ad4 68000000 		.4byte	.LVL410
 9908 0ad8 0100     		.2byte	0x1
 9909 0ada 5B       		.byte	0x5b
 9910 0adb 68000000 		.4byte	.LVL410
 9911 0adf 7A000000 		.4byte	.LVL411
 9912 0ae3 0200     		.2byte	0x2
 9913 0ae5 30       		.byte	0x30
 9914 0ae6 9F       		.byte	0x9f
 9915 0ae7 7A000000 		.4byte	.LVL411
 9916 0aeb A8000000 		.4byte	.LVL414
ARM GAS  C:\Users\HENRIC~1\AppData\Local\Temp\ccRPnI9G.s 			page 207


 9917 0aef 0100     		.2byte	0x1
 9918 0af1 5B       		.byte	0x5b
 9919 0af2 A8000000 		.4byte	.LVL414
 9920 0af6 E6000000 		.4byte	.LVL424
 9921 0afa 0200     		.2byte	0x2
 9922 0afc 31       		.byte	0x31
 9923 0afd 9F       		.byte	0x9f
 9924 0afe E6000000 		.4byte	.LVL424
 9925 0b02 EC000000 		.4byte	.LVL425
 9926 0b06 0100     		.2byte	0x1
 9927 0b08 5B       		.byte	0x5b
 9928 0b09 EC000000 		.4byte	.LVL425
 9929 0b0d 2C010000 		.4byte	.LVL435
 9930 0b11 0200     		.2byte	0x2
 9931 0b13 31       		.byte	0x31
 9932 0b14 9F       		.byte	0x9f
 9933 0b15 2C010000 		.4byte	.LVL435
 9934 0b19 32010000 		.4byte	.LVL436
 9935 0b1d 0100     		.2byte	0x1
 9936 0b1f 5B       		.byte	0x5b
 9937 0b20 32010000 		.4byte	.LVL436
 9938 0b24 7A010000 		.4byte	.LVL446
 9939 0b28 0200     		.2byte	0x2
 9940 0b2a 31       		.byte	0x31
 9941 0b2b 9F       		.byte	0x9f
 9942 0b2c 7A010000 		.4byte	.LVL446
 9943 0b30 80010000 		.4byte	.LVL447
 9944 0b34 0100     		.2byte	0x1
 9945 0b36 5B       		.byte	0x5b
 9946 0b37 80010000 		.4byte	.LVL447
 9947 0b3b C6010000 		.4byte	.LVL457
 9948 0b3f 0200     		.2byte	0x2
 9949 0b41 31       		.byte	0x31
 9950 0b42 9F       		.byte	0x9f
 9951 0b43 C6010000 		.4byte	.LVL457
 9952 0b47 EE010000 		.4byte	.LVL462
 9953 0b4b 0100     		.2byte	0x1
 9954 0b4d 5B       		.byte	0x5b
 9955 0b4e EE010000 		.4byte	.LVL462
 9956 0b52 F8010000 		.4byte	.LVL463
 9957 0b56 0200     		.2byte	0x2
 9958 0b58 30       		.byte	0x30
 9959 0b59 9F       		.byte	0x9f
 9960 0b5a F8010000 		.4byte	.LVL463
 9961 0b5e 04040000 		.4byte	.LFE70
 9962 0b62 0100     		.2byte	0x1
 9963 0b64 5B       		.byte	0x5b
 9964 0b65 00000000 		.4byte	0
 9965 0b69 00000000 		.4byte	0
 9966              	.LLST63:
 9967 0b6d 14000000 		.4byte	.LVL396
 9968 0b71 26000000 		.4byte	.LVL397
 9969 0b75 0200     		.2byte	0x2
 9970 0b77 30       		.byte	0x30
 9971 0b78 9F       		.byte	0x9f
 9972 0b79 26000000 		.4byte	.LVL397
 9973 0b7d 68000000 		.4byte	.LVL410
ARM GAS  C:\Users\HENRIC~1\AppData\Local\Temp\ccRPnI9G.s 			page 208


 9974 0b81 0100     		.2byte	0x1
 9975 0b83 56       		.byte	0x56
 9976 0b84 68000000 		.4byte	.LVL410
 9977 0b88 7A000000 		.4byte	.LVL411
 9978 0b8c 0200     		.2byte	0x2
 9979 0b8e 30       		.byte	0x30
 9980 0b8f 9F       		.byte	0x9f
 9981 0b90 7A000000 		.4byte	.LVL411
 9982 0b94 18030000 		.4byte	.LVL486
 9983 0b98 0100     		.2byte	0x1
 9984 0b9a 56       		.byte	0x56
 9985 0b9b 28030000 		.4byte	.LVL487
 9986 0b9f 04040000 		.4byte	.LFE70
 9987 0ba3 0100     		.2byte	0x1
 9988 0ba5 56       		.byte	0x56
 9989 0ba6 00000000 		.4byte	0
 9990 0baa 00000000 		.4byte	0
 9991              	.LLST64:
 9992 0bae 14000000 		.4byte	.LVL396
 9993 0bb2 26000000 		.4byte	.LVL397
 9994 0bb6 0200     		.2byte	0x2
 9995 0bb8 30       		.byte	0x30
 9996 0bb9 9F       		.byte	0x9f
 9997 0bba 26000000 		.4byte	.LVL397
 9998 0bbe 68000000 		.4byte	.LVL410
 9999 0bc2 0100     		.2byte	0x1
 10000 0bc4 5A       		.byte	0x5a
 10001 0bc5 68000000 		.4byte	.LVL410
 10002 0bc9 7A000000 		.4byte	.LVL411
 10003 0bcd 0200     		.2byte	0x2
 10004 0bcf 30       		.byte	0x30
 10005 0bd0 9F       		.byte	0x9f
 10006 0bd1 7A000000 		.4byte	.LVL411
 10007 0bd5 FE010000 		.4byte	.LVL464
 10008 0bd9 0100     		.2byte	0x1
 10009 0bdb 5A       		.byte	0x5a
 10010 0bdc FE010000 		.4byte	.LVL464
 10011 0be0 24020000 		.4byte	.LVL470
 10012 0be4 0200     		.2byte	0x2
 10013 0be6 31       		.byte	0x31
 10014 0be7 9F       		.byte	0x9f
 10015 0be8 24020000 		.4byte	.LVL470
 10016 0bec 28030000 		.4byte	.LVL487
 10017 0bf0 0100     		.2byte	0x1
 10018 0bf2 5A       		.byte	0x5a
 10019 0bf3 28030000 		.4byte	.LVL487
 10020 0bf7 50030000 		.4byte	.LVL488
 10021 0bfb 0200     		.2byte	0x2
 10022 0bfd 30       		.byte	0x30
 10023 0bfe 9F       		.byte	0x9f
 10024 0bff 50030000 		.4byte	.LVL488
 10025 0c03 04040000 		.4byte	.LFE70
 10026 0c07 0100     		.2byte	0x1
 10027 0c09 5A       		.byte	0x5a
 10028 0c0a 00000000 		.4byte	0
 10029 0c0e 00000000 		.4byte	0
 10030              	.LLST65:
ARM GAS  C:\Users\HENRIC~1\AppData\Local\Temp\ccRPnI9G.s 			page 209


 10031 0c12 14000000 		.4byte	.LVL396
 10032 0c16 26000000 		.4byte	.LVL397
 10033 0c1a 0200     		.2byte	0x2
 10034 0c1c 30       		.byte	0x30
 10035 0c1d 9F       		.byte	0x9f
 10036 0c1e 26000000 		.4byte	.LVL397
 10037 0c22 68000000 		.4byte	.LVL410
 10038 0c26 0100     		.2byte	0x1
 10039 0c28 55       		.byte	0x55
 10040 0c29 68000000 		.4byte	.LVL410
 10041 0c2d 7A000000 		.4byte	.LVL411
 10042 0c31 0200     		.2byte	0x2
 10043 0c33 30       		.byte	0x30
 10044 0c34 9F       		.byte	0x9f
 10045 0c35 7A000000 		.4byte	.LVL411
 10046 0c39 52030000 		.4byte	.LVL489
 10047 0c3d 0100     		.2byte	0x1
 10048 0c3f 55       		.byte	0x55
 10049 0c40 52030000 		.4byte	.LVL489
 10050 0c44 68030000 		.4byte	.LVL493
 10051 0c48 0200     		.2byte	0x2
 10052 0c4a 31       		.byte	0x31
 10053 0c4b 9F       		.byte	0x9f
 10054 0c4c 68030000 		.4byte	.LVL493
 10055 0c50 04040000 		.4byte	.LFE70
 10056 0c54 0100     		.2byte	0x1
 10057 0c56 55       		.byte	0x55
 10058 0c57 00000000 		.4byte	0
 10059 0c5b 00000000 		.4byte	0
 10060              	.LLST66:
 10061 0c5f B8000000 		.4byte	.LVL416
 10062 0c63 E4000000 		.4byte	.LVL423
 10063 0c67 0100     		.2byte	0x1
 10064 0c69 5B       		.byte	0x5b
 10065 0c6a 00000000 		.4byte	0
 10066 0c6e 00000000 		.4byte	0
 10067              	.LLST67:
 10068 0c72 FE000000 		.4byte	.LVL427
 10069 0c76 2A010000 		.4byte	.LVL434
 10070 0c7a 0100     		.2byte	0x1
 10071 0c7c 5B       		.byte	0x5b
 10072 0c7d 00000000 		.4byte	0
 10073 0c81 00000000 		.4byte	0
 10074              	.LLST68:
 10075 0c85 4C010000 		.4byte	.LVL438
 10076 0c89 78010000 		.4byte	.LVL445
 10077 0c8d 0100     		.2byte	0x1
 10078 0c8f 5B       		.byte	0x5b
 10079 0c90 00000000 		.4byte	0
 10080 0c94 00000000 		.4byte	0
 10081              	.LLST69:
 10082 0c98 98010000 		.4byte	.LVL449
 10083 0c9c C4010000 		.4byte	.LVL456
 10084 0ca0 0100     		.2byte	0x1
 10085 0ca2 5B       		.byte	0x5b
 10086 0ca3 00000000 		.4byte	0
 10087 0ca7 00000000 		.4byte	0
ARM GAS  C:\Users\HENRIC~1\AppData\Local\Temp\ccRPnI9G.s 			page 210


 10088              		.section	.debug_aranges,"",%progbits
 10089 0000 84000000 		.4byte	0x84
 10090 0004 0200     		.2byte	0x2
 10091 0006 00000000 		.4byte	.Ldebug_info0
 10092 000a 04       		.byte	0x4
 10093 000b 00       		.byte	0
 10094 000c 0000     		.2byte	0
 10095 000e 0000     		.2byte	0
 10096 0010 00000000 		.4byte	.LFB77
 10097 0014 76000000 		.4byte	.LFE77-.LFB77
 10098 0018 00000000 		.4byte	.LFB71
 10099 001c B4000000 		.4byte	.LFE71-.LFB71
 10100 0020 00000000 		.4byte	.LFB72
 10101 0024 60010000 		.4byte	.LFE72-.LFB72
 10102 0028 00000000 		.4byte	.LFB73
 10103 002c 9C000000 		.4byte	.LFE73-.LFB73
 10104 0030 00000000 		.4byte	.LFB74
 10105 0034 A0000000 		.4byte	.LFE74-.LFB74
 10106 0038 00000000 		.4byte	.LFB75
 10107 003c A0000000 		.4byte	.LFE75-.LFB75
 10108 0040 00000000 		.4byte	.LFB76
 10109 0044 A0000000 		.4byte	.LFE76-.LFB76
 10110 0048 00000000 		.4byte	.LFB65
 10111 004c 80000000 		.4byte	.LFE65-.LFB65
 10112 0050 00000000 		.4byte	.LFB66
 10113 0054 B4000000 		.4byte	.LFE66-.LFB66
 10114 0058 00000000 		.4byte	.LFB67
 10115 005c 60010000 		.4byte	.LFE67-.LFB67
 10116 0060 00000000 		.4byte	.LFB68
 10117 0064 6C010000 		.4byte	.LFE68-.LFB68
 10118 0068 00000000 		.4byte	.LFB69
 10119 006c 80030000 		.4byte	.LFE69-.LFB69
 10120 0070 00000000 		.4byte	.LFB70
 10121 0074 04040000 		.4byte	.LFE70-.LFB70
 10122 0078 00000000 		.4byte	.LFB64
 10123 007c 24000000 		.4byte	.LFE64-.LFB64
 10124 0080 00000000 		.4byte	0
 10125 0084 00000000 		.4byte	0
 10126              		.section	.debug_ranges,"",%progbits
 10127              	.Ldebug_ranges0:
 10128 0000 00000000 		.4byte	.LFB77
 10129 0004 76000000 		.4byte	.LFE77
 10130 0008 00000000 		.4byte	.LFB71
 10131 000c B4000000 		.4byte	.LFE71
 10132 0010 00000000 		.4byte	.LFB72
 10133 0014 60010000 		.4byte	.LFE72
 10134 0018 00000000 		.4byte	.LFB73
 10135 001c 9C000000 		.4byte	.LFE73
 10136 0020 00000000 		.4byte	.LFB74
 10137 0024 A0000000 		.4byte	.LFE74
 10138 0028 00000000 		.4byte	.LFB75
 10139 002c A0000000 		.4byte	.LFE75
 10140 0030 00000000 		.4byte	.LFB76
 10141 0034 A0000000 		.4byte	.LFE76
 10142 0038 00000000 		.4byte	.LFB65
 10143 003c 80000000 		.4byte	.LFE65
 10144 0040 00000000 		.4byte	.LFB66
ARM GAS  C:\Users\HENRIC~1\AppData\Local\Temp\ccRPnI9G.s 			page 211


 10145 0044 B4000000 		.4byte	.LFE66
 10146 0048 00000000 		.4byte	.LFB67
 10147 004c 60010000 		.4byte	.LFE67
 10148 0050 00000000 		.4byte	.LFB68
 10149 0054 6C010000 		.4byte	.LFE68
 10150 0058 00000000 		.4byte	.LFB69
 10151 005c 80030000 		.4byte	.LFE69
 10152 0060 00000000 		.4byte	.LFB70
 10153 0064 04040000 		.4byte	.LFE70
 10154 0068 00000000 		.4byte	.LFB64
 10155 006c 24000000 		.4byte	.LFE64
 10156 0070 00000000 		.4byte	0
 10157 0074 00000000 		.4byte	0
 10158              		.section	.debug_line,"",%progbits
 10159              	.Ldebug_line0:
 10160 0000 1A070000 		.section	.debug_str,"MS",%progbits,1
 10160      02009202 
 10160      00000201 
 10160      FB0E0D00 
 10160      01010101 
 10161              	.LASF145:
 10162 0000 63726353 		.ascii	"crcState\000"
 10162      74617465 
 10162      00
 10163              	.LASF181:
 10164 0009 646C6C5F 		.ascii	"dll_update\000"
 10164      75706461 
 10164      746500
 10165              	.LASF134:
 10166 0014 636F756E 		.ascii	"count\000"
 10166      7400
 10167              	.LASF103:
 10168 001a 4D454E55 		.ascii	"MENU_ONES\000"
 10168      5F4F4E45 
 10168      5300
 10169              	.LASF140:
 10170 0024 72785F73 		.ascii	"rx_state\000"
 10170      74617465 
 10170      00
 10171              	.LASF95:
 10172 002d 444C4C5F 		.ascii	"DLL_Message_t\000"
 10172      4D657373 
 10172      6167655F 
 10172      7400
 10173              	.LASF71:
 10174 003b 5F555345 		.ascii	"_USER_TABLE_SIZE\000"
 10174      525F5441 
 10174      424C455F 
 10174      53495A45 
 10174      00
 10175              	.LASF175:
 10176 004c 73707269 		.ascii	"sprintf\000"
 10176      6E746600 
 10177              	.LASF149:
 10178 0054 7278466C 		.ascii	"rxFlag\000"
 10178      616700
 10179              	.LASF121:
ARM GAS  C:\Users\HENRIC~1\AppData\Local\Temp\ccRPnI9G.s 			page 212


 10180 005b 6E756C5F 		.ascii	"nul_string_mode\000"
 10180      73747269 
 10180      6E675F6D 
 10180      6F646500 
 10181              	.LASF106:
 10182 006b 6372635F 		.ascii	"crc_algorithm\000"
 10182      616C676F 
 10182      72697468 
 10182      6D00
 10183              	.LASF28:
 10184 0079 4E455457 		.ascii	"NETWORK_BROADCAST\000"
 10184      4F524B5F 
 10184      42524F41 
 10184      44434153 
 10184      5400
 10185              	.LASF9:
 10186 008b 5F5F7569 		.ascii	"__uint8_t\000"
 10186      6E74385F 
 10186      7400
 10187              	.LASF166:
 10188 0095 74785F69 		.ascii	"tx_init\000"
 10188      6E697400 
 10189              	.LASF147:
 10190 009d 74785374 		.ascii	"txState\000"
 10190      61746500 
 10191              	.LASF120:
 10192 00a5 6E6C5F66 		.ascii	"nl_found\000"
 10192      6F756E64 
 10192      00
 10193              	.LASF83:
 10194 00ae 54585F44 		.ascii	"TX_DONE\000"
 10194      4F4E4500 
 10195              	.LASF16:
 10196 00b6 6C6F6E67 		.ascii	"long long unsigned int\000"
 10196      206C6F6E 
 10196      6720756E 
 10196      7369676E 
 10196      65642069 
 10197              	.LASF5:
 10198 00cd 54455354 		.ascii	"TEST_CASE_WEEK_10\000"
 10198      5F434153 
 10198      455F5745 
 10198      454B5F31 
 10198      3000
 10199              	.LASF131:
 10200 00df 6E657874 		.ascii	"next_state\000"
 10200      5F737461 
 10200      746500
 10201              	.LASF73:
 10202 00ea 434D5F53 		.ascii	"CM_State\000"
 10202      74617465 
 10202      00
 10203              	.LASF59:
 10204 00f3 51554948 		.ascii	"QUIHAO_JIN\000"
 10204      414F5F4A 
 10204      494E00
 10205              	.LASF35:
ARM GAS  C:\Users\HENRIC~1\AppData\Local\Temp\ccRPnI9G.s 			page 213


 10206 00fe 4D554E41 		.ascii	"MUNAZZA_NAEEM\000"
 10206      5A5A415F 
 10206      4E414545 
 10206      4D00
 10207              	.LASF137:
 10208 010c 62757474 		.ascii	"button_held_down\000"
 10208      6F6E5F68 
 10208      656C645F 
 10208      646F776E 
 10208      00
 10209              	.LASF125:
 10210 011d 6F6E6573 		.ascii	"ones_mode\000"
 10210      5F6D6F64 
 10210      6500
 10211              	.LASF172:
 10212 0127 43617053 		.ascii	"CapSense_UpdateEnabledBaselines\000"
 10212      656E7365 
 10212      5F557064 
 10212      61746545 
 10212      6E61626C 
 10213              	.LASF79:
 10214 0147 54785F53 		.ascii	"Tx_States\000"
 10214      74617465 
 10214      7300
 10215              	.LASF92:
 10216 0151 6661696C 		.ascii	"failed_header_crc\000"
 10216      65645F68 
 10216      65616465 
 10216      725F6372 
 10216      6300
 10217              	.LASF15:
 10218 0163 6C6F6E67 		.ascii	"long long int\000"
 10218      206C6F6E 
 10218      6720696E 
 10218      7400
 10219              	.LASF7:
 10220 0171 7369676E 		.ascii	"signed char\000"
 10220      65642063 
 10220      68617200 
 10221              	.LASF167:
 10222 017d 72785F69 		.ascii	"rx_init\000"
 10222      6E697400 
 10223              	.LASF179:
 10224 0185 646C6C5F 		.ascii	"dll_read\000"
 10224      72656164 
 10224      00
 10225              	.LASF75:
 10226 018e 434D5F53 		.ascii	"CM_STATE_IDLE\000"
 10226      54415445 
 10226      5F49444C 
 10226      4500
 10227              	.LASF162:
 10228 019c 75617274 		.ascii	"uart_update\000"
 10228      5F757064 
 10228      61746500 
 10229              	.LASF180:
 10230 01a8 646C6C5F 		.ascii	"dll_write\000"
ARM GAS  C:\Users\HENRIC~1\AppData\Local\Temp\ccRPnI9G.s 			page 214


 10230      77726974 
 10230      6500
 10231              	.LASF52:
 10232 01b2 50414C4C 		.ascii	"PALLAV_BANIK\000"
 10232      41565F42 
 10232      414E494B 
 10232      00
 10233              	.LASF100:
 10234 01bf 4D454E55 		.ascii	"MENU_NUL\000"
 10234      5F4E554C 
 10234      00
 10235              	.LASF126:
 10236 01c8 63685F73 		.ascii	"ch_state\000"
 10236      74617465 
 10236      00
 10237              	.LASF122:
 10238 01d1 61637469 		.ascii	"active\000"
 10238      766500
 10239              	.LASF170:
 10240 01d8 434D5F54 		.ascii	"CM_Test_State_Reg_Read\000"
 10240      6573745F 
 10240      53746174 
 10240      655F5265 
 10240      675F5265 
 10241              	.LASF136:
 10242 01ef 73746174 		.ascii	"state\000"
 10242      6500
 10243              	.LASF13:
 10244 01f5 6C6F6E67 		.ascii	"long int\000"
 10244      20696E74 
 10244      00
 10245              	.LASF78:
 10246 01fe 434D5F53 		.ascii	"CM_State_e\000"
 10246      74617465 
 10246      5F6500
 10247              	.LASF69:
 10248 0209 4A414D45 		.ascii	"JAMES_WINDORJJ\000"
 10248      535F5749 
 10248      4E444F52 
 10248      4A4A00
 10249              	.LASF80:
 10250 0218 54585F57 		.ascii	"TX_WAIT\000"
 10250      41495400 
 10251              	.LASF0:
 10252 0220 54455354 		.ascii	"TEST_CASE_WEEK_3\000"
 10252      5F434153 
 10252      455F5745 
 10252      454B5F33 
 10252      00
 10253              	.LASF1:
 10254 0231 54455354 		.ascii	"TEST_CASE_WEEK_5\000"
 10254      5F434153 
 10254      455F5745 
 10254      454B5F35 
 10254      00
 10255              	.LASF2:
 10256 0242 54455354 		.ascii	"TEST_CASE_WEEK_6\000"
ARM GAS  C:\Users\HENRIC~1\AppData\Local\Temp\ccRPnI9G.s 			page 215


 10256      5F434153 
 10256      455F5745 
 10256      454B5F36 
 10256      00
 10257              	.LASF3:
 10258 0253 54455354 		.ascii	"TEST_CASE_WEEK_8\000"
 10258      5F434153 
 10258      455F5745 
 10258      454B5F38 
 10258      00
 10259              	.LASF4:
 10260 0264 54455354 		.ascii	"TEST_CASE_WEEK_9\000"
 10260      5F434153 
 10260      455F5745 
 10260      454B5F39 
 10260      00
 10261              	.LASF113:
 10262 0275 72657476 		.ascii	"retval\000"
 10262      616C00
 10263              	.LASF54:
 10264 027c 4E494348 		.ascii	"NICHOLAS_BOUSKA\000"
 10264      4F4C4153 
 10264      5F424F55 
 10264      534B4100 
 10265              	.LASF22:
 10266 028c 646F7562 		.ascii	"double\000"
 10266      6C6500
 10267              	.LASF151:
 10268 0293 4D454E55 		.ascii	"MENU_OPTIONS_TAGS\000"
 10268      5F4F5054 
 10268      494F4E53 
 10268      5F544147 
 10268      5300
 10269              	.LASF150:
 10270 02a5 4D454E55 		.ascii	"MENU_OPTIONS_LIST\000"
 10270      5F4F5054 
 10270      494F4E53 
 10270      5F4C4953 
 10270      5400
 10271              	.LASF93:
 10272 02b7 6661696C 		.ascii	"failed_data_crc\000"
 10272      65645F64 
 10272      6174615F 
 10272      63726300 
 10273              	.LASF143:
 10274 02c7 6C656674 		.ascii	"left_button_held_down\000"
 10274      5F627574 
 10274      746F6E5F 
 10274      68656C64 
 10274      5F646F77 
 10275              	.LASF10:
 10276 02dd 5F5F7569 		.ascii	"__uint16_t\000"
 10276      6E743136 
 10276      5F7400
 10277              	.LASF148:
 10278 02e8 7478466C 		.ascii	"txFlag\000"
 10278      616700
ARM GAS  C:\Users\HENRIC~1\AppData\Local\Temp\ccRPnI9G.s 			page 216


 10279              	.LASF182:
 10280 02ef 646C6C5F 		.ascii	"dll_tx_finished\000"
 10280      74785F66 
 10280      696E6973 
 10280      68656400 
 10281              	.LASF45:
 10282 02ff 4A4F484E 		.ascii	"JOHNATHON_WENZEL\000"
 10282      4154484F 
 10282      4E5F5745 
 10282      4E5A454C 
 10282      00
 10283              	.LASF160:
 10284 0310 74785F67 		.ascii	"tx_get_status\000"
 10284      65745F73 
 10284      74617475 
 10284      7300
 10285              	.LASF141:
 10286 031e 6C6B5F73 		.ascii	"lk_state\000"
 10286      74617465 
 10286      00
 10287              	.LASF119:
 10288 0327 6E756D43 		.ascii	"numChar\000"
 10288      68617200 
 10289              	.LASF146:
 10290 032f 63726346 		.ascii	"crcFlag\000"
 10290      6C616700 
 10291              	.LASF189:
 10292 0337 43617053 		.ascii	"CapSense_Start\000"
 10292      656E7365 
 10292      5F537461 
 10292      727400
 10293              	.LASF70:
 10294 0346 4B414D49 		.ascii	"KAMITH_MIRISSAGE\000"
 10294      54485F4D 
 10294      49524953 
 10294      53414745 
 10294      00
 10295              	.LASF31:
 10296 0357 53414D55 		.ascii	"SAMUEL_HALLERMAN\000"
 10296      454C5F48 
 10296      414C4C45 
 10296      524D414E 
 10296      00
 10297              	.LASF19:
 10298 0368 75696E74 		.ascii	"uint16_t\000"
 10298      31365F74 
 10298      00
 10299              	.LASF108:
 10300 0371 6F6E5F65 		.ascii	"on_enter\000"
 10300      6E746572 
 10300      00
 10301              	.LASF188:
 10302 037a 4C43445F 		.ascii	"LCD_Start\000"
 10302      53746172 
 10302      7400
 10303              	.LASF158:
 10304 0384 75617274 		.ascii	"uart_write\000"
ARM GAS  C:\Users\HENRIC~1\AppData\Local\Temp\ccRPnI9G.s 			page 217


 10304      5F777269 
 10304      746500
 10305              	.LASF118:
 10306 038f 72657475 		.ascii	"returnMenu\000"
 10306      726E4D65 
 10306      6E7500
 10307              	.LASF14:
 10308 039a 6C6F6E67 		.ascii	"long unsigned int\000"
 10308      20756E73 
 10308      69676E65 
 10308      6420696E 
 10308      7400
 10309              	.LASF130:
 10310 03ac 63757272 		.ascii	"curr_state\000"
 10310      5F737461 
 10310      746500
 10311              	.LASF50:
 10312 03b7 4E415448 		.ascii	"NATHEER_ALKHUNAIZY\000"
 10312      4545525F 
 10312      414C4B48 
 10312      554E4149 
 10312      5A5900
 10313              	.LASF195:
 10314 03ca 74657374 		.ascii	"tests_main\000"
 10314      735F6D61 
 10314      696E00
 10315              	.LASF110:
 10316 03d5 686F6C64 		.ascii	"hold\000"
 10316      00
 10317              	.LASF90:
 10318 03da 7573655F 		.ascii	"use_crc\000"
 10318      63726300 
 10319              	.LASF144:
 10320 03e2 72696768 		.ascii	"right_button_held_down\000"
 10320      745F6275 
 10320      74746F6E 
 10320      5F68656C 
 10320      645F646F 
 10321              	.LASF11:
 10322 03f9 73686F72 		.ascii	"short unsigned int\000"
 10322      7420756E 
 10322      7369676E 
 10322      65642069 
 10322      6E7400
 10323              	.LASF86:
 10324 040c 444C4C5F 		.ascii	"DLL_HEADER_CRC\000"
 10324      48454144 
 10324      45525F43 
 10324      524300
 10325              	.LASF183:
 10326 041b 646C6C5F 		.ascii	"dll_has_data\000"
 10326      6861735F 
 10326      64617461 
 10326      00
 10327              	.LASF157:
 10328 0428 7374726C 		.ascii	"strlen\000"
 10328      656E00
ARM GAS  C:\Users\HENRIC~1\AppData\Local\Temp\ccRPnI9G.s 			page 218


 10329              	.LASF107:
 10330 042f 64697370 		.ascii	"display\000"
 10330      6C617900 
 10331              	.LASF42:
 10332 0437 5A414348 		.ascii	"ZACHARY_STANKE\000"
 10332      4152595F 
 10332      5354414E 
 10332      4B4500
 10333              	.LASF187:
 10334 0446 75617274 		.ascii	"uart_init\000"
 10334      5F696E69 
 10334      7400
 10335              	.LASF97:
 10336 0450 4D454E55 		.ascii	"MENU_START\000"
 10336      5F535441 
 10336      525400
 10337              	.LASF96:
 10338 045b 4D656E75 		.ascii	"Menu_States\000"
 10338      5F537461 
 10338      74657300 
 10339              	.LASF68:
 10340 0467 444D4954 		.ascii	"DMITRI_WATERS\000"
 10340      52495F57 
 10340      41544552 
 10340      5300
 10341              	.LASF57:
 10342 0475 42454E54 		.ascii	"BENTON_GEIMER\000"
 10342      4F4E5F47 
 10342      45494D45 
 10342      5200
 10343              	.LASF37:
 10344 0483 53484148 		.ascii	"SHAHRUKE_QURESHI\000"
 10344      52554B45 
 10344      5F515552 
 10344      45534849 
 10344      00
 10345              	.LASF168:
 10346 0494 636D5F67 		.ascii	"cm_get_bus_state\000"
 10346      65745F62 
 10346      75735F73 
 10346      74617465 
 10346      00
 10347              	.LASF36:
 10348 04a5 4D415448 		.ascii	"MATHEW_PIKE\000"
 10348      45575F50 
 10348      494B4500 
 10349              	.LASF39:
 10350 04b1 414C4558 		.ascii	"ALEXANDER_ROBERTS\000"
 10350      414E4445 
 10350      525F524F 
 10350      42455254 
 10350      5300
 10351              	.LASF12:
 10352 04c3 5F5F696E 		.ascii	"__int32_t\000"
 10352      7433325F 
 10352      7400
 10353              	.LASF165:
ARM GAS  C:\Users\HENRIC~1\AppData\Local\Temp\ccRPnI9G.s 			page 219


 10354 04cd 636D5F69 		.ascii	"cm_init\000"
 10354      6E697400 
 10355              	.LASF194:
 10356 04d5 444C4C5F 		.ascii	"DLL_Message\000"
 10356      4D657373 
 10356      61676500 
 10357              	.LASF159:
 10358 04e1 74785F77 		.ascii	"tx_write\000"
 10358      72697465 
 10358      00
 10359              	.LASF63:
 10360 04ea 4E495256 		.ascii	"NIRVAN_POONACHA_THEETHIRA\000"
 10360      414E5F50 
 10360      4F4F4E41 
 10360      4348415F 
 10360      54484545 
 10361              	.LASF40:
 10362 0504 52454944 		.ascii	"REID_RUMACK\000"
 10362      5F52554D 
 10362      41434B00 
 10363              	.LASF186:
 10364 0510 646C6C5F 		.ascii	"dll_set_user\000"
 10364      7365745F 
 10364      75736572 
 10364      00
 10365              	.LASF25:
 10366 051d 73697A65 		.ascii	"sizetype\000"
 10366      74797065 
 10366      00
 10367              	.LASF164:
 10368 0526 63736D61 		.ascii	"csma_bus_init\000"
 10368      5F627573 
 10368      5F696E69 
 10368      7400
 10369              	.LASF192:
 10370 0534 54657374 		.ascii	"Tests.c\000"
 10370      732E6300 
 10371              	.LASF72:
 10372 053c 5F494E56 		.ascii	"_INVALID_NAME\000"
 10372      414C4944 
 10372      5F4E414D 
 10372      4500
 10373              	.LASF101:
 10374 054a 4D454E55 		.ascii	"MENU_REPEAT_1\000"
 10374      5F524550 
 10374      4541545F 
 10374      3100
 10375              	.LASF102:
 10376 0558 4D454E55 		.ascii	"MENU_REPEAT_2\000"
 10376      5F524550 
 10376      4541545F 
 10376      3200
 10377              	.LASF88:
 10378 0566 444C4C5F 		.ascii	"DLL_BOTH_CRC\000"
 10378      424F5448 
 10378      5F435243 
 10378      00
ARM GAS  C:\Users\HENRIC~1\AppData\Local\Temp\ccRPnI9G.s 			page 220


 10379              	.LASF43:
 10380 0573 414E4452 		.ascii	"ANDREW_STOEHR\000"
 10380      45575F53 
 10380      544F4548 
 10380      5200
 10381              	.LASF174:
 10382 0581 72785F62 		.ascii	"rx_buffer\000"
 10382      75666665 
 10382      7200
 10383              	.LASF178:
 10384 058b 72785F68 		.ascii	"rx_has_data\000"
 10384      61735F64 
 10384      61746100 
 10385              	.LASF21:
 10386 0597 666C6F61 		.ascii	"float\000"
 10386      7400
 10387              	.LASF60:
 10388 059d 53455448 		.ascii	"SETH_LIABRAATEN\000"
 10388      5F4C4941 
 10388      42524141 
 10388      54454E00 
 10389              	.LASF185:
 10390 05ad 646C6C5F 		.ascii	"dll_init\000"
 10390      696E6974 
 10390      00
 10391              	.LASF128:
 10392 05b6 74657374 		.ascii	"tests_week3\000"
 10392      735F7765 
 10392      656B3300 
 10393              	.LASF155:
 10394 05c2 43617053 		.ascii	"CapSense_CheckIsWidgetActive\000"
 10394      656E7365 
 10394      5F436865 
 10394      636B4973 
 10394      57696467 
 10395              	.LASF129:
 10396 05df 74657374 		.ascii	"tests_week5\000"
 10396      735F7765 
 10396      656B3500 
 10397              	.LASF132:
 10398 05eb 74657374 		.ascii	"tests_week6\000"
 10398      735F7765 
 10398      656B3600 
 10399              	.LASF30:
 10400 05f7 53414D55 		.ascii	"SAMUEL_CONROY\000"
 10400      454C5F43 
 10400      4F4E524F 
 10400      5900
 10401              	.LASF156:
 10402 0605 75617274 		.ascii	"uart_read\000"
 10402      5F726561 
 10402      6400
 10403              	.LASF142:
 10404 060f 74657374 		.ascii	"tests_week10\000"
 10404      735F7765 
 10404      656B3130 
 10404      00
ARM GAS  C:\Users\HENRIC~1\AppData\Local\Temp\ccRPnI9G.s 			page 221


 10405              	.LASF94:
 10406 061c 5F426F6F 		.ascii	"_Bool\000"
 10406      6C00
 10407              	.LASF20:
 10408 0622 696E7433 		.ascii	"int32_t\000"
 10408      325F7400 
 10409              	.LASF6:
 10410 062a 756E7369 		.ascii	"unsigned char\000"
 10410      676E6564 
 10410      20636861 
 10410      7200
 10411              	.LASF190:
 10412 0638 43617053 		.ascii	"CapSense_InitializeAllBaselines\000"
 10412      656E7365 
 10412      5F496E69 
 10412      7469616C 
 10412      697A6541 
 10413              	.LASF47:
 10414 0658 414E4452 		.ascii	"ANDREW_WINSTON\000"
 10414      45575F57 
 10414      494E5354 
 10414      4F4E00
 10415              	.LASF196:
 10416 0667 49544D5F 		.ascii	"ITM_RxBuffer\000"
 10416      52784275 
 10416      66666572 
 10416      00
 10417              	.LASF84:
 10418 0674 444C4C5F 		.ascii	"DLL_CRC_Use\000"
 10418      4352435F 
 10418      55736500 
 10419              	.LASF127:
 10420 0680 73746174 		.ascii	"state_trig\000"
 10420      655F7472 
 10420      696700
 10421              	.LASF8:
 10422 068b 73686F72 		.ascii	"short int\000"
 10422      7420696E 
 10422      7400
 10423              	.LASF48:
 10424 0695 58555F5A 		.ascii	"XU_ZHANG\000"
 10424      48414E47 
 10424      00
 10425              	.LASF99:
 10426 069e 4D454E55 		.ascii	"MENU_UART\000"
 10426      5F554152 
 10426      5400
 10427              	.LASF133:
 10428 06a8 74657374 		.ascii	"tests_week8\000"
 10428      735F7765 
 10428      656B3800 
 10429              	.LASF135:
 10430 06b4 74657374 		.ascii	"tests_week9\000"
 10430      735F7765 
 10430      656B3900 
 10431              	.LASF33:
 10432 06c0 4A4F5345 		.ascii	"JOSEPHINE_LOCURTO\000"
ARM GAS  C:\Users\HENRIC~1\AppData\Local\Temp\ccRPnI9G.s 			page 222


 10432      5048494E 
 10432      455F4C4F 
 10432      43555254 
 10432      4F00
 10433              	.LASF169:
 10434 06d2 4C43445F 		.ascii	"LCD_PrintInt8\000"
 10434      5072696E 
 10434      74496E74 
 10434      3800
 10435              	.LASF139:
 10436 06e0 74785F62 		.ascii	"tx_bool\000"
 10436      6F6F6C00 
 10437              	.LASF184:
 10438 06e8 75736572 		.ascii	"user_init\000"
 10438      5F696E69 
 10438      7400
 10439              	.LASF191:
 10440 06f2 474E5520 		.ascii	"GNU C11 5.4.1 20160609 (release) [ARM/embedded-5-br"
 10440      43313120 
 10440      352E342E 
 10440      31203230 
 10440      31363036 
 10441 0725 616E6368 		.ascii	"anch revision 237715] -mcpu=cortex-m3 -mthumb -g -O"
 10441      20726576 
 10441      6973696F 
 10441      6E203233 
 10441      37373135 
 10442 0758 67202D66 		.ascii	"g -ffunction-sections -ffat-lto-objects\000"
 10442      66756E63 
 10442      74696F6E 
 10442      2D736563 
 10442      74696F6E 
 10443              	.LASF53:
 10444 0780 5A414348 		.ascii	"ZACHARY_BARTMER\000"
 10444      4152595F 
 10444      42415254 
 10444      4D455200 
 10445              	.LASF64:
 10446 0790 4A4F484E 		.ascii	"JOHN_SCHLEDERER\000"
 10446      5F534348 
 10446      4C454445 
 10446      52455200 
 10447              	.LASF27:
 10448 07a0 55736572 		.ascii	"UserName\000"
 10448      4E616D65 
 10448      00
 10449              	.LASF123:
 10450 07a9 72657065 		.ascii	"repeat_string_1_mode\000"
 10450      61745F73 
 10450      7472696E 
 10450      675F315F 
 10450      6D6F6465 
 10451              	.LASF193:
 10452 07be 433A5C55 		.ascii	"C:\\Users\\henrichsc\\Desktop\\School\\Senior_year\\"
 10452      73657273 
 10452      5C68656E 
 10452      72696368 
ARM GAS  C:\Users\HENRIC~1\AppData\Local\Temp\ccRPnI9G.s 			page 223


 10452      73635C44 
 10453 07ec 77696E74 		.ascii	"winter\\ce4950\\ce4950-term-project\\Workspace1\\ce"
 10453      65725C63 
 10453      65343935 
 10453      305C6365 
 10453      34393530 
 10454 081b 34393530 		.ascii	"4950-term-project.cydsn\000"
 10454      2D746572 
 10454      6D2D7072 
 10454      6F6A6563 
 10454      742E6379 
 10455              	.LASF24:
 10456 0833 6C6F6E67 		.ascii	"long double\000"
 10456      20646F75 
 10456      626C6500 
 10457              	.LASF44:
 10458 083f 54594C45 		.ascii	"TYLER_WELLS\000"
 10458      525F5745 
 10458      4C4C5300 
 10459              	.LASF23:
 10460 084b 63686172 		.ascii	"char\000"
 10460      00
 10461              	.LASF32:
 10462 0850 43555254 		.ascii	"CURT_HENRICHS\000"
 10462      5F48454E 
 10462      52494348 
 10462      5300
 10463              	.LASF114:
 10464 085e 75617274 		.ascii	"uart_mode\000"
 10464      5F6D6F64 
 10464      6500
 10465              	.LASF17:
 10466 0868 756E7369 		.ascii	"unsigned int\000"
 10466      676E6564 
 10466      20696E74 
 10466      00
 10467              	.LASF154:
 10468 0875 4C43445F 		.ascii	"LCD_PrintString\000"
 10468      5072696E 
 10468      74537472 
 10468      696E6700 
 10469              	.LASF82:
 10470 0885 54585F42 		.ascii	"TX_BACKOFF\000"
 10470      41434B4F 
 10470      464600
 10471              	.LASF81:
 10472 0890 54585F43 		.ascii	"TX_CHAR\000"
 10472      48415200 
 10473              	.LASF85:
 10474 0898 444C4C5F 		.ascii	"DLL_NO_CRC\000"
 10474      4E4F5F43 
 10474      524300
 10475              	.LASF109:
 10476 08a3 696E6465 		.ascii	"index\000"
 10476      7800
 10477              	.LASF62:
 10478 08a9 48554E54 		.ascii	"HUNTER_PARKS\000"
ARM GAS  C:\Users\HENRIC~1\AppData\Local\Temp\ccRPnI9G.s 			page 224


 10478      45525F50 
 10478      41524B53 
 10478      00
 10479              	.LASF105:
 10480 08b6 62756666 		.ascii	"buffer\000"
 10480      657200
 10481              	.LASF51:
 10482 08bd 43414C45 		.ascii	"CALEB_BAHR\000"
 10482      425F4241 
 10482      485200
 10483              	.LASF65:
 10484 08c8 4A414D45 		.ascii	"JAMES_SHIPP\000"
 10484      535F5348 
 10484      49505000 
 10485              	.LASF49:
 10486 08d4 414C5749 		.ascii	"ALWIN_ABRAHAM\000"
 10486      4E5F4142 
 10486      52414841 
 10486      4D00
 10487              	.LASF41:
 10488 08e2 4A4F484E 		.ascii	"JOHN_SELFORS\000"
 10488      5F53454C 
 10488      464F5253 
 10488      00
 10489              	.LASF29:
 10490 08ef 50414D45 		.ascii	"PAMELA_ANTAR\000"
 10490      4C415F41 
 10490      4E544152 
 10490      00
 10491              	.LASF76:
 10492 08fc 434D5F53 		.ascii	"CM_STATE_BUSY\000"
 10492      54415445 
 10492      5F425553 
 10492      5900
 10493              	.LASF177:
 10494 090a 6D656D63 		.ascii	"memcpy\000"
 10494      707900
 10495              	.LASF61:
 10496 0911 4D415552 		.ascii	"MAURIZIO_PADILLA\000"
 10496      495A494F 
 10496      5F504144 
 10496      494C4C41 
 10496      00
 10497              	.LASF115:
 10498 0922 64697370 		.ascii	"disp\000"
 10498      00
 10499              	.LASF161:
 10500 0927 43794465 		.ascii	"CyDelay\000"
 10500      6C617900 
 10501              	.LASF56:
 10502 092f 47455241 		.ascii	"GERALD_GEHRKE\000"
 10502      4C445F47 
 10502      4548524B 
 10502      4500
 10503              	.LASF46:
 10504 093d 4A4F5348 		.ascii	"JOSHUA_WIDDER\000"
 10504      55415F57 
ARM GAS  C:\Users\HENRIC~1\AppData\Local\Temp\ccRPnI9G.s 			page 225


 10504      49444445 
 10504      5200
 10505              	.LASF58:
 10506 094b 4144414D 		.ascii	"ADAM_HAY\000"
 10506      5F484159 
 10506      00
 10507              	.LASF152:
 10508 0954 4C43445F 		.ascii	"LCD_WriteControl\000"
 10508      57726974 
 10508      65436F6E 
 10508      74726F6C 
 10508      00
 10509              	.LASF111:
 10510 0965 69746572 		.ascii	"iterate\000"
 10510      61746500 
 10511              	.LASF66:
 10512 096d 4C415752 		.ascii	"LAWRENCE_SKUSE\000"
 10512      454E4345 
 10512      5F534B55 
 10512      534500
 10513              	.LASF124:
 10514 097c 72657065 		.ascii	"repeat_string_2_mode\000"
 10514      61745F73 
 10514      7472696E 
 10514      675F325F 
 10514      6D6F6465 
 10515              	.LASF176:
 10516 0991 6D656D73 		.ascii	"memset\000"
 10516      657400
 10517              	.LASF67:
 10518 0998 574F4F44 		.ascii	"WOODROW_WALKER\000"
 10518      524F575F 
 10518      57414C4B 
 10518      455200
 10519              	.LASF117:
 10520 09a7 74785374 		.ascii	"txStr_index\000"
 10520      725F696E 
 10520      64657800 
 10521              	.LASF91:
 10522 09b3 6D73675F 		.ascii	"msg_size\000"
 10522      73697A65 
 10522      00
 10523              	.LASF55:
 10524 09bc 52494C45 		.ascii	"RILEY_BRUCE\000"
 10524      595F4252 
 10524      55434500 
 10525              	.LASF138:
 10526 09c8 74785F73 		.ascii	"tx_state\000"
 10526      74617465 
 10526      00
 10527              	.LASF18:
 10528 09d1 75696E74 		.ascii	"uint8_t\000"
 10528      385F7400 
 10529              	.LASF153:
 10530 09d9 4C43445F 		.ascii	"LCD_Position\000"
 10530      506F7369 
 10530      74696F6E 
ARM GAS  C:\Users\HENRIC~1\AppData\Local\Temp\ccRPnI9G.s 			page 226


 10530      00
 10531              	.LASF89:
 10532 09e6 444C4C5F 		.ascii	"DLL_CRC_Use_e\000"
 10532      4352435F 
 10532      5573655F 
 10532      6500
 10533              	.LASF112:
 10534 09f4 6E657874 		.ascii	"nextState\000"
 10534      53746174 
 10534      6500
 10535              	.LASF163:
 10536 09fe 75617274 		.ascii	"uart_has_data\000"
 10536      5F686173 
 10536      5F646174 
 10536      6100
 10537              	.LASF116:
 10538 0a0c 74785374 		.ascii	"txStr\000"
 10538      7200
 10539              	.LASF26:
 10540 0a12 54657374 		.ascii	"Test_Cases\000"
 10540      5F436173 
 10540      657300
 10541              	.LASF104:
 10542 0a1d 4D656E75 		.ascii	"Menu_States_e\000"
 10542      5F537461 
 10542      7465735F 
 10542      6500
 10543              	.LASF173:
 10544 0a2b 43617053 		.ascii	"CapSense_ScanEnabledWidgets\000"
 10544      656E7365 
 10544      5F536361 
 10544      6E456E61 
 10544      626C6564 
 10545              	.LASF77:
 10546 0a47 434D5F53 		.ascii	"CM_STATE_COLLISION\000"
 10546      54415445 
 10546      5F434F4C 
 10546      4C495349 
 10546      4F4E00
 10547              	.LASF98:
 10548 0a5a 4D454E55 		.ascii	"MENU_DISPLAY\000"
 10548      5F444953 
 10548      504C4159 
 10548      00
 10549              	.LASF34:
 10550 0a67 414E5448 		.ascii	"ANTHONY_MARLOWE\000"
 10550      4F4E595F 
 10550      4D41524C 
 10550      4F574500 
 10551              	.LASF38:
 10552 0a77 44495649 		.ascii	"DIVIN_RAMACHANDRAN\000"
 10552      4E5F5241 
 10552      4D414348 
 10552      414E4452 
 10552      414E00
 10553              	.LASF87:
 10554 0a8a 444C4C5F 		.ascii	"DLL_MESSAGE_CRC\000"
ARM GAS  C:\Users\HENRIC~1\AppData\Local\Temp\ccRPnI9G.s 			page 227


 10554      4D455353 
 10554      4147455F 
 10554      43524300 
 10555              	.LASF74:
 10556 0a9a 434D5F53 		.ascii	"CM_STATE_INIT\000"
 10556      54415445 
 10556      5F494E49 
 10556      5400
 10557              	.LASF171:
 10558 0aa8 43617053 		.ascii	"CapSense_IsBusy\000"
 10558      656E7365 
 10558      5F497342 
 10558      75737900 
 10559              		.ident	"GCC: (GNU Tools for ARM Embedded Processors) 5.4.1 20160609 (release) [ARM/embedded-5-bran
