ARM GAS  C:\Users\HENRIC~1\AppData\Local\Temp\ccRPnI9G.s 			page 1


   1              		.syntax unified
   2              		.cpu cortex-m3
   3              		.fpu softvfp
   4              		.eabi_attribute 20, 1
   5              		.eabi_attribute 21, 1
   6              		.eabi_attribute 23, 3
   7              		.eabi_attribute 24, 1
   8              		.eabi_attribute 25, 1
   9              		.eabi_attribute 26, 1
  10              		.eabi_attribute 30, 1
  11              		.eabi_attribute 34, 1
  12              		.eabi_attribute 18, 4
  13              		.thumb
  14              		.syntax unified
  15              		.file	"Tests.c"
  16              		.text
  17              	.Ltext0:
  18              		.cfi_sections	.debug_frame
  19              		.section	.text.crc_algorithm,"ax",%progbits
  20              		.align	2
  21              		.thumb
  22              		.thumb_func
  23              		.type	crc_algorithm, %function
  24              	crc_algorithm:
  25              	.LFB77:
  26              		.file 1 "Tests.c"
   1:Tests.c       **** /**
   2:Tests.c       ****  * Tests
   3:Tests.c       ****  * @author Curt Henrichs
   4:Tests.c       ****  * @date 1-11-18
   5:Tests.c       ****  *
   6:Tests.c       ****  * Tests module encapsulates the test cases applied to the term project. 
   7:Tests.c       ****  * Each test case is build with reference to a written test plan corresponding
   8:Tests.c       ****  * to the enumerated week.
   9:Tests.c       ****  *
  10:Tests.c       ****  * Before building the application one should verify the TEST_CASE 
  11:Tests.c       ****  * configuration parameter is valid. Additionally, ensure all necessary 
  12:Tests.c       ****  * hardware and system drivers are initialized outside of this module.
  13:Tests.c       ****  */
  14:Tests.c       **** 
  15:Tests.c       **** //=============================================================================
  16:Tests.c       **** //                                 Libraries
  17:Tests.c       **** //=============================================================================
  18:Tests.c       **** 
  19:Tests.c       **** #include "Tests.h"
  20:Tests.c       **** 
  21:Tests.c       **** #include "project.h"
  22:Tests.c       **** #include <stdbool.h>
  23:Tests.c       **** #include <string.h>
  24:Tests.c       **** #include <stdio.h>
  25:Tests.c       **** 
  26:Tests.c       **** #include "UserAddressAllocation.h"
  27:Tests.c       **** #include "DataLinkLayer.h"
  28:Tests.c       **** 
  29:Tests.c       **** #include "CSMA_CD_Bus.h"
  30:Tests.c       **** #include "ChannelMonitor.h"
  31:Tests.c       **** #include "Transmitter.h"
ARM GAS  C:\Users\HENRIC~1\AppData\Local\Temp\ccRPnI9G.s 			page 2


  32:Tests.c       **** #include "Receiver.h"
  33:Tests.c       **** #include "Uart.h"
  34:Tests.c       **** 
  35:Tests.c       **** //=============================================================================
  36:Tests.c       **** //                       Constant and Macro Definitions : Week 5
  37:Tests.c       **** //=============================================================================
  38:Tests.c       **** 
  39:Tests.c       **** /** 
  40:Tests.c       ****  * States for test menu application state-machine.
  41:Tests.c       ****  */
  42:Tests.c       **** typedef enum Menu_States {
  43:Tests.c       ****     MENU_START,     //! Initalization state for state machine
  44:Tests.c       ****     MENU_DISPLAY,   //! User driven menu
  45:Tests.c       ****     MENU_UART,      //! Transmit characters from UART
  46:Tests.c       ****     MENU_NUL,       //! Transmit 0x00
  47:Tests.c       ****     MENU_REPEAT_1,  //! Transmit 0xAA
  48:Tests.c       ****     MENU_REPEAT_2,  //! Transmit 0x55
  49:Tests.c       ****     MENU_ONES       //! Transmit 0xFF
  50:Tests.c       **** } Menu_States_e;
  51:Tests.c       **** 
  52:Tests.c       **** #define NUM_SELECTABLE_OPTIONS (5) //! Menu selectable states
  53:Tests.c       **** 
  54:Tests.c       **** #define CAPSENSE_SETTLE_TIME  100 //! Time to delay during initialization (ms)
  55:Tests.c       **** 
  56:Tests.c       **** //=============================================================================
  57:Tests.c       **** //                        Private Function Prototypes : Week 5
  58:Tests.c       **** //=============================================================================
  59:Tests.c       **** 
  60:Tests.c       **** /** 
  61:Tests.c       ****  * Display test case menu
  62:Tests.c       ****  * @param on_enter first entry of state-machine for one-time logic
  63:Tests.c       ****  * @return next state as selected by user else this state if no selection
  64:Tests.c       ****  */
  65:Tests.c       **** static Menu_States_e display(bool on_enter);
  66:Tests.c       **** /** 
  67:Tests.c       ****  * UART test case - transmit buffered message from USBUART.
  68:Tests.c       ****  * @param on_enter first entry of state-machine for one-time logic
  69:Tests.c       ****  * @return this state until user presses return button
  70:Tests.c       ****  */
  71:Tests.c       **** static Menu_States_e uart_mode(bool on_enter);
  72:Tests.c       **** /** 
  73:Tests.c       ****  * 0x00 test case - transmit string of 0x00 characters
  74:Tests.c       ****  * @param on_enter first entry of state-machine for one-time logic
  75:Tests.c       ****  * @return this state until user presses return button
  76:Tests.c       ****  */
  77:Tests.c       **** static Menu_States_e nul_string_mode(bool on_enter);
  78:Tests.c       **** /** 
  79:Tests.c       ****  * 0xAA test case - transmit string of 0xAA characters
  80:Tests.c       ****  * @param on_enter first entry of state-machine for one-time logic
  81:Tests.c       ****  * @return this state until user presses return button
  82:Tests.c       ****  */
  83:Tests.c       **** static Menu_States_e repeat_string_1_mode(bool on_enter);
  84:Tests.c       **** /** 
  85:Tests.c       ****  * 0x55 test case - transmit string of 0x55 characters
  86:Tests.c       ****  * @param on_enter first entry of state-machine for one-time logic
  87:Tests.c       ****  * @return this state until user presses return button
  88:Tests.c       ****  */
ARM GAS  C:\Users\HENRIC~1\AppData\Local\Temp\ccRPnI9G.s 			page 3


  89:Tests.c       **** static Menu_States_e repeat_string_2_mode(bool on_enter);
  90:Tests.c       **** /** 
  91:Tests.c       ****  * 0xFF test case - transmit string of 0xFF characters
  92:Tests.c       ****  * @param on_enter first entry of state-machine for one-time logic
  93:Tests.c       ****  * @return this state until user presses return button
  94:Tests.c       ****  */
  95:Tests.c       **** static Menu_States_e ones_mode(bool on_enter);
  96:Tests.c       **** 
  97:Tests.c       **** //=============================================================================
  98:Tests.c       **** //                          Private Attribute : Week 5
  99:Tests.c       **** //=============================================================================
 100:Tests.c       **** 
 101:Tests.c       **** /** 
 102:Tests.c       ****  * Menu states selected
 103:Tests.c       ****  */
 104:Tests.c       **** static Menu_States_e MENU_OPTIONS_LIST[NUM_SELECTABLE_OPTIONS];
 105:Tests.c       **** /** 
 106:Tests.c       ****  * Menu string naming the options
 107:Tests.c       ****  */
 108:Tests.c       **** static const char* MENU_OPTIONS_TAGS[NUM_SELECTABLE_OPTIONS];
 109:Tests.c       **** 
 110:Tests.c       **** //=============================================================================
 111:Tests.c       **** //                   Private Function Implementation : Week 10
 112:Tests.c       **** //=============================================================================
 113:Tests.c       **** 
 114:Tests.c       **** /**
 115:Tests.c       ****  * CRC calulation algorithm used in both the transmitter and receiver
 116:Tests.c       ****  * @param buffer is pointer to message to calculate over
 117:Tests.c       ****  * @param len is number of bytes in message to calculate over
 118:Tests.c       ****  * @return 4-bit CRC value
 119:Tests.c       ****  */
 120:Tests.c       **** static uint8_t crc_algorithm(uint8_t* buffer, uint8_t len);
 121:Tests.c       **** 
 122:Tests.c       **** //=============================================================================
 123:Tests.c       **** //                         Public Function Implementation
 124:Tests.c       **** //=============================================================================
 125:Tests.c       **** 
 126:Tests.c       **** /**
 127:Tests.c       ****  * Testing module main function will run selected test week
 128:Tests.c       ****  * @return --ignore
 129:Tests.c       ****  */
 130:Tests.c       **** int tests_main(void){
 131:Tests.c       ****     
 132:Tests.c       ****     //initialization routine
 133:Tests.c       ****     CyGlobalIntEnable; 
 134:Tests.c       ****     uart_init();
 135:Tests.c       ****     LCD_Start();
 136:Tests.c       ****     LCD_ClearDisplay();
 137:Tests.c       ****     CapSense_Start();
 138:Tests.c       ****     CyDelay(CAPSENSE_SETTLE_TIME);
 139:Tests.c       ****     CapSense_InitializeAllBaselines();
 140:Tests.c       ****     
 141:Tests.c       ****     switch(CURRENT_TEST){
 142:Tests.c       ****         case TEST_CASE_WEEK_3:
 143:Tests.c       ****             tests_week3();
 144:Tests.c       ****             break;
 145:Tests.c       ****         case TEST_CASE_WEEK_5:
ARM GAS  C:\Users\HENRIC~1\AppData\Local\Temp\ccRPnI9G.s 			page 4


 146:Tests.c       ****             tests_week5();
 147:Tests.c       ****             break;
 148:Tests.c       ****         case TEST_CASE_WEEK_6:
 149:Tests.c       ****             tests_week6();
 150:Tests.c       ****             break;
 151:Tests.c       ****         case TEST_CASE_WEEK_8:
 152:Tests.c       ****             tests_week8();
 153:Tests.c       ****             break;
 154:Tests.c       ****         case TEST_CASE_WEEK_9:
 155:Tests.c       ****             tests_week9();
 156:Tests.c       ****             break;
 157:Tests.c       ****         case TEST_CASE_WEEK_10:
 158:Tests.c       ****             tests_week10();
 159:Tests.c       ****             break;
 160:Tests.c       ****     }
 161:Tests.c       ****     
 162:Tests.c       ****     while(1){/* flow capture loop */}
 163:Tests.c       ****     
 164:Tests.c       ****     return 0; /* ignore */
 165:Tests.c       **** }
 166:Tests.c       **** 
 167:Tests.c       **** /** 
 168:Tests.c       ****  * Test for week 3 is to determine functionality of the channel monitor
 169:Tests.c       ****  */
 170:Tests.c       **** void tests_week3(void){
 171:Tests.c       ****     csma_bus_init();
 172:Tests.c       ****     cm_init();
 173:Tests.c       ****     tx_init();
 174:Tests.c       ****     rx_init();
 175:Tests.c       ****     
 176:Tests.c       ****     CM_State_e ch_state = cm_get_bus_state();
 177:Tests.c       ****     const char* str = NULL;
 178:Tests.c       ****     uint8_t state_trig = 0;
 179:Tests.c       ****     
 180:Tests.c       ****     while(true){
 181:Tests.c       ****         
 182:Tests.c       ****         ch_state = cm_get_bus_state();
 183:Tests.c       ****         switch(ch_state){
 184:Tests.c       ****             case CM_STATE_INIT:
 185:Tests.c       ****                 str = "INIT";
 186:Tests.c       ****                 break;
 187:Tests.c       ****             case CM_STATE_IDLE:
 188:Tests.c       ****                 str = "IDLE";
 189:Tests.c       ****                 break;
 190:Tests.c       ****             case CM_STATE_BUSY:
 191:Tests.c       ****                 str = "BUSY";
 192:Tests.c       ****                 break;
 193:Tests.c       ****             case CM_STATE_COLLISION:
 194:Tests.c       ****                 str = "COLLISION";
 195:Tests.c       ****                 break;
 196:Tests.c       ****             default:
 197:Tests.c       ****                 str = "";
 198:Tests.c       ****                 break;
 199:Tests.c       ****         }
 200:Tests.c       ****         
 201:Tests.c       ****         LCD_ClearDisplay();
 202:Tests.c       ****         LCD_Position(0,0);
ARM GAS  C:\Users\HENRIC~1\AppData\Local\Temp\ccRPnI9G.s 			page 5


 203:Tests.c       ****         LCD_PrintString(str);
 204:Tests.c       ****         LCD_Position(1,0);
 205:Tests.c       ****         LCD_PrintHexUint8(state_trig);
 206:Tests.c       ****         state_trig |= CM_Test_State_Reg_Read();
 207:Tests.c       ****         CyDelay(10);
 208:Tests.c       ****     }
 209:Tests.c       **** }
 210:Tests.c       **** 
 211:Tests.c       **** /**
 212:Tests.c       ****  * Test for week 5 is a state-machine with user driven menu to select between
 213:Tests.c       ****  * several test cases for transmitter functionality tests.
 214:Tests.c       ****  */
 215:Tests.c       **** void tests_week5(void){
 216:Tests.c       ****     csma_bus_init();
 217:Tests.c       ****     cm_init();
 218:Tests.c       ****     tx_init();
 219:Tests.c       ****     rx_init();
 220:Tests.c       ****     
 221:Tests.c       ****     MENU_OPTIONS_LIST[0] = MENU_UART;
 222:Tests.c       ****     MENU_OPTIONS_LIST[1] = MENU_NUL;
 223:Tests.c       ****     MENU_OPTIONS_LIST[2] = MENU_REPEAT_1;
 224:Tests.c       ****     MENU_OPTIONS_LIST[3] = MENU_REPEAT_2;
 225:Tests.c       ****     MENU_OPTIONS_LIST[4] = MENU_ONES;
 226:Tests.c       ****     
 227:Tests.c       ****     MENU_OPTIONS_TAGS[0] = "UART";
 228:Tests.c       ****     MENU_OPTIONS_TAGS[1] = "REPEAT 0x00";
 229:Tests.c       ****     MENU_OPTIONS_TAGS[2] = "REPEAT 0xAA";
 230:Tests.c       ****     MENU_OPTIONS_TAGS[3] = "REPEAT 0x55";
 231:Tests.c       ****     MENU_OPTIONS_TAGS[4] = "REPEAT 0xFF";
 232:Tests.c       ****     
 233:Tests.c       ****     // Test State-Machine for menu driven control
 234:Tests.c       ****     Menu_States_e curr_state = MENU_DISPLAY;
 235:Tests.c       ****     Menu_States_e next_state = MENU_START;
 236:Tests.c       ****     bool on_enter = true;
 237:Tests.c       ****     while(true){
 238:Tests.c       ****         
 239:Tests.c       ****         //update capacitive touch user input
 240:Tests.c       ****         if(!CapSense_IsBusy()){
 241:Tests.c       ****             CapSense_UpdateEnabledBaselines();
 242:Tests.c       ****             CapSense_ScanEnabledWidgets();
 243:Tests.c       ****         }
 244:Tests.c       ****         
 245:Tests.c       ****         switch(curr_state){
 246:Tests.c       ****             case MENU_DISPLAY:
 247:Tests.c       ****                 next_state = display(on_enter);
 248:Tests.c       ****                 break;
 249:Tests.c       ****             case MENU_UART:
 250:Tests.c       ****                 next_state = uart_mode(on_enter);
 251:Tests.c       ****                 break;
 252:Tests.c       ****             case MENU_NUL:
 253:Tests.c       ****                 next_state = nul_string_mode(on_enter);
 254:Tests.c       ****                 break;
 255:Tests.c       ****             case MENU_REPEAT_1:
 256:Tests.c       ****                 next_state = repeat_string_1_mode(on_enter);
 257:Tests.c       ****                 break;
 258:Tests.c       ****             case MENU_REPEAT_2:
 259:Tests.c       ****                 next_state = repeat_string_2_mode(on_enter);
ARM GAS  C:\Users\HENRIC~1\AppData\Local\Temp\ccRPnI9G.s 			page 6


 260:Tests.c       ****                 break;
 261:Tests.c       ****             case MENU_ONES:
 262:Tests.c       ****                 next_state = ones_mode(on_enter);
 263:Tests.c       ****                 break;
 264:Tests.c       ****             default:
 265:Tests.c       ****                 next_state = MENU_DISPLAY;
 266:Tests.c       ****                 break;
 267:Tests.c       ****         }
 268:Tests.c       ****         
 269:Tests.c       ****         on_enter = (next_state != curr_state);
 270:Tests.c       ****         curr_state = next_state;
 271:Tests.c       ****     }
 272:Tests.c       **** }
 273:Tests.c       **** 
 274:Tests.c       **** /** 
 275:Tests.c       ****  * Test week 6 will verify correct behavior for interaction between channel
 276:Tests.c       ****  * monitor and transmission module.
 277:Tests.c       ****  */
 278:Tests.c       **** void tests_week6(void){
 279:Tests.c       ****     csma_bus_init();
 280:Tests.c       ****     cm_init();
 281:Tests.c       ****     tx_init();
 282:Tests.c       ****     rx_init();
 283:Tests.c       ****     
 284:Tests.c       ****     static char buffer[USBUART_BUFFER_SIZE];
 285:Tests.c       ****     static char disp[16];
 286:Tests.c       ****     static char txStr[33];
 287:Tests.c       ****     static uint8_t txStr_index;
 288:Tests.c       ****     
 289:Tests.c       ****     memset(txStr,0,sizeof(txStr));
 290:Tests.c       ****     txStr_index = 0;
 291:Tests.c       ****     
 292:Tests.c       ****     LCD_ClearDisplay();
 293:Tests.c       ****     LCD_Position(0,0);
 294:Tests.c       ****     LCD_PrintString("UART:");
 295:Tests.c       **** 
 296:Tests.c       ****     while(true){
 297:Tests.c       ****         uart_update();
 298:Tests.c       ****         
 299:Tests.c       ****         if(uart_has_data()){
 300:Tests.c       ****             memset(buffer,'\0',sizeof(buffer));
 301:Tests.c       ****             uint16_t numChar = uart_read(buffer,sizeof(buffer));
 302:Tests.c       ****             uart_write(buffer,strlen(buffer));
 303:Tests.c       ****             
 304:Tests.c       ****             LCD_ClearDisplay();
 305:Tests.c       ****             LCD_Position(0,0);
 306:Tests.c       ****             LCD_PrintString("UART:");
 307:Tests.c       ****             LCD_Position(1,0);
 308:Tests.c       ****             memcpy(disp,buffer,15);
 309:Tests.c       ****             disp[15] = 0;
 310:Tests.c       ****             LCD_PrintString(disp);
 311:Tests.c       ****             
 312:Tests.c       ****             bool nl_found = false;
 313:Tests.c       ****             uint8_t index = 0;
 314:Tests.c       ****             char c;
 315:Tests.c       ****             while(!nl_found && txStr_index < (sizeof(txStr)-1) && index < numChar){
 316:Tests.c       ****                 c = buffer[index];
ARM GAS  C:\Users\HENRIC~1\AppData\Local\Temp\ccRPnI9G.s 			page 7


 317:Tests.c       ****                 index++;
 318:Tests.c       ****                 if(c == '\n' || c == '\r'){
 319:Tests.c       ****                     txStr[txStr_index] = '\0';
 320:Tests.c       ****                     nl_found = true;
 321:Tests.c       ****                 }else{
 322:Tests.c       ****                     txStr[txStr_index] = c;
 323:Tests.c       ****                 }
 324:Tests.c       ****                 txStr_index++;
 325:Tests.c       ****             }
 326:Tests.c       ****             
 327:Tests.c       ****             //buffer full, last character is nul
 328:Tests.c       ****             if(txStr_index >= (sizeof(txStr)-1)){
 329:Tests.c       ****                 txStr[32] = '\0';
 330:Tests.c       ****                 nl_found = true;
 331:Tests.c       ****             }
 332:Tests.c       ****             
 333:Tests.c       ****             //transmit if newline or full
 334:Tests.c       ****             if(nl_found){
 335:Tests.c       ****                 txStr_index = 0;
 336:Tests.c       ****                 LCD_Position(1,0);
 337:Tests.c       ****                 LCD_PrintString("Transmitting");
 338:Tests.c       ****                 tx_write(txStr,strlen(txStr));
 339:Tests.c       ****                 while(tx_get_status() != TX_DONE){/*Intentionally Empty*/}
 340:Tests.c       ****                 CyDelay(100);
 341:Tests.c       ****                 LCD_Position(1,0);
 342:Tests.c       ****                 LCD_PrintString("            ");
 343:Tests.c       ****             }
 344:Tests.c       ****         }
 345:Tests.c       ****     }
 346:Tests.c       **** }
 347:Tests.c       **** 
 348:Tests.c       **** /**
 349:Tests.c       ****  * Test week 8 will test the developed receiver module for valid interpretation
 350:Tests.c       ****  * of characters. Note that header information is not handled.
 351:Tests.c       ****  */
 352:Tests.c       **** void tests_week8(void){
 353:Tests.c       ****     csma_bus_init();
 354:Tests.c       ****     cm_init();
 355:Tests.c       ****     tx_init();
 356:Tests.c       ****     rx_init();
 357:Tests.c       ****     
 358:Tests.c       ****     static char txStr[33];
 359:Tests.c       ****     static uint8_t txStr_index;
 360:Tests.c       ****     memset(txStr,0,sizeof(txStr));
 361:Tests.c       ****     txStr_index = 0;
 362:Tests.c       ****     
 363:Tests.c       ****     char buffer[USBUART_BUFFER_SIZE];
 364:Tests.c       ****     char str[17];
 365:Tests.c       ****     
 366:Tests.c       ****     LCD_ClearDisplay();
 367:Tests.c       ****    
 368:Tests.c       ****     while(1){
 369:Tests.c       ****         uart_update();
 370:Tests.c       ****         
 371:Tests.c       ****         if(uart_has_data()){
 372:Tests.c       ****             memset(buffer,'\0',sizeof(buffer));
 373:Tests.c       ****             uint16_t numChar = uart_read(buffer,sizeof(buffer));
ARM GAS  C:\Users\HENRIC~1\AppData\Local\Temp\ccRPnI9G.s 			page 8


 374:Tests.c       ****             uart_write(buffer,strlen(buffer));
 375:Tests.c       ****             
 376:Tests.c       ****             bool nl_found = false;
 377:Tests.c       ****             uint8_t index = 0;
 378:Tests.c       ****             char c;
 379:Tests.c       ****             while(!nl_found && txStr_index < (sizeof(txStr)-1) && index < numChar){
 380:Tests.c       ****                 c = buffer[index];
 381:Tests.c       ****                 index++;
 382:Tests.c       ****                 if(c == '\n' || c == '\r'){
 383:Tests.c       ****                     txStr[txStr_index] = '\0';
 384:Tests.c       ****                     nl_found = true;
 385:Tests.c       ****                 }else{
 386:Tests.c       ****                     txStr[txStr_index] = c;
 387:Tests.c       ****                 }
 388:Tests.c       ****                 txStr_index++;
 389:Tests.c       ****             }
 390:Tests.c       ****             
 391:Tests.c       ****             //buffer full, last character is nul
 392:Tests.c       ****             if(txStr_index >= (sizeof(txStr)-1)){
 393:Tests.c       ****                 txStr[32] = '\0';
 394:Tests.c       ****                 nl_found = true;
 395:Tests.c       ****             }
 396:Tests.c       ****             
 397:Tests.c       ****             //transmit if newline or full
 398:Tests.c       ****             if(nl_found){
 399:Tests.c       ****                 txStr_index = 0;
 400:Tests.c       ****                 tx_write(txStr,strlen(txStr));
 401:Tests.c       ****                 while(tx_get_status() != TX_DONE){/*Intentionally Empty*/}
 402:Tests.c       ****             }
 403:Tests.c       ****         }
 404:Tests.c       ****         
 405:Tests.c       ****         if(rx_has_data()){
 406:Tests.c       ****             uint8_t count = rx_buffer(buffer,sizeof(buffer));
 407:Tests.c       ****             LCD_ClearDisplay();
 408:Tests.c       ****             LCD_Position(0,0);
 409:Tests.c       ****             sprintf(str,"Size: %d",count);
 410:Tests.c       ****             LCD_PrintString(str);
 411:Tests.c       ****             LCD_Position(1,0);
 412:Tests.c       ****             uint8_t cpy = (count < 16) ? count : 16;
 413:Tests.c       ****             memcpy(str,buffer,cpy);
 414:Tests.c       ****             str[cpy] = 0;
 415:Tests.c       ****             //sprintf(str,"ASCII: %d",(uint8_t)(buffer[0]));
 416:Tests.c       ****             LCD_PrintString(str);
 417:Tests.c       ****             uart_write(buffer,count);
 418:Tests.c       ****         }
 419:Tests.c       ****         
 420:Tests.c       ****         if(!CapSense_IsBusy()){
 421:Tests.c       ****             CapSense_UpdateEnabledBaselines();
 422:Tests.c       ****             CapSense_ScanEnabledWidgets();
 423:Tests.c       ****         }
 424:Tests.c       ****         
 425:Tests.c       ****         if(CapSense_CheckIsWidgetActive(CapSense_LEFT__BTN)){
 426:Tests.c       ****             LCD_ClearDisplay();   
 427:Tests.c       ****         }
 428:Tests.c       ****     }
 429:Tests.c       **** }
 430:Tests.c       **** 
ARM GAS  C:\Users\HENRIC~1\AppData\Local\Temp\ccRPnI9G.s 			page 9


 431:Tests.c       **** /**
 432:Tests.c       ****  * Test week 9 will prove basic interoperability and compliance to CSMA/CD 
 433:Tests.c       ****  * protocol using the expected data headers.
 434:Tests.c       ****  */
 435:Tests.c       **** void tests_week9(void){
 436:Tests.c       ****     user_init();
 437:Tests.c       ****     dll_init();
 438:Tests.c       ****     dll_set_user(CURT_HENRICHS);
 439:Tests.c       ****     
 440:Tests.c       ****     static char txStr[45];
 441:Tests.c       ****     static uint8_t txStr_index;
 442:Tests.c       ****     memset(txStr,0,sizeof(txStr));
 443:Tests.c       ****     txStr_index = 0;
 444:Tests.c       ****     
 445:Tests.c       ****     char buffer[USBUART_BUFFER_SIZE];
 446:Tests.c       ****     char str[50];
 447:Tests.c       ****     
 448:Tests.c       ****     LCD_ClearDisplay();
 449:Tests.c       ****     
 450:Tests.c       ****     uint8_t state = 0;
 451:Tests.c       ****     bool button_held_down = false;
 452:Tests.c       ****     
 453:Tests.c       ****     uint8_t tx_state = 0;
 454:Tests.c       ****     bool tx_bool = false;
 455:Tests.c       ****     uint8_t rx_state = 0;
 456:Tests.c       ****     uint8_t lk_state = 0;
 457:Tests.c       ****     
 458:Tests.c       ****     while(1){
 459:Tests.c       ****         dll_update();   
 460:Tests.c       ****         
 461:Tests.c       ****         if(!CapSense_IsBusy()){
 462:Tests.c       ****             CapSense_UpdateEnabledBaselines();
 463:Tests.c       ****             CapSense_ScanEnabledWidgets();
 464:Tests.c       ****         }
 465:Tests.c       ****         
 466:Tests.c       ****         if(CapSense_CheckIsWidgetActive(CapSense_LEFT__BTN)){
 467:Tests.c       ****             if(!button_held_down){
 468:Tests.c       ****                 button_held_down = true;
 469:Tests.c       ****                 state = (state + 1) % 3;
 470:Tests.c       ****                 tx_state = 0;
 471:Tests.c       ****                 tx_bool = false;
 472:Tests.c       ****                 rx_state = 0;
 473:Tests.c       ****                 lk_state = 0;
 474:Tests.c       ****             }
 475:Tests.c       ****         }else{
 476:Tests.c       ****             button_held_down = false;   
 477:Tests.c       ****         }
 478:Tests.c       ****         
 479:Tests.c       ****         uart_update();
 480:Tests.c       ****         
 481:Tests.c       ****         DLL_Message_t msg;
 482:Tests.c       ****         switch(state){
 483:Tests.c       ****             case 0: // Transmit mode
 484:Tests.c       ****                 if(!tx_bool){
 485:Tests.c       ****                     tx_bool = true;
 486:Tests.c       ****                     LCD_ClearDisplay();
 487:Tests.c       ****                     LCD_Position(0,0);
ARM GAS  C:\Users\HENRIC~1\AppData\Local\Temp\ccRPnI9G.s 			page 10


 488:Tests.c       ****                     LCD_PrintString("Transmit");
 489:Tests.c       ****                 }
 490:Tests.c       ****                 switch(tx_state){
 491:Tests.c       ****                     case 0:
 492:Tests.c       ****                         //expect transmit
 493:Tests.c       ****                         if(dll_tx_finished()){
 494:Tests.c       ****                             CyDelay(50);
 495:Tests.c       ****                             tx_state = 1;
 496:Tests.c       ****                             msg.src = 0x0B;
 497:Tests.c       ****                             msg.dst = 0x00;
 498:Tests.c       ****                             msg.msg_size = 0;
 499:Tests.c       ****                             msg.msg[0] = 0;
 500:Tests.c       ****                             msg.use_crc = DLL_NO_CRC;
 501:Tests.c       ****                             dll_write(&msg);
 502:Tests.c       ****                         }
 503:Tests.c       ****                         break;
 504:Tests.c       ****                     case 1:
 505:Tests.c       ****                         //expect transmit
 506:Tests.c       ****                         if(dll_tx_finished()){
 507:Tests.c       ****                             CyDelay(50);
 508:Tests.c       ****                             tx_state = 2;
 509:Tests.c       ****                             msg.src = 0x0B;
 510:Tests.c       ****                             msg.dst = 0x15;
 511:Tests.c       ****                             msg.msg_size = 44;
 512:Tests.c       ****                             for(int i=0; i<44; i++){
 513:Tests.c       ****                                 msg.msg[i] = 'a';   
 514:Tests.c       ****                             }
 515:Tests.c       ****                             msg.use_crc = DLL_NO_CRC;
 516:Tests.c       ****                             dll_write(&msg);
 517:Tests.c       ****                         }
 518:Tests.c       ****                         break;
 519:Tests.c       ****                     case 2:
 520:Tests.c       ****                         //expect transmit
 521:Tests.c       ****                         if(dll_tx_finished()){
 522:Tests.c       ****                             CyDelay(50);
 523:Tests.c       ****                             tx_state = 3;
 524:Tests.c       ****                             msg.src = 0x0B;
 525:Tests.c       ****                             msg.dst = 0x33;
 526:Tests.c       ****                             msg.msg_size = 5;
 527:Tests.c       ****                             strcpy(msg.msg,"Hello");
 528:Tests.c       ****                             msg.use_crc = DLL_NO_CRC;
 529:Tests.c       ****                             dll_write(&msg);
 530:Tests.c       ****                         }
 531:Tests.c       ****                         break;
 532:Tests.c       ****                     case 3:
 533:Tests.c       ****                         //expect no transmit
 534:Tests.c       ****                         if(dll_tx_finished()){
 535:Tests.c       ****                             CyDelay(50);
 536:Tests.c       ****                             tx_state = 0;
 537:Tests.c       ****                             msg.src = 0x0B;
 538:Tests.c       ****                             msg.dst = 0x41;
 539:Tests.c       ****                             msg.msg_size = 45;
 540:Tests.c       ****                             for(int i=0; i<44; i++){
 541:Tests.c       ****                                 msg.msg[i] = 'q';   
 542:Tests.c       ****                             }
 543:Tests.c       ****                             msg.use_crc = DLL_NO_CRC;
 544:Tests.c       ****                             dll_write(&msg);
ARM GAS  C:\Users\HENRIC~1\AppData\Local\Temp\ccRPnI9G.s 			page 11


 545:Tests.c       ****                         }
 546:Tests.c       ****                         break;
 547:Tests.c       ****                     default:
 548:Tests.c       ****                         tx_state = 0;
 549:Tests.c       ****                         break;
 550:Tests.c       ****                 }
 551:Tests.c       ****                 break;
 552:Tests.c       ****             case 1: // Receive mode
 553:Tests.c       ****                 if(!rx_state){
 554:Tests.c       ****                     rx_state = 1;   
 555:Tests.c       ****                     LCD_ClearDisplay();
 556:Tests.c       ****                     LCD_Position(0,0);
 557:Tests.c       ****                     LCD_PrintString("Receive");
 558:Tests.c       ****                 }
 559:Tests.c       ****                 
 560:Tests.c       ****                 if(dll_has_data()){
 561:Tests.c       ****                     uint8_t count = dll_read(&msg);
 562:Tests.c       ****                     sprintf(str,"SRC: %d, DST: %d, SIZE: %d, MSG: ",msg.src,
 563:Tests.c       ****                             msg.dst,msg.msg_size);
 564:Tests.c       ****                     uart_write(str,strlen(str));
 565:Tests.c       ****                     uart_write(msg.msg,count);
 566:Tests.c       ****                     uart_write("\n\r",2);
 567:Tests.c       ****                 }
 568:Tests.c       ****                 break;
 569:Tests.c       ****             case 2: // Linked mode
 570:Tests.c       ****                 if(!lk_state){
 571:Tests.c       ****                     lk_state = 1;   
 572:Tests.c       ****                     LCD_ClearDisplay();
 573:Tests.c       ****                     LCD_Position(0,0);
 574:Tests.c       ****                     LCD_PrintString("Linked");
 575:Tests.c       ****                 }
 576:Tests.c       ****                 
 577:Tests.c       ****                 if(dll_has_data()){
 578:Tests.c       ****                     uint8_t count = dll_read(&msg);
 579:Tests.c       ****                     sprintf(str,"SRC: %d, DST: %d, SIZE: %d, MSG: ",msg.src,
 580:Tests.c       ****                             msg.dst,msg.msg_size);
 581:Tests.c       ****                     uart_write(str,strlen(str));
 582:Tests.c       ****                     uart_write(msg.msg,count);
 583:Tests.c       ****                     uart_write("\n\r",2);
 584:Tests.c       ****                 }
 585:Tests.c       ****                 
 586:Tests.c       ****                 if(uart_has_data()){
 587:Tests.c       ****                     memset(buffer,'\0',sizeof(buffer));
 588:Tests.c       ****                     uint16_t numChar = uart_read(buffer,sizeof(buffer));
 589:Tests.c       ****                     uart_write(buffer,strlen(buffer));
 590:Tests.c       ****                     
 591:Tests.c       ****                     bool nl_found = false;
 592:Tests.c       ****                     uint8_t index = 0;
 593:Tests.c       ****                     char c;
 594:Tests.c       ****                     while(!nl_found && txStr_index < (sizeof(txStr)-1) && 
 595:Tests.c       ****                             index < numChar){
 596:Tests.c       ****                         c = buffer[index];
 597:Tests.c       ****                         index++;
 598:Tests.c       ****                         if(c == '\n' || c == '\r'){
 599:Tests.c       ****                             txStr[txStr_index] = '\0';
 600:Tests.c       ****                             nl_found = true;
 601:Tests.c       ****                         }else{
ARM GAS  C:\Users\HENRIC~1\AppData\Local\Temp\ccRPnI9G.s 			page 12


 602:Tests.c       ****                             txStr[txStr_index] = c;
 603:Tests.c       ****                         }
 604:Tests.c       ****                         txStr_index++;
 605:Tests.c       ****                     }
 606:Tests.c       ****                     
 607:Tests.c       ****                     //buffer full, last character is nul
 608:Tests.c       ****                     if(txStr_index >= (sizeof(txStr)-1)){
 609:Tests.c       ****                         txStr[44] = '\0';
 610:Tests.c       ****                         nl_found = true;
 611:Tests.c       ****                     }
 612:Tests.c       ****                     
 613:Tests.c       ****                     //transmit if newline or full
 614:Tests.c       ****                     if(nl_found){
 615:Tests.c       ****                         txStr_index = 0;
 616:Tests.c       ****                         msg.src = 0x0B;
 617:Tests.c       ****                         msg.dst = 0x00;
 618:Tests.c       ****                         msg.msg_size = strlen(txStr);
 619:Tests.c       ****                         memcpy(msg.msg,txStr,msg.msg_size);
 620:Tests.c       ****                         msg.use_crc = DLL_NO_CRC;
 621:Tests.c       ****                         dll_write(&msg);
 622:Tests.c       ****                     }
 623:Tests.c       ****                 }
 624:Tests.c       ****                 break;
 625:Tests.c       ****             default:
 626:Tests.c       ****                 state = 0;
 627:Tests.c       ****                 break;
 628:Tests.c       ****         }
 629:Tests.c       ****     }
 630:Tests.c       **** }
 631:Tests.c       **** 
 632:Tests.c       **** /**
 633:Tests.c       ****  * Test week 10 will validate final system drivers for full compliance to
 634:Tests.c       ****  * protocol.
 635:Tests.c       ****  */
 636:Tests.c       **** void tests_week10(void){
 637:Tests.c       ****     user_init();
 638:Tests.c       ****     dll_init();
 639:Tests.c       ****     dll_set_user(CURT_HENRICHS);
 640:Tests.c       **** 
 641:Tests.c       ****     
 642:Tests.c       ****     bool left_button_held_down = false;
 643:Tests.c       ****     bool right_button_held_down = false;
 644:Tests.c       ****     uint8_t state = 0;
 645:Tests.c       ****     uint8_t crcState = 0;
 646:Tests.c       ****     bool crcFlag = false;
 647:Tests.c       ****     uint8_t txState = 0;
 648:Tests.c       ****     bool txFlag = false;
 649:Tests.c       ****     bool rxFlag = false;
 650:Tests.c       ****     
 651:Tests.c       ****     DLL_Message_t msg;
 652:Tests.c       ****     char str[50];
 653:Tests.c       ****     
 654:Tests.c       **** 
 655:Tests.c       ****     while(1){
 656:Tests.c       ****         
 657:Tests.c       ****         dll_update();   
 658:Tests.c       ****         
ARM GAS  C:\Users\HENRIC~1\AppData\Local\Temp\ccRPnI9G.s 			page 13


 659:Tests.c       ****         if(!CapSense_IsBusy()){
 660:Tests.c       ****             CapSense_UpdateEnabledBaselines();
 661:Tests.c       ****             CapSense_ScanEnabledWidgets();
 662:Tests.c       ****         }
 663:Tests.c       ****         
 664:Tests.c       ****         if(CapSense_CheckIsWidgetActive(CapSense_LEFT__BTN)){
 665:Tests.c       ****             if(!left_button_held_down){
 666:Tests.c       ****                 left_button_held_down = true;
 667:Tests.c       ****                 state = (state + 1) % 3;
 668:Tests.c       ****                 right_button_held_down = false;
 669:Tests.c       ****                 crcState = 0;
 670:Tests.c       ****                 crcFlag = false;
 671:Tests.c       ****                 txState = 0;
 672:Tests.c       ****                 txFlag = false;
 673:Tests.c       ****                 rxFlag = false;
 674:Tests.c       ****             }
 675:Tests.c       ****         }else{
 676:Tests.c       ****             left_button_held_down = false;   
 677:Tests.c       ****         }
 678:Tests.c       ****         
 679:Tests.c       ****         uart_update();
 680:Tests.c       ****         
 681:Tests.c       ****         switch(state){
 682:Tests.c       ****             case 0:
 683:Tests.c       ****                 //run crc case
 684:Tests.c       ****                 switch(crcState){
 685:Tests.c       ****                     case 0:
 686:Tests.c       ****                         if(!crcFlag){
 687:Tests.c       ****                             crcFlag = true;
 688:Tests.c       ****                             uint8_t buffer[] = {0x85};
 689:Tests.c       ****                             uint8_t x = crc_algorithm(buffer,1);
 690:Tests.c       ****                             LCD_ClearDisplay();
 691:Tests.c       ****                             LCD_Position(0,0);
 692:Tests.c       ****                             LCD_PrintString("CRC:");
 693:Tests.c       ****                             LCD_PrintInt8(crcState);
 694:Tests.c       ****                             LCD_Position(1,0);
 695:Tests.c       ****                             LCD_PrintHexUint8(x);  
 696:Tests.c       ****                         }
 697:Tests.c       ****                         break;
 698:Tests.c       ****                     case 1:
 699:Tests.c       ****                         if(!crcFlag){
 700:Tests.c       ****                             crcFlag = true;
 701:Tests.c       ****                             uint8_t buffer[] = {0x85, 0xAC};
 702:Tests.c       ****                             uint8_t x = crc_algorithm(buffer,2);
 703:Tests.c       ****                             LCD_ClearDisplay();
 704:Tests.c       ****                             LCD_Position(0,0);
 705:Tests.c       ****                             LCD_PrintString("CRC:");
 706:Tests.c       ****                             LCD_PrintInt8(crcState);
 707:Tests.c       ****                             LCD_Position(1,0);
 708:Tests.c       ****                             LCD_PrintHexUint8(x);  
 709:Tests.c       ****                         }
 710:Tests.c       ****                         break;
 711:Tests.c       ****                     case 2:
 712:Tests.c       ****                         if(!crcFlag){
 713:Tests.c       ****                             crcFlag = true;
 714:Tests.c       ****                             uint8_t buffer[] = {0xC4, 0xC1, 0xFA};
 715:Tests.c       ****                             uint8_t x = crc_algorithm(buffer,3);
ARM GAS  C:\Users\HENRIC~1\AppData\Local\Temp\ccRPnI9G.s 			page 14


 716:Tests.c       ****                             LCD_ClearDisplay();
 717:Tests.c       ****                             LCD_Position(0,0);
 718:Tests.c       ****                             LCD_PrintString("CRC:");
 719:Tests.c       ****                             LCD_PrintInt8(crcState);
 720:Tests.c       ****                             LCD_Position(1,0);
 721:Tests.c       ****                             LCD_PrintHexUint8(x);  
 722:Tests.c       ****                         }
 723:Tests.c       ****                         break;
 724:Tests.c       ****                     case 3:
 725:Tests.c       ****                         if(!crcFlag){
 726:Tests.c       ****                             crcFlag = true;
 727:Tests.c       ****                             uint8_t buffer[] = {0x80, 0x81, 0x8A, 0x80, 0x83, 0x83};
 728:Tests.c       ****                             uint8_t x = crc_algorithm(buffer,6);
 729:Tests.c       ****                             LCD_ClearDisplay();
 730:Tests.c       ****                             LCD_Position(0,0);
 731:Tests.c       ****                             LCD_PrintString("CRC:");
 732:Tests.c       ****                             LCD_PrintInt8(crcState);
 733:Tests.c       ****                             LCD_Position(1,0);
 734:Tests.c       ****                             LCD_PrintHexUint8(x);  
 735:Tests.c       ****                         }
 736:Tests.c       ****                         break;
 737:Tests.c       ****                     default:
 738:Tests.c       ****                         crcState = 0;
 739:Tests.c       ****                         break;
 740:Tests.c       ****                 }
 741:Tests.c       ****                 //switch next crc state
 742:Tests.c       ****                 if(CapSense_CheckIsWidgetActive(CapSense_RIGHT__BTN)){
 743:Tests.c       ****                     if(!right_button_held_down){
 744:Tests.c       ****                         right_button_held_down = true;
 745:Tests.c       ****                         crcState = (crcState + 1) % 4;
 746:Tests.c       ****                         crcFlag = false;
 747:Tests.c       ****                     }
 748:Tests.c       ****                 }else{
 749:Tests.c       ****                     right_button_held_down = false;   
 750:Tests.c       ****                 }
 751:Tests.c       ****                 break;
 752:Tests.c       ****             case 1: 
 753:Tests.c       ****                 if(!txFlag){
 754:Tests.c       ****                     txFlag = true;
 755:Tests.c       ****                     LCD_ClearDisplay();
 756:Tests.c       ****                     LCD_Position(0,0);
 757:Tests.c       ****                     LCD_PrintString("Transmit");
 758:Tests.c       ****                     LCD_Position(1,0);
 759:Tests.c       ****                     LCD_PrintInt8(txState);
 760:Tests.c       ****                 }
 761:Tests.c       ****                 
 762:Tests.c       ****                 switch(txState){
 763:Tests.c       ****                     case 0:
 764:Tests.c       ****                         if(dll_tx_finished()){
 765:Tests.c       ****                             CyDelay(50);
 766:Tests.c       ****                             msg.src = 0x0A;
 767:Tests.c       ****                             msg.dst = 0x00;
 768:Tests.c       ****                             msg.msg_size = 3;
 769:Tests.c       ****                             strcpy(msg.msg,"DAz");
 770:Tests.c       ****                             msg.use_crc = DLL_BOTH_CRC;
 771:Tests.c       ****                             dll_write(&msg);
 772:Tests.c       ****                         }
ARM GAS  C:\Users\HENRIC~1\AppData\Local\Temp\ccRPnI9G.s 			page 15


 773:Tests.c       ****                         break;
 774:Tests.c       ****                     case 1:
 775:Tests.c       ****                         if(dll_tx_finished()){
 776:Tests.c       ****                             CyDelay(50);
 777:Tests.c       ****                             msg.src = 0x0A;
 778:Tests.c       ****                             msg.dst = 0x00;
 779:Tests.c       ****                             msg.msg_size = 3;
 780:Tests.c       ****                             strcpy(msg.msg,"DAz");
 781:Tests.c       ****                             msg.use_crc = DLL_HEADER_CRC;
 782:Tests.c       ****                             dll_write(&msg);
 783:Tests.c       ****                         }
 784:Tests.c       ****                         break;
 785:Tests.c       ****                     case 2:
 786:Tests.c       ****                         if(dll_tx_finished()){
 787:Tests.c       ****                             CyDelay(50);
 788:Tests.c       ****                             msg.src = 0x0A;
 789:Tests.c       ****                             msg.dst = 0x00;
 790:Tests.c       ****                             msg.msg_size = 3;
 791:Tests.c       ****                             strcpy(msg.msg,"DAz");
 792:Tests.c       ****                             msg.use_crc = DLL_MESSAGE_CRC;
 793:Tests.c       ****                             dll_write(&msg);
 794:Tests.c       ****                         }
 795:Tests.c       ****                         break;
 796:Tests.c       ****                     case 3:
 797:Tests.c       ****                         if(dll_tx_finished()){
 798:Tests.c       ****                             CyDelay(50);
 799:Tests.c       ****                             msg.src = 0x0A;
 800:Tests.c       ****                             msg.dst = 0x00;
 801:Tests.c       ****                             msg.msg_size = 3;
 802:Tests.c       ****                             strcpy(msg.msg,"DAz");
 803:Tests.c       ****                             msg.use_crc = DLL_NO_CRC;
 804:Tests.c       ****                             dll_write(&msg);
 805:Tests.c       ****                         }
 806:Tests.c       ****                         break;
 807:Tests.c       ****                     default:
 808:Tests.c       ****                         txState = 0;
 809:Tests.c       ****                         break;
 810:Tests.c       ****                 }
 811:Tests.c       ****                 //switch next tx state
 812:Tests.c       ****                 if(CapSense_CheckIsWidgetActive(CapSense_RIGHT__BTN)){
 813:Tests.c       ****                     if(!right_button_held_down){
 814:Tests.c       ****                         right_button_held_down = true;
 815:Tests.c       ****                         txState = (txState + 1) % 4;
 816:Tests.c       ****                         txFlag = false;
 817:Tests.c       ****                     }
 818:Tests.c       ****                 }else{
 819:Tests.c       ****                     right_button_held_down = false;   
 820:Tests.c       ****                 }
 821:Tests.c       ****                 break;
 822:Tests.c       ****             case 2:
 823:Tests.c       ****                 if(!rxFlag){
 824:Tests.c       ****                     rxFlag = true;   
 825:Tests.c       ****                     LCD_ClearDisplay();
 826:Tests.c       ****                     LCD_Position(0,0);
 827:Tests.c       ****                     LCD_PrintString("Receive");
 828:Tests.c       ****                 }
 829:Tests.c       ****                 
ARM GAS  C:\Users\HENRIC~1\AppData\Local\Temp\ccRPnI9G.s 			page 16


 830:Tests.c       ****                 if(dll_has_data()){
 831:Tests.c       ****                     uint8_t count = dll_read(&msg);
 832:Tests.c       ****                     sprintf(str,"SRC: %d, DST: %d, SIZE: %d, MSG: ",msg.src,
 833:Tests.c       ****                             msg.dst,msg.msg_size);
 834:Tests.c       ****                     uart_write(str,strlen(str));
 835:Tests.c       ****                     uart_write(msg.msg,count);
 836:Tests.c       ****                     uart_write("\n\r",2);
 837:Tests.c       ****                     sprintf(str,"CRC_MODE: %d, HEADER CRC: %s, DATA CRC: %s\n\r",
 838:Tests.c       ****                             msg.use_crc,(msg.failed_header_crc) ? "N" : "Y",
 839:Tests.c       ****                             (msg.failed_data_crc) ? "N" : "Y");
 840:Tests.c       ****                     uart_write(str,strlen(str));
 841:Tests.c       ****                 }
 842:Tests.c       ****                 break;
 843:Tests.c       ****             default:
 844:Tests.c       ****                 state = 0;
 845:Tests.c       ****                 break;
 846:Tests.c       ****         }
 847:Tests.c       ****     }
 848:Tests.c       **** }
 849:Tests.c       **** 
 850:Tests.c       **** //=============================================================================
 851:Tests.c       **** //                   Private Function Implementation : Week 5
 852:Tests.c       **** //=============================================================================
 853:Tests.c       **** 
 854:Tests.c       **** /** 
 855:Tests.c       ****  * Display test case menu
 856:Tests.c       ****  * @param on_enter first entry of state-machine for one-time logic
 857:Tests.c       ****  * @return next state as selected by user else this state if no selection
 858:Tests.c       ****  */
 859:Tests.c       **** static Menu_States_e display(bool on_enter){
 860:Tests.c       ****     static uint8_t index;
 861:Tests.c       ****     static bool hold;
 862:Tests.c       ****     
 863:Tests.c       ****     if(on_enter){
 864:Tests.c       ****         index = 0;
 865:Tests.c       ****         hold = true;
 866:Tests.c       ****         LCD_ClearDisplay();
 867:Tests.c       ****         LCD_Position(0,0);
 868:Tests.c       ****         LCD_PrintString("MENU:");
 869:Tests.c       ****         LCD_Position(1,0);
 870:Tests.c       ****         LCD_PrintString(MENU_OPTIONS_TAGS[index]);
 871:Tests.c       ****     }
 872:Tests.c       ****     
 873:Tests.c       ****     bool iterate = CapSense_CheckIsWidgetActive(CapSense_LEFT__BTN);
 874:Tests.c       ****     if(iterate && !hold){
 875:Tests.c       ****         index = (index + 1) % NUM_SELECTABLE_OPTIONS;
 876:Tests.c       ****         LCD_ClearDisplay();
 877:Tests.c       ****         LCD_Position(0,0);
 878:Tests.c       ****         LCD_PrintString("MENU:");
 879:Tests.c       ****         LCD_Position(1,0);
 880:Tests.c       ****         LCD_PrintString(MENU_OPTIONS_TAGS[index]);
 881:Tests.c       ****     }
 882:Tests.c       ****     hold = iterate;
 883:Tests.c       ****     
 884:Tests.c       ****     bool nextState = CapSense_CheckIsWidgetActive(CapSense_RIGHT__BTN);
 885:Tests.c       ****     Menu_States_e retval = (nextState) ? MENU_OPTIONS_LIST[index] : MENU_DISPLAY;
 886:Tests.c       ****     return retval;
ARM GAS  C:\Users\HENRIC~1\AppData\Local\Temp\ccRPnI9G.s 			page 17


 887:Tests.c       **** }
 888:Tests.c       **** 
 889:Tests.c       **** /** 
 890:Tests.c       ****  * UART test case - transmit buffered message from USBUART.
 891:Tests.c       ****  * @param on_enter first entry of state-machine for one-time logic
 892:Tests.c       ****  * @return this state until user presses return button
 893:Tests.c       ****  */
 894:Tests.c       **** static Menu_States_e uart_mode(bool on_enter){
 895:Tests.c       ****     static char buffer[USBUART_BUFFER_SIZE];
 896:Tests.c       ****     static char disp[16];
 897:Tests.c       ****     static char txStr[33];
 898:Tests.c       ****     static uint8_t txStr_index;
 899:Tests.c       ****     
 900:Tests.c       ****     if(on_enter){
 901:Tests.c       ****         memset(txStr,0,sizeof(txStr));
 902:Tests.c       ****         txStr_index = 0;
 903:Tests.c       ****         
 904:Tests.c       ****         LCD_ClearDisplay();
 905:Tests.c       ****         LCD_Position(0,0);
 906:Tests.c       ****         LCD_PrintString("UART:");
 907:Tests.c       ****     }
 908:Tests.c       ****     
 909:Tests.c       ****     uart_update();
 910:Tests.c       ****         
 911:Tests.c       ****     if(uart_has_data()){
 912:Tests.c       ****         memset(buffer,'\0',sizeof(buffer));
 913:Tests.c       ****         uint16_t numChar = uart_read(buffer,sizeof(buffer));
 914:Tests.c       ****         uart_write(buffer,strlen(buffer));
 915:Tests.c       ****         
 916:Tests.c       ****         LCD_ClearDisplay();
 917:Tests.c       ****         LCD_Position(0,0);
 918:Tests.c       ****         LCD_PrintString("UART:");
 919:Tests.c       ****         LCD_Position(1,0);
 920:Tests.c       ****         memcpy(disp,buffer,15);
 921:Tests.c       ****         disp[15] = 0;
 922:Tests.c       ****         LCD_PrintString(disp);
 923:Tests.c       ****         
 924:Tests.c       ****         bool nl_found = false;
 925:Tests.c       ****         uint8_t index = 0;
 926:Tests.c       ****         char c;
 927:Tests.c       ****         while(!nl_found && txStr_index < (sizeof(txStr)-1) && index < numChar){
 928:Tests.c       ****             c = buffer[index];
 929:Tests.c       ****             index++;
 930:Tests.c       ****             if(c == '\n' || c == '\r'){
 931:Tests.c       ****                 txStr[txStr_index] = '\0';
 932:Tests.c       ****                 nl_found = true;
 933:Tests.c       ****             }else{
 934:Tests.c       ****                 txStr[txStr_index] = c;
 935:Tests.c       ****             }
 936:Tests.c       ****             txStr_index++;
 937:Tests.c       ****         }
 938:Tests.c       ****         
 939:Tests.c       ****         //buffer full, last character is nul
 940:Tests.c       ****         if(txStr_index >= (sizeof(txStr)-1)){
 941:Tests.c       ****             txStr[32] = '\0';
 942:Tests.c       ****             nl_found = true;
 943:Tests.c       ****         }
ARM GAS  C:\Users\HENRIC~1\AppData\Local\Temp\ccRPnI9G.s 			page 18


 944:Tests.c       ****         
 945:Tests.c       ****         //transmit if newline or full
 946:Tests.c       ****         if(nl_found){
 947:Tests.c       ****             txStr_index = 0;
 948:Tests.c       ****             LCD_Position(1,0);
 949:Tests.c       ****             LCD_PrintString("Transmitting");
 950:Tests.c       ****             tx_write(txStr,strlen(txStr));
 951:Tests.c       ****             while(tx_get_status() != TX_DONE){/* Intentionally Empty */}
 952:Tests.c       ****             CyDelay(100);
 953:Tests.c       ****             LCD_Position(1,0);
 954:Tests.c       ****             LCD_PrintString("            ");
 955:Tests.c       ****         }
 956:Tests.c       ****     }
 957:Tests.c       ****     
 958:Tests.c       ****     bool returnMenu = CapSense_CheckIsWidgetActive(CapSense_LEFT__BTN);
 959:Tests.c       ****     Menu_States_e retval = (returnMenu) ? MENU_DISPLAY : MENU_UART;
 960:Tests.c       ****     return retval;
 961:Tests.c       **** }
 962:Tests.c       **** 
 963:Tests.c       **** /** 
 964:Tests.c       ****  * 0x00 test case - transmit string of 0x00 characters
 965:Tests.c       ****  * @param on_enter first entry of state-machine for one-time logic
 966:Tests.c       ****  * @return this state until user presses return button
 967:Tests.c       ****  */
 968:Tests.c       **** static Menu_States_e nul_string_mode(bool on_enter){
 969:Tests.c       ****     static bool hold;
 970:Tests.c       ****     bool active = CapSense_CheckIsWidgetActive(CapSense_RIGHT__BTN);
 971:Tests.c       ****     
 972:Tests.c       ****     if(on_enter){
 973:Tests.c       ****         hold = true;
 974:Tests.c       ****         LCD_ClearDisplay();
 975:Tests.c       ****         LCD_Position(0,0);
 976:Tests.c       ****         LCD_PrintString("REPEAT 0x00:");
 977:Tests.c       ****     }
 978:Tests.c       ****     
 979:Tests.c       ****     if(active && !hold){
 980:Tests.c       ****         LCD_Position(1,0);
 981:Tests.c       ****         LCD_PrintString("Transmitting");
 982:Tests.c       ****         char buffer[] = { 0x00, 0x00, 0x00, 0x00 };
 983:Tests.c       ****         tx_write(buffer,sizeof(buffer));
 984:Tests.c       ****         while(tx_get_status() != TX_DONE){/*Intentionally Empty*/}
 985:Tests.c       ****         CyDelay(100);
 986:Tests.c       ****         LCD_Position(1,0);
 987:Tests.c       ****         LCD_PrintString("            ");
 988:Tests.c       ****     }
 989:Tests.c       ****     hold = active;
 990:Tests.c       ****     
 991:Tests.c       ****     bool returnMenu = CapSense_CheckIsWidgetActive(CapSense_LEFT__BTN);
 992:Tests.c       ****     Menu_States_e retval = (returnMenu) ? MENU_DISPLAY : MENU_NUL;
 993:Tests.c       ****     return retval;
 994:Tests.c       **** }
 995:Tests.c       **** 
 996:Tests.c       **** /** 
 997:Tests.c       ****  * 0xAA test case - transmit string of 0xAA characters
 998:Tests.c       ****  * @param on_enter first entry of state-machine for one-time logic
 999:Tests.c       ****  * @return this state until user presses return button
1000:Tests.c       ****  */
ARM GAS  C:\Users\HENRIC~1\AppData\Local\Temp\ccRPnI9G.s 			page 19


1001:Tests.c       **** static Menu_States_e repeat_string_1_mode(bool on_enter){
1002:Tests.c       ****     static bool hold;
1003:Tests.c       ****     bool active = CapSense_CheckIsWidgetActive(CapSense_RIGHT__BTN);
1004:Tests.c       ****     
1005:Tests.c       ****     if(on_enter){
1006:Tests.c       ****         hold = true;
1007:Tests.c       ****         LCD_ClearDisplay();
1008:Tests.c       ****         LCD_Position(0,0);
1009:Tests.c       ****         LCD_PrintString("REPEAT 0xAA:");
1010:Tests.c       ****     }
1011:Tests.c       ****     
1012:Tests.c       ****     if(active && !hold){
1013:Tests.c       ****         LCD_Position(1,0);
1014:Tests.c       ****         LCD_PrintString("Transmitting");
1015:Tests.c       ****         char buffer[] = { 0xAA, 0xAA, 0xAA, 0xAA };
1016:Tests.c       ****         tx_write(buffer,sizeof(buffer));
1017:Tests.c       ****         while(tx_get_status() != TX_DONE){/*Intentionally Empty*/}
1018:Tests.c       ****         CyDelay(100);
1019:Tests.c       ****         LCD_Position(1,0);
1020:Tests.c       ****         LCD_PrintString("            ");
1021:Tests.c       ****     }
1022:Tests.c       ****     hold = active;
1023:Tests.c       ****     
1024:Tests.c       ****     bool returnMenu = CapSense_CheckIsWidgetActive(CapSense_LEFT__BTN);
1025:Tests.c       ****     Menu_States_e retval = (returnMenu) ? MENU_DISPLAY : MENU_REPEAT_1;
1026:Tests.c       ****     return retval;
1027:Tests.c       **** }
1028:Tests.c       **** 
1029:Tests.c       **** /** 
1030:Tests.c       ****  * 0x55 test case - transmit string of 0x55 characters
1031:Tests.c       ****  * @param on_enter first entry of state-machine for one-time logic
1032:Tests.c       ****  * @return this state until user presses return button
1033:Tests.c       ****  */
1034:Tests.c       **** static Menu_States_e repeat_string_2_mode(bool on_enter){
1035:Tests.c       ****     static bool hold;
1036:Tests.c       ****     bool active = CapSense_CheckIsWidgetActive(CapSense_RIGHT__BTN);
1037:Tests.c       ****     
1038:Tests.c       ****     if(on_enter){
1039:Tests.c       ****         hold = true;
1040:Tests.c       ****         LCD_ClearDisplay();
1041:Tests.c       ****         LCD_Position(0,0);
1042:Tests.c       ****         LCD_PrintString("REPEAT 0x55:");
1043:Tests.c       ****     }
1044:Tests.c       ****     
1045:Tests.c       ****     if(active && !hold){
1046:Tests.c       ****         LCD_Position(1,0);
1047:Tests.c       ****         LCD_PrintString("Transmitting");
1048:Tests.c       ****         char buffer[] = { 0x55, 0x55, 0x55, 0x55 };
1049:Tests.c       ****         tx_write(buffer,sizeof(buffer));
1050:Tests.c       ****         while(tx_get_status() != TX_DONE){/*Intentionally Empty*/}
1051:Tests.c       ****         CyDelay(100);
1052:Tests.c       ****         LCD_Position(1,0);
1053:Tests.c       ****         LCD_PrintString("            ");
1054:Tests.c       ****     }
1055:Tests.c       ****     hold = active;
1056:Tests.c       ****     
1057:Tests.c       ****     bool returnMenu = CapSense_CheckIsWidgetActive(CapSense_LEFT__BTN);
ARM GAS  C:\Users\HENRIC~1\AppData\Local\Temp\ccRPnI9G.s 			page 20


1058:Tests.c       ****     Menu_States_e retval = (returnMenu) ? MENU_DISPLAY : MENU_REPEAT_2;
1059:Tests.c       ****     return retval;
1060:Tests.c       **** }
1061:Tests.c       **** 
1062:Tests.c       **** /** 
1063:Tests.c       ****  * 0xFF test case - transmit string of 0xFF characters
1064:Tests.c       ****  * @param on_enter first entry of state-machine for one-time logic
1065:Tests.c       ****  * @return this state until user presses return button
1066:Tests.c       ****  */
1067:Tests.c       **** static Menu_States_e ones_mode(bool on_enter){
1068:Tests.c       ****     static bool hold;
1069:Tests.c       ****     bool active = CapSense_CheckIsWidgetActive(CapSense_RIGHT__BTN);
1070:Tests.c       ****     
1071:Tests.c       ****     if(on_enter){
1072:Tests.c       ****         hold = true;
1073:Tests.c       ****         LCD_ClearDisplay();
1074:Tests.c       ****         LCD_Position(0,0);
1075:Tests.c       ****         LCD_PrintString("REPEAT 0xFF:");
1076:Tests.c       ****     }
1077:Tests.c       ****     
1078:Tests.c       ****     if(active && !hold){
1079:Tests.c       ****         LCD_Position(1,0);
1080:Tests.c       ****         LCD_PrintString("Transmitting");
1081:Tests.c       ****         char buffer[] = { 0xFF, 0xFF, 0xFF, 0xFF };
1082:Tests.c       ****         tx_write(buffer,sizeof(buffer));
1083:Tests.c       ****         while(tx_get_status() != TX_DONE){/*Intentionally Empty*/}
1084:Tests.c       ****         CyDelay(100);
1085:Tests.c       ****         LCD_Position(1,0);
1086:Tests.c       ****         LCD_PrintString("            ");
1087:Tests.c       ****     }
1088:Tests.c       ****     hold = active;
1089:Tests.c       ****     
1090:Tests.c       ****     bool returnMenu = CapSense_CheckIsWidgetActive(CapSense_LEFT__BTN);
1091:Tests.c       ****     Menu_States_e retval = (returnMenu) ? MENU_DISPLAY : MENU_ONES;
1092:Tests.c       ****     return retval;
1093:Tests.c       **** }
1094:Tests.c       **** 
1095:Tests.c       **** //=============================================================================
1096:Tests.c       **** //                   Private Function Implementation : Week 10
1097:Tests.c       **** //=============================================================================
1098:Tests.c       **** 
1099:Tests.c       **** /**
1100:Tests.c       ****  * CRC calulation algorithm used in both the transmitter and receiver
1101:Tests.c       ****  * @param buffer is pointer to message to calculate over
1102:Tests.c       ****  * @param len is number of bytes in message to calculate over
1103:Tests.c       ****  * @return 4-bit CRC value
1104:Tests.c       ****  */
1105:Tests.c       **** static uint8_t crc_algorithm(uint8_t* buffer, uint8_t len){
  27              		.loc 1 1105 0
  28              		.cfi_startproc
  29              		@ args = 0, pretend = 0, frame = 0
  30              		@ frame_needed = 0, uses_anonymous_args = 0
  31              	.LVL0:
  32 0000 F0B5     		push	{r4, r5, r6, r7, lr}
  33              		.cfi_def_cfa_offset 20
  34              		.cfi_offset 4, -20
  35              		.cfi_offset 5, -16
ARM GAS  C:\Users\HENRIC~1\AppData\Local\Temp\ccRPnI9G.s 			page 21


  36              		.cfi_offset 6, -12
  37              		.cfi_offset 7, -8
  38              		.cfi_offset 14, -4
  39 0002 8446     		mov	ip, r0
  40              	.LVL1:
1106:Tests.c       ****     const uint8_t gen = 0x13;
1107:Tests.c       ****     uint8_t i,k,b,msb;
1108:Tests.c       ****     uint8_t x = 0;
  41              		.loc 1 1108 0
  42 0004 0020     		movs	r0, #0
  43              	.LVL2:
1109:Tests.c       ****     
1110:Tests.c       ****     //shift buffer in
1111:Tests.c       ****     for(i=0; i<len; i++){
  44              		.loc 1 1111 0
  45 0006 8646     		mov	lr, r0
  46 0008 20E0     		b	.L2
  47              	.LVL3:
  48              	.L7:
1112:Tests.c       ****         b = buffer[i];
  49              		.loc 1 1112 0
  50 000a 1CF80E70 		ldrb	r7, [ip, lr]	@ zero_extendqisi2
  51              	.LVL4:
1113:Tests.c       ****         for(k=0; k<8; k++){
  52              		.loc 1 1113 0
  53 000e 0025     		movs	r5, #0
  54 0010 16E0     		b	.L3
  55              	.LVL5:
  56              	.L6:
1114:Tests.c       ****             if(k == 0){
  57              		.loc 1 1114 0
  58 0012 3DB1     		cbz	r5, .L11
1115:Tests.c       ****                 msb = 1; //MSB is always one during transmission
1116:Tests.c       ****             }else{
1117:Tests.c       ****                 msb = (b & (1 << (7 - k))) >> (7 - k);
  59              		.loc 1 1117 0
  60 0014 C5F10706 		rsb	r6, r5, #7
  61 0018 0124     		movs	r4, #1
  62 001a B440     		lsls	r4, r4, r6
  63 001c 3C40     		ands	r4, r4, r7
  64 001e 3441     		asrs	r4, r4, r6
  65 0020 E2B2     		uxtb	r2, r4
  66              	.LVL6:
  67 0022 00E0     		b	.L4
  68              	.LVL7:
  69              	.L11:
1115:Tests.c       ****                 msb = 1; //MSB is always one during transmission
  70              		.loc 1 1115 0
  71 0024 0122     		movs	r2, #1
  72              	.L4:
  73              	.LVL8:
1118:Tests.c       ****             }
1119:Tests.c       ****             x = (x << 1) | msb;
  74              		.loc 1 1119 0
  75 0026 42EA4003 		orr	r3, r2, r0, lsl #1
  76 002a 5BB2     		sxtb	r3, r3
  77              	.LVL9:
ARM GAS  C:\Users\HENRIC~1\AppData\Local\Temp\ccRPnI9G.s 			page 22


1120:Tests.c       ****             x = x ^ (gen & ((x & 0x10) ? (0x0F) : (0x00)));
  78              		.loc 1 1120 0
  79 002c 13F0100F 		tst	r3, #16
  80 0030 01D0     		beq	.L12
  81 0032 0320     		movs	r0, #3
  82 0034 00E0     		b	.L5
  83              	.L12:
  84 0036 0020     		movs	r0, #0
  85              	.L5:
  86              		.loc 1 1120 0 is_stmt 0 discriminator 4
  87 0038 4340     		eors	r3, r3, r0
  88              	.LVL10:
  89 003a D8B2     		uxtb	r0, r3
  90              	.LVL11:
1113:Tests.c       ****             if(k == 0){
  91              		.loc 1 1113 0 is_stmt 1 discriminator 4
  92 003c 0135     		adds	r5, r5, #1
  93              	.LVL12:
  94 003e EDB2     		uxtb	r5, r5
  95              	.LVL13:
  96              	.L3:
1113:Tests.c       ****             if(k == 0){
  97              		.loc 1 1113 0 is_stmt 0 discriminator 2
  98 0040 072D     		cmp	r5, #7
  99 0042 E6D9     		bls	.L6
1111:Tests.c       ****         b = buffer[i];
 100              		.loc 1 1111 0 is_stmt 1 discriminator 2
 101 0044 0EF1010E 		add	lr, lr, #1
 102              	.LVL14:
 103 0048 5FFA8EFE 		uxtb	lr, lr
 104              	.LVL15:
 105              	.L2:
1111:Tests.c       ****         b = buffer[i];
 106              		.loc 1 1111 0 is_stmt 0 discriminator 1
 107 004c 8E45     		cmp	lr, r1
 108 004e DCD3     		bcc	.L7
 109 0050 0021     		movs	r1, #0
 110              	.LVL16:
 111 0052 0BE0     		b	.L8
 112              	.LVL17:
 113              	.L10:
1121:Tests.c       ****         }
1122:Tests.c       ****     }
1123:Tests.c       ****     
1124:Tests.c       ****     //shift zero bits to find FCS
1125:Tests.c       ****     for(k=0; k<4; k++){
1126:Tests.c       ****         x = (x << 1) | 0;
 114              		.loc 1 1126 0 is_stmt 1
 115 0054 4300     		lsls	r3, r0, #1
 116 0056 DBB2     		uxtb	r3, r3
 117              	.LVL18:
1127:Tests.c       ****         x = x ^ (gen & ((x & 0x10) ? (0x0F) : (0x00)));
 118              		.loc 1 1127 0
 119 0058 13F0100F 		tst	r3, #16
 120 005c 01D0     		beq	.L13
 121 005e 0322     		movs	r2, #3
 122 0060 00E0     		b	.L9
ARM GAS  C:\Users\HENRIC~1\AppData\Local\Temp\ccRPnI9G.s 			page 23


 123              	.L13:
 124 0062 0022     		movs	r2, #0
 125              	.L9:
 126              		.loc 1 1127 0 is_stmt 0 discriminator 4
 127 0064 82EA0300 		eor	r0, r2, r3
 128              	.LVL19:
1125:Tests.c       ****         x = (x << 1) | 0;
 129              		.loc 1 1125 0 is_stmt 1 discriminator 4
 130 0068 0131     		adds	r1, r1, #1
 131              	.LVL20:
 132 006a C9B2     		uxtb	r1, r1
 133              	.LVL21:
 134              	.L8:
1125:Tests.c       ****         x = (x << 1) | 0;
 135              		.loc 1 1125 0 is_stmt 0 discriminator 2
 136 006c 0329     		cmp	r1, #3
 137 006e F1D9     		bls	.L10
1128:Tests.c       ****     }
1129:Tests.c       ****     
1130:Tests.c       ****     return x & 0x0F;
1131:Tests.c       **** }...
 138              		.loc 1 1131 0 is_stmt 1
 139 0070 00F00F00 		and	r0, r0, #15
 140              	.LVL22:
 141 0074 F0BD     		pop	{r4, r5, r6, r7, pc}
 142              		.cfi_endproc
 143              	.LFE77:
 144              		.size	crc_algorithm, .-crc_algorithm
 145 0076 00BF     		.section	.text.display,"ax",%progbits
 146              		.align	2
 147              		.thumb
 148              		.thumb_func
 149              		.type	display, %function
 150              	display:
 151              	.LFB71:
 859:Tests.c       **** static Menu_States_e display(bool on_enter){
 152              		.loc 1 859 0
 153              		.cfi_startproc
 154              		@ args = 0, pretend = 0, frame = 0
 155              		@ frame_needed = 0, uses_anonymous_args = 0
 156              	.LVL23:
 157 0000 70B5     		push	{r4, r5, r6, lr}
 158              		.cfi_def_cfa_offset 16
 159              		.cfi_offset 4, -16
 160              		.cfi_offset 5, -12
 161              		.cfi_offset 6, -8
 162              		.cfi_offset 14, -4
 863:Tests.c       ****     if(on_enter){
 163              		.loc 1 863 0
 164 0002 C0B1     		cbz	r0, .L16
 864:Tests.c       ****         index = 0;
 165              		.loc 1 864 0
 166 0004 294C     		ldr	r4, .L21
 167 0006 0025     		movs	r5, #0
 168 0008 2570     		strb	r5, [r4]
 865:Tests.c       ****         hold = true;
 169              		.loc 1 865 0
ARM GAS  C:\Users\HENRIC~1\AppData\Local\Temp\ccRPnI9G.s 			page 24


 170 000a 0126     		movs	r6, #1
 171 000c 6670     		strb	r6, [r4, #1]
 866:Tests.c       ****         LCD_ClearDisplay();
 172              		.loc 1 866 0
 173 000e 3046     		mov	r0, r6
 174              	.LVL24:
 175 0010 FFF7FEFF 		bl	LCD_WriteControl
 176              	.LVL25:
 867:Tests.c       ****         LCD_Position(0,0);
 177              		.loc 1 867 0
 178 0014 2946     		mov	r1, r5
 179 0016 2846     		mov	r0, r5
 180 0018 FFF7FEFF 		bl	LCD_Position
 181              	.LVL26:
 868:Tests.c       ****         LCD_PrintString("MENU:");
 182              		.loc 1 868 0
 183 001c 2448     		ldr	r0, .L21+4
 184 001e FFF7FEFF 		bl	LCD_PrintString
 185              	.LVL27:
 869:Tests.c       ****         LCD_Position(1,0);
 186              		.loc 1 869 0
 187 0022 2946     		mov	r1, r5
 188 0024 3046     		mov	r0, r6
 189 0026 FFF7FEFF 		bl	LCD_Position
 190              	.LVL28:
 870:Tests.c       ****         LCD_PrintString(MENU_OPTIONS_TAGS[index]);
 191              		.loc 1 870 0
 192 002a 2378     		ldrb	r3, [r4]	@ zero_extendqisi2
 193 002c 04EB8304 		add	r4, r4, r3, lsl #2
 194 0030 6068     		ldr	r0, [r4, #4]
 195 0032 FFF7FEFF 		bl	LCD_PrintString
 196              	.LVL29:
 197              	.L16:
 873:Tests.c       ****     bool iterate = CapSense_CheckIsWidgetActive(CapSense_LEFT__BTN);
 198              		.loc 1 873 0
 199 0036 0120     		movs	r0, #1
 200 0038 FFF7FEFF 		bl	CapSense_CheckIsWidgetActive
 201              	.LVL30:
 202 003c 0028     		cmp	r0, #0
 203 003e 14BF     		ite	ne
 204 0040 0124     		movne	r4, #1
 205 0042 0024     		moveq	r4, #0
 206              	.LVL31:
 874:Tests.c       ****     if(iterate && !hold){
 207              		.loc 1 874 0
 208 0044 24D0     		beq	.L17
 874:Tests.c       ****     if(iterate && !hold){
 209              		.loc 1 874 0 is_stmt 0 discriminator 1
 210 0046 194B     		ldr	r3, .L21
 211 0048 5B78     		ldrb	r3, [r3, #1]	@ zero_extendqisi2
 212 004a 0BBB     		cbnz	r3, .L17
 875:Tests.c       ****         index = (index + 1) % NUM_SELECTABLE_OPTIONS;
 213              		.loc 1 875 0 is_stmt 1
 214 004c 174D     		ldr	r5, .L21
 215 004e 2A78     		ldrb	r2, [r5]	@ zero_extendqisi2
 216 0050 0132     		adds	r2, r2, #1
 217 0052 A3F19933 		sub	r3, r3, #-1717986919
ARM GAS  C:\Users\HENRIC~1\AppData\Local\Temp\ccRPnI9G.s 			page 25


 218 0056 83FB0231 		smull	r3, r1, r3, r2
 219 005a D317     		asrs	r3, r2, #31
 220 005c C3EB6103 		rsb	r3, r3, r1, asr #1
 221 0060 03EB8303 		add	r3, r3, r3, lsl #2
 222 0064 D31A     		subs	r3, r2, r3
 223 0066 2B70     		strb	r3, [r5]
 876:Tests.c       ****         LCD_ClearDisplay();
 224              		.loc 1 876 0
 225 0068 0120     		movs	r0, #1
 226 006a FFF7FEFF 		bl	LCD_WriteControl
 227              	.LVL32:
 877:Tests.c       ****         LCD_Position(0,0);
 228              		.loc 1 877 0
 229 006e 0021     		movs	r1, #0
 230 0070 0846     		mov	r0, r1
 231 0072 FFF7FEFF 		bl	LCD_Position
 232              	.LVL33:
 878:Tests.c       ****         LCD_PrintString("MENU:");
 233              		.loc 1 878 0
 234 0076 0E48     		ldr	r0, .L21+4
 235 0078 FFF7FEFF 		bl	LCD_PrintString
 236              	.LVL34:
 879:Tests.c       ****         LCD_Position(1,0);
 237              		.loc 1 879 0
 238 007c 0021     		movs	r1, #0
 239 007e 0120     		movs	r0, #1
 240 0080 FFF7FEFF 		bl	LCD_Position
 241              	.LVL35:
 880:Tests.c       ****         LCD_PrintString(MENU_OPTIONS_TAGS[index]);
 242              		.loc 1 880 0
 243 0084 2B78     		ldrb	r3, [r5]	@ zero_extendqisi2
 244 0086 05EB8305 		add	r5, r5, r3, lsl #2
 245 008a 6868     		ldr	r0, [r5, #4]
 246 008c FFF7FEFF 		bl	LCD_PrintString
 247              	.LVL36:
 248              	.L17:
 882:Tests.c       ****     hold = iterate;
 249              		.loc 1 882 0
 250 0090 064B     		ldr	r3, .L21
 251 0092 5C70     		strb	r4, [r3, #1]
 884:Tests.c       ****     bool nextState = CapSense_CheckIsWidgetActive(CapSense_RIGHT__BTN);
 252              		.loc 1 884 0
 253 0094 0020     		movs	r0, #0
 254 0096 FFF7FEFF 		bl	CapSense_CheckIsWidgetActive
 255              	.LVL37:
 885:Tests.c       ****     Menu_States_e retval = (nextState) ? MENU_OPTIONS_LIST[index] : MENU_DISPLAY;
 256              		.loc 1 885 0
 257 009a 20B1     		cbz	r0, .L19
 885:Tests.c       ****     Menu_States_e retval = (nextState) ? MENU_OPTIONS_LIST[index] : MENU_DISPLAY;
 258              		.loc 1 885 0 is_stmt 0 discriminator 1
 259 009c 034A     		ldr	r2, .L21
 260 009e 1378     		ldrb	r3, [r2]	@ zero_extendqisi2
 261 00a0 1344     		add	r3, r3, r2
 262 00a2 187E     		ldrb	r0, [r3, #24]	@ zero_extendqisi2
 263              	.LVL38:
 264 00a4 70BD     		pop	{r4, r5, r6, pc}
 265              	.LVL39:
ARM GAS  C:\Users\HENRIC~1\AppData\Local\Temp\ccRPnI9G.s 			page 26


 266              	.L19:
 885:Tests.c       ****     Menu_States_e retval = (nextState) ? MENU_OPTIONS_LIST[index] : MENU_DISPLAY;
 267              		.loc 1 885 0
 268 00a6 0120     		movs	r0, #1
 269              	.LVL40:
 887:Tests.c       **** }
 270              		.loc 1 887 0 is_stmt 1
 271 00a8 70BD     		pop	{r4, r5, r6, pc}
 272              	.LVL41:
 273              	.L22:
 274 00aa 00BF     		.align	2
 275              	.L21:
 276 00ac 00000000 		.word	.LANCHOR0
 277 00b0 00000000 		.word	.LC6
 278              		.cfi_endproc
 279              	.LFE71:
 280              		.size	display, .-display
 281              		.section	.text.uart_mode,"ax",%progbits
 282              		.align	2
 283              		.thumb
 284              		.thumb_func
 285              		.type	uart_mode, %function
 286              	uart_mode:
 287              	.LFB72:
 894:Tests.c       **** static Menu_States_e uart_mode(bool on_enter){
 288              		.loc 1 894 0
 289              		.cfi_startproc
 290              		@ args = 0, pretend = 0, frame = 0
 291              		@ frame_needed = 0, uses_anonymous_args = 0
 292              	.LVL42:
 293 0000 F8B5     		push	{r3, r4, r5, r6, r7, lr}
 294              		.cfi_def_cfa_offset 24
 295              		.cfi_offset 3, -24
 296              		.cfi_offset 4, -20
 297              		.cfi_offset 5, -16
 298              		.cfi_offset 6, -12
 299              		.cfi_offset 7, -8
 300              		.cfi_offset 14, -4
 900:Tests.c       ****     if(on_enter){
 301              		.loc 1 900 0
 302 0002 98B1     		cbz	r0, .L24
 901:Tests.c       ****         memset(txStr,0,sizeof(txStr));
 303              		.loc 1 901 0
 304 0004 524D     		ldr	r5, .L37
 305 0006 2122     		movs	r2, #33
 306 0008 0021     		movs	r1, #0
 307 000a 05F12000 		add	r0, r5, #32
 308              	.LVL43:
 309 000e FFF7FEFF 		bl	memset
 310              	.LVL44:
 902:Tests.c       ****         txStr_index = 0;
 311              		.loc 1 902 0
 312 0012 0024     		movs	r4, #0
 313 0014 85F84140 		strb	r4, [r5, #65]
 904:Tests.c       ****         LCD_ClearDisplay();
 314              		.loc 1 904 0
 315 0018 0120     		movs	r0, #1
ARM GAS  C:\Users\HENRIC~1\AppData\Local\Temp\ccRPnI9G.s 			page 27


 316 001a FFF7FEFF 		bl	LCD_WriteControl
 317              	.LVL45:
 905:Tests.c       ****         LCD_Position(0,0);
 318              		.loc 1 905 0
 319 001e 2146     		mov	r1, r4
 320 0020 2046     		mov	r0, r4
 321 0022 FFF7FEFF 		bl	LCD_Position
 322              	.LVL46:
 906:Tests.c       ****         LCD_PrintString("UART:");
 323              		.loc 1 906 0
 324 0026 4B48     		ldr	r0, .L37+4
 325 0028 FFF7FEFF 		bl	LCD_PrintString
 326              	.LVL47:
 327              	.L24:
 909:Tests.c       ****     uart_update();
 328              		.loc 1 909 0
 329 002c FFF7FEFF 		bl	uart_update
 330              	.LVL48:
 911:Tests.c       ****     if(uart_has_data()){
 331              		.loc 1 911 0
 332 0030 FFF7FEFF 		bl	uart_has_data
 333              	.LVL49:
 334 0034 0028     		cmp	r0, #0
 335 0036 00F08380 		beq	.L25
 336              	.LBB2:
 912:Tests.c       ****         memset(buffer,'\0',sizeof(buffer));
 337              		.loc 1 912 0
 338 003a 454F     		ldr	r7, .L37
 339 003c 07F14406 		add	r6, r7, #68
 340 0040 4024     		movs	r4, #64
 341 0042 2246     		mov	r2, r4
 342 0044 0021     		movs	r1, #0
 343 0046 3046     		mov	r0, r6
 344 0048 FFF7FEFF 		bl	memset
 345              	.LVL50:
 913:Tests.c       ****         uint16_t numChar = uart_read(buffer,sizeof(buffer));
 346              		.loc 1 913 0
 347 004c 2146     		mov	r1, r4
 348 004e 3046     		mov	r0, r6
 349 0050 FFF7FEFF 		bl	uart_read
 350              	.LVL51:
 351 0054 0446     		mov	r4, r0
 352              	.LVL52:
 914:Tests.c       ****         uart_write(buffer,strlen(buffer));
 353              		.loc 1 914 0
 354 0056 3046     		mov	r0, r6
 355 0058 FFF7FEFF 		bl	strlen
 356              	.LVL53:
 357 005c 81B2     		uxth	r1, r0
 358 005e 3046     		mov	r0, r6
 359 0060 FFF7FEFF 		bl	uart_write
 360              	.LVL54:
 916:Tests.c       ****         LCD_ClearDisplay();
 361              		.loc 1 916 0
 362 0064 0120     		movs	r0, #1
 363 0066 FFF7FEFF 		bl	LCD_WriteControl
 364              	.LVL55:
ARM GAS  C:\Users\HENRIC~1\AppData\Local\Temp\ccRPnI9G.s 			page 28


 917:Tests.c       ****         LCD_Position(0,0);
 365              		.loc 1 917 0
 366 006a 0021     		movs	r1, #0
 367 006c 0846     		mov	r0, r1
 368 006e FFF7FEFF 		bl	LCD_Position
 369              	.LVL56:
 918:Tests.c       ****         LCD_PrintString("UART:");
 370              		.loc 1 918 0
 371 0072 3848     		ldr	r0, .L37+4
 372 0074 FFF7FEFF 		bl	LCD_PrintString
 373              	.LVL57:
 919:Tests.c       ****         LCD_Position(1,0);
 374              		.loc 1 919 0
 375 0078 0021     		movs	r1, #0
 376 007a 0120     		movs	r0, #1
 377 007c FFF7FEFF 		bl	LCD_Position
 378              	.LVL58:
 920:Tests.c       ****         memcpy(disp,buffer,15);
 379              		.loc 1 920 0
 380 0080 07F1840E 		add	lr, r7, #132
 381 0084 7546     		mov	r5, lr
 382 0086 96E80F00 		ldmia	r6, {r0, r1, r2, r3}
 383 008a 07C5     		stmia	r5!, {r0, r1, r2}
 384 008c 25F8023B 		strh	r3, [r5], #2	@ movhi
 385 0090 1B0C     		lsrs	r3, r3, #16
 386 0092 2B70     		strb	r3, [r5]
 921:Tests.c       ****         disp[15] = 0;
 387              		.loc 1 921 0
 388 0094 0025     		movs	r5, #0
 389 0096 87F89350 		strb	r5, [r7, #147]
 922:Tests.c       ****         LCD_PrintString(disp);
 390              		.loc 1 922 0
 391 009a 7046     		mov	r0, lr
 392 009c FFF7FEFF 		bl	LCD_PrintString
 393              	.LVL59:
 925:Tests.c       ****         uint8_t index = 0;
 394              		.loc 1 925 0
 395 00a0 2A46     		mov	r2, r5
 924:Tests.c       ****         bool nl_found = false;
 396              		.loc 1 924 0
 397 00a2 2846     		mov	r0, r5
 927:Tests.c       ****         while(!nl_found && txStr_index < (sizeof(txStr)-1) && index < numChar){
 398              		.loc 1 927 0
 399 00a4 18E0     		b	.L26
 400              	.LVL60:
 401              	.L31:
 928:Tests.c       ****             c = buffer[index];
 402              		.loc 1 928 0
 403 00a6 2A49     		ldr	r1, .L37
 404 00a8 1144     		add	r1, r1, r2
 405 00aa 91F84410 		ldrb	r1, [r1, #68]	@ zero_extendqisi2
 406              	.LVL61:
 929:Tests.c       ****             index++;
 407              		.loc 1 929 0
 408 00ae 0132     		adds	r2, r2, #1
 409              	.LVL62:
 410 00b0 D2B2     		uxtb	r2, r2
ARM GAS  C:\Users\HENRIC~1\AppData\Local\Temp\ccRPnI9G.s 			page 29


 411              	.LVL63:
 930:Tests.c       ****             if(c == '\n' || c == '\r'){
 412              		.loc 1 930 0
 413 00b2 0A29     		cmp	r1, #10
 414 00b4 01D0     		beq	.L27
 930:Tests.c       ****             if(c == '\n' || c == '\r'){
 415              		.loc 1 930 0 is_stmt 0 discriminator 1
 416 00b6 0D29     		cmp	r1, #13
 417 00b8 06D1     		bne	.L28
 418              	.L27:
 931:Tests.c       ****                 txStr[txStr_index] = '\0';
 419              		.loc 1 931 0 is_stmt 1
 420 00ba 2549     		ldr	r1, .L37
 421              	.LVL64:
 422 00bc 1944     		add	r1, r1, r3
 423 00be 0020     		movs	r0, #0
 424              	.LVL65:
 425 00c0 81F82000 		strb	r0, [r1, #32]
 426              	.LVL66:
 932:Tests.c       ****                 nl_found = true;
 427              		.loc 1 932 0
 428 00c4 0120     		movs	r0, #1
 429 00c6 03E0     		b	.L29
 430              	.LVL67:
 431              	.L28:
 934:Tests.c       ****                 txStr[txStr_index] = c;
 432              		.loc 1 934 0
 433 00c8 214D     		ldr	r5, .L37
 434 00ca 1D44     		add	r5, r5, r3
 435 00cc 85F82010 		strb	r1, [r5, #32]
 436              	.LVL68:
 437              	.L29:
 936:Tests.c       ****             txStr_index++;
 438              		.loc 1 936 0
 439 00d0 0133     		adds	r3, r3, #1
 440 00d2 1F49     		ldr	r1, .L37
 441 00d4 81F84130 		strb	r3, [r1, #65]
 442              	.LVL69:
 443              	.L26:
 927:Tests.c       ****         while(!nl_found && txStr_index < (sizeof(txStr)-1) && index < numChar){
 444              		.loc 1 927 0
 445 00d8 38B9     		cbnz	r0, .L30
 927:Tests.c       ****         while(!nl_found && txStr_index < (sizeof(txStr)-1) && index < numChar){
 446              		.loc 1 927 0 is_stmt 0 discriminator 1
 447 00da 1D4B     		ldr	r3, .L37
 448 00dc 93F84130 		ldrb	r3, [r3, #65]	@ zero_extendqisi2
 449 00e0 1F2B     		cmp	r3, #31
 450 00e2 02D8     		bhi	.L30
 927:Tests.c       ****         while(!nl_found && txStr_index < (sizeof(txStr)-1) && index < numChar){
 451              		.loc 1 927 0 discriminator 2
 452 00e4 91B2     		uxth	r1, r2
 453 00e6 8C42     		cmp	r4, r1
 454 00e8 DDD8     		bhi	.L31
 455              	.L30:
 940:Tests.c       ****         if(txStr_index >= (sizeof(txStr)-1)){
 456              		.loc 1 940 0 is_stmt 1
 457 00ea 194B     		ldr	r3, .L37
ARM GAS  C:\Users\HENRIC~1\AppData\Local\Temp\ccRPnI9G.s 			page 30


 458 00ec 93F84130 		ldrb	r3, [r3, #65]	@ zero_extendqisi2
 459 00f0 1F2B     		cmp	r3, #31
 460 00f2 04D9     		bls	.L32
 941:Tests.c       ****             txStr[32] = '\0';
 461              		.loc 1 941 0
 462 00f4 0022     		movs	r2, #0
 463              	.LVL70:
 464 00f6 164B     		ldr	r3, .L37
 465 00f8 83F84020 		strb	r2, [r3, #64]
 466              	.LVL71:
 942:Tests.c       ****             nl_found = true;
 467              		.loc 1 942 0
 468 00fc 0120     		movs	r0, #1
 469              	.LVL72:
 470              	.L32:
 946:Tests.c       ****         if(nl_found){
 471              		.loc 1 946 0
 472 00fe F8B1     		cbz	r0, .L25
 947:Tests.c       ****             txStr_index = 0;
 473              		.loc 1 947 0
 474 0100 134C     		ldr	r4, .L37
 475              	.LVL73:
 476 0102 0021     		movs	r1, #0
 477 0104 84F84110 		strb	r1, [r4, #65]
 948:Tests.c       ****             LCD_Position(1,0);
 478              		.loc 1 948 0
 479 0108 0120     		movs	r0, #1
 480              	.LVL74:
 481 010a FFF7FEFF 		bl	LCD_Position
 482              	.LVL75:
 949:Tests.c       ****             LCD_PrintString("Transmitting");
 483              		.loc 1 949 0
 484 010e 1248     		ldr	r0, .L37+8
 485 0110 FFF7FEFF 		bl	LCD_PrintString
 486              	.LVL76:
 950:Tests.c       ****             tx_write(txStr,strlen(txStr));
 487              		.loc 1 950 0
 488 0114 2034     		adds	r4, r4, #32
 489 0116 2046     		mov	r0, r4
 490 0118 FFF7FEFF 		bl	strlen
 491              	.LVL77:
 492 011c C1B2     		uxtb	r1, r0
 493 011e 2046     		mov	r0, r4
 494 0120 FFF7FEFF 		bl	tx_write
 495              	.LVL78:
 496              	.L33:
 951:Tests.c       ****             while(tx_get_status() != TX_DONE){/* Intentionally Empty */}
 497              		.loc 1 951 0 discriminator 1
 498 0124 FFF7FEFF 		bl	tx_get_status
 499              	.LVL79:
 500 0128 0328     		cmp	r0, #3
 501 012a FBD1     		bne	.L33
 952:Tests.c       ****             CyDelay(100);
 502              		.loc 1 952 0
 503 012c 6420     		movs	r0, #100
 504 012e FFF7FEFF 		bl	CyDelay
 505              	.LVL80:
ARM GAS  C:\Users\HENRIC~1\AppData\Local\Temp\ccRPnI9G.s 			page 31


 953:Tests.c       ****             LCD_Position(1,0);
 506              		.loc 1 953 0
 507 0132 0021     		movs	r1, #0
 508 0134 0120     		movs	r0, #1
 509 0136 FFF7FEFF 		bl	LCD_Position
 510              	.LVL81:
 954:Tests.c       ****             LCD_PrintString("            ");
 511              		.loc 1 954 0
 512 013a 0848     		ldr	r0, .L37+12
 513 013c FFF7FEFF 		bl	LCD_PrintString
 514              	.LVL82:
 515              	.L25:
 516              	.LBE2:
 958:Tests.c       ****     bool returnMenu = CapSense_CheckIsWidgetActive(CapSense_LEFT__BTN);
 517              		.loc 1 958 0
 518 0140 0120     		movs	r0, #1
 519 0142 FFF7FEFF 		bl	CapSense_CheckIsWidgetActive
 520              	.LVL83:
 959:Tests.c       ****     Menu_States_e retval = (returnMenu) ? MENU_DISPLAY : MENU_UART;
 521              		.loc 1 959 0
 522 0146 08B1     		cbz	r0, .L35
 523 0148 0120     		movs	r0, #1
 524              	.LVL84:
 525 014a F8BD     		pop	{r3, r4, r5, r6, r7, pc}
 526              	.LVL85:
 527              	.L35:
 528 014c 0220     		movs	r0, #2
 529              	.LVL86:
 961:Tests.c       **** }
 530              		.loc 1 961 0
 531 014e F8BD     		pop	{r3, r4, r5, r6, r7, pc}
 532              	.L38:
 533              		.align	2
 534              	.L37:
 535 0150 00000000 		.word	.LANCHOR0
 536 0154 08000000 		.word	.LC7
 537 0158 10000000 		.word	.LC8
 538 015c 20000000 		.word	.LC9
 539              		.cfi_endproc
 540              	.LFE72:
 541              		.size	uart_mode, .-uart_mode
 542              		.section	.text.nul_string_mode,"ax",%progbits
 543              		.align	2
 544              		.thumb
 545              		.thumb_func
 546              		.type	nul_string_mode, %function
 547              	nul_string_mode:
 548              	.LFB73:
 968:Tests.c       **** static Menu_States_e nul_string_mode(bool on_enter){
 549              		.loc 1 968 0
 550              		.cfi_startproc
 551              		@ args = 0, pretend = 0, frame = 8
 552              		@ frame_needed = 0, uses_anonymous_args = 0
 553              	.LVL87:
 554 0000 70B5     		push	{r4, r5, r6, lr}
 555              		.cfi_def_cfa_offset 16
 556              		.cfi_offset 4, -16
ARM GAS  C:\Users\HENRIC~1\AppData\Local\Temp\ccRPnI9G.s 			page 32


 557              		.cfi_offset 5, -12
 558              		.cfi_offset 6, -8
 559              		.cfi_offset 14, -4
 560 0002 82B0     		sub	sp, sp, #8
 561              		.cfi_def_cfa_offset 24
 562 0004 0646     		mov	r6, r0
 970:Tests.c       ****     bool active = CapSense_CheckIsWidgetActive(CapSense_RIGHT__BTN);
 563              		.loc 1 970 0
 564 0006 0020     		movs	r0, #0
 565              	.LVL88:
 566 0008 FFF7FEFF 		bl	CapSense_CheckIsWidgetActive
 567              	.LVL89:
 568 000c 0546     		mov	r5, r0
 569 000e 041C     		adds	r4, r0, #0
 570 0010 18BF     		it	ne
 571 0012 0124     		movne	r4, #1
 572              	.LVL90:
 972:Tests.c       ****     if(on_enter){
 573              		.loc 1 972 0
 574 0014 66B1     		cbz	r6, .L40
 973:Tests.c       ****         hold = true;
 575              		.loc 1 973 0
 576 0016 0120     		movs	r0, #1
 577 0018 1C4B     		ldr	r3, .L46
 578 001a 83F89400 		strb	r0, [r3, #148]
 974:Tests.c       ****         LCD_ClearDisplay();
 579              		.loc 1 974 0
 580 001e FFF7FEFF 		bl	LCD_WriteControl
 581              	.LVL91:
 975:Tests.c       ****         LCD_Position(0,0);
 582              		.loc 1 975 0
 583 0022 0021     		movs	r1, #0
 584 0024 0846     		mov	r0, r1
 585 0026 FFF7FEFF 		bl	LCD_Position
 586              	.LVL92:
 976:Tests.c       ****         LCD_PrintString("REPEAT 0x00:");
 587              		.loc 1 976 0
 588 002a 1948     		ldr	r0, .L46+4
 589 002c FFF7FEFF 		bl	LCD_PrintString
 590              	.LVL93:
 591              	.L40:
 979:Tests.c       ****     if(active && !hold){
 592              		.loc 1 979 0
 593 0030 FDB1     		cbz	r5, .L41
 979:Tests.c       ****     if(active && !hold){
 594              		.loc 1 979 0 is_stmt 0 discriminator 1
 595 0032 164B     		ldr	r3, .L46
 596 0034 93F89430 		ldrb	r3, [r3, #148]	@ zero_extendqisi2
 597 0038 DBB9     		cbnz	r3, .L41
 598              	.LBB3:
 980:Tests.c       ****         LCD_Position(1,0);
 599              		.loc 1 980 0 is_stmt 1
 600 003a 0021     		movs	r1, #0
 601 003c 0120     		movs	r0, #1
 602 003e FFF7FEFF 		bl	LCD_Position
 603              	.LVL94:
 981:Tests.c       ****         LCD_PrintString("Transmitting");
ARM GAS  C:\Users\HENRIC~1\AppData\Local\Temp\ccRPnI9G.s 			page 33


 604              		.loc 1 981 0
 605 0042 1448     		ldr	r0, .L46+8
 606 0044 FFF7FEFF 		bl	LCD_PrintString
 607              	.LVL95:
 982:Tests.c       ****         char buffer[] = { 0x00, 0x00, 0x00, 0x00 };
 608              		.loc 1 982 0
 609 0048 02A8     		add	r0, sp, #8
 610 004a 0023     		movs	r3, #0
 611 004c 40F8043D 		str	r3, [r0, #-4]!
 983:Tests.c       ****         tx_write(buffer,sizeof(buffer));
 612              		.loc 1 983 0
 613 0050 0421     		movs	r1, #4
 614 0052 FFF7FEFF 		bl	tx_write
 615              	.LVL96:
 616              	.L42:
 984:Tests.c       ****         while(tx_get_status() != TX_DONE){/*Intentionally Empty*/}
 617              		.loc 1 984 0 discriminator 1
 618 0056 FFF7FEFF 		bl	tx_get_status
 619              	.LVL97:
 620 005a 0328     		cmp	r0, #3
 621 005c FBD1     		bne	.L42
 985:Tests.c       ****         CyDelay(100);
 622              		.loc 1 985 0
 623 005e 6420     		movs	r0, #100
 624 0060 FFF7FEFF 		bl	CyDelay
 625              	.LVL98:
 986:Tests.c       ****         LCD_Position(1,0);
 626              		.loc 1 986 0
 627 0064 0021     		movs	r1, #0
 628 0066 0120     		movs	r0, #1
 629 0068 FFF7FEFF 		bl	LCD_Position
 630              	.LVL99:
 987:Tests.c       ****         LCD_PrintString("            ");
 631              		.loc 1 987 0
 632 006c 0A48     		ldr	r0, .L46+12
 633 006e FFF7FEFF 		bl	LCD_PrintString
 634              	.LVL100:
 635              	.L41:
 636              	.LBE3:
 989:Tests.c       ****     hold = active;
 637              		.loc 1 989 0
 638 0072 064B     		ldr	r3, .L46
 639 0074 83F89440 		strb	r4, [r3, #148]
 991:Tests.c       ****     bool returnMenu = CapSense_CheckIsWidgetActive(CapSense_LEFT__BTN);
 640              		.loc 1 991 0
 641 0078 0120     		movs	r0, #1
 642 007a FFF7FEFF 		bl	CapSense_CheckIsWidgetActive
 643              	.LVL101:
 992:Tests.c       ****     Menu_States_e retval = (returnMenu) ? MENU_DISPLAY : MENU_NUL;
 644              		.loc 1 992 0
 645 007e 08B1     		cbz	r0, .L44
 646 0080 0120     		movs	r0, #1
 647              	.LVL102:
 648 0082 00E0     		b	.L43
 649              	.LVL103:
 650              	.L44:
 651 0084 0320     		movs	r0, #3
ARM GAS  C:\Users\HENRIC~1\AppData\Local\Temp\ccRPnI9G.s 			page 34


 652              	.LVL104:
 653              	.L43:
 994:Tests.c       **** }
 654              		.loc 1 994 0 discriminator 4
 655 0086 02B0     		add	sp, sp, #8
 656              		.cfi_def_cfa_offset 16
 657              		@ sp needed
 658 0088 70BD     		pop	{r4, r5, r6, pc}
 659              	.LVL105:
 660              	.L47:
 661 008a 00BF     		.align	2
 662              	.L46:
 663 008c 00000000 		.word	.LANCHOR0
 664 0090 30000000 		.word	.LC10
 665 0094 10000000 		.word	.LC8
 666 0098 20000000 		.word	.LC9
 667              		.cfi_endproc
 668              	.LFE73:
 669              		.size	nul_string_mode, .-nul_string_mode
 670              		.section	.text.repeat_string_1_mode,"ax",%progbits
 671              		.align	2
 672              		.thumb
 673              		.thumb_func
 674              		.type	repeat_string_1_mode, %function
 675              	repeat_string_1_mode:
 676              	.LFB74:
1001:Tests.c       **** static Menu_States_e repeat_string_1_mode(bool on_enter){
 677              		.loc 1 1001 0
 678              		.cfi_startproc
 679              		@ args = 0, pretend = 0, frame = 8
 680              		@ frame_needed = 0, uses_anonymous_args = 0
 681              	.LVL106:
 682 0000 70B5     		push	{r4, r5, r6, lr}
 683              		.cfi_def_cfa_offset 16
 684              		.cfi_offset 4, -16
 685              		.cfi_offset 5, -12
 686              		.cfi_offset 6, -8
 687              		.cfi_offset 14, -4
 688 0002 82B0     		sub	sp, sp, #8
 689              		.cfi_def_cfa_offset 24
 690 0004 0646     		mov	r6, r0
1003:Tests.c       ****     bool active = CapSense_CheckIsWidgetActive(CapSense_RIGHT__BTN);
 691              		.loc 1 1003 0
 692 0006 0020     		movs	r0, #0
 693              	.LVL107:
 694 0008 FFF7FEFF 		bl	CapSense_CheckIsWidgetActive
 695              	.LVL108:
 696 000c 0546     		mov	r5, r0
 697 000e 041C     		adds	r4, r0, #0
 698 0010 18BF     		it	ne
 699 0012 0124     		movne	r4, #1
 700              	.LVL109:
1005:Tests.c       ****     if(on_enter){
 701              		.loc 1 1005 0
 702 0014 66B1     		cbz	r6, .L49
1006:Tests.c       ****         hold = true;
 703              		.loc 1 1006 0
ARM GAS  C:\Users\HENRIC~1\AppData\Local\Temp\ccRPnI9G.s 			page 35


 704 0016 0120     		movs	r0, #1
 705 0018 1C4B     		ldr	r3, .L55
 706 001a 83F89500 		strb	r0, [r3, #149]
1007:Tests.c       ****         LCD_ClearDisplay();
 707              		.loc 1 1007 0
 708 001e FFF7FEFF 		bl	LCD_WriteControl
 709              	.LVL110:
1008:Tests.c       ****         LCD_Position(0,0);
 710              		.loc 1 1008 0
 711 0022 0021     		movs	r1, #0
 712 0024 0846     		mov	r0, r1
 713 0026 FFF7FEFF 		bl	LCD_Position
 714              	.LVL111:
1009:Tests.c       ****         LCD_PrintString("REPEAT 0xAA:");
 715              		.loc 1 1009 0
 716 002a 1948     		ldr	r0, .L55+4
 717 002c FFF7FEFF 		bl	LCD_PrintString
 718              	.LVL112:
 719              	.L49:
1012:Tests.c       ****     if(active && !hold){
 720              		.loc 1 1012 0
 721 0030 05B3     		cbz	r5, .L50
1012:Tests.c       ****     if(active && !hold){
 722              		.loc 1 1012 0 is_stmt 0 discriminator 1
 723 0032 164B     		ldr	r3, .L55
 724 0034 93F89530 		ldrb	r3, [r3, #149]	@ zero_extendqisi2
 725 0038 E3B9     		cbnz	r3, .L50
 726              	.LBB4:
1013:Tests.c       ****         LCD_Position(1,0);
 727              		.loc 1 1013 0 is_stmt 1
 728 003a 0021     		movs	r1, #0
 729 003c 0120     		movs	r0, #1
 730 003e FFF7FEFF 		bl	LCD_Position
 731              	.LVL113:
1014:Tests.c       ****         LCD_PrintString("Transmitting");
 732              		.loc 1 1014 0
 733 0042 1448     		ldr	r0, .L55+8
 734 0044 FFF7FEFF 		bl	LCD_PrintString
 735              	.LVL114:
1015:Tests.c       ****         char buffer[] = { 0xAA, 0xAA, 0xAA, 0xAA };
 736              		.loc 1 1015 0
 737 0048 134B     		ldr	r3, .L55+12
 738 004a 1868     		ldr	r0, [r3]	@ unaligned
 739 004c 0190     		str	r0, [sp, #4]	@ unaligned
1016:Tests.c       ****         tx_write(buffer,sizeof(buffer));
 740              		.loc 1 1016 0
 741 004e 0421     		movs	r1, #4
 742 0050 0DEB0100 		add	r0, sp, r1
 743 0054 FFF7FEFF 		bl	tx_write
 744              	.LVL115:
 745              	.L51:
1017:Tests.c       ****         while(tx_get_status() != TX_DONE){/*Intentionally Empty*/}
 746              		.loc 1 1017 0 discriminator 1
 747 0058 FFF7FEFF 		bl	tx_get_status
 748              	.LVL116:
 749 005c 0328     		cmp	r0, #3
 750 005e FBD1     		bne	.L51
ARM GAS  C:\Users\HENRIC~1\AppData\Local\Temp\ccRPnI9G.s 			page 36


1018:Tests.c       ****         CyDelay(100);
 751              		.loc 1 1018 0
 752 0060 6420     		movs	r0, #100
 753 0062 FFF7FEFF 		bl	CyDelay
 754              	.LVL117:
1019:Tests.c       ****         LCD_Position(1,0);
 755              		.loc 1 1019 0
 756 0066 0021     		movs	r1, #0
 757 0068 0120     		movs	r0, #1
 758 006a FFF7FEFF 		bl	LCD_Position
 759              	.LVL118:
1020:Tests.c       ****         LCD_PrintString("            ");
 760              		.loc 1 1020 0
 761 006e 0B48     		ldr	r0, .L55+16
 762 0070 FFF7FEFF 		bl	LCD_PrintString
 763              	.LVL119:
 764              	.L50:
 765              	.LBE4:
1022:Tests.c       ****     hold = active;
 766              		.loc 1 1022 0
 767 0074 054B     		ldr	r3, .L55
 768 0076 83F89540 		strb	r4, [r3, #149]
1024:Tests.c       ****     bool returnMenu = CapSense_CheckIsWidgetActive(CapSense_LEFT__BTN);
 769              		.loc 1 1024 0
 770 007a 0120     		movs	r0, #1
 771 007c FFF7FEFF 		bl	CapSense_CheckIsWidgetActive
 772              	.LVL120:
1025:Tests.c       ****     Menu_States_e retval = (returnMenu) ? MENU_DISPLAY : MENU_REPEAT_1;
 773              		.loc 1 1025 0
 774 0080 08B1     		cbz	r0, .L53
 775 0082 0120     		movs	r0, #1
 776              	.LVL121:
 777 0084 00E0     		b	.L52
 778              	.LVL122:
 779              	.L53:
 780 0086 0420     		movs	r0, #4
 781              	.LVL123:
 782              	.L52:
1027:Tests.c       **** }
 783              		.loc 1 1027 0 discriminator 4
 784 0088 02B0     		add	sp, sp, #8
 785              		.cfi_def_cfa_offset 16
 786              		@ sp needed
 787 008a 70BD     		pop	{r4, r5, r6, pc}
 788              	.LVL124:
 789              	.L56:
 790              		.align	2
 791              	.L55:
 792 008c 00000000 		.word	.LANCHOR0
 793 0090 40000000 		.word	.LC11
 794 0094 10000000 		.word	.LC8
 795 0098 00000000 		.word	.LANCHOR1
 796 009c 20000000 		.word	.LC9
 797              		.cfi_endproc
 798              	.LFE74:
 799              		.size	repeat_string_1_mode, .-repeat_string_1_mode
 800              		.section	.text.repeat_string_2_mode,"ax",%progbits
ARM GAS  C:\Users\HENRIC~1\AppData\Local\Temp\ccRPnI9G.s 			page 37


 801              		.align	2
 802              		.thumb
 803              		.thumb_func
 804              		.type	repeat_string_2_mode, %function
 805              	repeat_string_2_mode:
 806              	.LFB75:
1034:Tests.c       **** static Menu_States_e repeat_string_2_mode(bool on_enter){
 807              		.loc 1 1034 0
 808              		.cfi_startproc
 809              		@ args = 0, pretend = 0, frame = 8
 810              		@ frame_needed = 0, uses_anonymous_args = 0
 811              	.LVL125:
 812 0000 70B5     		push	{r4, r5, r6, lr}
 813              		.cfi_def_cfa_offset 16
 814              		.cfi_offset 4, -16
 815              		.cfi_offset 5, -12
 816              		.cfi_offset 6, -8
 817              		.cfi_offset 14, -4
 818 0002 82B0     		sub	sp, sp, #8
 819              		.cfi_def_cfa_offset 24
 820 0004 0646     		mov	r6, r0
1036:Tests.c       ****     bool active = CapSense_CheckIsWidgetActive(CapSense_RIGHT__BTN);
 821              		.loc 1 1036 0
 822 0006 0020     		movs	r0, #0
 823              	.LVL126:
 824 0008 FFF7FEFF 		bl	CapSense_CheckIsWidgetActive
 825              	.LVL127:
 826 000c 0546     		mov	r5, r0
 827 000e 041C     		adds	r4, r0, #0
 828 0010 18BF     		it	ne
 829 0012 0124     		movne	r4, #1
 830              	.LVL128:
1038:Tests.c       ****     if(on_enter){
 831              		.loc 1 1038 0
 832 0014 66B1     		cbz	r6, .L58
1039:Tests.c       ****         hold = true;
 833              		.loc 1 1039 0
 834 0016 0120     		movs	r0, #1
 835 0018 1C4B     		ldr	r3, .L64
 836 001a 83F89600 		strb	r0, [r3, #150]
1040:Tests.c       ****         LCD_ClearDisplay();
 837              		.loc 1 1040 0
 838 001e FFF7FEFF 		bl	LCD_WriteControl
 839              	.LVL129:
1041:Tests.c       ****         LCD_Position(0,0);
 840              		.loc 1 1041 0
 841 0022 0021     		movs	r1, #0
 842 0024 0846     		mov	r0, r1
 843 0026 FFF7FEFF 		bl	LCD_Position
 844              	.LVL130:
1042:Tests.c       ****         LCD_PrintString("REPEAT 0x55:");
 845              		.loc 1 1042 0
 846 002a 1948     		ldr	r0, .L64+4
 847 002c FFF7FEFF 		bl	LCD_PrintString
 848              	.LVL131:
 849              	.L58:
1045:Tests.c       ****     if(active && !hold){
ARM GAS  C:\Users\HENRIC~1\AppData\Local\Temp\ccRPnI9G.s 			page 38


 850              		.loc 1 1045 0
 851 0030 05B3     		cbz	r5, .L59
1045:Tests.c       ****     if(active && !hold){
 852              		.loc 1 1045 0 is_stmt 0 discriminator 1
 853 0032 164B     		ldr	r3, .L64
 854 0034 93F89630 		ldrb	r3, [r3, #150]	@ zero_extendqisi2
 855 0038 E3B9     		cbnz	r3, .L59
 856              	.LBB5:
1046:Tests.c       ****         LCD_Position(1,0);
 857              		.loc 1 1046 0 is_stmt 1
 858 003a 0021     		movs	r1, #0
 859 003c 0120     		movs	r0, #1
 860 003e FFF7FEFF 		bl	LCD_Position
 861              	.LVL132:
1047:Tests.c       ****         LCD_PrintString("Transmitting");
 862              		.loc 1 1047 0
 863 0042 1448     		ldr	r0, .L64+8
 864 0044 FFF7FEFF 		bl	LCD_PrintString
 865              	.LVL133:
1048:Tests.c       ****         char buffer[] = { 0x55, 0x55, 0x55, 0x55 };
 866              		.loc 1 1048 0
 867 0048 134B     		ldr	r3, .L64+12
 868 004a 1868     		ldr	r0, [r3]	@ unaligned
 869 004c 0190     		str	r0, [sp, #4]	@ unaligned
1049:Tests.c       ****         tx_write(buffer,sizeof(buffer));
 870              		.loc 1 1049 0
 871 004e 0421     		movs	r1, #4
 872 0050 0DEB0100 		add	r0, sp, r1
 873 0054 FFF7FEFF 		bl	tx_write
 874              	.LVL134:
 875              	.L60:
1050:Tests.c       ****         while(tx_get_status() != TX_DONE){/*Intentionally Empty*/}
 876              		.loc 1 1050 0 discriminator 1
 877 0058 FFF7FEFF 		bl	tx_get_status
 878              	.LVL135:
 879 005c 0328     		cmp	r0, #3
 880 005e FBD1     		bne	.L60
1051:Tests.c       ****         CyDelay(100);
 881              		.loc 1 1051 0
 882 0060 6420     		movs	r0, #100
 883 0062 FFF7FEFF 		bl	CyDelay
 884              	.LVL136:
1052:Tests.c       ****         LCD_Position(1,0);
 885              		.loc 1 1052 0
 886 0066 0021     		movs	r1, #0
 887 0068 0120     		movs	r0, #1
 888 006a FFF7FEFF 		bl	LCD_Position
 889              	.LVL137:
1053:Tests.c       ****         LCD_PrintString("            ");
 890              		.loc 1 1053 0
 891 006e 0B48     		ldr	r0, .L64+16
 892 0070 FFF7FEFF 		bl	LCD_PrintString
 893              	.LVL138:
 894              	.L59:
 895              	.LBE5:
1055:Tests.c       ****     hold = active;
 896              		.loc 1 1055 0
ARM GAS  C:\Users\HENRIC~1\AppData\Local\Temp\ccRPnI9G.s 			page 39


 897 0074 054B     		ldr	r3, .L64
 898 0076 83F89640 		strb	r4, [r3, #150]
1057:Tests.c       ****     bool returnMenu = CapSense_CheckIsWidgetActive(CapSense_LEFT__BTN);
 899              		.loc 1 1057 0
 900 007a 0120     		movs	r0, #1
 901 007c FFF7FEFF 		bl	CapSense_CheckIsWidgetActive
 902              	.LVL139:
1058:Tests.c       ****     Menu_States_e retval = (returnMenu) ? MENU_DISPLAY : MENU_REPEAT_2;
 903              		.loc 1 1058 0
 904 0080 08B1     		cbz	r0, .L62
 905 0082 0120     		movs	r0, #1
 906              	.LVL140:
 907 0084 00E0     		b	.L61
 908              	.LVL141:
 909              	.L62:
 910 0086 0520     		movs	r0, #5
 911              	.LVL142:
 912              	.L61:
1060:Tests.c       **** }
 913              		.loc 1 1060 0 discriminator 4
 914 0088 02B0     		add	sp, sp, #8
 915              		.cfi_def_cfa_offset 16
 916              		@ sp needed
 917 008a 70BD     		pop	{r4, r5, r6, pc}
 918              	.LVL143:
 919              	.L65:
 920              		.align	2
 921              	.L64:
 922 008c 00000000 		.word	.LANCHOR0
 923 0090 50000000 		.word	.LC12
 924 0094 10000000 		.word	.LC8
 925 0098 04000000 		.word	.LANCHOR1+4
 926 009c 20000000 		.word	.LC9
 927              		.cfi_endproc
 928              	.LFE75:
 929              		.size	repeat_string_2_mode, .-repeat_string_2_mode
 930              		.section	.text.ones_mode,"ax",%progbits
 931              		.align	2
 932              		.thumb
 933              		.thumb_func
 934              		.type	ones_mode, %function
 935              	ones_mode:
 936              	.LFB76:
1067:Tests.c       **** static Menu_States_e ones_mode(bool on_enter){
 937              		.loc 1 1067 0
 938              		.cfi_startproc
 939              		@ args = 0, pretend = 0, frame = 8
 940              		@ frame_needed = 0, uses_anonymous_args = 0
 941              	.LVL144:
 942 0000 70B5     		push	{r4, r5, r6, lr}
 943              		.cfi_def_cfa_offset 16
 944              		.cfi_offset 4, -16
 945              		.cfi_offset 5, -12
 946              		.cfi_offset 6, -8
 947              		.cfi_offset 14, -4
 948 0002 82B0     		sub	sp, sp, #8
 949              		.cfi_def_cfa_offset 24
ARM GAS  C:\Users\HENRIC~1\AppData\Local\Temp\ccRPnI9G.s 			page 40


 950 0004 0646     		mov	r6, r0
1069:Tests.c       ****     bool active = CapSense_CheckIsWidgetActive(CapSense_RIGHT__BTN);
 951              		.loc 1 1069 0
 952 0006 0020     		movs	r0, #0
 953              	.LVL145:
 954 0008 FFF7FEFF 		bl	CapSense_CheckIsWidgetActive
 955              	.LVL146:
 956 000c 0546     		mov	r5, r0
 957 000e 041C     		adds	r4, r0, #0
 958 0010 18BF     		it	ne
 959 0012 0124     		movne	r4, #1
 960              	.LVL147:
1071:Tests.c       ****     if(on_enter){
 961              		.loc 1 1071 0
 962 0014 66B1     		cbz	r6, .L67
1072:Tests.c       ****         hold = true;
 963              		.loc 1 1072 0
 964 0016 0120     		movs	r0, #1
 965 0018 1C4B     		ldr	r3, .L73
 966 001a 83F89700 		strb	r0, [r3, #151]
1073:Tests.c       ****         LCD_ClearDisplay();
 967              		.loc 1 1073 0
 968 001e FFF7FEFF 		bl	LCD_WriteControl
 969              	.LVL148:
1074:Tests.c       ****         LCD_Position(0,0);
 970              		.loc 1 1074 0
 971 0022 0021     		movs	r1, #0
 972 0024 0846     		mov	r0, r1
 973 0026 FFF7FEFF 		bl	LCD_Position
 974              	.LVL149:
1075:Tests.c       ****         LCD_PrintString("REPEAT 0xFF:");
 975              		.loc 1 1075 0
 976 002a 1948     		ldr	r0, .L73+4
 977 002c FFF7FEFF 		bl	LCD_PrintString
 978              	.LVL150:
 979              	.L67:
1078:Tests.c       ****     if(active && !hold){
 980              		.loc 1 1078 0
 981 0030 05B3     		cbz	r5, .L68
1078:Tests.c       ****     if(active && !hold){
 982              		.loc 1 1078 0 is_stmt 0 discriminator 1
 983 0032 164B     		ldr	r3, .L73
 984 0034 93F89730 		ldrb	r3, [r3, #151]	@ zero_extendqisi2
 985 0038 E3B9     		cbnz	r3, .L68
 986              	.LBB6:
1079:Tests.c       ****         LCD_Position(1,0);
 987              		.loc 1 1079 0 is_stmt 1
 988 003a 0021     		movs	r1, #0
 989 003c 0120     		movs	r0, #1
 990 003e FFF7FEFF 		bl	LCD_Position
 991              	.LVL151:
1080:Tests.c       ****         LCD_PrintString("Transmitting");
 992              		.loc 1 1080 0
 993 0042 1448     		ldr	r0, .L73+8
 994 0044 FFF7FEFF 		bl	LCD_PrintString
 995              	.LVL152:
1081:Tests.c       ****         char buffer[] = { 0xFF, 0xFF, 0xFF, 0xFF };
ARM GAS  C:\Users\HENRIC~1\AppData\Local\Temp\ccRPnI9G.s 			page 41


 996              		.loc 1 1081 0
 997 0048 134B     		ldr	r3, .L73+12
 998 004a 1868     		ldr	r0, [r3]	@ unaligned
 999 004c 0190     		str	r0, [sp, #4]	@ unaligned
1082:Tests.c       ****         tx_write(buffer,sizeof(buffer));
 1000              		.loc 1 1082 0
 1001 004e 0421     		movs	r1, #4
 1002 0050 0DEB0100 		add	r0, sp, r1
 1003 0054 FFF7FEFF 		bl	tx_write
 1004              	.LVL153:
 1005              	.L69:
1083:Tests.c       ****         while(tx_get_status() != TX_DONE){/*Intentionally Empty*/}
 1006              		.loc 1 1083 0 discriminator 1
 1007 0058 FFF7FEFF 		bl	tx_get_status
 1008              	.LVL154:
 1009 005c 0328     		cmp	r0, #3
 1010 005e FBD1     		bne	.L69
1084:Tests.c       ****         CyDelay(100);
 1011              		.loc 1 1084 0
 1012 0060 6420     		movs	r0, #100
 1013 0062 FFF7FEFF 		bl	CyDelay
 1014              	.LVL155:
1085:Tests.c       ****         LCD_Position(1,0);
 1015              		.loc 1 1085 0
 1016 0066 0021     		movs	r1, #0
 1017 0068 0120     		movs	r0, #1
 1018 006a FFF7FEFF 		bl	LCD_Position
 1019              	.LVL156:
1086:Tests.c       ****         LCD_PrintString("            ");
 1020              		.loc 1 1086 0
 1021 006e 0B48     		ldr	r0, .L73+16
 1022 0070 FFF7FEFF 		bl	LCD_PrintString
 1023              	.LVL157:
 1024              	.L68:
 1025              	.LBE6:
1088:Tests.c       ****     hold = active;
 1026              		.loc 1 1088 0
 1027 0074 054B     		ldr	r3, .L73
 1028 0076 83F89740 		strb	r4, [r3, #151]
1090:Tests.c       ****     bool returnMenu = CapSense_CheckIsWidgetActive(CapSense_LEFT__BTN);
 1029              		.loc 1 1090 0
 1030 007a 0120     		movs	r0, #1
 1031 007c FFF7FEFF 		bl	CapSense_CheckIsWidgetActive
 1032              	.LVL158:
1091:Tests.c       ****     Menu_States_e retval = (returnMenu) ? MENU_DISPLAY : MENU_ONES;
 1033              		.loc 1 1091 0
 1034 0080 08B1     		cbz	r0, .L71
 1035 0082 0120     		movs	r0, #1
 1036              	.LVL159:
 1037 0084 00E0     		b	.L70
 1038              	.LVL160:
 1039              	.L71:
 1040 0086 0620     		movs	r0, #6
 1041              	.LVL161:
 1042              	.L70:
1093:Tests.c       **** }
 1043              		.loc 1 1093 0 discriminator 4
ARM GAS  C:\Users\HENRIC~1\AppData\Local\Temp\ccRPnI9G.s 			page 42


 1044 0088 02B0     		add	sp, sp, #8
 1045              		.cfi_def_cfa_offset 16
 1046              		@ sp needed
 1047 008a 70BD     		pop	{r4, r5, r6, pc}
 1048              	.LVL162:
 1049              	.L74:
 1050              		.align	2
 1051              	.L73:
 1052 008c 00000000 		.word	.LANCHOR0
 1053 0090 60000000 		.word	.LC13
 1054 0094 10000000 		.word	.LC8
 1055 0098 08000000 		.word	.LANCHOR1+8
 1056 009c 20000000 		.word	.LC9
 1057              		.cfi_endproc
 1058              	.LFE76:
 1059              		.size	ones_mode, .-ones_mode
 1060              		.section	.text.tests_week3,"ax",%progbits
 1061              		.align	2
 1062              		.global	tests_week3
 1063              		.thumb
 1064              		.thumb_func
 1065              		.type	tests_week3, %function
 1066              	tests_week3:
 1067              	.LFB65:
 170:Tests.c       **** void tests_week3(void){
 1068              		.loc 1 170 0
 1069              		.cfi_startproc
 1070              		@ args = 0, pretend = 0, frame = 0
 1071              		@ frame_needed = 0, uses_anonymous_args = 0
 1072 0000 38B5     		push	{r3, r4, r5, lr}
 1073              		.cfi_def_cfa_offset 16
 1074              		.cfi_offset 3, -16
 1075              		.cfi_offset 4, -12
 1076              		.cfi_offset 5, -8
 1077              		.cfi_offset 14, -4
 171:Tests.c       ****     csma_bus_init();
 1078              		.loc 1 171 0
 1079 0002 FFF7FEFF 		bl	csma_bus_init
 1080              	.LVL163:
 172:Tests.c       ****     cm_init();
 1081              		.loc 1 172 0
 1082 0006 FFF7FEFF 		bl	cm_init
 1083              	.LVL164:
 173:Tests.c       ****     tx_init();
 1084              		.loc 1 173 0
 1085 000a FFF7FEFF 		bl	tx_init
 1086              	.LVL165:
 174:Tests.c       ****     rx_init();
 1087              		.loc 1 174 0
 1088 000e FFF7FEFF 		bl	rx_init
 1089              	.LVL166:
 176:Tests.c       ****     CM_State_e ch_state = cm_get_bus_state();
 1090              		.loc 1 176 0
 1091 0012 FFF7FEFF 		bl	cm_get_bus_state
 1092              	.LVL167:
 178:Tests.c       ****     uint8_t state_trig = 0;
 1093              		.loc 1 178 0
ARM GAS  C:\Users\HENRIC~1\AppData\Local\Temp\ccRPnI9G.s 			page 43


 1094 0016 0024     		movs	r4, #0
 1095              	.LVL168:
 1096              	.L82:
 182:Tests.c       ****         ch_state = cm_get_bus_state();
 1097              		.loc 1 182 0
 1098 0018 FFF7FEFF 		bl	cm_get_bus_state
 1099              	.LVL169:
 183:Tests.c       ****         switch(ch_state){
 1100              		.loc 1 183 0
 1101 001c 0328     		cmp	r0, #3
 1102 001e 09D8     		bhi	.L76
 1103 0020 DFE800F0 		tbb	[pc, r0]
 1104              	.L78:
 1105 0024 02       		.byte	(.L77-.L78)/2
 1106 0025 0A       		.byte	(.L83-.L78)/2
 1107 0026 04       		.byte	(.L80-.L78)/2
 1108 0027 06       		.byte	(.L81-.L78)/2
 1109              		.p2align 1
 1110              	.L77:
 185:Tests.c       ****                 str = "INIT";
 1111              		.loc 1 185 0
 1112 0028 104D     		ldr	r5, .L85
 1113 002a 06E0     		b	.L79
 1114              	.L80:
 1115              	.LVL170:
 191:Tests.c       ****                 str = "BUSY";
 1116              		.loc 1 191 0
 1117 002c 104D     		ldr	r5, .L85+4
 192:Tests.c       ****                 break;
 1118              		.loc 1 192 0
 1119 002e 04E0     		b	.L79
 1120              	.LVL171:
 1121              	.L81:
 194:Tests.c       ****                 str = "COLLISION";
 1122              		.loc 1 194 0
 1123 0030 104D     		ldr	r5, .L85+8
 195:Tests.c       ****                 break;
 1124              		.loc 1 195 0
 1125 0032 02E0     		b	.L79
 1126              	.LVL172:
 1127              	.L76:
 197:Tests.c       ****                 str = "";
 1128              		.loc 1 197 0
 1129 0034 104D     		ldr	r5, .L85+12
 198:Tests.c       ****                 break;
 1130              		.loc 1 198 0
 1131 0036 00E0     		b	.L79
 1132              	.LVL173:
 1133              	.L83:
 188:Tests.c       ****                 str = "IDLE";
 1134              		.loc 1 188 0
 1135 0038 104D     		ldr	r5, .L85+16
 1136              	.L79:
 1137              	.LVL174:
 201:Tests.c       ****         LCD_ClearDisplay();
 1138              		.loc 1 201 0
 1139 003a 0120     		movs	r0, #1
ARM GAS  C:\Users\HENRIC~1\AppData\Local\Temp\ccRPnI9G.s 			page 44


 1140              	.LVL175:
 1141 003c FFF7FEFF 		bl	LCD_WriteControl
 1142              	.LVL176:
 202:Tests.c       ****         LCD_Position(0,0);
 1143              		.loc 1 202 0
 1144 0040 0021     		movs	r1, #0
 1145 0042 0846     		mov	r0, r1
 1146 0044 FFF7FEFF 		bl	LCD_Position
 1147              	.LVL177:
 203:Tests.c       ****         LCD_PrintString(str);
 1148              		.loc 1 203 0
 1149 0048 2846     		mov	r0, r5
 1150 004a FFF7FEFF 		bl	LCD_PrintString
 1151              	.LVL178:
 204:Tests.c       ****         LCD_Position(1,0);
 1152              		.loc 1 204 0
 1153 004e 0021     		movs	r1, #0
 1154 0050 0120     		movs	r0, #1
 1155 0052 FFF7FEFF 		bl	LCD_Position
 1156              	.LVL179:
 205:Tests.c       ****         LCD_PrintHexUint8(state_trig);
 1157              		.loc 1 205 0
 1158 0056 2046     		mov	r0, r4
 1159 0058 FFF7FEFF 		bl	LCD_PrintInt8
 1160              	.LVL180:
 206:Tests.c       ****         state_trig |= CM_Test_State_Reg_Read();
 1161              		.loc 1 206 0
 1162 005c FFF7FEFF 		bl	CM_Test_State_Reg_Read
 1163              	.LVL181:
 1164 0060 2043     		orrs	r0, r0, r4
 1165 0062 C4B2     		uxtb	r4, r0
 1166              	.LVL182:
 207:Tests.c       ****         CyDelay(10);
 1167              		.loc 1 207 0
 1168 0064 0A20     		movs	r0, #10
 1169 0066 FFF7FEFF 		bl	CyDelay
 1170              	.LVL183:
 208:Tests.c       ****     }
 1171              		.loc 1 208 0
 1172 006a D5E7     		b	.L82
 1173              	.L86:
 1174              		.align	2
 1175              	.L85:
 1176 006c 70000000 		.word	.LC14
 1177 0070 80000000 		.word	.LC16
 1178 0074 88000000 		.word	.LC17
 1179 0078 94000000 		.word	.LC18
 1180 007c 78000000 		.word	.LC15
 1181              		.cfi_endproc
 1182              	.LFE65:
 1183              		.size	tests_week3, .-tests_week3
 1184              		.section	.text.tests_week5,"ax",%progbits
 1185              		.align	2
 1186              		.global	tests_week5
 1187              		.thumb
 1188              		.thumb_func
 1189              		.type	tests_week5, %function
ARM GAS  C:\Users\HENRIC~1\AppData\Local\Temp\ccRPnI9G.s 			page 45


 1190              	tests_week5:
 1191              	.LFB66:
 215:Tests.c       **** void tests_week5(void){
 1192              		.loc 1 215 0
 1193              		.cfi_startproc
 1194              		@ args = 0, pretend = 0, frame = 0
 1195              		@ frame_needed = 0, uses_anonymous_args = 0
 1196 0000 38B5     		push	{r3, r4, r5, lr}
 1197              		.cfi_def_cfa_offset 16
 1198              		.cfi_offset 3, -16
 1199              		.cfi_offset 4, -12
 1200              		.cfi_offset 5, -8
 1201              		.cfi_offset 14, -4
 216:Tests.c       ****     csma_bus_init();
 1202              		.loc 1 216 0
 1203 0002 FFF7FEFF 		bl	csma_bus_init
 1204              	.LVL184:
 217:Tests.c       ****     cm_init();
 1205              		.loc 1 217 0
 1206 0006 FFF7FEFF 		bl	cm_init
 1207              	.LVL185:
 218:Tests.c       ****     tx_init();
 1208              		.loc 1 218 0
 1209 000a FFF7FEFF 		bl	tx_init
 1210              	.LVL186:
 219:Tests.c       ****     rx_init();
 1211              		.loc 1 219 0
 1212 000e FFF7FEFF 		bl	rx_init
 1213              	.LVL187:
 221:Tests.c       ****     MENU_OPTIONS_LIST[0] = MENU_UART;
 1214              		.loc 1 221 0
 1215 0012 224B     		ldr	r3, .L100
 1216 0014 0222     		movs	r2, #2
 1217 0016 1A76     		strb	r2, [r3, #24]
 222:Tests.c       ****     MENU_OPTIONS_LIST[1] = MENU_NUL;
 1218              		.loc 1 222 0
 1219 0018 0322     		movs	r2, #3
 1220 001a 5A76     		strb	r2, [r3, #25]
 223:Tests.c       ****     MENU_OPTIONS_LIST[2] = MENU_REPEAT_1;
 1221              		.loc 1 223 0
 1222 001c 0422     		movs	r2, #4
 1223 001e 9A76     		strb	r2, [r3, #26]
 224:Tests.c       ****     MENU_OPTIONS_LIST[3] = MENU_REPEAT_2;
 1224              		.loc 1 224 0
 1225 0020 0522     		movs	r2, #5
 1226 0022 DA76     		strb	r2, [r3, #27]
 225:Tests.c       ****     MENU_OPTIONS_LIST[4] = MENU_ONES;
 1227              		.loc 1 225 0
 1228 0024 0622     		movs	r2, #6
 1229 0026 1A77     		strb	r2, [r3, #28]
 227:Tests.c       ****     MENU_OPTIONS_TAGS[0] = "UART";
 1230              		.loc 1 227 0
 1231 0028 1D4A     		ldr	r2, .L100+4
 1232 002a 5A60     		str	r2, [r3, #4]
 228:Tests.c       ****     MENU_OPTIONS_TAGS[1] = "REPEAT 0x00";
 1233              		.loc 1 228 0
 1234 002c 1D4A     		ldr	r2, .L100+8
ARM GAS  C:\Users\HENRIC~1\AppData\Local\Temp\ccRPnI9G.s 			page 46


 1235 002e 9A60     		str	r2, [r3, #8]
 229:Tests.c       ****     MENU_OPTIONS_TAGS[2] = "REPEAT 0xAA";
 1236              		.loc 1 229 0
 1237 0030 1D4A     		ldr	r2, .L100+12
 1238 0032 DA60     		str	r2, [r3, #12]
 230:Tests.c       ****     MENU_OPTIONS_TAGS[3] = "REPEAT 0x55";
 1239              		.loc 1 230 0
 1240 0034 1D4A     		ldr	r2, .L100+16
 1241 0036 1A61     		str	r2, [r3, #16]
 231:Tests.c       ****     MENU_OPTIONS_TAGS[4] = "REPEAT 0xFF";
 1242              		.loc 1 231 0
 1243 0038 1D4A     		ldr	r2, .L100+20
 1244 003a 5A61     		str	r2, [r3, #20]
 1245              	.LVL188:
 236:Tests.c       ****     bool on_enter = true;
 1246              		.loc 1 236 0
 1247 003c 0125     		movs	r5, #1
 234:Tests.c       ****     Menu_States_e curr_state = MENU_DISPLAY;
 1248              		.loc 1 234 0
 1249 003e 2C46     		mov	r4, r5
 1250              	.LVL189:
 1251              	.L97:
 240:Tests.c       ****         if(!CapSense_IsBusy()){
 1252              		.loc 1 240 0
 1253 0040 FFF7FEFF 		bl	CapSense_IsBusy
 1254              	.LVL190:
 1255 0044 18B9     		cbnz	r0, .L88
 241:Tests.c       ****             CapSense_UpdateEnabledBaselines();
 1256              		.loc 1 241 0
 1257 0046 FFF7FEFF 		bl	CapSense_UpdateEnabledBaselines
 1258              	.LVL191:
 242:Tests.c       ****             CapSense_ScanEnabledWidgets();
 1259              		.loc 1 242 0
 1260 004a FFF7FEFF 		bl	CapSense_ScanEnabledWidgets
 1261              	.LVL192:
 1262              	.L88:
 245:Tests.c       ****         switch(curr_state){
 1263              		.loc 1 245 0
 1264 004e 631E     		subs	r3, r4, #1
 1265 0050 052B     		cmp	r3, #5
 1266 0052 1CD8     		bhi	.L98
 1267 0054 DFE803F0 		tbb	[pc, r3]
 1268              	.L91:
 1269 0058 03       		.byte	(.L90-.L91)/2
 1270 0059 07       		.byte	(.L92-.L91)/2
 1271 005a 0B       		.byte	(.L93-.L91)/2
 1272 005b 0F       		.byte	(.L94-.L91)/2
 1273 005c 13       		.byte	(.L95-.L91)/2
 1274 005d 17       		.byte	(.L96-.L91)/2
 1275              		.p2align 1
 1276              	.L90:
 247:Tests.c       ****                 next_state = display(on_enter);
 1277              		.loc 1 247 0
 1278 005e 2846     		mov	r0, r5
 1279 0060 FFF7FEFF 		bl	display
 1280              	.LVL193:
 248:Tests.c       ****                 break;
ARM GAS  C:\Users\HENRIC~1\AppData\Local\Temp\ccRPnI9G.s 			page 47


 1281              		.loc 1 248 0
 1282 0064 14E0     		b	.L89
 1283              	.LVL194:
 1284              	.L92:
 250:Tests.c       ****                 next_state = uart_mode(on_enter);
 1285              		.loc 1 250 0
 1286 0066 2846     		mov	r0, r5
 1287 0068 FFF7FEFF 		bl	uart_mode
 1288              	.LVL195:
 251:Tests.c       ****                 break;
 1289              		.loc 1 251 0
 1290 006c 10E0     		b	.L89
 1291              	.LVL196:
 1292              	.L93:
 253:Tests.c       ****                 next_state = nul_string_mode(on_enter);
 1293              		.loc 1 253 0
 1294 006e 2846     		mov	r0, r5
 1295 0070 FFF7FEFF 		bl	nul_string_mode
 1296              	.LVL197:
 254:Tests.c       ****                 break;
 1297              		.loc 1 254 0
 1298 0074 0CE0     		b	.L89
 1299              	.LVL198:
 1300              	.L94:
 256:Tests.c       ****                 next_state = repeat_string_1_mode(on_enter);
 1301              		.loc 1 256 0
 1302 0076 2846     		mov	r0, r5
 1303 0078 FFF7FEFF 		bl	repeat_string_1_mode
 1304              	.LVL199:
 257:Tests.c       ****                 break;
 1305              		.loc 1 257 0
 1306 007c 08E0     		b	.L89
 1307              	.LVL200:
 1308              	.L95:
 259:Tests.c       ****                 next_state = repeat_string_2_mode(on_enter);
 1309              		.loc 1 259 0
 1310 007e 2846     		mov	r0, r5
 1311 0080 FFF7FEFF 		bl	repeat_string_2_mode
 1312              	.LVL201:
 260:Tests.c       ****                 break;
 1313              		.loc 1 260 0
 1314 0084 04E0     		b	.L89
 1315              	.LVL202:
 1316              	.L96:
 262:Tests.c       ****                 next_state = ones_mode(on_enter);
 1317              		.loc 1 262 0
 1318 0086 2846     		mov	r0, r5
 1319 0088 FFF7FEFF 		bl	ones_mode
 1320              	.LVL203:
 263:Tests.c       ****                 break;
 1321              		.loc 1 263 0
 1322 008c 00E0     		b	.L89
 1323              	.LVL204:
 1324              	.L98:
 265:Tests.c       ****                 next_state = MENU_DISPLAY;
 1325              		.loc 1 265 0
 1326 008e 0120     		movs	r0, #1
ARM GAS  C:\Users\HENRIC~1\AppData\Local\Temp\ccRPnI9G.s 			page 48


 1327              	.L89:
 1328              	.LVL205:
 269:Tests.c       ****         on_enter = (next_state != curr_state);
 1329              		.loc 1 269 0
 1330 0090 251A     		subs	r5, r4, r0
 1331              	.LVL206:
 1332 0092 18BF     		it	ne
 1333 0094 0125     		movne	r5, #1
 1334              	.LVL207:
 270:Tests.c       ****         curr_state = next_state;
 1335              		.loc 1 270 0
 1336 0096 0446     		mov	r4, r0
 271:Tests.c       ****     }
 1337              		.loc 1 271 0
 1338 0098 D2E7     		b	.L97
 1339              	.L101:
 1340 009a 00BF     		.align	2
 1341              	.L100:
 1342 009c 00000000 		.word	.LANCHOR0
 1343 00a0 98000000 		.word	.LC19
 1344 00a4 A0000000 		.word	.LC20
 1345 00a8 AC000000 		.word	.LC21
 1346 00ac B8000000 		.word	.LC22
 1347 00b0 C4000000 		.word	.LC23
 1348              		.cfi_endproc
 1349              	.LFE66:
 1350              		.size	tests_week5, .-tests_week5
 1351              		.section	.text.tests_week6,"ax",%progbits
 1352              		.align	2
 1353              		.global	tests_week6
 1354              		.thumb
 1355              		.thumb_func
 1356              		.type	tests_week6, %function
 1357              	tests_week6:
 1358              	.LFB67:
 278:Tests.c       **** void tests_week6(void){
 1359              		.loc 1 278 0
 1360              		.cfi_startproc
 1361              		@ args = 0, pretend = 0, frame = 0
 1362              		@ frame_needed = 0, uses_anonymous_args = 0
 1363 0000 F8B5     		push	{r3, r4, r5, r6, r7, lr}
 1364              		.cfi_def_cfa_offset 24
 1365              		.cfi_offset 3, -24
 1366              		.cfi_offset 4, -20
 1367              		.cfi_offset 5, -16
 1368              		.cfi_offset 6, -12
 1369              		.cfi_offset 7, -8
 1370              		.cfi_offset 14, -4
 279:Tests.c       ****     csma_bus_init();
 1371              		.loc 1 279 0
 1372 0002 FFF7FEFF 		bl	csma_bus_init
 1373              	.LVL208:
 280:Tests.c       ****     cm_init();
 1374              		.loc 1 280 0
 1375 0006 FFF7FEFF 		bl	cm_init
 1376              	.LVL209:
 281:Tests.c       ****     tx_init();
ARM GAS  C:\Users\HENRIC~1\AppData\Local\Temp\ccRPnI9G.s 			page 49


 1377              		.loc 1 281 0
 1378 000a FFF7FEFF 		bl	tx_init
 1379              	.LVL210:
 282:Tests.c       ****     rx_init();
 1380              		.loc 1 282 0
 1381 000e FFF7FEFF 		bl	rx_init
 1382              	.LVL211:
 289:Tests.c       ****     memset(txStr,0,sizeof(txStr));
 1383              		.loc 1 289 0
 1384 0012 4F4D     		ldr	r5, .L115
 1385 0014 2122     		movs	r2, #33
 1386 0016 0021     		movs	r1, #0
 1387 0018 05F19800 		add	r0, r5, #152
 1388 001c FFF7FEFF 		bl	memset
 1389              	.LVL212:
 290:Tests.c       ****     txStr_index = 0;
 1390              		.loc 1 290 0
 1391 0020 0024     		movs	r4, #0
 1392 0022 85F8B940 		strb	r4, [r5, #185]
 292:Tests.c       ****     LCD_ClearDisplay();
 1393              		.loc 1 292 0
 1394 0026 0120     		movs	r0, #1
 1395 0028 FFF7FEFF 		bl	LCD_WriteControl
 1396              	.LVL213:
 293:Tests.c       ****     LCD_Position(0,0);
 1397              		.loc 1 293 0
 1398 002c 2146     		mov	r1, r4
 1399 002e 2046     		mov	r0, r4
 1400 0030 FFF7FEFF 		bl	LCD_Position
 1401              	.LVL214:
 294:Tests.c       ****     LCD_PrintString("UART:");
 1402              		.loc 1 294 0
 1403 0034 4748     		ldr	r0, .L115+4
 1404 0036 FFF7FEFF 		bl	LCD_PrintString
 1405              	.LVL215:
 1406              	.L103:
 297:Tests.c       ****         uart_update();
 1407              		.loc 1 297 0
 1408 003a FFF7FEFF 		bl	uart_update
 1409              	.LVL216:
 299:Tests.c       ****         if(uart_has_data()){
 1410              		.loc 1 299 0
 1411 003e FFF7FEFF 		bl	uart_has_data
 1412              	.LVL217:
 1413 0042 0028     		cmp	r0, #0
 1414 0044 F9D0     		beq	.L103
 1415              	.LBB7:
 300:Tests.c       ****             memset(buffer,'\0',sizeof(buffer));
 1416              		.loc 1 300 0
 1417 0046 424F     		ldr	r7, .L115
 1418 0048 07F1BC06 		add	r6, r7, #188
 1419 004c 4024     		movs	r4, #64
 1420 004e 2246     		mov	r2, r4
 1421 0050 0021     		movs	r1, #0
 1422 0052 3046     		mov	r0, r6
 1423 0054 FFF7FEFF 		bl	memset
 1424              	.LVL218:
ARM GAS  C:\Users\HENRIC~1\AppData\Local\Temp\ccRPnI9G.s 			page 50


 301:Tests.c       ****             uint16_t numChar = uart_read(buffer,sizeof(buffer));
 1425              		.loc 1 301 0
 1426 0058 2146     		mov	r1, r4
 1427 005a 3046     		mov	r0, r6
 1428 005c FFF7FEFF 		bl	uart_read
 1429              	.LVL219:
 1430 0060 0446     		mov	r4, r0
 1431              	.LVL220:
 302:Tests.c       ****             uart_write(buffer,strlen(buffer));
 1432              		.loc 1 302 0
 1433 0062 3046     		mov	r0, r6
 1434 0064 FFF7FEFF 		bl	strlen
 1435              	.LVL221:
 1436 0068 81B2     		uxth	r1, r0
 1437 006a 3046     		mov	r0, r6
 1438 006c FFF7FEFF 		bl	uart_write
 1439              	.LVL222:
 304:Tests.c       ****             LCD_ClearDisplay();
 1440              		.loc 1 304 0
 1441 0070 0120     		movs	r0, #1
 1442 0072 FFF7FEFF 		bl	LCD_WriteControl
 1443              	.LVL223:
 305:Tests.c       ****             LCD_Position(0,0);
 1444              		.loc 1 305 0
 1445 0076 0021     		movs	r1, #0
 1446 0078 0846     		mov	r0, r1
 1447 007a FFF7FEFF 		bl	LCD_Position
 1448              	.LVL224:
 306:Tests.c       ****             LCD_PrintString("UART:");
 1449              		.loc 1 306 0
 1450 007e 3548     		ldr	r0, .L115+4
 1451 0080 FFF7FEFF 		bl	LCD_PrintString
 1452              	.LVL225:
 307:Tests.c       ****             LCD_Position(1,0);
 1453              		.loc 1 307 0
 1454 0084 0021     		movs	r1, #0
 1455 0086 0120     		movs	r0, #1
 1456 0088 FFF7FEFF 		bl	LCD_Position
 1457              	.LVL226:
 308:Tests.c       ****             memcpy(disp,buffer,15);
 1458              		.loc 1 308 0
 1459 008c 07F1FC0E 		add	lr, r7, #252
 1460 0090 7546     		mov	r5, lr
 1461 0092 96E80F00 		ldmia	r6, {r0, r1, r2, r3}
 1462 0096 07C5     		stmia	r5!, {r0, r1, r2}
 1463 0098 25F8023B 		strh	r3, [r5], #2	@ movhi
 1464 009c 1B0C     		lsrs	r3, r3, #16
 1465 009e 2B70     		strb	r3, [r5]
 309:Tests.c       ****             disp[15] = 0;
 1466              		.loc 1 309 0
 1467 00a0 0025     		movs	r5, #0
 1468 00a2 87F80B51 		strb	r5, [r7, #267]
 310:Tests.c       ****             LCD_PrintString(disp);
 1469              		.loc 1 310 0
 1470 00a6 7046     		mov	r0, lr
 1471 00a8 FFF7FEFF 		bl	LCD_PrintString
 1472              	.LVL227:
ARM GAS  C:\Users\HENRIC~1\AppData\Local\Temp\ccRPnI9G.s 			page 51


 313:Tests.c       ****             uint8_t index = 0;
 1473              		.loc 1 313 0
 1474 00ac 2B46     		mov	r3, r5
 315:Tests.c       ****             while(!nl_found && txStr_index < (sizeof(txStr)-1) && index < numChar){
 1475              		.loc 1 315 0
 1476 00ae 18E0     		b	.L104
 1477              	.LVL228:
 1478              	.L109:
 316:Tests.c       ****                 c = buffer[index];
 1479              		.loc 1 316 0
 1480 00b0 2749     		ldr	r1, .L115
 1481 00b2 1944     		add	r1, r1, r3
 1482 00b4 91F8BC10 		ldrb	r1, [r1, #188]	@ zero_extendqisi2
 1483              	.LVL229:
 317:Tests.c       ****                 index++;
 1484              		.loc 1 317 0
 1485 00b8 0133     		adds	r3, r3, #1
 1486              	.LVL230:
 1487 00ba DBB2     		uxtb	r3, r3
 1488              	.LVL231:
 318:Tests.c       ****                 if(c == '\n' || c == '\r'){
 1489              		.loc 1 318 0
 1490 00bc 0A29     		cmp	r1, #10
 1491 00be 01D0     		beq	.L105
 318:Tests.c       ****                 if(c == '\n' || c == '\r'){
 1492              		.loc 1 318 0 is_stmt 0 discriminator 1
 1493 00c0 0D29     		cmp	r1, #13
 1494 00c2 06D1     		bne	.L106
 1495              	.L105:
 319:Tests.c       ****                     txStr[txStr_index] = '\0';
 1496              		.loc 1 319 0 is_stmt 1
 1497 00c4 2249     		ldr	r1, .L115
 1498              	.LVL232:
 1499 00c6 1144     		add	r1, r1, r2
 1500 00c8 0020     		movs	r0, #0
 1501 00ca 81F89800 		strb	r0, [r1, #152]
 1502              	.LVL233:
 320:Tests.c       ****                     nl_found = true;
 1503              		.loc 1 320 0
 1504 00ce 0125     		movs	r5, #1
 1505 00d0 03E0     		b	.L107
 1506              	.LVL234:
 1507              	.L106:
 322:Tests.c       ****                     txStr[txStr_index] = c;
 1508              		.loc 1 322 0
 1509 00d2 1F48     		ldr	r0, .L115
 1510 00d4 1044     		add	r0, r0, r2
 1511 00d6 80F89810 		strb	r1, [r0, #152]
 1512              	.LVL235:
 1513              	.L107:
 324:Tests.c       ****                 txStr_index++;
 1514              		.loc 1 324 0
 1515 00da 0132     		adds	r2, r2, #1
 1516 00dc 1C49     		ldr	r1, .L115
 1517 00de 81F8B920 		strb	r2, [r1, #185]
 1518              	.LVL236:
 1519              	.L104:
ARM GAS  C:\Users\HENRIC~1\AppData\Local\Temp\ccRPnI9G.s 			page 52


 315:Tests.c       ****             while(!nl_found && txStr_index < (sizeof(txStr)-1) && index < numChar){
 1520              		.loc 1 315 0
 1521 00e2 3DB9     		cbnz	r5, .L108
 315:Tests.c       ****             while(!nl_found && txStr_index < (sizeof(txStr)-1) && index < numChar){
 1522              		.loc 1 315 0 is_stmt 0 discriminator 1
 1523 00e4 1A4A     		ldr	r2, .L115
 1524 00e6 92F8B920 		ldrb	r2, [r2, #185]	@ zero_extendqisi2
 1525 00ea 1F2A     		cmp	r2, #31
 1526 00ec 02D8     		bhi	.L108
 315:Tests.c       ****             while(!nl_found && txStr_index < (sizeof(txStr)-1) && index < numChar){
 1527              		.loc 1 315 0 discriminator 2
 1528 00ee 99B2     		uxth	r1, r3
 1529 00f0 8C42     		cmp	r4, r1
 1530 00f2 DDD8     		bhi	.L109
 1531              	.L108:
 328:Tests.c       ****             if(txStr_index >= (sizeof(txStr)-1)){
 1532              		.loc 1 328 0 is_stmt 1
 1533 00f4 164B     		ldr	r3, .L115
 1534              	.LVL237:
 1535 00f6 93F8B930 		ldrb	r3, [r3, #185]	@ zero_extendqisi2
 1536 00fa 1F2B     		cmp	r3, #31
 1537 00fc 04D9     		bls	.L110
 329:Tests.c       ****                 txStr[32] = '\0';
 1538              		.loc 1 329 0
 1539 00fe 0022     		movs	r2, #0
 1540 0100 134B     		ldr	r3, .L115
 1541 0102 83F8B820 		strb	r2, [r3, #184]
 1542              	.LVL238:
 330:Tests.c       ****                 nl_found = true;
 1543              		.loc 1 330 0
 1544 0106 0125     		movs	r5, #1
 1545              	.LVL239:
 1546              	.L110:
 334:Tests.c       ****             if(nl_found){
 1547              		.loc 1 334 0
 1548 0108 002D     		cmp	r5, #0
 1549 010a 96D0     		beq	.L103
 335:Tests.c       ****                 txStr_index = 0;
 1550              		.loc 1 335 0
 1551 010c 104C     		ldr	r4, .L115
 1552              	.LVL240:
 1553 010e 0021     		movs	r1, #0
 1554 0110 84F8B910 		strb	r1, [r4, #185]
 336:Tests.c       ****                 LCD_Position(1,0);
 1555              		.loc 1 336 0
 1556 0114 0120     		movs	r0, #1
 1557 0116 FFF7FEFF 		bl	LCD_Position
 1558              	.LVL241:
 337:Tests.c       ****                 LCD_PrintString("Transmitting");
 1559              		.loc 1 337 0
 1560 011a 0F48     		ldr	r0, .L115+8
 1561 011c FFF7FEFF 		bl	LCD_PrintString
 1562              	.LVL242:
 338:Tests.c       ****                 tx_write(txStr,strlen(txStr));
 1563              		.loc 1 338 0
 1564 0120 9834     		adds	r4, r4, #152
 1565 0122 2046     		mov	r0, r4
ARM GAS  C:\Users\HENRIC~1\AppData\Local\Temp\ccRPnI9G.s 			page 53


 1566 0124 FFF7FEFF 		bl	strlen
 1567              	.LVL243:
 1568 0128 C1B2     		uxtb	r1, r0
 1569 012a 2046     		mov	r0, r4
 1570 012c FFF7FEFF 		bl	tx_write
 1571              	.LVL244:
 1572              	.L112:
 339:Tests.c       ****                 while(tx_get_status() != TX_DONE){/*Intentionally Empty*/}
 1573              		.loc 1 339 0 discriminator 1
 1574 0130 FFF7FEFF 		bl	tx_get_status
 1575              	.LVL245:
 1576 0134 0328     		cmp	r0, #3
 1577 0136 FBD1     		bne	.L112
 340:Tests.c       ****                 CyDelay(100);
 1578              		.loc 1 340 0
 1579 0138 6420     		movs	r0, #100
 1580 013a FFF7FEFF 		bl	CyDelay
 1581              	.LVL246:
 341:Tests.c       ****                 LCD_Position(1,0);
 1582              		.loc 1 341 0
 1583 013e 0021     		movs	r1, #0
 1584 0140 0120     		movs	r0, #1
 1585 0142 FFF7FEFF 		bl	LCD_Position
 1586              	.LVL247:
 342:Tests.c       ****                 LCD_PrintString("            ");
 1587              		.loc 1 342 0
 1588 0146 0548     		ldr	r0, .L115+12
 1589 0148 FFF7FEFF 		bl	LCD_PrintString
 1590              	.LVL248:
 1591 014c 75E7     		b	.L103
 1592              	.L116:
 1593 014e 00BF     		.align	2
 1594              	.L115:
 1595 0150 00000000 		.word	.LANCHOR0
 1596 0154 08000000 		.word	.LC7
 1597 0158 10000000 		.word	.LC8
 1598 015c 20000000 		.word	.LC9
 1599              	.LBE7:
 1600              		.cfi_endproc
 1601              	.LFE67:
 1602              		.size	tests_week6, .-tests_week6
 1603              		.section	.text.tests_week8,"ax",%progbits
 1604              		.align	2
 1605              		.global	tests_week8
 1606              		.thumb
 1607              		.thumb_func
 1608              		.type	tests_week8, %function
 1609              	tests_week8:
 1610              	.LFB68:
 352:Tests.c       **** void tests_week8(void){
 1611              		.loc 1 352 0
 1612              		.cfi_startproc
 1613              		@ args = 0, pretend = 0, frame = 88
 1614              		@ frame_needed = 0, uses_anonymous_args = 0
 1615 0000 30B5     		push	{r4, r5, lr}
 1616              		.cfi_def_cfa_offset 12
 1617              		.cfi_offset 4, -12
ARM GAS  C:\Users\HENRIC~1\AppData\Local\Temp\ccRPnI9G.s 			page 54


 1618              		.cfi_offset 5, -8
 1619              		.cfi_offset 14, -4
 1620 0002 97B0     		sub	sp, sp, #92
 1621              		.cfi_def_cfa_offset 104
 353:Tests.c       ****     csma_bus_init();
 1622              		.loc 1 353 0
 1623 0004 FFF7FEFF 		bl	csma_bus_init
 1624              	.LVL249:
 354:Tests.c       ****     cm_init();
 1625              		.loc 1 354 0
 1626 0008 FFF7FEFF 		bl	cm_init
 1627              	.LVL250:
 355:Tests.c       ****     tx_init();
 1628              		.loc 1 355 0
 1629 000c FFF7FEFF 		bl	tx_init
 1630              	.LVL251:
 356:Tests.c       ****     rx_init();
 1631              		.loc 1 356 0
 1632 0010 FFF7FEFF 		bl	rx_init
 1633              	.LVL252:
 360:Tests.c       ****     memset(txStr,0,sizeof(txStr));
 1634              		.loc 1 360 0
 1635 0014 534C     		ldr	r4, .L132
 1636 0016 2122     		movs	r2, #33
 1637 0018 0021     		movs	r1, #0
 1638 001a 04F58670 		add	r0, r4, #268
 1639 001e FFF7FEFF 		bl	memset
 1640              	.LVL253:
 361:Tests.c       ****     txStr_index = 0;
 1641              		.loc 1 361 0
 1642 0022 0023     		movs	r3, #0
 1643 0024 84F82D31 		strb	r3, [r4, #301]
 366:Tests.c       ****     LCD_ClearDisplay();
 1644              		.loc 1 366 0
 1645 0028 0120     		movs	r0, #1
 1646 002a FFF7FEFF 		bl	LCD_WriteControl
 1647              	.LVL254:
 1648              	.L129:
 369:Tests.c       ****         uart_update();
 1649              		.loc 1 369 0
 1650 002e FFF7FEFF 		bl	uart_update
 1651              	.LVL255:
 371:Tests.c       ****         if(uart_has_data()){
 1652              		.loc 1 371 0
 1653 0032 FFF7FEFF 		bl	uart_has_data
 1654              	.LVL256:
 1655 0036 0028     		cmp	r0, #0
 1656 0038 52D0     		beq	.L118
 1657              	.LBB8:
 372:Tests.c       ****             memset(buffer,'\0',sizeof(buffer));
 1658              		.loc 1 372 0
 1659 003a 4024     		movs	r4, #64
 1660 003c 2246     		mov	r2, r4
 1661 003e 0021     		movs	r1, #0
 1662 0040 06A8     		add	r0, sp, #24
 1663 0042 FFF7FEFF 		bl	memset
 1664              	.LVL257:
ARM GAS  C:\Users\HENRIC~1\AppData\Local\Temp\ccRPnI9G.s 			page 55


 373:Tests.c       ****             uint16_t numChar = uart_read(buffer,sizeof(buffer));
 1665              		.loc 1 373 0
 1666 0046 2146     		mov	r1, r4
 1667 0048 06A8     		add	r0, sp, #24
 1668 004a FFF7FEFF 		bl	uart_read
 1669              	.LVL258:
 1670 004e 0446     		mov	r4, r0
 1671              	.LVL259:
 374:Tests.c       ****             uart_write(buffer,strlen(buffer));
 1672              		.loc 1 374 0
 1673 0050 06A8     		add	r0, sp, #24
 1674 0052 FFF7FEFF 		bl	strlen
 1675              	.LVL260:
 1676 0056 81B2     		uxth	r1, r0
 1677 0058 06A8     		add	r0, sp, #24
 1678 005a FFF7FEFF 		bl	uart_write
 1679              	.LVL261:
 377:Tests.c       ****             uint8_t index = 0;
 1680              		.loc 1 377 0
 1681 005e 0023     		movs	r3, #0
 376:Tests.c       ****             bool nl_found = false;
 1682              		.loc 1 376 0
 1683 0060 1D46     		mov	r5, r3
 379:Tests.c       ****             while(!nl_found && txStr_index < (sizeof(txStr)-1) && index < numChar){
 1684              		.loc 1 379 0
 1685 0062 18E0     		b	.L119
 1686              	.LVL262:
 1687              	.L124:
 380:Tests.c       ****                 c = buffer[index];
 1688              		.loc 1 380 0
 1689 0064 16A9     		add	r1, sp, #88
 1690 0066 1944     		add	r1, r1, r3
 1691 0068 11F8401C 		ldrb	r1, [r1, #-64]	@ zero_extendqisi2
 1692              	.LVL263:
 381:Tests.c       ****                 index++;
 1693              		.loc 1 381 0
 1694 006c 0133     		adds	r3, r3, #1
 1695              	.LVL264:
 1696 006e DBB2     		uxtb	r3, r3
 1697              	.LVL265:
 382:Tests.c       ****                 if(c == '\n' || c == '\r'){
 1698              		.loc 1 382 0
 1699 0070 0A29     		cmp	r1, #10
 1700 0072 01D0     		beq	.L120
 382:Tests.c       ****                 if(c == '\n' || c == '\r'){
 1701              		.loc 1 382 0 is_stmt 0 discriminator 1
 1702 0074 0D29     		cmp	r1, #13
 1703 0076 06D1     		bne	.L121
 1704              	.L120:
 383:Tests.c       ****                     txStr[txStr_index] = '\0';
 1705              		.loc 1 383 0 is_stmt 1
 1706 0078 3A49     		ldr	r1, .L132
 1707              	.LVL266:
 1708 007a 1144     		add	r1, r1, r2
 1709 007c 0020     		movs	r0, #0
 1710 007e 81F80C01 		strb	r0, [r1, #268]
 1711              	.LVL267:
ARM GAS  C:\Users\HENRIC~1\AppData\Local\Temp\ccRPnI9G.s 			page 56


 384:Tests.c       ****                     nl_found = true;
 1712              		.loc 1 384 0
 1713 0082 0125     		movs	r5, #1
 1714 0084 03E0     		b	.L122
 1715              	.LVL268:
 1716              	.L121:
 386:Tests.c       ****                     txStr[txStr_index] = c;
 1717              		.loc 1 386 0
 1718 0086 3748     		ldr	r0, .L132
 1719 0088 1044     		add	r0, r0, r2
 1720 008a 80F80C11 		strb	r1, [r0, #268]
 1721              	.LVL269:
 1722              	.L122:
 388:Tests.c       ****                 txStr_index++;
 1723              		.loc 1 388 0
 1724 008e 0132     		adds	r2, r2, #1
 1725 0090 3449     		ldr	r1, .L132
 1726 0092 81F82D21 		strb	r2, [r1, #301]
 1727              	.LVL270:
 1728              	.L119:
 379:Tests.c       ****             while(!nl_found && txStr_index < (sizeof(txStr)-1) && index < numChar){
 1729              		.loc 1 379 0
 1730 0096 3DB9     		cbnz	r5, .L123
 379:Tests.c       ****             while(!nl_found && txStr_index < (sizeof(txStr)-1) && index < numChar){
 1731              		.loc 1 379 0 is_stmt 0 discriminator 1
 1732 0098 324A     		ldr	r2, .L132
 1733 009a 92F82D21 		ldrb	r2, [r2, #301]	@ zero_extendqisi2
 1734 009e 1F2A     		cmp	r2, #31
 1735 00a0 02D8     		bhi	.L123
 379:Tests.c       ****             while(!nl_found && txStr_index < (sizeof(txStr)-1) && index < numChar){
 1736              		.loc 1 379 0 discriminator 2
 1737 00a2 99B2     		uxth	r1, r3
 1738 00a4 8C42     		cmp	r4, r1
 1739 00a6 DDD8     		bhi	.L124
 1740              	.L123:
 392:Tests.c       ****             if(txStr_index >= (sizeof(txStr)-1)){
 1741              		.loc 1 392 0 is_stmt 1
 1742 00a8 2E4B     		ldr	r3, .L132
 1743              	.LVL271:
 1744 00aa 93F82D31 		ldrb	r3, [r3, #301]	@ zero_extendqisi2
 1745 00ae 1F2B     		cmp	r3, #31
 1746 00b0 04D9     		bls	.L125
 393:Tests.c       ****                 txStr[32] = '\0';
 1747              		.loc 1 393 0
 1748 00b2 0022     		movs	r2, #0
 1749 00b4 2B4B     		ldr	r3, .L132
 1750 00b6 83F82C21 		strb	r2, [r3, #300]
 1751              	.LVL272:
 394:Tests.c       ****                 nl_found = true;
 1752              		.loc 1 394 0
 1753 00ba 0125     		movs	r5, #1
 1754              	.LVL273:
 1755              	.L125:
 398:Tests.c       ****             if(nl_found){
 1756              		.loc 1 398 0
 1757 00bc 85B1     		cbz	r5, .L118
 399:Tests.c       ****                 txStr_index = 0;
ARM GAS  C:\Users\HENRIC~1\AppData\Local\Temp\ccRPnI9G.s 			page 57


 1758              		.loc 1 399 0
 1759 00be 294C     		ldr	r4, .L132
 1760              	.LVL274:
 1761 00c0 0023     		movs	r3, #0
 1762 00c2 84F82D31 		strb	r3, [r4, #301]
 400:Tests.c       ****                 tx_write(txStr,strlen(txStr));
 1763              		.loc 1 400 0
 1764 00c6 04F58674 		add	r4, r4, #268
 1765 00ca 2046     		mov	r0, r4
 1766 00cc FFF7FEFF 		bl	strlen
 1767              	.LVL275:
 1768 00d0 C1B2     		uxtb	r1, r0
 1769 00d2 2046     		mov	r0, r4
 1770 00d4 FFF7FEFF 		bl	tx_write
 1771              	.LVL276:
 1772              	.L126:
 401:Tests.c       ****                 while(tx_get_status() != TX_DONE){/*Intentionally Empty*/}
 1773              		.loc 1 401 0 discriminator 1
 1774 00d8 FFF7FEFF 		bl	tx_get_status
 1775              	.LVL277:
 1776 00dc 0328     		cmp	r0, #3
 1777 00de FBD1     		bne	.L126
 1778              	.LVL278:
 1779              	.L118:
 1780              	.LBE8:
 405:Tests.c       ****         if(rx_has_data()){
 1781              		.loc 1 405 0
 1782 00e0 FFF7FEFF 		bl	rx_has_data
 1783              	.LVL279:
 1784 00e4 68B3     		cbz	r0, .L127
 1785              	.LBB9:
 406:Tests.c       ****             uint8_t count = rx_buffer(buffer,sizeof(buffer));
 1786              		.loc 1 406 0
 1787 00e6 4021     		movs	r1, #64
 1788 00e8 06A8     		add	r0, sp, #24
 1789 00ea FFF7FEFF 		bl	rx_buffer
 1790              	.LVL280:
 1791 00ee 0546     		mov	r5, r0
 1792              	.LVL281:
 407:Tests.c       ****             LCD_ClearDisplay();
 1793              		.loc 1 407 0
 1794 00f0 0120     		movs	r0, #1
 1795 00f2 FFF7FEFF 		bl	LCD_WriteControl
 1796              	.LVL282:
 408:Tests.c       ****             LCD_Position(0,0);
 1797              		.loc 1 408 0
 1798 00f6 0021     		movs	r1, #0
 1799 00f8 0846     		mov	r0, r1
 1800 00fa FFF7FEFF 		bl	LCD_Position
 1801              	.LVL283:
 409:Tests.c       ****             sprintf(str,"Size: %d",count);
 1802              		.loc 1 409 0
 1803 00fe 2A46     		mov	r2, r5
 1804 0100 1949     		ldr	r1, .L132+4
 1805 0102 01A8     		add	r0, sp, #4
 1806 0104 FFF7FEFF 		bl	sprintf
 1807              	.LVL284:
ARM GAS  C:\Users\HENRIC~1\AppData\Local\Temp\ccRPnI9G.s 			page 58


 410:Tests.c       ****             LCD_PrintString(str);
 1808              		.loc 1 410 0
 1809 0108 01A8     		add	r0, sp, #4
 1810 010a FFF7FEFF 		bl	LCD_PrintString
 1811              	.LVL285:
 411:Tests.c       ****             LCD_Position(1,0);
 1812              		.loc 1 411 0
 1813 010e 0021     		movs	r1, #0
 1814 0110 0120     		movs	r0, #1
 1815 0112 FFF7FEFF 		bl	LCD_Position
 1816              	.LVL286:
 412:Tests.c       ****             uint8_t cpy = (count < 16) ? count : 16;
 1817              		.loc 1 412 0
 1818 0116 2C46     		mov	r4, r5
 1819 0118 102D     		cmp	r5, #16
 1820 011a 28BF     		it	cs
 1821 011c 1024     		movcs	r4, #16
 1822 011e E4B2     		uxtb	r4, r4
 1823              	.LVL287:
 413:Tests.c       ****             memcpy(str,buffer,cpy);
 1824              		.loc 1 413 0
 1825 0120 2246     		mov	r2, r4
 1826 0122 06A9     		add	r1, sp, #24
 1827 0124 01A8     		add	r0, sp, #4
 1828 0126 FFF7FEFF 		bl	memcpy
 1829              	.LVL288:
 414:Tests.c       ****             str[cpy] = 0;
 1830              		.loc 1 414 0
 1831 012a 16AB     		add	r3, sp, #88
 1832 012c 1C44     		add	r4, r4, r3
 1833              	.LVL289:
 1834 012e 0023     		movs	r3, #0
 1835 0130 04F8543C 		strb	r3, [r4, #-84]
 416:Tests.c       ****             LCD_PrintString(str);
 1836              		.loc 1 416 0
 1837 0134 01A8     		add	r0, sp, #4
 1838 0136 FFF7FEFF 		bl	LCD_PrintString
 1839              	.LVL290:
 417:Tests.c       ****             uart_write(buffer,count);
 1840              		.loc 1 417 0
 1841 013a A9B2     		uxth	r1, r5
 1842 013c 06A8     		add	r0, sp, #24
 1843 013e FFF7FEFF 		bl	uart_write
 1844              	.LVL291:
 1845              	.L127:
 1846              	.LBE9:
 420:Tests.c       ****         if(!CapSense_IsBusy()){
 1847              		.loc 1 420 0
 1848 0142 FFF7FEFF 		bl	CapSense_IsBusy
 1849              	.LVL292:
 1850 0146 18B9     		cbnz	r0, .L128
 421:Tests.c       ****             CapSense_UpdateEnabledBaselines();
 1851              		.loc 1 421 0
 1852 0148 FFF7FEFF 		bl	CapSense_UpdateEnabledBaselines
 1853              	.LVL293:
 422:Tests.c       ****             CapSense_ScanEnabledWidgets();
 1854              		.loc 1 422 0
ARM GAS  C:\Users\HENRIC~1\AppData\Local\Temp\ccRPnI9G.s 			page 59


 1855 014c FFF7FEFF 		bl	CapSense_ScanEnabledWidgets
 1856              	.LVL294:
 1857              	.L128:
 425:Tests.c       ****         if(CapSense_CheckIsWidgetActive(CapSense_LEFT__BTN)){
 1858              		.loc 1 425 0
 1859 0150 0120     		movs	r0, #1
 1860 0152 FFF7FEFF 		bl	CapSense_CheckIsWidgetActive
 1861              	.LVL295:
 1862 0156 0028     		cmp	r0, #0
 1863 0158 3FF469AF 		beq	.L129
 426:Tests.c       ****             LCD_ClearDisplay();   
 1864              		.loc 1 426 0
 1865 015c 0120     		movs	r0, #1
 1866 015e FFF7FEFF 		bl	LCD_WriteControl
 1867              	.LVL296:
 1868 0162 64E7     		b	.L129
 1869              	.L133:
 1870              		.align	2
 1871              	.L132:
 1872 0164 00000000 		.word	.LANCHOR0
 1873 0168 D0000000 		.word	.LC24
 1874              		.cfi_endproc
 1875              	.LFE68:
 1876              		.size	tests_week8, .-tests_week8
 1877              		.section	.text.tests_week9,"ax",%progbits
 1878              		.align	2
 1879              		.global	tests_week9
 1880              		.thumb
 1881              		.thumb_func
 1882              		.type	tests_week9, %function
 1883              	tests_week9:
 1884              	.LFB69:
 435:Tests.c       **** void tests_week9(void){
 1885              		.loc 1 435 0
 1886              		.cfi_startproc
 1887              		@ args = 0, pretend = 0, frame = 168
 1888              		@ frame_needed = 0, uses_anonymous_args = 0
 1889 0000 2DE9F04F 		push	{r4, r5, r6, r7, r8, r9, r10, fp, lr}
 1890              		.cfi_def_cfa_offset 36
 1891              		.cfi_offset 4, -36
 1892              		.cfi_offset 5, -32
 1893              		.cfi_offset 6, -28
 1894              		.cfi_offset 7, -24
 1895              		.cfi_offset 8, -20
 1896              		.cfi_offset 9, -16
 1897              		.cfi_offset 10, -12
 1898              		.cfi_offset 11, -8
 1899              		.cfi_offset 14, -4
 1900 0004 ADB0     		sub	sp, sp, #180
 1901              		.cfi_def_cfa_offset 216
 436:Tests.c       ****     user_init();
 1902              		.loc 1 436 0
 1903 0006 FFF7FEFF 		bl	user_init
 1904              	.LVL297:
 437:Tests.c       ****     dll_init();
 1905              		.loc 1 437 0
 1906 000a FFF7FEFF 		bl	dll_init
ARM GAS  C:\Users\HENRIC~1\AppData\Local\Temp\ccRPnI9G.s 			page 60


 1907              	.LVL298:
 438:Tests.c       ****     dll_set_user(CURT_HENRICHS);
 1908              		.loc 1 438 0
 1909 000e 0420     		movs	r0, #4
 1910 0010 FFF7FEFF 		bl	dll_set_user
 1911              	.LVL299:
 442:Tests.c       ****     memset(txStr,0,sizeof(txStr));
 1912              		.loc 1 442 0
 1913 0014 AF4D     		ldr	r5, .L167
 1914 0016 2D22     		movs	r2, #45
 1915 0018 0021     		movs	r1, #0
 1916 001a 05F59870 		add	r0, r5, #304
 1917 001e FFF7FEFF 		bl	memset
 1918              	.LVL300:
 443:Tests.c       ****     txStr_index = 0;
 1919              		.loc 1 443 0
 1920 0022 0024     		movs	r4, #0
 1921 0024 85F85D41 		strb	r4, [r5, #349]
 448:Tests.c       ****     LCD_ClearDisplay();
 1922              		.loc 1 448 0
 1923 0028 0120     		movs	r0, #1
 1924 002a FFF7FEFF 		bl	LCD_WriteControl
 1925              	.LVL301:
 456:Tests.c       ****     uint8_t lk_state = 0;
 1926              		.loc 1 456 0
 1927 002e 2546     		mov	r5, r4
 455:Tests.c       ****     uint8_t rx_state = 0;
 1928              		.loc 1 455 0
 1929 0030 A246     		mov	r10, r4
 454:Tests.c       ****     bool tx_bool = false;
 1930              		.loc 1 454 0
 1931 0032 A146     		mov	r9, r4
 453:Tests.c       ****     uint8_t tx_state = 0;
 1932              		.loc 1 453 0
 1933 0034 A046     		mov	r8, r4
 451:Tests.c       ****     bool button_held_down = false;
 1934              		.loc 1 451 0
 1935 0036 2646     		mov	r6, r4
 1936              	.LVL302:
 1937              	.L161:
 1938              	.LBB10:
 459:Tests.c       ****         dll_update();   
 1939              		.loc 1 459 0
 1940 0038 FFF7FEFF 		bl	dll_update
 1941              	.LVL303:
 461:Tests.c       ****         if(!CapSense_IsBusy()){
 1942              		.loc 1 461 0
 1943 003c FFF7FEFF 		bl	CapSense_IsBusy
 1944              	.LVL304:
 1945 0040 18B9     		cbnz	r0, .L135
 462:Tests.c       ****             CapSense_UpdateEnabledBaselines();
 1946              		.loc 1 462 0
 1947 0042 FFF7FEFF 		bl	CapSense_UpdateEnabledBaselines
 1948              	.LVL305:
 463:Tests.c       ****             CapSense_ScanEnabledWidgets();
 1949              		.loc 1 463 0
 1950 0046 FFF7FEFF 		bl	CapSense_ScanEnabledWidgets
ARM GAS  C:\Users\HENRIC~1\AppData\Local\Temp\ccRPnI9G.s 			page 61


 1951              	.LVL306:
 1952              	.L135:
 466:Tests.c       ****         if(CapSense_CheckIsWidgetActive(CapSense_LEFT__BTN)){
 1953              		.loc 1 466 0
 1954 004a 0120     		movs	r0, #1
 1955 004c FFF7FEFF 		bl	CapSense_CheckIsWidgetActive
 1956              	.LVL307:
 1957 0050 80B1     		cbz	r0, .L162
 467:Tests.c       ****             if(!button_held_down){
 1958              		.loc 1 467 0
 1959 0052 86B9     		cbnz	r6, .L136
 1960              	.LVL308:
 469:Tests.c       ****                 state = (state + 1) % 3;
 1961              		.loc 1 469 0
 1962 0054 631C     		adds	r3, r4, #1
 1963 0056 A04C     		ldr	r4, .L167+4
 1964              	.LVL309:
 1965 0058 84FB0324 		smull	r2, r4, r4, r3
 1966 005c A4EBE374 		sub	r4, r4, r3, asr #31
 1967 0060 04EB4404 		add	r4, r4, r4, lsl #1
 1968 0064 1C1B     		subs	r4, r3, r4
 1969 0066 E4B2     		uxtb	r4, r4
 1970              	.LVL310:
 473:Tests.c       ****                 lk_state = 0;
 1971              		.loc 1 473 0
 1972 0068 0025     		movs	r5, #0
 472:Tests.c       ****                 rx_state = 0;
 1973              		.loc 1 472 0
 1974 006a AA46     		mov	r10, r5
 471:Tests.c       ****                 tx_bool = false;
 1975              		.loc 1 471 0
 1976 006c A946     		mov	r9, r5
 470:Tests.c       ****                 tx_state = 0;
 1977              		.loc 1 470 0
 1978 006e A846     		mov	r8, r5
 468:Tests.c       ****                 button_held_down = true;
 1979              		.loc 1 468 0
 1980 0070 0126     		movs	r6, #1
 1981 0072 00E0     		b	.L136
 1982              	.LVL311:
 1983              	.L162:
 476:Tests.c       ****             button_held_down = false;   
 1984              		.loc 1 476 0
 1985 0074 0026     		movs	r6, #0
 1986              	.LVL312:
 1987              	.L136:
 479:Tests.c       ****         uart_update();
 1988              		.loc 1 479 0
 1989 0076 FFF7FEFF 		bl	uart_update
 1990              	.LVL313:
 482:Tests.c       ****         switch(state){
 1991              		.loc 1 482 0
 1992 007a 012C     		cmp	r4, #1
 1993 007c 00F09C80 		beq	.L138
 1994 0080 1CB1     		cbz	r4, .L139
 1995 0082 022C     		cmp	r4, #2
 1996 0084 00F0CC80 		beq	.L140
ARM GAS  C:\Users\HENRIC~1\AppData\Local\Temp\ccRPnI9G.s 			page 62


 1997 0088 73E1     		b	.L165
 1998              	.L139:
 484:Tests.c       ****                 if(!tx_bool){
 1999              		.loc 1 484 0
 2000 008a B9F1000F 		cmp	r9, #0
 2001 008e 0BD1     		bne	.L141
 2002              	.LVL314:
 486:Tests.c       ****                     LCD_ClearDisplay();
 2003              		.loc 1 486 0
 2004 0090 0120     		movs	r0, #1
 2005 0092 FFF7FEFF 		bl	LCD_WriteControl
 2006              	.LVL315:
 487:Tests.c       ****                     LCD_Position(0,0);
 2007              		.loc 1 487 0
 2008 0096 0021     		movs	r1, #0
 2009 0098 0846     		mov	r0, r1
 2010 009a FFF7FEFF 		bl	LCD_Position
 2011              	.LVL316:
 488:Tests.c       ****                     LCD_PrintString("Transmit");
 2012              		.loc 1 488 0
 2013 009e 8F48     		ldr	r0, .L167+8
 2014 00a0 FFF7FEFF 		bl	LCD_PrintString
 2015              	.LVL317:
 485:Tests.c       ****                     tx_bool = true;
 2016              		.loc 1 485 0
 2017 00a4 4FF00109 		mov	r9, #1
 2018              	.LVL318:
 2019              	.L141:
 490:Tests.c       ****                 switch(tx_state){
 2020              		.loc 1 490 0
 2021 00a8 B8F1030F 		cmp	r8, #3
 2022 00ac 00F26381 		bhi	.L164
 2023 00b0 DFE808F0 		tbb	[pc, r8]
 2024              	.L143:
 2025 00b4 02       		.byte	(.L142-.L143)/2
 2026 00b5 1B       		.byte	(.L144-.L143)/2
 2027 00b6 3E       		.byte	(.L145-.L143)/2
 2028 00b7 5F       		.byte	(.L146-.L143)/2
 2029              		.p2align 1
 2030              	.L142:
 493:Tests.c       ****                         if(dll_tx_finished()){
 2031              		.loc 1 493 0
 2032 00b8 FFF7FEFF 		bl	dll_tx_finished
 2033              	.LVL319:
 2034 00bc 0028     		cmp	r0, #0
 2035 00be BBD0     		beq	.L161
 494:Tests.c       ****                             CyDelay(50);
 2036              		.loc 1 494 0
 2037 00c0 3220     		movs	r0, #50
 2038 00c2 FFF7FEFF 		bl	CyDelay
 2039              	.LVL320:
 496:Tests.c       ****                             msg.src = 0x0B;
 2040              		.loc 1 496 0
 2041 00c6 0B23     		movs	r3, #11
 2042 00c8 8DF80830 		strb	r3, [sp, #8]
 497:Tests.c       ****                             msg.dst = 0x00;
 2043              		.loc 1 497 0
ARM GAS  C:\Users\HENRIC~1\AppData\Local\Temp\ccRPnI9G.s 			page 63


 2044 00cc 0023     		movs	r3, #0
 2045 00ce 8DF80930 		strb	r3, [sp, #9]
 498:Tests.c       ****                             msg.msg_size = 0;
 2046              		.loc 1 498 0
 2047 00d2 8DF83730 		strb	r3, [sp, #55]
 499:Tests.c       ****                             msg.msg[0] = 0;
 2048              		.loc 1 499 0
 2049 00d6 8DF80B30 		strb	r3, [sp, #11]
 500:Tests.c       ****                             msg.use_crc = DLL_NO_CRC;
 2050              		.loc 1 500 0
 2051 00da 8DF80A30 		strb	r3, [sp, #10]
 501:Tests.c       ****                             dll_write(&msg);
 2052              		.loc 1 501 0
 2053 00de 02A8     		add	r0, sp, #8
 2054 00e0 FFF7FEFF 		bl	dll_write
 2055              	.LVL321:
 495:Tests.c       ****                             tx_state = 1;
 2056              		.loc 1 495 0
 2057 00e4 4FF00108 		mov	r8, #1
 2058 00e8 A6E7     		b	.L161
 2059              	.LVL322:
 2060              	.L144:
 506:Tests.c       ****                         if(dll_tx_finished()){
 2061              		.loc 1 506 0
 2062 00ea FFF7FEFF 		bl	dll_tx_finished
 2063              	.LVL323:
 2064 00ee 0028     		cmp	r0, #0
 2065 00f0 A2D0     		beq	.L161
 507:Tests.c       ****                             CyDelay(50);
 2066              		.loc 1 507 0
 2067 00f2 3220     		movs	r0, #50
 2068 00f4 FFF7FEFF 		bl	CyDelay
 2069              	.LVL324:
 509:Tests.c       ****                             msg.src = 0x0B;
 2070              		.loc 1 509 0
 2071 00f8 0B23     		movs	r3, #11
 2072 00fa 8DF80830 		strb	r3, [sp, #8]
 510:Tests.c       ****                             msg.dst = 0x15;
 2073              		.loc 1 510 0
 2074 00fe 1523     		movs	r3, #21
 2075 0100 8DF80930 		strb	r3, [sp, #9]
 511:Tests.c       ****                             msg.msg_size = 44;
 2076              		.loc 1 511 0
 2077 0104 2C23     		movs	r3, #44
 2078 0106 8DF83730 		strb	r3, [sp, #55]
 2079              	.LVL325:
 2080              	.LBB11:
 512:Tests.c       ****                             for(int i=0; i<44; i++){
 2081              		.loc 1 512 0
 2082 010a 0023     		movs	r3, #0
 2083 010c 05E0     		b	.L147
 2084              	.LVL326:
 2085              	.L148:
 513:Tests.c       ****                                 msg.msg[i] = 'a';   
 2086              		.loc 1 513 0 discriminator 3
 2087 010e 2CAA     		add	r2, sp, #176
 2088 0110 1A44     		add	r2, r2, r3
ARM GAS  C:\Users\HENRIC~1\AppData\Local\Temp\ccRPnI9G.s 			page 64


 2089 0112 6121     		movs	r1, #97
 2090 0114 02F8A51C 		strb	r1, [r2, #-165]
 512:Tests.c       ****                             for(int i=0; i<44; i++){
 2091              		.loc 1 512 0 discriminator 3
 2092 0118 0133     		adds	r3, r3, #1
 2093              	.LVL327:
 2094              	.L147:
 512:Tests.c       ****                             for(int i=0; i<44; i++){
 2095              		.loc 1 512 0 is_stmt 0 discriminator 1
 2096 011a 2B2B     		cmp	r3, #43
 2097 011c F7DD     		ble	.L148
 2098              	.LBE11:
 515:Tests.c       ****                             msg.use_crc = DLL_NO_CRC;
 2099              		.loc 1 515 0 is_stmt 1
 2100 011e 0023     		movs	r3, #0
 2101              	.LVL328:
 2102 0120 8DF80A30 		strb	r3, [sp, #10]
 516:Tests.c       ****                             dll_write(&msg);
 2103              		.loc 1 516 0
 2104 0124 02A8     		add	r0, sp, #8
 2105 0126 FFF7FEFF 		bl	dll_write
 2106              	.LVL329:
 508:Tests.c       ****                             tx_state = 2;
 2107              		.loc 1 508 0
 2108 012a 4FF00208 		mov	r8, #2
 2109 012e 83E7     		b	.L161
 2110              	.LVL330:
 2111              	.L145:
 521:Tests.c       ****                         if(dll_tx_finished()){
 2112              		.loc 1 521 0
 2113 0130 FFF7FEFF 		bl	dll_tx_finished
 2114              	.LVL331:
 2115 0134 0028     		cmp	r0, #0
 2116 0136 3FF47FAF 		beq	.L161
 522:Tests.c       ****                             CyDelay(50);
 2117              		.loc 1 522 0
 2118 013a 3220     		movs	r0, #50
 2119 013c FFF7FEFF 		bl	CyDelay
 2120              	.LVL332:
 524:Tests.c       ****                             msg.src = 0x0B;
 2121              		.loc 1 524 0
 2122 0140 0B23     		movs	r3, #11
 2123 0142 8DF80830 		strb	r3, [sp, #8]
 525:Tests.c       ****                             msg.dst = 0x33;
 2124              		.loc 1 525 0
 2125 0146 3323     		movs	r3, #51
 2126 0148 8DF80930 		strb	r3, [sp, #9]
 526:Tests.c       ****                             msg.msg_size = 5;
 2127              		.loc 1 526 0
 2128 014c 0523     		movs	r3, #5
 2129 014e 8DF83730 		strb	r3, [sp, #55]
 527:Tests.c       ****                             strcpy(msg.msg,"Hello");
 2130              		.loc 1 527 0
 2131 0152 634B     		ldr	r3, .L167+12
 2132 0154 1868     		ldr	r0, [r3]	@ unaligned
 2133 0156 CDF80B00 		str	r0, [sp, #11]	@ unaligned
 2134 015a 9B88     		ldrh	r3, [r3, #4]	@ unaligned
ARM GAS  C:\Users\HENRIC~1\AppData\Local\Temp\ccRPnI9G.s 			page 65


 2135 015c ADF80F30 		strh	r3, [sp, #15]	@ unaligned
 528:Tests.c       ****                             msg.use_crc = DLL_NO_CRC;
 2136              		.loc 1 528 0
 2137 0160 0023     		movs	r3, #0
 2138 0162 8DF80A30 		strb	r3, [sp, #10]
 529:Tests.c       ****                             dll_write(&msg);
 2139              		.loc 1 529 0
 2140 0166 02A8     		add	r0, sp, #8
 2141 0168 FFF7FEFF 		bl	dll_write
 2142              	.LVL333:
 523:Tests.c       ****                             tx_state = 3;
 2143              		.loc 1 523 0
 2144 016c 4FF00308 		mov	r8, #3
 2145 0170 62E7     		b	.L161
 2146              	.LVL334:
 2147              	.L146:
 534:Tests.c       ****                         if(dll_tx_finished()){
 2148              		.loc 1 534 0
 2149 0172 FFF7FEFF 		bl	dll_tx_finished
 2150              	.LVL335:
 2151 0176 0028     		cmp	r0, #0
 2152 0178 3FF45EAF 		beq	.L161
 535:Tests.c       ****                             CyDelay(50);
 2153              		.loc 1 535 0
 2154 017c 3220     		movs	r0, #50
 2155 017e FFF7FEFF 		bl	CyDelay
 2156              	.LVL336:
 537:Tests.c       ****                             msg.src = 0x0B;
 2157              		.loc 1 537 0
 2158 0182 0B23     		movs	r3, #11
 2159 0184 8DF80830 		strb	r3, [sp, #8]
 538:Tests.c       ****                             msg.dst = 0x41;
 2160              		.loc 1 538 0
 2161 0188 4123     		movs	r3, #65
 2162 018a 8DF80930 		strb	r3, [sp, #9]
 539:Tests.c       ****                             msg.msg_size = 45;
 2163              		.loc 1 539 0
 2164 018e 2D23     		movs	r3, #45
 2165 0190 8DF83730 		strb	r3, [sp, #55]
 2166              	.LVL337:
 2167              	.LBB12:
 540:Tests.c       ****                             for(int i=0; i<44; i++){
 2168              		.loc 1 540 0
 2169 0194 0023     		movs	r3, #0
 2170 0196 05E0     		b	.L149
 2171              	.LVL338:
 2172              	.L150:
 541:Tests.c       ****                                 msg.msg[i] = 'q';   
 2173              		.loc 1 541 0 discriminator 3
 2174 0198 2CAA     		add	r2, sp, #176
 2175 019a 1A44     		add	r2, r2, r3
 2176 019c 7121     		movs	r1, #113
 2177 019e 02F8A51C 		strb	r1, [r2, #-165]
 540:Tests.c       ****                             for(int i=0; i<44; i++){
 2178              		.loc 1 540 0 discriminator 3
 2179 01a2 0133     		adds	r3, r3, #1
 2180              	.LVL339:
ARM GAS  C:\Users\HENRIC~1\AppData\Local\Temp\ccRPnI9G.s 			page 66


 2181              	.L149:
 540:Tests.c       ****                             for(int i=0; i<44; i++){
 2182              		.loc 1 540 0 is_stmt 0 discriminator 1
 2183 01a4 2B2B     		cmp	r3, #43
 2184 01a6 F7DD     		ble	.L150
 2185              	.LBE12:
 543:Tests.c       ****                             msg.use_crc = DLL_NO_CRC;
 2186              		.loc 1 543 0 is_stmt 1
 2187 01a8 4FF00008 		mov	r8, #0
 2188 01ac 8DF80A80 		strb	r8, [sp, #10]
 544:Tests.c       ****                             dll_write(&msg);
 2189              		.loc 1 544 0
 2190 01b0 02A8     		add	r0, sp, #8
 2191 01b2 FFF7FEFF 		bl	dll_write
 2192              	.LVL340:
 2193 01b6 3FE7     		b	.L161
 2194              	.LVL341:
 2195              	.L138:
 553:Tests.c       ****                 if(!rx_state){
 2196              		.loc 1 553 0
 2197 01b8 BAF1000F 		cmp	r10, #0
 2198 01bc 0BD1     		bne	.L151
 2199              	.LVL342:
 555:Tests.c       ****                     LCD_ClearDisplay();
 2200              		.loc 1 555 0
 2201 01be 0120     		movs	r0, #1
 2202 01c0 FFF7FEFF 		bl	LCD_WriteControl
 2203              	.LVL343:
 556:Tests.c       ****                     LCD_Position(0,0);
 2204              		.loc 1 556 0
 2205 01c4 0021     		movs	r1, #0
 2206 01c6 0846     		mov	r0, r1
 2207 01c8 FFF7FEFF 		bl	LCD_Position
 2208              	.LVL344:
 557:Tests.c       ****                     LCD_PrintString("Receive");
 2209              		.loc 1 557 0
 2210 01cc 4548     		ldr	r0, .L167+16
 2211 01ce FFF7FEFF 		bl	LCD_PrintString
 2212              	.LVL345:
 554:Tests.c       ****                     rx_state = 1;   
 2213              		.loc 1 554 0
 2214 01d2 4FF0010A 		mov	r10, #1
 2215              	.LVL346:
 2216              	.L151:
 560:Tests.c       ****                 if(dll_has_data()){
 2217              		.loc 1 560 0
 2218 01d6 FFF7FEFF 		bl	dll_has_data
 2219              	.LVL347:
 2220 01da 0028     		cmp	r0, #0
 2221 01dc 3FF42CAF 		beq	.L161
 2222              	.LBB13:
 561:Tests.c       ****                     uint8_t count = dll_read(&msg);
 2223              		.loc 1 561 0
 2224 01e0 02A8     		add	r0, sp, #8
 2225 01e2 FFF7FEFF 		bl	dll_read
 2226              	.LVL348:
 2227 01e6 0746     		mov	r7, r0
ARM GAS  C:\Users\HENRIC~1\AppData\Local\Temp\ccRPnI9G.s 			page 67


 2228              	.LVL349:
 562:Tests.c       ****                     sprintf(str,"SRC: %d, DST: %d, SIZE: %d, MSG: ",msg.src,
 2229              		.loc 1 562 0
 2230 01e8 9DF80820 		ldrb	r2, [sp, #8]	@ zero_extendqisi2
 563:Tests.c       ****                             msg.dst,msg.msg_size);
 2231              		.loc 1 563 0
 2232 01ec 9DF80930 		ldrb	r3, [sp, #9]	@ zero_extendqisi2
 2233 01f0 9DF83710 		ldrb	r1, [sp, #55]	@ zero_extendqisi2
 562:Tests.c       ****                     sprintf(str,"SRC: %d, DST: %d, SIZE: %d, MSG: ",msg.src,
 2234              		.loc 1 562 0
 2235 01f4 0091     		str	r1, [sp]
 2236 01f6 3C49     		ldr	r1, .L167+20
 2237 01f8 0FA8     		add	r0, sp, #60
 2238 01fa FFF7FEFF 		bl	sprintf
 2239              	.LVL350:
 564:Tests.c       ****                     uart_write(str,strlen(str));
 2240              		.loc 1 564 0
 2241 01fe 0FA8     		add	r0, sp, #60
 2242 0200 FFF7FEFF 		bl	strlen
 2243              	.LVL351:
 2244 0204 81B2     		uxth	r1, r0
 2245 0206 0FA8     		add	r0, sp, #60
 2246 0208 FFF7FEFF 		bl	uart_write
 2247              	.LVL352:
 565:Tests.c       ****                     uart_write(msg.msg,count);
 2248              		.loc 1 565 0
 2249 020c B9B2     		uxth	r1, r7
 2250 020e 0DF10B00 		add	r0, sp, #11
 2251 0212 FFF7FEFF 		bl	uart_write
 2252              	.LVL353:
 566:Tests.c       ****                     uart_write("\n\r",2);
 2253              		.loc 1 566 0
 2254 0216 0221     		movs	r1, #2
 2255 0218 3448     		ldr	r0, .L167+24
 2256 021a FFF7FEFF 		bl	uart_write
 2257              	.LVL354:
 2258 021e 0BE7     		b	.L161
 2259              	.LVL355:
 2260              	.L140:
 2261              	.LBE13:
 570:Tests.c       ****                 if(!lk_state){
 2262              		.loc 1 570 0
 2263 0220 55B9     		cbnz	r5, .L152
 2264              	.LVL356:
 572:Tests.c       ****                     LCD_ClearDisplay();
 2265              		.loc 1 572 0
 2266 0222 0120     		movs	r0, #1
 2267 0224 FFF7FEFF 		bl	LCD_WriteControl
 2268              	.LVL357:
 573:Tests.c       ****                     LCD_Position(0,0);
 2269              		.loc 1 573 0
 2270 0228 0021     		movs	r1, #0
 2271 022a 0846     		mov	r0, r1
 2272 022c FFF7FEFF 		bl	LCD_Position
 2273              	.LVL358:
 574:Tests.c       ****                     LCD_PrintString("Linked");
 2274              		.loc 1 574 0
ARM GAS  C:\Users\HENRIC~1\AppData\Local\Temp\ccRPnI9G.s 			page 68


 2275 0230 2F48     		ldr	r0, .L167+28
 2276 0232 FFF7FEFF 		bl	LCD_PrintString
 2277              	.LVL359:
 571:Tests.c       ****                     lk_state = 1;   
 2278              		.loc 1 571 0
 2279 0236 0125     		movs	r5, #1
 2280              	.LVL360:
 2281              	.L152:
 577:Tests.c       ****                 if(dll_has_data()){
 2282              		.loc 1 577 0
 2283 0238 FFF7FEFF 		bl	dll_has_data
 2284              	.LVL361:
 2285 023c F0B1     		cbz	r0, .L153
 2286              	.LBB14:
 578:Tests.c       ****                     uint8_t count = dll_read(&msg);
 2287              		.loc 1 578 0
 2288 023e 02A8     		add	r0, sp, #8
 2289 0240 FFF7FEFF 		bl	dll_read
 2290              	.LVL362:
 2291 0244 0746     		mov	r7, r0
 2292              	.LVL363:
 579:Tests.c       ****                     sprintf(str,"SRC: %d, DST: %d, SIZE: %d, MSG: ",msg.src,
 2293              		.loc 1 579 0
 2294 0246 9DF80820 		ldrb	r2, [sp, #8]	@ zero_extendqisi2
 580:Tests.c       ****                             msg.dst,msg.msg_size);
 2295              		.loc 1 580 0
 2296 024a 9DF80930 		ldrb	r3, [sp, #9]	@ zero_extendqisi2
 2297 024e 9DF83710 		ldrb	r1, [sp, #55]	@ zero_extendqisi2
 579:Tests.c       ****                     sprintf(str,"SRC: %d, DST: %d, SIZE: %d, MSG: ",msg.src,
 2298              		.loc 1 579 0
 2299 0252 0091     		str	r1, [sp]
 2300 0254 2449     		ldr	r1, .L167+20
 2301 0256 0FA8     		add	r0, sp, #60
 2302 0258 FFF7FEFF 		bl	sprintf
 2303              	.LVL364:
 581:Tests.c       ****                     uart_write(str,strlen(str));
 2304              		.loc 1 581 0
 2305 025c 0FA8     		add	r0, sp, #60
 2306 025e FFF7FEFF 		bl	strlen
 2307              	.LVL365:
 2308 0262 81B2     		uxth	r1, r0
 2309 0264 0FA8     		add	r0, sp, #60
 2310 0266 FFF7FEFF 		bl	uart_write
 2311              	.LVL366:
 582:Tests.c       ****                     uart_write(msg.msg,count);
 2312              		.loc 1 582 0
 2313 026a B9B2     		uxth	r1, r7
 2314 026c 0DF10B00 		add	r0, sp, #11
 2315 0270 FFF7FEFF 		bl	uart_write
 2316              	.LVL367:
 583:Tests.c       ****                     uart_write("\n\r",2);
 2317              		.loc 1 583 0
 2318 0274 0221     		movs	r1, #2
 2319 0276 1D48     		ldr	r0, .L167+24
 2320 0278 FFF7FEFF 		bl	uart_write
 2321              	.LVL368:
 2322              	.L153:
ARM GAS  C:\Users\HENRIC~1\AppData\Local\Temp\ccRPnI9G.s 			page 69


 2323              	.LBE14:
 586:Tests.c       ****                 if(uart_has_data()){
 2324              		.loc 1 586 0
 2325 027c FFF7FEFF 		bl	uart_has_data
 2326              	.LVL369:
 2327 0280 0028     		cmp	r0, #0
 2328 0282 3FF4D9AE 		beq	.L161
 2329              	.LBB15:
 587:Tests.c       ****                     memset(buffer,'\0',sizeof(buffer));
 2330              		.loc 1 587 0
 2331 0286 4027     		movs	r7, #64
 2332 0288 3A46     		mov	r2, r7
 2333 028a 0021     		movs	r1, #0
 2334 028c 1CA8     		add	r0, sp, #112
 2335 028e FFF7FEFF 		bl	memset
 2336              	.LVL370:
 588:Tests.c       ****                     uint16_t numChar = uart_read(buffer,sizeof(buffer));
 2337              		.loc 1 588 0
 2338 0292 3946     		mov	r1, r7
 2339 0294 1CA8     		add	r0, sp, #112
 2340 0296 FFF7FEFF 		bl	uart_read
 2341              	.LVL371:
 2342 029a 0746     		mov	r7, r0
 2343              	.LVL372:
 589:Tests.c       ****                     uart_write(buffer,strlen(buffer));
 2344              		.loc 1 589 0
 2345 029c 1CA8     		add	r0, sp, #112
 2346 029e FFF7FEFF 		bl	strlen
 2347              	.LVL373:
 2348 02a2 81B2     		uxth	r1, r0
 2349 02a4 1CA8     		add	r0, sp, #112
 2350 02a6 FFF7FEFF 		bl	uart_write
 2351              	.LVL374:
 592:Tests.c       ****                     uint8_t index = 0;
 2352              		.loc 1 592 0
 2353 02aa 0023     		movs	r3, #0
 591:Tests.c       ****                     bool nl_found = false;
 2354              		.loc 1 591 0
 2355 02ac 9E46     		mov	lr, r3
 594:Tests.c       ****                     while(!nl_found && txStr_index < (sizeof(txStr)-1) && 
 2356              		.loc 1 594 0
 2357 02ae 29E0     		b	.L154
 2358              	.LVL375:
 2359              	.L159:
 596:Tests.c       ****                         c = buffer[index];
 2360              		.loc 1 596 0
 2361 02b0 2CA9     		add	r1, sp, #176
 2362 02b2 1944     		add	r1, r1, r3
 2363 02b4 11F8401C 		ldrb	r1, [r1, #-64]	@ zero_extendqisi2
 2364              	.LVL376:
 597:Tests.c       ****                         index++;
 2365              		.loc 1 597 0
 2366 02b8 0133     		adds	r3, r3, #1
 2367              	.LVL377:
 2368 02ba DBB2     		uxtb	r3, r3
 2369              	.LVL378:
 598:Tests.c       ****                         if(c == '\n' || c == '\r'){
ARM GAS  C:\Users\HENRIC~1\AppData\Local\Temp\ccRPnI9G.s 			page 70


 2370              		.loc 1 598 0
 2371 02bc 0A29     		cmp	r1, #10
 2372 02be 01D0     		beq	.L155
 598:Tests.c       ****                         if(c == '\n' || c == '\r'){
 2373              		.loc 1 598 0 is_stmt 0 discriminator 1
 2374 02c0 0D29     		cmp	r1, #13
 2375 02c2 17D1     		bne	.L156
 2376              	.L155:
 599:Tests.c       ****                             txStr[txStr_index] = '\0';
 2377              		.loc 1 599 0 is_stmt 1
 2378 02c4 0349     		ldr	r1, .L167
 2379              	.LVL379:
 2380 02c6 1144     		add	r1, r1, r2
 2381 02c8 0020     		movs	r0, #0
 2382 02ca 81F83001 		strb	r0, [r1, #304]
 2383              	.LVL380:
 600:Tests.c       ****                             nl_found = true;
 2384              		.loc 1 600 0
 2385 02ce 4FF0010E 		mov	lr, #1
 2386 02d2 13E0     		b	.L157
 2387              	.L168:
 2388              		.align	2
 2389              	.L167:
 2390 02d4 00000000 		.word	.LANCHOR0
 2391 02d8 56555555 		.word	1431655766
 2392 02dc DC000000 		.word	.LC25
 2393 02e0 E8000000 		.word	.LC26
 2394 02e4 F0000000 		.word	.LC27
 2395 02e8 F8000000 		.word	.LC28
 2396 02ec 1C010000 		.word	.LC29
 2397 02f0 20010000 		.word	.LC30
 2398              	.LVL381:
 2399              	.L156:
 602:Tests.c       ****                             txStr[txStr_index] = c;
 2400              		.loc 1 602 0
 2401 02f4 2148     		ldr	r0, .L169
 2402 02f6 1044     		add	r0, r0, r2
 2403 02f8 80F83011 		strb	r1, [r0, #304]
 2404              	.LVL382:
 2405              	.L157:
 604:Tests.c       ****                         txStr_index++;
 2406              		.loc 1 604 0
 2407 02fc 0132     		adds	r2, r2, #1
 2408 02fe 1F49     		ldr	r1, .L169
 2409 0300 81F85D21 		strb	r2, [r1, #349]
 2410              	.LVL383:
 2411              	.L154:
 594:Tests.c       ****                     while(!nl_found && txStr_index < (sizeof(txStr)-1) && 
 2412              		.loc 1 594 0
 2413 0304 BEF1000F 		cmp	lr, #0
 2414 0308 07D1     		bne	.L158
 594:Tests.c       ****                     while(!nl_found && txStr_index < (sizeof(txStr)-1) && 
 2415              		.loc 1 594 0 is_stmt 0 discriminator 1
 2416 030a 1C4A     		ldr	r2, .L169
 2417 030c 92F85D21 		ldrb	r2, [r2, #349]	@ zero_extendqisi2
 2418 0310 2B2A     		cmp	r2, #43
 2419 0312 02D8     		bhi	.L158
ARM GAS  C:\Users\HENRIC~1\AppData\Local\Temp\ccRPnI9G.s 			page 71


 595:Tests.c       ****                             index < numChar){
 2420              		.loc 1 595 0 is_stmt 1 discriminator 2
 2421 0314 99B2     		uxth	r1, r3
 594:Tests.c       ****                     while(!nl_found && txStr_index < (sizeof(txStr)-1) && 
 2422              		.loc 1 594 0 discriminator 2
 2423 0316 8F42     		cmp	r7, r1
 2424 0318 CAD8     		bhi	.L159
 2425              	.L158:
 608:Tests.c       ****                     if(txStr_index >= (sizeof(txStr)-1)){
 2426              		.loc 1 608 0
 2427 031a 184B     		ldr	r3, .L169
 2428              	.LVL384:
 2429 031c 93F85D31 		ldrb	r3, [r3, #349]	@ zero_extendqisi2
 2430 0320 2B2B     		cmp	r3, #43
 2431 0322 05D9     		bls	.L160
 609:Tests.c       ****                         txStr[44] = '\0';
 2432              		.loc 1 609 0
 2433 0324 0022     		movs	r2, #0
 2434 0326 154B     		ldr	r3, .L169
 2435 0328 83F85C21 		strb	r2, [r3, #348]
 2436              	.LVL385:
 610:Tests.c       ****                         nl_found = true;
 2437              		.loc 1 610 0
 2438 032c 4FF0010E 		mov	lr, #1
 2439              	.LVL386:
 2440              	.L160:
 614:Tests.c       ****                     if(nl_found){
 2441              		.loc 1 614 0
 2442 0330 BEF1000F 		cmp	lr, #0
 2443 0334 3FF480AE 		beq	.L161
 615:Tests.c       ****                         txStr_index = 0;
 2444              		.loc 1 615 0
 2445 0338 104F     		ldr	r7, .L169
 2446              	.LVL387:
 2447 033a 4FF0000B 		mov	fp, #0
 2448 033e 87F85DB1 		strb	fp, [r7, #349]
 616:Tests.c       ****                         msg.src = 0x0B;
 2449              		.loc 1 616 0
 2450 0342 0B23     		movs	r3, #11
 2451 0344 8DF80830 		strb	r3, [sp, #8]
 617:Tests.c       ****                         msg.dst = 0x00;
 2452              		.loc 1 617 0
 2453 0348 8DF809B0 		strb	fp, [sp, #9]
 618:Tests.c       ****                         msg.msg_size = strlen(txStr);
 2454              		.loc 1 618 0
 2455 034c 07F59877 		add	r7, r7, #304
 2456 0350 3846     		mov	r0, r7
 2457 0352 FFF7FEFF 		bl	strlen
 2458              	.LVL388:
 2459 0356 C2B2     		uxtb	r2, r0
 2460 0358 8DF83720 		strb	r2, [sp, #55]
 619:Tests.c       ****                         memcpy(msg.msg,txStr,msg.msg_size);
 2461              		.loc 1 619 0
 2462 035c 3946     		mov	r1, r7
 2463 035e 0DF10B00 		add	r0, sp, #11
 2464 0362 FFF7FEFF 		bl	memcpy
 2465              	.LVL389:
ARM GAS  C:\Users\HENRIC~1\AppData\Local\Temp\ccRPnI9G.s 			page 72


 620:Tests.c       ****                         msg.use_crc = DLL_NO_CRC;
 2466              		.loc 1 620 0
 2467 0366 8DF80AB0 		strb	fp, [sp, #10]
 621:Tests.c       ****                         dll_write(&msg);
 2468              		.loc 1 621 0
 2469 036a 02A8     		add	r0, sp, #8
 2470 036c FFF7FEFF 		bl	dll_write
 2471              	.LVL390:
 2472 0370 62E6     		b	.L161
 2473              	.L165:
 2474              	.LBE15:
 626:Tests.c       ****                 state = 0;
 2475              		.loc 1 626 0
 2476 0372 0024     		movs	r4, #0
 2477              	.LVL391:
 2478 0374 60E6     		b	.L161
 2479              	.LVL392:
 2480              	.L164:
 548:Tests.c       ****                         tx_state = 0;
 2481              		.loc 1 548 0
 2482 0376 4FF00008 		mov	r8, #0
 2483              	.LVL393:
 2484              	.LBE10:
 629:Tests.c       ****     }
 2485              		.loc 1 629 0
 2486 037a 5DE6     		b	.L161
 2487              	.L170:
 2488              		.align	2
 2489              	.L169:
 2490 037c 00000000 		.word	.LANCHOR0
 2491              		.cfi_endproc
 2492              	.LFE69:
 2493              		.size	tests_week9, .-tests_week9
 2494              		.section	.text.tests_week10,"ax",%progbits
 2495              		.align	2
 2496              		.global	tests_week10
 2497              		.thumb
 2498              		.thumb_func
 2499              		.type	tests_week10, %function
 2500              	tests_week10:
 2501              	.LFB70:
 636:Tests.c       **** void tests_week10(void){
 2502              		.loc 1 636 0
 2503              		.cfi_startproc
 2504              		@ args = 0, pretend = 0, frame = 120
 2505              		@ frame_needed = 0, uses_anonymous_args = 0
 2506 0000 2DE9F04F 		push	{r4, r5, r6, r7, r8, r9, r10, fp, lr}
 2507              		.cfi_def_cfa_offset 36
 2508              		.cfi_offset 4, -36
 2509              		.cfi_offset 5, -32
 2510              		.cfi_offset 6, -28
 2511              		.cfi_offset 7, -24
 2512              		.cfi_offset 8, -20
 2513              		.cfi_offset 9, -16
 2514              		.cfi_offset 10, -12
 2515              		.cfi_offset 11, -8
 2516              		.cfi_offset 14, -4
ARM GAS  C:\Users\HENRIC~1\AppData\Local\Temp\ccRPnI9G.s 			page 73


 2517 0004 A1B0     		sub	sp, sp, #132
 2518              		.cfi_def_cfa_offset 168
 637:Tests.c       ****     user_init();
 2519              		.loc 1 637 0
 2520 0006 FFF7FEFF 		bl	user_init
 2521              	.LVL394:
 638:Tests.c       ****     dll_init();
 2522              		.loc 1 638 0
 2523 000a FFF7FEFF 		bl	dll_init
 2524              	.LVL395:
 639:Tests.c       ****     dll_set_user(CURT_HENRICHS);
 2525              		.loc 1 639 0
 2526 000e 0420     		movs	r0, #4
 2527 0010 FFF7FEFF 		bl	dll_set_user
 2528              	.LVL396:
 649:Tests.c       ****     bool rxFlag = false;
 2529              		.loc 1 649 0
 2530 0014 0025     		movs	r5, #0
 648:Tests.c       ****     bool txFlag = false;
 2531              		.loc 1 648 0
 2532 0016 AA46     		mov	r10, r5
 647:Tests.c       ****     uint8_t txState = 0;
 2533              		.loc 1 647 0
 2534 0018 2E46     		mov	r6, r5
 646:Tests.c       ****     bool crcFlag = false;
 2535              		.loc 1 646 0
 2536 001a AB46     		mov	fp, r5
 645:Tests.c       ****     uint8_t crcState = 0;
 2537              		.loc 1 645 0
 2538 001c 2F46     		mov	r7, r5
 644:Tests.c       ****     uint8_t state = 0;
 2539              		.loc 1 644 0
 2540 001e 2C46     		mov	r4, r5
 643:Tests.c       ****     bool right_button_held_down = false;
 2541              		.loc 1 643 0
 2542 0020 A946     		mov	r9, r5
 642:Tests.c       ****     bool left_button_held_down = false;
 2543              		.loc 1 642 0
 2544 0022 A846     		mov	r8, r5
 2545 0024 06E0     		b	.L172
 2546              	.LVL397:
 2547              	.L205:
 844:Tests.c       ****                 state = 0;
 2548              		.loc 1 844 0
 2549 0026 0024     		movs	r4, #0
 2550              	.LVL398:
 2551 0028 04E0     		b	.L172
 2552              	.LVL399:
 2553              	.L200:
 749:Tests.c       ****                     right_button_held_down = false;   
 2554              		.loc 1 749 0
 2555 002a 4FF00009 		mov	r9, #0
 2556              	.LVL400:
 2557 002e 01E0     		b	.L172
 2558              	.LVL401:
 2559              	.L202:
 819:Tests.c       ****                     right_button_held_down = false;   
ARM GAS  C:\Users\HENRIC~1\AppData\Local\Temp\ccRPnI9G.s 			page 74


 2560              		.loc 1 819 0
 2561 0030 4FF00009 		mov	r9, #0
 2562              	.LVL402:
 2563              	.L172:
 657:Tests.c       ****         dll_update();   
 2564              		.loc 1 657 0
 2565 0034 FFF7FEFF 		bl	dll_update
 2566              	.LVL403:
 659:Tests.c       ****         if(!CapSense_IsBusy()){
 2567              		.loc 1 659 0
 2568 0038 FFF7FEFF 		bl	CapSense_IsBusy
 2569              	.LVL404:
 2570 003c 18B9     		cbnz	r0, .L174
 660:Tests.c       ****             CapSense_UpdateEnabledBaselines();
 2571              		.loc 1 660 0
 2572 003e FFF7FEFF 		bl	CapSense_UpdateEnabledBaselines
 2573              	.LVL405:
 661:Tests.c       ****             CapSense_ScanEnabledWidgets();
 2574              		.loc 1 661 0
 2575 0042 FFF7FEFF 		bl	CapSense_ScanEnabledWidgets
 2576              	.LVL406:
 2577              	.L174:
 664:Tests.c       ****         if(CapSense_CheckIsWidgetActive(CapSense_LEFT__BTN)){
 2578              		.loc 1 664 0
 2579 0046 0120     		movs	r0, #1
 2580 0048 FFF7FEFF 		bl	CapSense_CheckIsWidgetActive
 2581              	.LVL407:
 2582 004c A8B1     		cbz	r0, .L197
 665:Tests.c       ****             if(!left_button_held_down){
 2583              		.loc 1 665 0
 2584 004e B8F1000F 		cmp	r8, #0
 2585 0052 14D1     		bne	.L175
 2586              	.LVL408:
 667:Tests.c       ****                 state = (state + 1) % 3;
 2587              		.loc 1 667 0
 2588 0054 631C     		adds	r3, r4, #1
 2589 0056 B74C     		ldr	r4, .L207
 2590              	.LVL409:
 2591 0058 84FB0324 		smull	r2, r4, r4, r3
 2592 005c A4EBE374 		sub	r4, r4, r3, asr #31
 2593 0060 04EB4404 		add	r4, r4, r4, lsl #1
 2594 0064 1C1B     		subs	r4, r3, r4
 2595 0066 E4B2     		uxtb	r4, r4
 2596              	.LVL410:
 673:Tests.c       ****                 rxFlag = false;
 2597              		.loc 1 673 0
 2598 0068 0025     		movs	r5, #0
 672:Tests.c       ****                 txFlag = false;
 2599              		.loc 1 672 0
 2600 006a AA46     		mov	r10, r5
 671:Tests.c       ****                 txState = 0;
 2601              		.loc 1 671 0
 2602 006c 2E46     		mov	r6, r5
 670:Tests.c       ****                 crcFlag = false;
 2603              		.loc 1 670 0
 2604 006e AB46     		mov	fp, r5
 669:Tests.c       ****                 crcState = 0;
ARM GAS  C:\Users\HENRIC~1\AppData\Local\Temp\ccRPnI9G.s 			page 75


 2605              		.loc 1 669 0
 2606 0070 2F46     		mov	r7, r5
 668:Tests.c       ****                 right_button_held_down = false;
 2607              		.loc 1 668 0
 2608 0072 A946     		mov	r9, r5
 666:Tests.c       ****                 left_button_held_down = true;
 2609              		.loc 1 666 0
 2610 0074 4FF00108 		mov	r8, #1
 2611 0078 01E0     		b	.L175
 2612              	.LVL411:
 2613              	.L197:
 676:Tests.c       ****             left_button_held_down = false;   
 2614              		.loc 1 676 0
 2615 007a 4FF00008 		mov	r8, #0
 2616              	.LVL412:
 2617              	.L175:
 679:Tests.c       ****         uart_update();
 2618              		.loc 1 679 0
 2619 007e FFF7FEFF 		bl	uart_update
 2620              	.LVL413:
 681:Tests.c       ****         switch(state){
 2621              		.loc 1 681 0
 2622 0082 012C     		cmp	r4, #1
 2623 0084 00F0B880 		beq	.L176
 2624 0088 1CB1     		cbz	r4, .L177
 2625 008a 022C     		cmp	r4, #2
 2626 008c 00F06081 		beq	.L178
 2627 0090 C9E7     		b	.L205
 2628              	.L177:
 684:Tests.c       ****                 switch(crcState){
 2629              		.loc 1 684 0
 2630 0092 032F     		cmp	r7, #3
 2631 0094 00F29780 		bhi	.L199
 2632 0098 DFE807F0 		tbb	[pc, r7]
 2633              	.L181:
 2634 009c 02       		.byte	(.L180-.L181)/2
 2635 009d 25       		.byte	(.L182-.L181)/2
 2636 009e 48       		.byte	(.L183-.L181)/2
 2637 009f 6F       		.byte	(.L184-.L181)/2
 2638              		.p2align 1
 2639              	.L180:
 686:Tests.c       ****                         if(!crcFlag){
 2640              		.loc 1 686 0
 2641 00a0 BBF1000F 		cmp	fp, #0
 2642 00a4 40F09080 		bne	.L179
 2643              	.LVL414:
 2644              	.LBB16:
 688:Tests.c       ****                             uint8_t buffer[] = {0x85};
 2645              		.loc 1 688 0
 2646 00a8 20A8     		add	r0, sp, #128
 2647 00aa 8523     		movs	r3, #133
 2648 00ac 00F8703D 		strb	r3, [r0, #-112]!
 689:Tests.c       ****                             uint8_t x = crc_algorithm(buffer,1);
 2649              		.loc 1 689 0
 2650 00b0 0121     		movs	r1, #1
 2651 00b2 FFF7FEFF 		bl	crc_algorithm
 2652              	.LVL415:
ARM GAS  C:\Users\HENRIC~1\AppData\Local\Temp\ccRPnI9G.s 			page 76


 2653 00b6 8346     		mov	fp, r0
 2654              	.LVL416:
 690:Tests.c       ****                             LCD_ClearDisplay();
 2655              		.loc 1 690 0
 2656 00b8 0120     		movs	r0, #1
 2657 00ba FFF7FEFF 		bl	LCD_WriteControl
 2658              	.LVL417:
 691:Tests.c       ****                             LCD_Position(0,0);
 2659              		.loc 1 691 0
 2660 00be 0021     		movs	r1, #0
 2661 00c0 0846     		mov	r0, r1
 2662 00c2 FFF7FEFF 		bl	LCD_Position
 2663              	.LVL418:
 692:Tests.c       ****                             LCD_PrintString("CRC:");
 2664              		.loc 1 692 0
 2665 00c6 9C48     		ldr	r0, .L207+4
 2666 00c8 FFF7FEFF 		bl	LCD_PrintString
 2667              	.LVL419:
 693:Tests.c       ****                             LCD_PrintInt8(crcState);
 2668              		.loc 1 693 0
 2669 00cc 3846     		mov	r0, r7
 2670 00ce FFF7FEFF 		bl	LCD_PrintInt8
 2671              	.LVL420:
 694:Tests.c       ****                             LCD_Position(1,0);
 2672              		.loc 1 694 0
 2673 00d2 0021     		movs	r1, #0
 2674 00d4 0120     		movs	r0, #1
 2675 00d6 FFF7FEFF 		bl	LCD_Position
 2676              	.LVL421:
 695:Tests.c       ****                             LCD_PrintHexUint8(x);  
 2677              		.loc 1 695 0
 2678 00da 5846     		mov	r0, fp
 2679 00dc FFF7FEFF 		bl	LCD_PrintInt8
 2680              	.LVL422:
 687:Tests.c       ****                             crcFlag = true;
 2681              		.loc 1 687 0
 2682 00e0 4FF0010B 		mov	fp, #1
 2683              	.LVL423:
 2684 00e4 70E0     		b	.L179
 2685              	.LVL424:
 2686              	.L182:
 2687              	.LBE16:
 699:Tests.c       ****                         if(!crcFlag){
 2688              		.loc 1 699 0
 2689 00e6 BBF1000F 		cmp	fp, #0
 2690 00ea 6DD1     		bne	.L179
 2691              	.LVL425:
 2692              	.LBB17:
 701:Tests.c       ****                             uint8_t buffer[] = {0x85, 0xAC};
 2693              		.loc 1 701 0
 2694 00ec 934B     		ldr	r3, .L207+8
 2695 00ee 1B88     		ldrh	r3, [r3]	@ unaligned
 2696 00f0 ADF81030 		strh	r3, [sp, #16]	@ unaligned
 702:Tests.c       ****                             uint8_t x = crc_algorithm(buffer,2);
 2697              		.loc 1 702 0
 2698 00f4 0221     		movs	r1, #2
 2699 00f6 04A8     		add	r0, sp, #16
ARM GAS  C:\Users\HENRIC~1\AppData\Local\Temp\ccRPnI9G.s 			page 77


 2700 00f8 FFF7FEFF 		bl	crc_algorithm
 2701              	.LVL426:
 2702 00fc 8346     		mov	fp, r0
 2703              	.LVL427:
 703:Tests.c       ****                             LCD_ClearDisplay();
 2704              		.loc 1 703 0
 2705 00fe 0120     		movs	r0, #1
 2706 0100 FFF7FEFF 		bl	LCD_WriteControl
 2707              	.LVL428:
 704:Tests.c       ****                             LCD_Position(0,0);
 2708              		.loc 1 704 0
 2709 0104 0021     		movs	r1, #0
 2710 0106 0846     		mov	r0, r1
 2711 0108 FFF7FEFF 		bl	LCD_Position
 2712              	.LVL429:
 705:Tests.c       ****                             LCD_PrintString("CRC:");
 2713              		.loc 1 705 0
 2714 010c 8A48     		ldr	r0, .L207+4
 2715 010e FFF7FEFF 		bl	LCD_PrintString
 2716              	.LVL430:
 706:Tests.c       ****                             LCD_PrintInt8(crcState);
 2717              		.loc 1 706 0
 2718 0112 3846     		mov	r0, r7
 2719 0114 FFF7FEFF 		bl	LCD_PrintInt8
 2720              	.LVL431:
 707:Tests.c       ****                             LCD_Position(1,0);
 2721              		.loc 1 707 0
 2722 0118 0021     		movs	r1, #0
 2723 011a 0120     		movs	r0, #1
 2724 011c FFF7FEFF 		bl	LCD_Position
 2725              	.LVL432:
 708:Tests.c       ****                             LCD_PrintHexUint8(x);  
 2726              		.loc 1 708 0
 2727 0120 5846     		mov	r0, fp
 2728 0122 FFF7FEFF 		bl	LCD_PrintInt8
 2729              	.LVL433:
 700:Tests.c       ****                             crcFlag = true;
 2730              		.loc 1 700 0
 2731 0126 4FF0010B 		mov	fp, #1
 2732              	.LVL434:
 2733 012a 4DE0     		b	.L179
 2734              	.LVL435:
 2735              	.L183:
 2736              	.LBE17:
 712:Tests.c       ****                         if(!crcFlag){
 2737              		.loc 1 712 0
 2738 012c BBF1000F 		cmp	fp, #0
 2739 0130 4AD1     		bne	.L179
 2740              	.LVL436:
 2741              	.LBB18:
 714:Tests.c       ****                             uint8_t buffer[] = {0xC4, 0xC1, 0xFA};
 2742              		.loc 1 714 0
 2743 0132 834B     		ldr	r3, .L207+12
 2744 0134 33F8102F 		ldrh	r2, [r3, #16]!	@ unaligned
 2745 0138 9B78     		ldrb	r3, [r3, #2]	@ zero_extendqisi2
 2746 013a ADF81020 		strh	r2, [sp, #16]	@ unaligned
 2747 013e 8DF81230 		strb	r3, [sp, #18]
ARM GAS  C:\Users\HENRIC~1\AppData\Local\Temp\ccRPnI9G.s 			page 78


 715:Tests.c       ****                             uint8_t x = crc_algorithm(buffer,3);
 2748              		.loc 1 715 0
 2749 0142 0321     		movs	r1, #3
 2750 0144 04A8     		add	r0, sp, #16
 2751 0146 FFF7FEFF 		bl	crc_algorithm
 2752              	.LVL437:
 2753 014a 8346     		mov	fp, r0
 2754              	.LVL438:
 716:Tests.c       ****                             LCD_ClearDisplay();
 2755              		.loc 1 716 0
 2756 014c 0120     		movs	r0, #1
 2757 014e FFF7FEFF 		bl	LCD_WriteControl
 2758              	.LVL439:
 717:Tests.c       ****                             LCD_Position(0,0);
 2759              		.loc 1 717 0
 2760 0152 0021     		movs	r1, #0
 2761 0154 0846     		mov	r0, r1
 2762 0156 FFF7FEFF 		bl	LCD_Position
 2763              	.LVL440:
 718:Tests.c       ****                             LCD_PrintString("CRC:");
 2764              		.loc 1 718 0
 2765 015a 7748     		ldr	r0, .L207+4
 2766 015c FFF7FEFF 		bl	LCD_PrintString
 2767              	.LVL441:
 719:Tests.c       ****                             LCD_PrintInt8(crcState);
 2768              		.loc 1 719 0
 2769 0160 3846     		mov	r0, r7
 2770 0162 FFF7FEFF 		bl	LCD_PrintInt8
 2771              	.LVL442:
 720:Tests.c       ****                             LCD_Position(1,0);
 2772              		.loc 1 720 0
 2773 0166 0021     		movs	r1, #0
 2774 0168 0120     		movs	r0, #1
 2775 016a FFF7FEFF 		bl	LCD_Position
 2776              	.LVL443:
 721:Tests.c       ****                             LCD_PrintHexUint8(x);  
 2777              		.loc 1 721 0
 2778 016e 5846     		mov	r0, fp
 2779 0170 FFF7FEFF 		bl	LCD_PrintInt8
 2780              	.LVL444:
 713:Tests.c       ****                             crcFlag = true;
 2781              		.loc 1 713 0
 2782 0174 4FF0010B 		mov	fp, #1
 2783              	.LVL445:
 2784 0178 26E0     		b	.L179
 2785              	.LVL446:
 2786              	.L184:
 2787              	.LBE18:
 725:Tests.c       ****                         if(!crcFlag){
 2788              		.loc 1 725 0
 2789 017a BBF1000F 		cmp	fp, #0
 2790 017e 23D1     		bne	.L179
 2791              	.LVL447:
 2792              	.LBB19:
 727:Tests.c       ****                             uint8_t buffer[] = {0x80, 0x81, 0x8A, 0x80, 0x83, 0x83};
 2793              		.loc 1 727 0
 2794 0180 6F4B     		ldr	r3, .L207+12
ARM GAS  C:\Users\HENRIC~1\AppData\Local\Temp\ccRPnI9G.s 			page 79


 2795 0182 53F8140F 		ldr	r0, [r3, #20]!	@ unaligned
 2796 0186 0490     		str	r0, [sp, #16]	@ unaligned
 2797 0188 9B88     		ldrh	r3, [r3, #4]	@ unaligned
 2798 018a ADF81430 		strh	r3, [sp, #20]	@ unaligned
 728:Tests.c       ****                             uint8_t x = crc_algorithm(buffer,6);
 2799              		.loc 1 728 0
 2800 018e 0621     		movs	r1, #6
 2801 0190 04A8     		add	r0, sp, #16
 2802 0192 FFF7FEFF 		bl	crc_algorithm
 2803              	.LVL448:
 2804 0196 8346     		mov	fp, r0
 2805              	.LVL449:
 729:Tests.c       ****                             LCD_ClearDisplay();
 2806              		.loc 1 729 0
 2807 0198 0120     		movs	r0, #1
 2808 019a FFF7FEFF 		bl	LCD_WriteControl
 2809              	.LVL450:
 730:Tests.c       ****                             LCD_Position(0,0);
 2810              		.loc 1 730 0
 2811 019e 0021     		movs	r1, #0
 2812 01a0 0846     		mov	r0, r1
 2813 01a2 FFF7FEFF 		bl	LCD_Position
 2814              	.LVL451:
 731:Tests.c       ****                             LCD_PrintString("CRC:");
 2815              		.loc 1 731 0
 2816 01a6 6448     		ldr	r0, .L207+4
 2817 01a8 FFF7FEFF 		bl	LCD_PrintString
 2818              	.LVL452:
 732:Tests.c       ****                             LCD_PrintInt8(crcState);
 2819              		.loc 1 732 0
 2820 01ac 3846     		mov	r0, r7
 2821 01ae FFF7FEFF 		bl	LCD_PrintInt8
 2822              	.LVL453:
 733:Tests.c       ****                             LCD_Position(1,0);
 2823              		.loc 1 733 0
 2824 01b2 0021     		movs	r1, #0
 2825 01b4 0120     		movs	r0, #1
 2826 01b6 FFF7FEFF 		bl	LCD_Position
 2827              	.LVL454:
 734:Tests.c       ****                             LCD_PrintHexUint8(x);  
 2828              		.loc 1 734 0
 2829 01ba 5846     		mov	r0, fp
 2830 01bc FFF7FEFF 		bl	LCD_PrintInt8
 2831              	.LVL455:
 726:Tests.c       ****                             crcFlag = true;
 2832              		.loc 1 726 0
 2833 01c0 4FF0010B 		mov	fp, #1
 2834              	.LVL456:
 2835 01c4 00E0     		b	.L179
 2836              	.LVL457:
 2837              	.L199:
 2838              	.LBE19:
 738:Tests.c       ****                         crcState = 0;
 2839              		.loc 1 738 0
 2840 01c6 0027     		movs	r7, #0
 2841              	.LVL458:
 2842              	.L179:
ARM GAS  C:\Users\HENRIC~1\AppData\Local\Temp\ccRPnI9G.s 			page 80


 742:Tests.c       ****                 if(CapSense_CheckIsWidgetActive(CapSense_RIGHT__BTN)){
 2843              		.loc 1 742 0
 2844 01c8 0020     		movs	r0, #0
 2845 01ca FFF7FEFF 		bl	CapSense_CheckIsWidgetActive
 2846              	.LVL459:
 2847 01ce 0028     		cmp	r0, #0
 2848 01d0 3FF42BAF 		beq	.L200
 743:Tests.c       ****                     if(!right_button_held_down){
 2849              		.loc 1 743 0
 2850 01d4 B9F1000F 		cmp	r9, #0
 2851 01d8 7FF42CAF 		bne	.L172
 2852              	.LVL460:
 745:Tests.c       ****                         crcState = (crcState + 1) % 4;
 2853              		.loc 1 745 0
 2854 01dc 0137     		adds	r7, r7, #1
 2855              	.LVL461:
 2856 01de 594B     		ldr	r3, .L207+16
 2857 01e0 1F40     		ands	r7, r7, r3
 2858 01e2 03D5     		bpl	.L185
 2859 01e4 013F     		subs	r7, r7, #1
 2860 01e6 67F00307 		orn	r7, r7, #3
 2861 01ea 0137     		adds	r7, r7, #1
 2862              	.L185:
 2863 01ec FFB2     		uxtb	r7, r7
 2864              	.LVL462:
 746:Tests.c       ****                         crcFlag = false;
 2865              		.loc 1 746 0
 2866 01ee 4FF0000B 		mov	fp, #0
 744:Tests.c       ****                         right_button_held_down = true;
 2867              		.loc 1 744 0
 2868 01f2 4FF00109 		mov	r9, #1
 2869 01f6 1DE7     		b	.L172
 2870              	.LVL463:
 2871              	.L176:
 753:Tests.c       ****                 if(!txFlag){
 2872              		.loc 1 753 0
 2873 01f8 BAF1000F 		cmp	r10, #0
 2874 01fc 12D1     		bne	.L186
 2875              	.LVL464:
 755:Tests.c       ****                     LCD_ClearDisplay();
 2876              		.loc 1 755 0
 2877 01fe 0120     		movs	r0, #1
 2878 0200 FFF7FEFF 		bl	LCD_WriteControl
 2879              	.LVL465:
 756:Tests.c       ****                     LCD_Position(0,0);
 2880              		.loc 1 756 0
 2881 0204 0021     		movs	r1, #0
 2882 0206 0846     		mov	r0, r1
 2883 0208 FFF7FEFF 		bl	LCD_Position
 2884              	.LVL466:
 757:Tests.c       ****                     LCD_PrintString("Transmit");
 2885              		.loc 1 757 0
 2886 020c 4E48     		ldr	r0, .L207+20
 2887 020e FFF7FEFF 		bl	LCD_PrintString
 2888              	.LVL467:
 758:Tests.c       ****                     LCD_Position(1,0);
 2889              		.loc 1 758 0
ARM GAS  C:\Users\HENRIC~1\AppData\Local\Temp\ccRPnI9G.s 			page 81


 2890 0212 0021     		movs	r1, #0
 2891 0214 0120     		movs	r0, #1
 2892 0216 FFF7FEFF 		bl	LCD_Position
 2893              	.LVL468:
 759:Tests.c       ****                     LCD_PrintInt8(txState);
 2894              		.loc 1 759 0
 2895 021a 3046     		mov	r0, r6
 2896 021c FFF7FEFF 		bl	LCD_PrintInt8
 2897              	.LVL469:
 754:Tests.c       ****                     txFlag = true;
 2898              		.loc 1 754 0
 2899 0220 4FF0010A 		mov	r10, #1
 2900              	.LVL470:
 2901              	.L186:
 762:Tests.c       ****                 switch(txState){
 2902              		.loc 1 762 0
 2903 0224 032E     		cmp	r6, #3
 2904 0226 6BD8     		bhi	.L201
 2905 0228 DFE806F0 		tbb	[pc, r6]
 2906              	.L189:
 2907 022c 02       		.byte	(.L188-.L189)/2
 2908 022d 1C       		.byte	(.L190-.L189)/2
 2909 022e 37       		.byte	(.L191-.L189)/2
 2910 022f 51       		.byte	(.L192-.L189)/2
 2911              		.p2align 1
 2912              	.L188:
 764:Tests.c       ****                         if(dll_tx_finished()){
 2913              		.loc 1 764 0
 2914 0230 FFF7FEFF 		bl	dll_tx_finished
 2915              	.LVL471:
 2916 0234 0028     		cmp	r0, #0
 2917 0236 64D0     		beq	.L187
 765:Tests.c       ****                             CyDelay(50);
 2918              		.loc 1 765 0
 2919 0238 3220     		movs	r0, #50
 2920 023a FFF7FEFF 		bl	CyDelay
 2921              	.LVL472:
 766:Tests.c       ****                             msg.src = 0x0A;
 2922              		.loc 1 766 0
 2923 023e 0A23     		movs	r3, #10
 2924 0240 8DF84C30 		strb	r3, [sp, #76]
 767:Tests.c       ****                             msg.dst = 0x00;
 2925              		.loc 1 767 0
 2926 0244 0023     		movs	r3, #0
 2927 0246 8DF84D30 		strb	r3, [sp, #77]
 768:Tests.c       ****                             msg.msg_size = 3;
 2928              		.loc 1 768 0
 2929 024a 0323     		movs	r3, #3
 2930 024c 8DF87B30 		strb	r3, [sp, #123]
 769:Tests.c       ****                             strcpy(msg.msg,"DAz");
 2931              		.loc 1 769 0
 2932 0250 3E4A     		ldr	r2, .L207+24
 2933 0252 1068     		ldr	r0, [r2]	@ unaligned
 2934 0254 CDF84F00 		str	r0, [sp, #79]	@ unaligned
 770:Tests.c       ****                             msg.use_crc = DLL_BOTH_CRC;
 2935              		.loc 1 770 0
 2936 0258 8DF84E30 		strb	r3, [sp, #78]
ARM GAS  C:\Users\HENRIC~1\AppData\Local\Temp\ccRPnI9G.s 			page 82


 771:Tests.c       ****                             dll_write(&msg);
 2937              		.loc 1 771 0
 2938 025c 13A8     		add	r0, sp, #76
 2939 025e FFF7FEFF 		bl	dll_write
 2940              	.LVL473:
 2941 0262 4EE0     		b	.L187
 2942              	.L190:
 775:Tests.c       ****                         if(dll_tx_finished()){
 2943              		.loc 1 775 0
 2944 0264 FFF7FEFF 		bl	dll_tx_finished
 2945              	.LVL474:
 2946 0268 0028     		cmp	r0, #0
 2947 026a 4AD0     		beq	.L187
 776:Tests.c       ****                             CyDelay(50);
 2948              		.loc 1 776 0
 2949 026c 3220     		movs	r0, #50
 2950 026e FFF7FEFF 		bl	CyDelay
 2951              	.LVL475:
 777:Tests.c       ****                             msg.src = 0x0A;
 2952              		.loc 1 777 0
 2953 0272 0A23     		movs	r3, #10
 2954 0274 8DF84C30 		strb	r3, [sp, #76]
 778:Tests.c       ****                             msg.dst = 0x00;
 2955              		.loc 1 778 0
 2956 0278 0023     		movs	r3, #0
 2957 027a 8DF84D30 		strb	r3, [sp, #77]
 779:Tests.c       ****                             msg.msg_size = 3;
 2958              		.loc 1 779 0
 2959 027e 0323     		movs	r3, #3
 2960 0280 8DF87B30 		strb	r3, [sp, #123]
 780:Tests.c       ****                             strcpy(msg.msg,"DAz");
 2961              		.loc 1 780 0
 2962 0284 314B     		ldr	r3, .L207+24
 2963 0286 1868     		ldr	r0, [r3]	@ unaligned
 2964 0288 CDF84F00 		str	r0, [sp, #79]	@ unaligned
 781:Tests.c       ****                             msg.use_crc = DLL_HEADER_CRC;
 2965              		.loc 1 781 0
 2966 028c 0123     		movs	r3, #1
 2967 028e 8DF84E30 		strb	r3, [sp, #78]
 782:Tests.c       ****                             dll_write(&msg);
 2968              		.loc 1 782 0
 2969 0292 13A8     		add	r0, sp, #76
 2970 0294 FFF7FEFF 		bl	dll_write
 2971              	.LVL476:
 2972 0298 33E0     		b	.L187
 2973              	.L191:
 786:Tests.c       ****                         if(dll_tx_finished()){
 2974              		.loc 1 786 0
 2975 029a FFF7FEFF 		bl	dll_tx_finished
 2976              	.LVL477:
 2977 029e 80B3     		cbz	r0, .L187
 787:Tests.c       ****                             CyDelay(50);
 2978              		.loc 1 787 0
 2979 02a0 3220     		movs	r0, #50
 2980 02a2 FFF7FEFF 		bl	CyDelay
 2981              	.LVL478:
 788:Tests.c       ****                             msg.src = 0x0A;
ARM GAS  C:\Users\HENRIC~1\AppData\Local\Temp\ccRPnI9G.s 			page 83


 2982              		.loc 1 788 0
 2983 02a6 0A23     		movs	r3, #10
 2984 02a8 8DF84C30 		strb	r3, [sp, #76]
 789:Tests.c       ****                             msg.dst = 0x00;
 2985              		.loc 1 789 0
 2986 02ac 0023     		movs	r3, #0
 2987 02ae 8DF84D30 		strb	r3, [sp, #77]
 790:Tests.c       ****                             msg.msg_size = 3;
 2988              		.loc 1 790 0
 2989 02b2 0323     		movs	r3, #3
 2990 02b4 8DF87B30 		strb	r3, [sp, #123]
 791:Tests.c       ****                             strcpy(msg.msg,"DAz");
 2991              		.loc 1 791 0
 2992 02b8 244B     		ldr	r3, .L207+24
 2993 02ba 1868     		ldr	r0, [r3]	@ unaligned
 2994 02bc CDF84F00 		str	r0, [sp, #79]	@ unaligned
 792:Tests.c       ****                             msg.use_crc = DLL_MESSAGE_CRC;
 2995              		.loc 1 792 0
 2996 02c0 0223     		movs	r3, #2
 2997 02c2 8DF84E30 		strb	r3, [sp, #78]
 793:Tests.c       ****                             dll_write(&msg);
 2998              		.loc 1 793 0
 2999 02c6 13A8     		add	r0, sp, #76
 3000 02c8 FFF7FEFF 		bl	dll_write
 3001              	.LVL479:
 3002 02cc 19E0     		b	.L187
 3003              	.L192:
 797:Tests.c       ****                         if(dll_tx_finished()){
 3004              		.loc 1 797 0
 3005 02ce FFF7FEFF 		bl	dll_tx_finished
 3006              	.LVL480:
 3007 02d2 B0B1     		cbz	r0, .L187
 798:Tests.c       ****                             CyDelay(50);
 3008              		.loc 1 798 0
 3009 02d4 3220     		movs	r0, #50
 3010 02d6 FFF7FEFF 		bl	CyDelay
 3011              	.LVL481:
 799:Tests.c       ****                             msg.src = 0x0A;
 3012              		.loc 1 799 0
 3013 02da 0A23     		movs	r3, #10
 3014 02dc 8DF84C30 		strb	r3, [sp, #76]
 800:Tests.c       ****                             msg.dst = 0x00;
 3015              		.loc 1 800 0
 3016 02e0 0023     		movs	r3, #0
 3017 02e2 8DF84D30 		strb	r3, [sp, #77]
 801:Tests.c       ****                             msg.msg_size = 3;
 3018              		.loc 1 801 0
 3019 02e6 0322     		movs	r2, #3
 3020 02e8 8DF87B20 		strb	r2, [sp, #123]
 802:Tests.c       ****                             strcpy(msg.msg,"DAz");
 3021              		.loc 1 802 0
 3022 02ec 174A     		ldr	r2, .L207+24
 3023 02ee 1068     		ldr	r0, [r2]	@ unaligned
 3024 02f0 CDF84F00 		str	r0, [sp, #79]	@ unaligned
 803:Tests.c       ****                             msg.use_crc = DLL_NO_CRC;
 3025              		.loc 1 803 0
 3026 02f4 8DF84E30 		strb	r3, [sp, #78]
ARM GAS  C:\Users\HENRIC~1\AppData\Local\Temp\ccRPnI9G.s 			page 84


 804:Tests.c       ****                             dll_write(&msg);
 3027              		.loc 1 804 0
 3028 02f8 13A8     		add	r0, sp, #76
 3029 02fa FFF7FEFF 		bl	dll_write
 3030              	.LVL482:
 3031 02fe 00E0     		b	.L187
 3032              	.L201:
 808:Tests.c       ****                         txState = 0;
 3033              		.loc 1 808 0
 3034 0300 0026     		movs	r6, #0
 3035              	.LVL483:
 3036              	.L187:
 812:Tests.c       ****                 if(CapSense_CheckIsWidgetActive(CapSense_RIGHT__BTN)){
 3037              		.loc 1 812 0
 3038 0302 0020     		movs	r0, #0
 3039 0304 FFF7FEFF 		bl	CapSense_CheckIsWidgetActive
 3040              	.LVL484:
 3041 0308 0028     		cmp	r0, #0
 3042 030a 3FF491AE 		beq	.L202
 813:Tests.c       ****                     if(!right_button_held_down){
 3043              		.loc 1 813 0
 3044 030e B9F1000F 		cmp	r9, #0
 3045 0312 7FF48FAE 		bne	.L172
 3046              	.LVL485:
 815:Tests.c       ****                         txState = (txState + 1) % 4;
 3047              		.loc 1 815 0
 3048 0316 0136     		adds	r6, r6, #1
 3049              	.LVL486:
 3050 0318 0A4B     		ldr	r3, .L207+16
 3051 031a 1E40     		ands	r6, r6, r3
 3052 031c 03D5     		bpl	.L193
 3053 031e 013E     		subs	r6, r6, #1
 3054 0320 66F00306 		orn	r6, r6, #3
 3055 0324 0136     		adds	r6, r6, #1
 3056              	.L193:
 3057 0326 F6B2     		uxtb	r6, r6
 3058              	.LVL487:
 816:Tests.c       ****                         txFlag = false;
 3059              		.loc 1 816 0
 3060 0328 4FF0000A 		mov	r10, #0
 814:Tests.c       ****                         right_button_held_down = true;
 3061              		.loc 1 814 0
 3062 032c 4FF00109 		mov	r9, #1
 3063 0330 80E6     		b	.L172
 3064              	.L208:
 3065 0332 00BF     		.align	2
 3066              	.L207:
 3067 0334 56555555 		.word	1431655766
 3068 0338 30010000 		.word	.LC33
 3069 033c 0C000000 		.word	.LANCHOR1+12
 3070 0340 00000000 		.word	.LANCHOR1
 3071 0344 03000080 		.word	-2147483645
 3072 0348 DC000000 		.word	.LC25
 3073 034c 38010000 		.word	.LC34
 3074              	.LVL488:
 3075              	.L178:
 823:Tests.c       ****                 if(!rxFlag){
ARM GAS  C:\Users\HENRIC~1\AppData\Local\Temp\ccRPnI9G.s 			page 85


 3076              		.loc 1 823 0
 3077 0350 55B9     		cbnz	r5, .L194
 3078              	.LVL489:
 825:Tests.c       ****                     LCD_ClearDisplay();
 3079              		.loc 1 825 0
 3080 0352 0120     		movs	r0, #1
 3081 0354 FFF7FEFF 		bl	LCD_WriteControl
 3082              	.LVL490:
 826:Tests.c       ****                     LCD_Position(0,0);
 3083              		.loc 1 826 0
 3084 0358 0021     		movs	r1, #0
 3085 035a 0846     		mov	r0, r1
 3086 035c FFF7FEFF 		bl	LCD_Position
 3087              	.LVL491:
 827:Tests.c       ****                     LCD_PrintString("Receive");
 3088              		.loc 1 827 0
 3089 0360 2248     		ldr	r0, .L209
 3090 0362 FFF7FEFF 		bl	LCD_PrintString
 3091              	.LVL492:
 824:Tests.c       ****                     rxFlag = true;   
 3092              		.loc 1 824 0
 3093 0366 0125     		movs	r5, #1
 3094              	.LVL493:
 3095              	.L194:
 830:Tests.c       ****                 if(dll_has_data()){
 3096              		.loc 1 830 0
 3097 0368 FFF7FEFF 		bl	dll_has_data
 3098              	.LVL494:
 3099 036c 0028     		cmp	r0, #0
 3100 036e 3FF461AE 		beq	.L172
 3101              	.LBB20:
 831:Tests.c       ****                     uint8_t count = dll_read(&msg);
 3102              		.loc 1 831 0
 3103 0372 13A8     		add	r0, sp, #76
 3104 0374 FFF7FEFF 		bl	dll_read
 3105              	.LVL495:
 3106 0378 0390     		str	r0, [sp, #12]
 3107              	.LVL496:
 832:Tests.c       ****                     sprintf(str,"SRC: %d, DST: %d, SIZE: %d, MSG: ",msg.src,
 3108              		.loc 1 832 0
 3109 037a 9DF84C20 		ldrb	r2, [sp, #76]	@ zero_extendqisi2
 833:Tests.c       ****                             msg.dst,msg.msg_size);
 3110              		.loc 1 833 0
 3111 037e 9DF84D30 		ldrb	r3, [sp, #77]	@ zero_extendqisi2
 3112 0382 9DF87B10 		ldrb	r1, [sp, #123]	@ zero_extendqisi2
 832:Tests.c       ****                     sprintf(str,"SRC: %d, DST: %d, SIZE: %d, MSG: ",msg.src,
 3113              		.loc 1 832 0
 3114 0386 0091     		str	r1, [sp]
 3115 0388 1949     		ldr	r1, .L209+4
 3116 038a 06A8     		add	r0, sp, #24
 3117 038c FFF7FEFF 		bl	sprintf
 3118              	.LVL497:
 834:Tests.c       ****                     uart_write(str,strlen(str));
 3119              		.loc 1 834 0
 3120 0390 06AB     		add	r3, sp, #24
 3121 0392 1846     		mov	r0, r3
 3122 0394 FFF7FEFF 		bl	strlen
ARM GAS  C:\Users\HENRIC~1\AppData\Local\Temp\ccRPnI9G.s 			page 86


 3123              	.LVL498:
 3124 0398 81B2     		uxth	r1, r0
 3125 039a 06AB     		add	r3, sp, #24
 3126 039c 1846     		mov	r0, r3
 3127 039e FFF7FEFF 		bl	uart_write
 3128              	.LVL499:
 835:Tests.c       ****                     uart_write(msg.msg,count);
 3129              		.loc 1 835 0
 3130 03a2 BDF80C10 		ldrh	r1, [sp, #12]
 3131 03a6 0DF14F00 		add	r0, sp, #79
 3132 03aa FFF7FEFF 		bl	uart_write
 3133              	.LVL500:
 836:Tests.c       ****                     uart_write("\n\r",2);
 3134              		.loc 1 836 0
 3135 03ae 0221     		movs	r1, #2
 3136 03b0 1048     		ldr	r0, .L209+8
 3137 03b2 FFF7FEFF 		bl	uart_write
 3138              	.LVL501:
 838:Tests.c       ****                             msg.use_crc,(msg.failed_header_crc) ? "N" : "Y",
 3139              		.loc 1 838 0
 3140 03b6 9DF84E20 		ldrb	r2, [sp, #78]	@ zero_extendqisi2
 3141 03ba 9DF87C30 		ldrb	r3, [sp, #124]	@ zero_extendqisi2
 837:Tests.c       ****                     sprintf(str,"CRC_MODE: %d, HEADER CRC: %s, DATA CRC: %s\n\r",
 3142              		.loc 1 837 0
 3143 03be 0BB1     		cbz	r3, .L203
 3144 03c0 0D4B     		ldr	r3, .L209+12
 3145 03c2 00E0     		b	.L195
 3146              	.L203:
 3147 03c4 0D4B     		ldr	r3, .L209+16
 3148              	.L195:
 839:Tests.c       ****                             (msg.failed_data_crc) ? "N" : "Y");
 3149              		.loc 1 839 0 discriminator 4
 3150 03c6 9DF87D10 		ldrb	r1, [sp, #125]	@ zero_extendqisi2
 837:Tests.c       ****                     sprintf(str,"CRC_MODE: %d, HEADER CRC: %s, DATA CRC: %s\n\r",
 3151              		.loc 1 837 0 discriminator 4
 3152 03ca 09B1     		cbz	r1, .L204
 837:Tests.c       ****                     sprintf(str,"CRC_MODE: %d, HEADER CRC: %s, DATA CRC: %s\n\r",
 3153              		.loc 1 837 0 is_stmt 0
 3154 03cc 0A49     		ldr	r1, .L209+12
 3155 03ce 00E0     		b	.L196
 3156              	.L204:
 3157 03d0 0A49     		ldr	r1, .L209+16
 3158              	.L196:
 837:Tests.c       ****                     sprintf(str,"CRC_MODE: %d, HEADER CRC: %s, DATA CRC: %s\n\r",
 3159              		.loc 1 837 0 discriminator 8
 3160 03d2 0091     		str	r1, [sp]
 3161 03d4 0A49     		ldr	r1, .L209+20
 3162 03d6 06A8     		add	r0, sp, #24
 3163 03d8 FFF7FEFF 		bl	sprintf
 3164              	.LVL502:
 840:Tests.c       ****                     uart_write(str,strlen(str));
 3165              		.loc 1 840 0 is_stmt 1 discriminator 8
 3166 03dc 06A8     		add	r0, sp, #24
 3167 03de FFF7FEFF 		bl	strlen
 3168              	.LVL503:
 3169 03e2 81B2     		uxth	r1, r0
 3170 03e4 06A8     		add	r0, sp, #24
ARM GAS  C:\Users\HENRIC~1\AppData\Local\Temp\ccRPnI9G.s 			page 87


 3171 03e6 FFF7FEFF 		bl	uart_write
 3172              	.LVL504:
 3173 03ea 23E6     		b	.L172
 3174              	.L210:
 3175              		.align	2
 3176              	.L209:
 3177 03ec F0000000 		.word	.LC27
 3178 03f0 F8000000 		.word	.LC28
 3179 03f4 1C010000 		.word	.LC29
 3180 03f8 28010000 		.word	.LC31
 3181 03fc 2C010000 		.word	.LC32
 3182 0400 3C010000 		.word	.LC35
 3183              	.LBE20:
 3184              		.cfi_endproc
 3185              	.LFE70:
 3186              		.size	tests_week10, .-tests_week10
 3187              		.section	.text.tests_main,"ax",%progbits
 3188              		.align	2
 3189              		.global	tests_main
 3190              		.thumb
 3191              		.thumb_func
 3192              		.type	tests_main, %function
 3193              	tests_main:
 3194              	.LFB64:
 130:Tests.c       **** int tests_main(void){
 3195              		.loc 1 130 0
 3196              		.cfi_startproc
 3197              		@ Volatile: function does not return.
 3198              		@ args = 0, pretend = 0, frame = 0
 3199              		@ frame_needed = 0, uses_anonymous_args = 0
 3200 0000 08B5     		push	{r3, lr}
 3201              		.cfi_def_cfa_offset 8
 3202              		.cfi_offset 3, -8
 3203              		.cfi_offset 14, -4
 133:Tests.c       ****     CyGlobalIntEnable; 
 3204              		.loc 1 133 0
 3205              		.syntax unified
 3206              	@ 133 "Tests.c" 1
 3207 0002 62B6     		CPSIE   i
 3208              	@ 0 "" 2
 134:Tests.c       ****     uart_init();
 3209              		.loc 1 134 0
 3210              		.thumb
 3211              		.syntax unified
 3212 0004 FFF7FEFF 		bl	uart_init
 3213              	.LVL505:
 135:Tests.c       ****     LCD_Start();
 3214              		.loc 1 135 0
 3215 0008 FFF7FEFF 		bl	LCD_Start
 3216              	.LVL506:
 136:Tests.c       ****     LCD_ClearDisplay();
 3217              		.loc 1 136 0
 3218 000c 0120     		movs	r0, #1
 3219 000e FFF7FEFF 		bl	LCD_WriteControl
 3220              	.LVL507:
 137:Tests.c       ****     CapSense_Start();
 3221              		.loc 1 137 0
ARM GAS  C:\Users\HENRIC~1\AppData\Local\Temp\ccRPnI9G.s 			page 88


 3222 0012 FFF7FEFF 		bl	CapSense_Start
 3223              	.LVL508:
 138:Tests.c       ****     CyDelay(CAPSENSE_SETTLE_TIME);
 3224              		.loc 1 138 0
 3225 0016 6420     		movs	r0, #100
 3226 0018 FFF7FEFF 		bl	CyDelay
 3227              	.LVL509:
 139:Tests.c       ****     CapSense_InitializeAllBaselines();
 3228              		.loc 1 139 0
 3229 001c FFF7FEFF 		bl	CapSense_InitializeAllBaselines
 3230              	.LVL510:
 158:Tests.c       ****             tests_week10();
 3231              		.loc 1 158 0
 3232 0020 FFF7FEFF 		bl	tests_week10
 3233              	.LVL511:
 3234              		.cfi_endproc
 3235              	.LFE64:
 3236              		.size	tests_main, .-tests_main
 3237              		.section	.rodata
 3238              		.align	2
 3239              		.set	.LANCHOR1,. + 0
 3240              	.LC0:
 3241 0000 AA       		.byte	-86
 3242 0001 AA       		.byte	-86
 3243 0002 AA       		.byte	-86
 3244 0003 AA       		.byte	-86
 3245              	.LC1:
 3246 0004 55       		.byte	85
 3247 0005 55       		.byte	85
 3248 0006 55       		.byte	85
 3249 0007 55       		.byte	85
 3250              	.LC2:
 3251 0008 FF       		.byte	-1
 3252 0009 FF       		.byte	-1
 3253 000a FF       		.byte	-1
 3254 000b FF       		.byte	-1
 3255              	.LC3:
 3256 000c 85       		.byte	-123
 3257 000d AC       		.byte	-84
 3258 000e 0000     		.space	2
 3259              	.LC4:
 3260 0010 C4       		.byte	-60
 3261 0011 C1       		.byte	-63
 3262 0012 FA       		.byte	-6
 3263 0013 00       		.space	1
 3264              	.LC5:
 3265 0014 80       		.byte	-128
 3266 0015 81       		.byte	-127
 3267 0016 8A       		.byte	-118
 3268 0017 80       		.byte	-128
 3269 0018 83       		.byte	-125
 3270 0019 83       		.byte	-125
 3271              		.section	.rodata.str1.4,"aMS",%progbits,1
 3272              		.align	2
 3273              	.LC6:
 3274 0000 4D454E55 		.ascii	"MENU:\000"
 3274      3A00
ARM GAS  C:\Users\HENRIC~1\AppData\Local\Temp\ccRPnI9G.s 			page 89


 3275 0006 0000     		.space	2
 3276              	.LC7:
 3277 0008 55415254 		.ascii	"UART:\000"
 3277      3A00
 3278 000e 0000     		.space	2
 3279              	.LC8:
 3280 0010 5472616E 		.ascii	"Transmitting\000"
 3280      736D6974 
 3280      74696E67 
 3280      00
 3281 001d 000000   		.space	3
 3282              	.LC9:
 3283 0020 20202020 		.ascii	"            \000"
 3283      20202020 
 3283      20202020 
 3283      00
 3284 002d 000000   		.space	3
 3285              	.LC10:
 3286 0030 52455045 		.ascii	"REPEAT 0x00:\000"
 3286      41542030 
 3286      7830303A 
 3286      00
 3287 003d 000000   		.space	3
 3288              	.LC11:
 3289 0040 52455045 		.ascii	"REPEAT 0xAA:\000"
 3289      41542030 
 3289      7841413A 
 3289      00
 3290 004d 000000   		.space	3
 3291              	.LC12:
 3292 0050 52455045 		.ascii	"REPEAT 0x55:\000"
 3292      41542030 
 3292      7835353A 
 3292      00
 3293 005d 000000   		.space	3
 3294              	.LC13:
 3295 0060 52455045 		.ascii	"REPEAT 0xFF:\000"
 3295      41542030 
 3295      7846463A 
 3295      00
 3296 006d 000000   		.space	3
 3297              	.LC14:
 3298 0070 494E4954 		.ascii	"INIT\000"
 3298      00
 3299 0075 000000   		.space	3
 3300              	.LC15:
 3301 0078 49444C45 		.ascii	"IDLE\000"
 3301      00
 3302 007d 000000   		.space	3
 3303              	.LC16:
 3304 0080 42555359 		.ascii	"BUSY\000"
 3304      00
 3305 0085 000000   		.space	3
 3306              	.LC17:
 3307 0088 434F4C4C 		.ascii	"COLLISION\000"
 3307      4953494F 
 3307      4E00
ARM GAS  C:\Users\HENRIC~1\AppData\Local\Temp\ccRPnI9G.s 			page 90


 3308 0092 0000     		.space	2
 3309              	.LC18:
 3310 0094 00       		.ascii	"\000"
 3311 0095 000000   		.space	3
 3312              	.LC19:
 3313 0098 55415254 		.ascii	"UART\000"
 3313      00
 3314 009d 000000   		.space	3
 3315              	.LC20:
 3316 00a0 52455045 		.ascii	"REPEAT 0x00\000"
 3316      41542030 
 3316      78303000 
 3317              	.LC21:
 3318 00ac 52455045 		.ascii	"REPEAT 0xAA\000"
 3318      41542030 
 3318      78414100 
 3319              	.LC22:
 3320 00b8 52455045 		.ascii	"REPEAT 0x55\000"
 3320      41542030 
 3320      78353500 
 3321              	.LC23:
 3322 00c4 52455045 		.ascii	"REPEAT 0xFF\000"
 3322      41542030 
 3322      78464600 
 3323              	.LC24:
 3324 00d0 53697A65 		.ascii	"Size: %d\000"
 3324      3A202564 
 3324      00
 3325 00d9 000000   		.space	3
 3326              	.LC25:
 3327 00dc 5472616E 		.ascii	"Transmit\000"
 3327      736D6974 
 3327      00
 3328 00e5 000000   		.space	3
 3329              	.LC26:
 3330 00e8 48656C6C 		.ascii	"Hello\000"
 3330      6F00
 3331 00ee 0000     		.space	2
 3332              	.LC27:
 3333 00f0 52656365 		.ascii	"Receive\000"
 3333      69766500 
 3334              	.LC28:
 3335 00f8 5352433A 		.ascii	"SRC: %d, DST: %d, SIZE: %d, MSG: \000"
 3335      2025642C 
 3335      20445354 
 3335      3A202564 
 3335      2C205349 
 3336 011a 0000     		.space	2
 3337              	.LC29:
 3338 011c 0A0D00   		.ascii	"\012\015\000"
 3339 011f 00       		.space	1
 3340              	.LC30:
 3341 0120 4C696E6B 		.ascii	"Linked\000"
 3341      656400
 3342 0127 00       		.space	1
 3343              	.LC31:
 3344 0128 4E00     		.ascii	"N\000"
ARM GAS  C:\Users\HENRIC~1\AppData\Local\Temp\ccRPnI9G.s 			page 91


 3345 012a 0000     		.space	2
 3346              	.LC32:
 3347 012c 5900     		.ascii	"Y\000"
 3348 012e 0000     		.space	2
 3349              	.LC33:
 3350 0130 4352433A 		.ascii	"CRC:\000"
 3350      00
 3351 0135 000000   		.space	3
 3352              	.LC34:
 3353 0138 44417A00 		.ascii	"DAz\000"
 3354              	.LC35:
 3355 013c 4352435F 		.ascii	"CRC_MODE: %d, HEADER CRC: %s, DATA CRC: %s\012\015\000"
 3355      4D4F4445 
 3355      3A202564 
 3355      2C204845 
 3355      41444552 
 3356              		.bss
 3357              		.align	2
 3358              		.set	.LANCHOR0,. + 0
 3359              		.type	index.7762, %object
 3360              		.size	index.7762, 1
 3361              	index.7762:
 3362 0000 00       		.space	1
 3363              		.type	hold.7763, %object
 3364              		.size	hold.7763, 1
 3365              	hold.7763:
 3366 0001 00       		.space	1
 3367 0002 0000     		.space	2
 3368              		.type	MENU_OPTIONS_TAGS, %object
 3369              		.size	MENU_OPTIONS_TAGS, 20
 3370              	MENU_OPTIONS_TAGS:
 3371 0004 00000000 		.space	20
 3371      00000000 
 3371      00000000 
 3371      00000000 
 3371      00000000 
 3372              		.type	MENU_OPTIONS_LIST, %object
 3373              		.size	MENU_OPTIONS_LIST, 5
 3374              	MENU_OPTIONS_LIST:
 3375 0018 00000000 		.space	5
 3375      00
 3376 001d 000000   		.space	3
 3377              		.type	txStr.7772, %object
 3378              		.size	txStr.7772, 33
 3379              	txStr.7772:
 3380 0020 00000000 		.space	33
 3380      00000000 
 3380      00000000 
 3380      00000000 
 3380      00000000 
 3381              		.type	txStr_index.7773, %object
 3382              		.size	txStr_index.7773, 1
 3383              	txStr_index.7773:
 3384 0041 00       		.space	1
 3385 0042 0000     		.space	2
 3386              		.type	buffer.7770, %object
 3387              		.size	buffer.7770, 64
ARM GAS  C:\Users\HENRIC~1\AppData\Local\Temp\ccRPnI9G.s 			page 92


 3388              	buffer.7770:
 3389 0044 00000000 		.space	64
 3389      00000000 
 3389      00000000 
 3389      00000000 
 3389      00000000 
 3390              		.type	disp.7771, %object
 3391              		.size	disp.7771, 16
 3392              	disp.7771:
 3393 0084 00000000 		.space	16
 3393      00000000 
 3393      00000000 
 3393      00000000 
 3394              		.type	hold.7789, %object
 3395              		.size	hold.7789, 1
 3396              	hold.7789:
 3397 0094 00       		.space	1
 3398              		.type	hold.7800, %object
 3399              		.size	hold.7800, 1
 3400              	hold.7800:
 3401 0095 00       		.space	1
 3402              		.type	hold.7811, %object
 3403              		.size	hold.7811, 1
 3404              	hold.7811:
 3405 0096 00       		.space	1
 3406              		.type	hold.7822, %object
 3407              		.size	hold.7822, 1
 3408              	hold.7822:
 3409 0097 00       		.space	1
 3410              		.type	txStr.7643, %object
 3411              		.size	txStr.7643, 33
 3412              	txStr.7643:
 3413 0098 00000000 		.space	33
 3413      00000000 
 3413      00000000 
 3413      00000000 
 3413      00000000 
 3414              		.type	txStr_index.7644, %object
 3415              		.size	txStr_index.7644, 1
 3416              	txStr_index.7644:
 3417 00b9 00       		.space	1
 3418 00ba 0000     		.space	2
 3419              		.type	buffer.7641, %object
 3420              		.size	buffer.7641, 64
 3421              	buffer.7641:
 3422 00bc 00000000 		.space	64
 3422      00000000 
 3422      00000000 
 3422      00000000 
 3422      00000000 
 3423              		.type	disp.7642, %object
 3424              		.size	disp.7642, 16
 3425              	disp.7642:
 3426 00fc 00000000 		.space	16
 3426      00000000 
 3426      00000000 
 3426      00000000 
ARM GAS  C:\Users\HENRIC~1\AppData\Local\Temp\ccRPnI9G.s 			page 93


 3427              		.type	txStr.7659, %object
 3428              		.size	txStr.7659, 33
 3429              	txStr.7659:
 3430 010c 00000000 		.space	33
 3430      00000000 
 3430      00000000 
 3430      00000000 
 3430      00000000 
 3431              		.type	txStr_index.7660, %object
 3432              		.size	txStr_index.7660, 1
 3433              	txStr_index.7660:
 3434 012d 00       		.space	1
 3435 012e 0000     		.space	2
 3436              		.type	txStr.7679, %object
 3437              		.size	txStr.7679, 45
 3438              	txStr.7679:
 3439 0130 00000000 		.space	45
 3439      00000000 
 3439      00000000 
 3439      00000000 
 3439      00000000 
 3440              		.type	txStr_index.7680, %object
 3441              		.size	txStr_index.7680, 1
 3442              	txStr_index.7680:
 3443 015d 00       		.space	1
 3444              		.text
 3445              	.Letext0:
 3446              		.file 2 "c:\\program files (x86)\\cypress\\psoc creator\\4.1\\psoc creator\\import\\gnu\\arm\\5.4.
 3447              		.file 3 "c:\\program files (x86)\\cypress\\psoc creator\\4.1\\psoc creator\\import\\gnu\\arm\\5.4.
 3448              		.file 4 "Tests.h"
 3449              		.file 5 "UserAddressAllocation.h"
 3450              		.file 6 "ChannelMonitor.h"
 3451              		.file 7 "Transmitter.h"
 3452              		.file 8 "DataLinkLayer.h"
 3453              		.file 9 "Generated_Source\\PSoC5/LCD.h"
 3454              		.file 10 "Generated_Source\\PSoC5/CapSense_CSHL.h"
 3455              		.file 11 "Uart.h"
 3456              		.file 12 "c:\\program files (x86)\\cypress\\psoc creator\\4.1\\psoc creator\\import\\gnu\\arm\\5.4
 3457              		.file 13 "Generated_Source\\PSoC5/CyLib.h"
 3458              		.file 14 "CSMA_CD_Bus.h"
 3459              		.file 15 "Receiver.h"
 3460              		.file 16 "Generated_Source\\PSoC5/CM_Test_State_Reg.h"
 3461              		.file 17 "Generated_Source\\PSoC5/CapSense.h"
 3462              		.file 18 "c:\\program files (x86)\\cypress\\psoc creator\\4.1\\psoc creator\\import\\gnu\\arm\\5.4
 3463              		.file 19 "Generated_Source\\PSoC5/core_cm3.h"