ARM GAS  C:\Users\HENRIC~1\AppData\Local\Temp\ccRS5BLb.s 			page 1


   1              		.syntax unified
   2              		.cpu cortex-m3
   3              		.fpu softvfp
   4              		.eabi_attribute 20, 1
   5              		.eabi_attribute 21, 1
   6              		.eabi_attribute 23, 3
   7              		.eabi_attribute 24, 1
   8              		.eabi_attribute 25, 1
   9              		.eabi_attribute 26, 1
  10              		.eabi_attribute 30, 1
  11              		.eabi_attribute 34, 1
  12              		.eabi_attribute 18, 4
  13              		.thumb
  14              		.syntax unified
  15              		.file	"Transmitter2.c"
  16              		.text
  17              	.Ltext0:
  18              		.cfi_sections	.debug_frame
  19              		.section	.text.tx_idle_isr_callback,"ax",%progbits
  20              		.align	2
  21              		.global	tx_idle_isr_callback
  22              		.thumb
  23              		.thumb_func
  24              		.type	tx_idle_isr_callback, %function
  25              	tx_idle_isr_callback:
  26              	.LFB69:
  27              		.file 1 "Transmitter2.c"
   1:Transmitter2.c **** /**
   2:Transmitter2.c ****  * Transmitter
   3:Transmitter2.c ****  * @author Curt Henrichs
   4:Transmitter2.c ****  * @date 1-1-2018
   5:Transmitter2.c ****  *
   6:Transmitter2.c ****  * Transmitter module handles RZ encoded message clockout to network bus. This
   7:Transmitter2.c ****  * module has an optional mode to enable/disbale stop on collision behavior. 
   8:Transmitter2.c ****  * (Normally enabled). Note that this module requires global interrupts to be
   9:Transmitter2.c ****  * enabled. 
  10:Transmitter2.c ****  */
  11:Transmitter2.c **** 
  12:Transmitter2.c **** //=============================================================================
  13:Transmitter2.c **** //                                 Libraries
  14:Transmitter2.c **** //=============================================================================
  15:Transmitter2.c **** 
  16:Transmitter2.c **** #include "Transmitter2.h"
  17:Transmitter2.c **** #include <project.h>
  18:Transmitter2.c **** #include "CSMA_CD_Bus.h"
  19:Transmitter2.c **** #include "ChannelMonitor.h"
  20:Transmitter2.c **** #include <stdlib.h>
  21:Transmitter2.c **** 
  22:Transmitter2.c **** //=============================================================================
  23:Transmitter2.c **** //                        Constant and Macro Definitions
  24:Transmitter2.c **** //=============================================================================
  25:Transmitter2.c **** 
  26:Transmitter2.c **** #define TX_START_MASK (0x80)    //! One is most significant bit of byte
  27:Transmitter2.c **** 
  28:Transmitter2.c **** //=============================================================================
  29:Transmitter2.c **** //                          Data Structure Declaration
  30:Transmitter2.c **** //=============================================================================
ARM GAS  C:\Users\HENRIC~1\AppData\Local\Temp\ccRS5BLb.s 			page 2


  31:Transmitter2.c **** 
  32:Transmitter2.c **** /**
  33:Transmitter2.c ****  * Character Transmission state-machine
  34:Transmitter2.c ****  */
  35:Transmitter2.c **** typedef struct Tx_Char_State_Machine {
  36:Transmitter2.c ****     uint8_t t_bit;  //! transmission mask (indicates which bit is active)
  37:Transmitter2.c ****     bool rz_bit;    //! toggle bit for which half of bit is being sent on line 
  38:Transmitter2.c ****     bool end;       //! end flag signals complete tranmission of character
  39:Transmitter2.c ****     uint8_t c;      //! character to transmit
  40:Transmitter2.c **** } Tx_Char_State_Machine_t;
  41:Transmitter2.c **** 
  42:Transmitter2.c **** typedef struct Tx_State_Machine {
  43:Transmitter2.c ****     Tx_States_e state;
  44:Transmitter2.c ****     Tx_Char_State_Machine_t chr;
  45:Transmitter2.c ****     char* buffer;
  46:Transmitter2.c ****     uint8_t buffer_len;
  47:Transmitter2.c **** } Tx_State_Machine_t;
  48:Transmitter2.c **** 
  49:Transmitter2.c **** //=============================================================================
  50:Transmitter2.c **** //                             Private Attributes
  51:Transmitter2.c **** //=============================================================================
  52:Transmitter2.c **** 
  53:Transmitter2.c **** /**
  54:Transmitter2.c ****  * Mode to enable or disbale collision detection failure behavior
  55:Transmitter2.c ****  */
  56:Transmitter2.c **** static bool _detect_collision = false;
  57:Transmitter2.c **** /**
  58:Transmitter2.c ****  * State-machine to transmit a character on bus
  59:Transmitter2.c ****  */
  60:Transmitter2.c **** static volatile Tx_State_Machine_t _tx_sm;
  61:Transmitter2.c **** 
  62:Transmitter2.c **** //=============================================================================
  63:Transmitter2.c **** //                           Private ISR Prototypes
  64:Transmitter2.c **** //=============================================================================
  65:Transmitter2.c **** 
  66:Transmitter2.c **** /**
  67:Transmitter2.c ****  * Transmission timer ISR operates on _tx_sm state_machine to transmit a single
  68:Transmitter2.c ****  * character on the network bus. The encoding used is RZ where logic high is a
  69:Transmitter2.c ****  * binary one and logic low is a binary zero.
  70:Transmitter2.c ****  */
  71:Transmitter2.c **** CY_ISR_PROTO(tx_timer_isr);
  72:Transmitter2.c **** /**
  73:Transmitter2.c ****  * Callback on collision state-change to move state-machine to backoff
  74:Transmitter2.c ****  */
  75:Transmitter2.c **** void tx_collision_isr_callback(void);
  76:Transmitter2.c **** /**
  77:Transmitter2.c ****  * Callback on idle state-change to move state-machine from waiting to clocking
  78:Transmitter2.c ****  */
  79:Transmitter2.c **** void tx_idle_isr_callback(void);
  80:Transmitter2.c **** 
  81:Transmitter2.c **** //=============================================================================
  82:Transmitter2.c **** //                        Public Function Implementation
  83:Transmitter2.c **** //=============================================================================
  84:Transmitter2.c **** 
  85:Transmitter2.c **** /**
  86:Transmitter2.c ****  * Initialize transmitter module for data clockout
  87:Transmitter2.c ****  */
ARM GAS  C:\Users\HENRIC~1\AppData\Local\Temp\ccRS5BLb.s 			page 3


  88:Transmitter2.c **** void tx_init(void){
  89:Transmitter2.c ****     //initialize state-machine
  90:Transmitter2.c ****     _tx_sm.state = TX_DONE;
  91:Transmitter2.c ****     _tx_sm.buffer = NULL;
  92:Transmitter2.c ****     _tx_sm.buffer_len = 0;
  93:Transmitter2.c ****     _tx_sm.chr.c = 0;
  94:Transmitter2.c ****     _tx_sm.chr.end = true;
  95:Transmitter2.c ****     _tx_sm.chr.rz_bit = true;
  96:Transmitter2.c ****     _tx_sm.chr.t_bit = 0;
  97:Transmitter2.c ****     
  98:Transmitter2.c ****     //start hardware and assign interrupts
  99:Transmitter2.c ****     Tx_Timer_Start();
 100:Transmitter2.c ****     Tx_Timer_Stop();
 101:Transmitter2.c ****     Tx_Timer_int_StartEx(tx_timer_isr);
 102:Transmitter2.c ****     
 103:Transmitter2.c ****     cm_assign_collision_callback(CM_COLLISION_TX_CALLBACK,tx_collision_isr_callback);
 104:Transmitter2.c ****     cm_assign_idle_callback(CM_IDLE_TX_CALLBACK,tx_idle_isr_callback);
 105:Transmitter2.c **** }
 106:Transmitter2.c **** 
 107:Transmitter2.c **** /**
 108:Transmitter2.c ****  * Transmits a string of character over bus with precaution on bus state
 109:Transmitter2.c ****  * Note that this function does use the channel monitor.
 110:Transmitter2.c ****  * Note that this is a non-blocking function and thus required polling of state
 111:Transmitter2.c ****  * function for completion
 112:Transmitter2.c ****  * @param buff is buffer start address in memory
 113:Transmitter2.c ****  * @param length is number of characters in buffer to transmit
 114:Transmitter2.c ****  * @return true if starting, false is invalid parameter or message in progress
 115:Transmitter2.c ****  */
 116:Transmitter2.c **** bool tx_write(char* buffer, uint8_t len){
 117:Transmitter2.c ****     if(buffer == NULL || len > TX_MAX_BUFFER_LENGTH){
 118:Transmitter2.c ****         return false; // invalid parameters
 119:Transmitter2.c ****     }else if(_tx_sm.state != TX_DONE){
 120:Transmitter2.c ****        return false; // already in transmit
 121:Transmitter2.c ****     }else if(len == 0){
 122:Transmitter2.c ****         return true; // No message to write, pass through 
 123:Transmitter2.c ****     }
 124:Transmitter2.c ****     _tx_sm.buffer = buffer;
 125:Transmitter2.c ****     _tx_sm.buffer_len = len;
 126:Transmitter2.c ****     _tx_sm.state = TX_WAIT;
 127:Transmitter2.c ****     return true;
 128:Transmitter2.c **** }
 129:Transmitter2.c **** 
 130:Transmitter2.c **** /**
 131:Transmitter2.c ****  * Gets current status of the transmission state-machine. Do not call tx_write
 132:Transmitter2.c ****  * until status is done.
 133:Transmitter2.c ****  * @return currrent status
 134:Transmitter2.c ****  */
 135:Transmitter2.c **** Tx_States_e tx_get_status(void){
 136:Transmitter2.c ****     return _tx_sm.state;
 137:Transmitter2.c **** }
 138:Transmitter2.c **** 
 139:Transmitter2.c **** /**
 140:Transmitter2.c ****  * Abort the current transmission regardless of state. (Does nothing if done)
 141:Transmitter2.c ****  */
 142:Transmitter2.c **** void tx_abort(void){
 143:Transmitter2.c ****     Tx_Timer_Stop();
 144:Transmitter2.c ****     _tx_sm.state = TX_DONE;
ARM GAS  C:\Users\HENRIC~1\AppData\Local\Temp\ccRS5BLb.s 			page 4


 145:Transmitter2.c ****     _tx_sm.buffer = NULL;
 146:Transmitter2.c ****     _tx_sm.buffer_len = 0;
 147:Transmitter2.c ****     CSMA_TX_Write(0);
 148:Transmitter2.c **** }
 149:Transmitter2.c **** 
 150:Transmitter2.c **** //=============================================================================
 151:Transmitter2.c **** //                           Private ISR Implementation
 152:Transmitter2.c **** //=============================================================================
 153:Transmitter2.c **** 
 154:Transmitter2.c **** /**
 155:Transmitter2.c ****  * Transmission timer ISR operates on _tx_sm state_machine to transmit a single
 156:Transmitter2.c ****  * character on the network bus. The encoding used is RZ where logic high is a
 157:Transmitter2.c ****  * binary one and logic low is a binary zero.
 158:Transmitter2.c ****  */
 159:Transmitter2.c **** CY_ISR(tx_timer_isr){
 160:Transmitter2.c ****     
 161:Transmitter2.c ****     //TODO restructure for full state-machine
 162:Transmitter2.c ****     
 163:Transmitter2.c ****     if(!_tx_sm.chr.end){
 164:Transmitter2.c ****         
 165:Transmitter2.c ****         // Send data bit
 166:Transmitter2.c ****         if(_tx_sm.chr.rz_bit){
 167:Transmitter2.c ****             CSMA_TX_Write((_tx_sm.chr.c & _tx_sm.chr.t_bit) != 0);
 168:Transmitter2.c ****             _tx_sm.chr.t_bit >>= 1;
 169:Transmitter2.c ****             _tx_sm.chr.rz_bit = false;
 170:Transmitter2.c ****         }
 171:Transmitter2.c ****         // Send ground reference
 172:Transmitter2.c ****         else{
 173:Transmitter2.c ****             CSMA_TX_Write(0);
 174:Transmitter2.c ****             _tx_sm.chr.rz_bit = true;
 175:Transmitter2.c ****         }
 176:Transmitter2.c ****     }
 177:Transmitter2.c ****     
 178:Transmitter2.c ****     //check for end state
 179:Transmitter2.c ****     if(_tx_sm.chr.t_bit == 0 && _tx_sm.chr.rz_bit){
 180:Transmitter2.c ****         CSMA_TX_Write(0);
 181:Transmitter2.c ****         _tx_sm.chr.end = true;
 182:Transmitter2.c ****     }
 183:Transmitter2.c ****     
 184:Transmitter2.c ****     //clear interrupt
 185:Transmitter2.c ****     Tx_Timer_ReadStatusRegister();
 186:Transmitter2.c **** }
 187:Transmitter2.c **** 
 188:Transmitter2.c **** /**
 189:Transmitter2.c ****  * Callback on collision state-change to move state-machine to backoff
 190:Transmitter2.c ****  */
 191:Transmitter2.c **** void tx_collision_isr_callback(void){
 192:Transmitter2.c ****     if(_tx_sm.state == TX_CHAR){
 193:Transmitter2.c ****         //stop transmitting character
 194:Transmitter2.c ****         
 195:Transmitter2.c ****         //move to backoff state
 196:Transmitter2.c ****         uint16_t delay = rand() % 1000;
 197:Transmitter2.c ****         
 198:Transmitter2.c ****         Tx_Timer_WritePeriod(delay);
 199:Transmitter2.c ****         _tx_sm.state = TX_BACKOFF;
 200:Transmitter2.c ****     }
 201:Transmitter2.c **** }
ARM GAS  C:\Users\HENRIC~1\AppData\Local\Temp\ccRS5BLb.s 			page 5


 202:Transmitter2.c **** 
 203:Transmitter2.c **** /**
 204:Transmitter2.c ****  * Callback on idle state-change to move state-machine from waiting to clocking
 205:Transmitter2.c ****  */
 206:Transmitter2.c **** void tx_idle_isr_callback(void){
  28              		.loc 1 206 0
  29              		.cfi_startproc
  30              		@ args = 0, pretend = 0, frame = 0
  31              		@ frame_needed = 0, uses_anonymous_args = 0
  32              		@ link register save eliminated.
 207:Transmitter2.c ****     if(_tx_sm.state == TX_WAIT){
  33              		.loc 1 207 0
  34 0000 014B     		ldr	r3, .L2
  35 0002 1B78     		ldrb	r3, [r3]	@ zero_extendqisi2
  36 0004 7047     		bx	lr
  37              	.L3:
  38 0006 00BF     		.align	2
  39              	.L2:
  40 0008 00000000 		.word	.LANCHOR0
  41              		.cfi_endproc
  42              	.LFE69:
  43              		.size	tx_idle_isr_callback, .-tx_idle_isr_callback
  44              		.section	.text.tx_timer_isr,"ax",%progbits
  45              		.align	2
  46              		.global	tx_timer_isr
  47              		.thumb
  48              		.thumb_func
  49              		.type	tx_timer_isr, %function
  50              	tx_timer_isr:
  51              	.LFB67:
 159:Transmitter2.c ****     
  52              		.loc 1 159 0
  53              		.cfi_startproc
  54              		@ args = 0, pretend = 0, frame = 0
  55              		@ frame_needed = 0, uses_anonymous_args = 0
  56 0000 10B5     		push	{r4, lr}
  57              		.cfi_def_cfa_offset 8
  58              		.cfi_offset 4, -8
  59              		.cfi_offset 14, -4
 163:Transmitter2.c ****         
  60              		.loc 1 163 0
  61 0002 194B     		ldr	r3, .L9
  62 0004 DB78     		ldrb	r3, [r3, #3]	@ zero_extendqisi2
  63 0006 13F0FF0F 		tst	r3, #255
  64 000a 19D1     		bne	.L5
 166:Transmitter2.c ****             CSMA_TX_Write((_tx_sm.chr.c & _tx_sm.chr.t_bit) != 0);
  65              		.loc 1 166 0
  66 000c 164B     		ldr	r3, .L9
  67 000e 9B78     		ldrb	r3, [r3, #2]	@ zero_extendqisi2
  68 0010 13F0FF0F 		tst	r3, #255
  69 0014 0ED0     		beq	.L6
 167:Transmitter2.c ****             _tx_sm.chr.t_bit >>= 1;
  70              		.loc 1 167 0
  71 0016 144C     		ldr	r4, .L9
  72 0018 2379     		ldrb	r3, [r4, #4]	@ zero_extendqisi2
  73 001a 6278     		ldrb	r2, [r4, #1]	@ zero_extendqisi2
  74 001c 1A42     		tst	r2, r3
ARM GAS  C:\Users\HENRIC~1\AppData\Local\Temp\ccRS5BLb.s 			page 6


  75 001e 14BF     		ite	ne
  76 0020 0120     		movne	r0, #1
  77 0022 0020     		moveq	r0, #0
  78 0024 FFF7FEFF 		bl	CSMA_TX_Write
  79              	.LVL0:
 168:Transmitter2.c ****             _tx_sm.chr.rz_bit = false;
  80              		.loc 1 168 0
  81 0028 6378     		ldrb	r3, [r4, #1]	@ zero_extendqisi2
  82 002a 5B08     		lsrs	r3, r3, #1
  83 002c 6370     		strb	r3, [r4, #1]
 169:Transmitter2.c ****         }
  84              		.loc 1 169 0
  85 002e 0023     		movs	r3, #0
  86 0030 A370     		strb	r3, [r4, #2]
  87 0032 05E0     		b	.L5
  88              	.L6:
 173:Transmitter2.c ****             _tx_sm.chr.rz_bit = true;
  89              		.loc 1 173 0
  90 0034 0020     		movs	r0, #0
  91 0036 FFF7FEFF 		bl	CSMA_TX_Write
  92              	.LVL1:
 174:Transmitter2.c ****         }
  93              		.loc 1 174 0
  94 003a 0122     		movs	r2, #1
  95 003c 0A4B     		ldr	r3, .L9
  96 003e 9A70     		strb	r2, [r3, #2]
  97              	.L5:
 179:Transmitter2.c ****         CSMA_TX_Write(0);
  98              		.loc 1 179 0
  99 0040 094B     		ldr	r3, .L9
 100 0042 5B78     		ldrb	r3, [r3, #1]	@ zero_extendqisi2
 101 0044 13F0FF0F 		tst	r3, #255
 102 0048 0AD1     		bne	.L7
 179:Transmitter2.c ****         CSMA_TX_Write(0);
 103              		.loc 1 179 0 is_stmt 0 discriminator 1
 104 004a 074B     		ldr	r3, .L9
 105 004c 9B78     		ldrb	r3, [r3, #2]	@ zero_extendqisi2
 106 004e 13F0FF0F 		tst	r3, #255
 107 0052 05D0     		beq	.L7
 180:Transmitter2.c ****         _tx_sm.chr.end = true;
 108              		.loc 1 180 0 is_stmt 1
 109 0054 0020     		movs	r0, #0
 110 0056 FFF7FEFF 		bl	CSMA_TX_Write
 111              	.LVL2:
 181:Transmitter2.c ****     }
 112              		.loc 1 181 0
 113 005a 0122     		movs	r2, #1
 114 005c 024B     		ldr	r3, .L9
 115 005e DA70     		strb	r2, [r3, #3]
 116              	.L7:
 185:Transmitter2.c **** }
 117              		.loc 1 185 0
 118 0060 FFF7FEFF 		bl	Tx_Timer_ReadStatusRegister
 119              	.LVL3:
 120 0064 10BD     		pop	{r4, pc}
 121              	.L10:
 122 0066 00BF     		.align	2
ARM GAS  C:\Users\HENRIC~1\AppData\Local\Temp\ccRS5BLb.s 			page 7


 123              	.L9:
 124 0068 00000000 		.word	.LANCHOR0
 125              		.cfi_endproc
 126              	.LFE67:
 127              		.size	tx_timer_isr, .-tx_timer_isr
 128              		.section	.text.tx_collision_isr_callback,"ax",%progbits
 129              		.align	2
 130              		.global	tx_collision_isr_callback
 131              		.thumb
 132              		.thumb_func
 133              		.type	tx_collision_isr_callback, %function
 134              	tx_collision_isr_callback:
 135              	.LFB68:
 191:Transmitter2.c ****     if(_tx_sm.state == TX_CHAR){
 136              		.loc 1 191 0
 137              		.cfi_startproc
 138              		@ args = 0, pretend = 0, frame = 0
 139              		@ frame_needed = 0, uses_anonymous_args = 0
 140 0000 08B5     		push	{r3, lr}
 141              		.cfi_def_cfa_offset 8
 142              		.cfi_offset 3, -8
 143              		.cfi_offset 14, -4
 192:Transmitter2.c ****         //stop transmitting character
 144              		.loc 1 192 0
 145 0002 0C4B     		ldr	r3, .L14
 146 0004 1B78     		ldrb	r3, [r3]	@ zero_extendqisi2
 147 0006 DBB2     		uxtb	r3, r3
 148 0008 012B     		cmp	r3, #1
 149 000a 11D1     		bne	.L11
 150              	.LBB2:
 196:Transmitter2.c ****         
 151              		.loc 1 196 0
 152 000c FFF7FEFF 		bl	rand
 153              	.LVL4:
 154 0010 094B     		ldr	r3, .L14+4
 155 0012 83FB0032 		smull	r3, r2, r3, r0
 156 0016 C317     		asrs	r3, r0, #31
 157 0018 C3EBA213 		rsb	r3, r3, r2, asr #6
 158 001c 4FF47A72 		mov	r2, #1000
 159 0020 02FB1303 		mls	r3, r2, r3, r0
 160              	.LVL5:
 198:Transmitter2.c ****         _tx_sm.state = TX_BACKOFF;
 161              		.loc 1 198 0
 162 0024 98B2     		uxth	r0, r3
 163 0026 FFF7FEFF 		bl	Tx_Timer_WritePeriod
 164              	.LVL6:
 199:Transmitter2.c ****     }
 165              		.loc 1 199 0
 166 002a 0222     		movs	r2, #2
 167 002c 014B     		ldr	r3, .L14
 168 002e 1A70     		strb	r2, [r3]
 169              	.L11:
 170 0030 08BD     		pop	{r3, pc}
 171              	.L15:
 172 0032 00BF     		.align	2
 173              	.L14:
 174 0034 00000000 		.word	.LANCHOR0
ARM GAS  C:\Users\HENRIC~1\AppData\Local\Temp\ccRS5BLb.s 			page 8


 175 0038 D34D6210 		.word	274877907
 176              	.LBE2:
 177              		.cfi_endproc
 178              	.LFE68:
 179              		.size	tx_collision_isr_callback, .-tx_collision_isr_callback
 180              		.section	.text.tx_init,"ax",%progbits
 181              		.align	2
 182              		.global	tx_init
 183              		.thumb
 184              		.thumb_func
 185              		.type	tx_init, %function
 186              	tx_init:
 187              	.LFB63:
  88:Transmitter2.c ****     //initialize state-machine
 188              		.loc 1 88 0
 189              		.cfi_startproc
 190              		@ args = 0, pretend = 0, frame = 0
 191              		@ frame_needed = 0, uses_anonymous_args = 0
 192 0000 10B5     		push	{r4, lr}
 193              		.cfi_def_cfa_offset 8
 194              		.cfi_offset 4, -8
 195              		.cfi_offset 14, -4
  90:Transmitter2.c ****     _tx_sm.buffer = NULL;
 196              		.loc 1 90 0
 197 0002 0D4B     		ldr	r3, .L18
 198 0004 0322     		movs	r2, #3
 199 0006 1A70     		strb	r2, [r3]
  91:Transmitter2.c ****     _tx_sm.buffer_len = 0;
 200              		.loc 1 91 0
 201 0008 0024     		movs	r4, #0
 202 000a 9C60     		str	r4, [r3, #8]
  92:Transmitter2.c ****     _tx_sm.chr.c = 0;
 203              		.loc 1 92 0
 204 000c 1C73     		strb	r4, [r3, #12]
  93:Transmitter2.c ****     _tx_sm.chr.end = true;
 205              		.loc 1 93 0
 206 000e 1C71     		strb	r4, [r3, #4]
  94:Transmitter2.c ****     _tx_sm.chr.rz_bit = true;
 207              		.loc 1 94 0
 208 0010 0122     		movs	r2, #1
 209 0012 DA70     		strb	r2, [r3, #3]
  95:Transmitter2.c ****     _tx_sm.chr.t_bit = 0;
 210              		.loc 1 95 0
 211 0014 9A70     		strb	r2, [r3, #2]
  96:Transmitter2.c ****     
 212              		.loc 1 96 0
 213 0016 5C70     		strb	r4, [r3, #1]
  99:Transmitter2.c ****     Tx_Timer_Stop();
 214              		.loc 1 99 0
 215 0018 FFF7FEFF 		bl	Tx_Timer_Start
 216              	.LVL7:
 100:Transmitter2.c ****     Tx_Timer_int_StartEx(tx_timer_isr);
 217              		.loc 1 100 0
 218 001c FFF7FEFF 		bl	Tx_Timer_Stop
 219              	.LVL8:
 101:Transmitter2.c ****     
 220              		.loc 1 101 0
ARM GAS  C:\Users\HENRIC~1\AppData\Local\Temp\ccRS5BLb.s 			page 9


 221 0020 0648     		ldr	r0, .L18+4
 222 0022 FFF7FEFF 		bl	Tx_Timer_int_StartEx
 223              	.LVL9:
 103:Transmitter2.c ****     cm_assign_idle_callback(CM_IDLE_TX_CALLBACK,tx_idle_isr_callback);
 224              		.loc 1 103 0
 225 0026 0649     		ldr	r1, .L18+8
 226 0028 2046     		mov	r0, r4
 227 002a FFF7FEFF 		bl	cm_assign_collision_callback
 228              	.LVL10:
 104:Transmitter2.c **** }
 229              		.loc 1 104 0
 230 002e 0549     		ldr	r1, .L18+12
 231 0030 2046     		mov	r0, r4
 232 0032 FFF7FEFF 		bl	cm_assign_idle_callback
 233              	.LVL11:
 234 0036 10BD     		pop	{r4, pc}
 235              	.L19:
 236              		.align	2
 237              	.L18:
 238 0038 00000000 		.word	.LANCHOR0
 239 003c 00000000 		.word	tx_timer_isr
 240 0040 00000000 		.word	tx_collision_isr_callback
 241 0044 00000000 		.word	tx_idle_isr_callback
 242              		.cfi_endproc
 243              	.LFE63:
 244              		.size	tx_init, .-tx_init
 245              		.section	.text.tx_write,"ax",%progbits
 246              		.align	2
 247              		.global	tx_write
 248              		.thumb
 249              		.thumb_func
 250              		.type	tx_write, %function
 251              	tx_write:
 252              	.LFB64:
 116:Transmitter2.c ****     if(buffer == NULL || len > TX_MAX_BUFFER_LENGTH){
 253              		.loc 1 116 0
 254              		.cfi_startproc
 255              		@ args = 0, pretend = 0, frame = 0
 256              		@ frame_needed = 0, uses_anonymous_args = 0
 257              		@ link register save eliminated.
 258              	.LVL12:
 117:Transmitter2.c ****         return false; // invalid parameters
 259              		.loc 1 117 0
 260 0000 70B1     		cbz	r0, .L22
 117:Transmitter2.c ****         return false; // invalid parameters
 261              		.loc 1 117 0 is_stmt 0 discriminator 1
 262 0002 3429     		cmp	r1, #52
 263 0004 0ED8     		bhi	.L23
 119:Transmitter2.c ****        return false; // already in transmit
 264              		.loc 1 119 0 is_stmt 1
 265 0006 0A4B     		ldr	r3, .L26
 266 0008 1B78     		ldrb	r3, [r3]	@ zero_extendqisi2
 267 000a DBB2     		uxtb	r3, r3
 268 000c 032B     		cmp	r3, #3
 269 000e 0BD1     		bne	.L24
 121:Transmitter2.c ****         return true; // No message to write, pass through 
 270              		.loc 1 121 0
ARM GAS  C:\Users\HENRIC~1\AppData\Local\Temp\ccRS5BLb.s 			page 10


 271 0010 61B1     		cbz	r1, .L25
 124:Transmitter2.c ****     _tx_sm.buffer_len = len;
 272              		.loc 1 124 0
 273 0012 074B     		ldr	r3, .L26
 274 0014 9860     		str	r0, [r3, #8]
 125:Transmitter2.c ****     _tx_sm.state = TX_WAIT;
 275              		.loc 1 125 0
 276 0016 1973     		strb	r1, [r3, #12]
 126:Transmitter2.c ****     return true;
 277              		.loc 1 126 0
 278 0018 0022     		movs	r2, #0
 279 001a 1A70     		strb	r2, [r3]
 127:Transmitter2.c **** }
 280              		.loc 1 127 0
 281 001c 0120     		movs	r0, #1
 282              	.LVL13:
 283 001e 7047     		bx	lr
 284              	.LVL14:
 285              	.L22:
 118:Transmitter2.c ****     }else if(_tx_sm.state != TX_DONE){
 286              		.loc 1 118 0
 287 0020 0020     		movs	r0, #0
 288              	.LVL15:
 289 0022 7047     		bx	lr
 290              	.LVL16:
 291              	.L23:
 292 0024 0020     		movs	r0, #0
 293              	.LVL17:
 294 0026 7047     		bx	lr
 295              	.LVL18:
 296              	.L24:
 120:Transmitter2.c ****     }else if(len == 0){
 297              		.loc 1 120 0
 298 0028 0020     		movs	r0, #0
 299              	.LVL19:
 300 002a 7047     		bx	lr
 301              	.LVL20:
 302              	.L25:
 122:Transmitter2.c ****     }
 303              		.loc 1 122 0
 304 002c 0120     		movs	r0, #1
 305              	.LVL21:
 128:Transmitter2.c **** 
 306              		.loc 1 128 0
 307 002e 7047     		bx	lr
 308              	.L27:
 309              		.align	2
 310              	.L26:
 311 0030 00000000 		.word	.LANCHOR0
 312              		.cfi_endproc
 313              	.LFE64:
 314              		.size	tx_write, .-tx_write
 315              		.section	.text.tx_get_status,"ax",%progbits
 316              		.align	2
 317              		.global	tx_get_status
 318              		.thumb
 319              		.thumb_func
ARM GAS  C:\Users\HENRIC~1\AppData\Local\Temp\ccRS5BLb.s 			page 11


 320              		.type	tx_get_status, %function
 321              	tx_get_status:
 322              	.LFB65:
 135:Transmitter2.c ****     return _tx_sm.state;
 323              		.loc 1 135 0
 324              		.cfi_startproc
 325              		@ args = 0, pretend = 0, frame = 0
 326              		@ frame_needed = 0, uses_anonymous_args = 0
 327              		@ link register save eliminated.
 136:Transmitter2.c **** }
 328              		.loc 1 136 0
 329 0000 014B     		ldr	r3, .L29
 330 0002 1878     		ldrb	r0, [r3]	@ zero_extendqisi2
 137:Transmitter2.c **** 
 331              		.loc 1 137 0
 332 0004 7047     		bx	lr
 333              	.L30:
 334 0006 00BF     		.align	2
 335              	.L29:
 336 0008 00000000 		.word	.LANCHOR0
 337              		.cfi_endproc
 338              	.LFE65:
 339              		.size	tx_get_status, .-tx_get_status
 340              		.section	.text.tx_abort,"ax",%progbits
 341              		.align	2
 342              		.global	tx_abort
 343              		.thumb
 344              		.thumb_func
 345              		.type	tx_abort, %function
 346              	tx_abort:
 347              	.LFB66:
 142:Transmitter2.c ****     Tx_Timer_Stop();
 348              		.loc 1 142 0
 349              		.cfi_startproc
 350              		@ args = 0, pretend = 0, frame = 0
 351              		@ frame_needed = 0, uses_anonymous_args = 0
 352 0000 08B5     		push	{r3, lr}
 353              		.cfi_def_cfa_offset 8
 354              		.cfi_offset 3, -8
 355              		.cfi_offset 14, -4
 143:Transmitter2.c ****     _tx_sm.state = TX_DONE;
 356              		.loc 1 143 0
 357 0002 FFF7FEFF 		bl	Tx_Timer_Stop
 358              	.LVL22:
 144:Transmitter2.c ****     _tx_sm.buffer = NULL;
 359              		.loc 1 144 0
 360 0006 044B     		ldr	r3, .L33
 361 0008 0322     		movs	r2, #3
 362 000a 1A70     		strb	r2, [r3]
 145:Transmitter2.c ****     _tx_sm.buffer_len = 0;
 363              		.loc 1 145 0
 364 000c 0020     		movs	r0, #0
 365 000e 9860     		str	r0, [r3, #8]
 146:Transmitter2.c ****     CSMA_TX_Write(0);
 366              		.loc 1 146 0
 367 0010 1873     		strb	r0, [r3, #12]
 147:Transmitter2.c **** }
ARM GAS  C:\Users\HENRIC~1\AppData\Local\Temp\ccRS5BLb.s 			page 12


 368              		.loc 1 147 0
 369 0012 FFF7FEFF 		bl	CSMA_TX_Write
 370              	.LVL23:
 371 0016 08BD     		pop	{r3, pc}
 372              	.L34:
 373              		.align	2
 374              	.L33:
 375 0018 00000000 		.word	.LANCHOR0
 376              		.cfi_endproc
 377              	.LFE66:
 378              		.size	tx_abort, .-tx_abort
 379              		.bss
 380              		.align	2
 381              		.set	.LANCHOR0,. + 0
 382              		.type	_tx_sm, %object
 383              		.size	_tx_sm, 16
 384              	_tx_sm:
 385 0000 00000000 		.space	16
 385      00000000 
 385      00000000 
 385      00000000 
 386              		.text
 387              	.Letext0:
 388              		.file 2 "c:\\program files (x86)\\cypress\\psoc creator\\4.1\\psoc creator\\import\\gnu\\arm\\5.4.
 389              		.file 3 "c:\\program files (x86)\\cypress\\psoc creator\\4.1\\psoc creator\\import\\gnu\\arm\\5.4.
 390              		.file 4 "Transmitter2.h"
 391              		.file 5 "ChannelMonitor.h"
 392              		.file 6 "Generated_Source\\PSoC5/CSMA_TX.h"
 393              		.file 7 "Generated_Source\\PSoC5/Tx_Timer.h"
 394              		.file 8 "c:\\program files (x86)\\cypress\\psoc creator\\4.1\\psoc creator\\import\\gnu\\arm\\5.4.
 395              		.file 9 "Generated_Source\\PSoC5/Tx_Timer_int.h"
 396              		.file 10 "Generated_Source\\PSoC5/core_cm3.h"