ARM GAS  C:\Users\HENRIC~1\AppData\Local\Temp\ccQLIOwX.s 			page 1


   1              		.syntax unified
   2              		.cpu cortex-m3
   3              		.fpu softvfp
   4              		.eabi_attribute 20, 1
   5              		.eabi_attribute 21, 1
   6              		.eabi_attribute 23, 3
   7              		.eabi_attribute 24, 1
   8              		.eabi_attribute 25, 1
   9              		.eabi_attribute 26, 1
  10              		.eabi_attribute 30, 1
  11              		.eabi_attribute 34, 1
  12              		.eabi_attribute 18, 4
  13              		.thumb
  14              		.syntax unified
  15              		.file	"Uart.c"
  16              		.text
  17              	.Ltext0:
  18              		.cfi_sections	.debug_frame
  19              		.section	.text.uart_init,"ax",%progbits
  20              		.align	2
  21              		.global	uart_init
  22              		.thumb
  23              		.thumb_func
  24              		.type	uart_init, %function
  25              	uart_init:
  26              	.LFB63:
  27              		.file 1 "Uart.c"
   1:Uart.c        **** /**
   2:Uart.c        ****  * Uart
   3:Uart.c        ****  * @author Curt Henrichs
   4:Uart.c        ****  * @date 9-23-17
   5:Uart.c        ****  *
   6:Uart.c        ****  * USB CDC Virtual UART applicaiton interface module generalizes the hardware
   7:Uart.c        ****  * API for the specific use cases of the application. The ability to read,
   8:Uart.c        ****  * write, check if data is available, and handling of host configuration change
   9:Uart.c        ****  * is abstracted by this module.
  10:Uart.c        ****  */
  11:Uart.c        **** 
  12:Uart.c        **** //=============================================================================
  13:Uart.c        **** //                                  Libraries
  14:Uart.c        **** //=============================================================================
  15:Uart.c        **** 
  16:Uart.c        **** #include "Uart.h"
  17:Uart.c        **** #include <project.h>
  18:Uart.c        **** 
  19:Uart.c        **** //=============================================================================
  20:Uart.c        **** //                        Constant and Macro Defintions
  21:Uart.c        **** //=============================================================================
  22:Uart.c        **** 
  23:Uart.c        **** #define USBFS_DEVICE        (0u)    //! Device number as defined in hardware
  24:Uart.c        **** #define WAIT_TIMEOUT_COUNT  1000    //! Iterations of loop before timeout
  25:Uart.c        **** 
  26:Uart.c        **** //=============================================================================
  27:Uart.c        **** //                         Public Function Implementation
  28:Uart.c        **** //=============================================================================
  29:Uart.c        **** 
  30:Uart.c        **** /**
ARM GAS  C:\Users\HENRIC~1\AppData\Local\Temp\ccQLIOwX.s 			page 2


  31:Uart.c        ****  * USB UART initailization function will start the virtual serial port
  32:Uart.c        ****  */
  33:Uart.c        **** void uart_init(void){
  28              		.loc 1 33 0
  29              		.cfi_startproc
  30              		@ args = 0, pretend = 0, frame = 0
  31              		@ frame_needed = 0, uses_anonymous_args = 0
  32 0000 08B5     		push	{r3, lr}
  33              		.cfi_def_cfa_offset 8
  34              		.cfi_offset 3, -8
  35              		.cfi_offset 14, -4
  34:Uart.c        ****     USBUART_Start(USBFS_DEVICE,USBUART_5V_OPERATION);
  36              		.loc 1 34 0
  37 0002 0121     		movs	r1, #1
  38 0004 0020     		movs	r0, #0
  39 0006 FFF7FEFF 		bl	USBUART_Start
  40              	.LVL0:
  41 000a 08BD     		pop	{r3, pc}
  42              		.cfi_endproc
  43              	.LFE63:
  44              		.size	uart_init, .-uart_init
  45              		.section	.text.uart_update,"ax",%progbits
  46              		.align	2
  47              		.global	uart_update
  48              		.thumb
  49              		.thumb_func
  50              		.type	uart_update, %function
  51              	uart_update:
  52              	.LFB64:
  35:Uart.c        **** }
  36:Uart.c        **** 
  37:Uart.c        **** /**
  38:Uart.c        ****  * USB UART update function will handle configuration change from the USB host
  39:Uart.c        ****  * @return on connection true else false
  40:Uart.c        ****  */
  41:Uart.c        **** bool uart_update(void){
  53              		.loc 1 41 0
  54              		.cfi_startproc
  55              		@ args = 0, pretend = 0, frame = 0
  56              		@ frame_needed = 0, uses_anonymous_args = 0
  57 0000 08B5     		push	{r3, lr}
  58              		.cfi_def_cfa_offset 8
  59              		.cfi_offset 3, -8
  60              		.cfi_offset 14, -4
  61              	.LVL1:
  42:Uart.c        ****     bool retval = false;
  43:Uart.c        ****     //reconfiguration
  44:Uart.c        ****     if(USBUART_IsConfigurationChanged()){
  62              		.loc 1 44 0
  63 0002 FFF7FEFF 		bl	USBUART_IsConfigurationChanged
  64              	.LVL2:
  65 0006 30B1     		cbz	r0, .L5
  45:Uart.c        ****         if(USBUART_GetConfiguration()){
  66              		.loc 1 45 0
  67 0008 FFF7FEFF 		bl	USBUART_GetConfiguration
  68              	.LVL3:
  69 000c 28B1     		cbz	r0, .L6
ARM GAS  C:\Users\HENRIC~1\AppData\Local\Temp\ccQLIOwX.s 			page 3


  46:Uart.c        ****             USBUART_CDC_Init();
  70              		.loc 1 46 0
  71 000e FFF7FEFF 		bl	USBUART_CDC_Init
  72              	.LVL4:
  47:Uart.c        ****             retval = true;
  73              		.loc 1 47 0
  74 0012 0120     		movs	r0, #1
  75 0014 08BD     		pop	{r3, pc}
  76              	.LVL5:
  77              	.L5:
  42:Uart.c        ****     //reconfiguration
  78              		.loc 1 42 0
  79 0016 0020     		movs	r0, #0
  80 0018 08BD     		pop	{r3, pc}
  81              	.L6:
  82 001a 0020     		movs	r0, #0
  83              	.LVL6:
  48:Uart.c        ****         }
  49:Uart.c        ****     }
  50:Uart.c        ****     return retval;
  51:Uart.c        **** }
  84              		.loc 1 51 0
  85 001c 08BD     		pop	{r3, pc}
  86              		.cfi_endproc
  87              	.LFE64:
  88              		.size	uart_update, .-uart_update
  89 001e 00BF     		.section	.text.uart_has_connected,"ax",%progbits
  90              		.align	2
  91              		.global	uart_has_connected
  92              		.thumb
  93              		.thumb_func
  94              		.type	uart_has_connected, %function
  95              	uart_has_connected:
  96              	.LFB65:
  52:Uart.c        **** 
  53:Uart.c        **** /**
  54:Uart.c        ****  * USB UART has been connected by host
  55:Uart.c        ****  * @return true if USBUART is configured else false
  56:Uart.c        ****  */
  57:Uart.c        **** bool uart_has_connected(void){
  97              		.loc 1 57 0
  98              		.cfi_startproc
  99              		@ args = 0, pretend = 0, frame = 0
 100              		@ frame_needed = 0, uses_anonymous_args = 0
 101 0000 08B5     		push	{r3, lr}
 102              		.cfi_def_cfa_offset 8
 103              		.cfi_offset 3, -8
 104              		.cfi_offset 14, -4
  58:Uart.c        ****     return USBUART_GetConfiguration() != 0u;
 105              		.loc 1 58 0
 106 0002 FFF7FEFF 		bl	USBUART_GetConfiguration
 107              	.LVL7:
  59:Uart.c        **** }
 108              		.loc 1 59 0
 109 0006 0030     		adds	r0, r0, #0
 110 0008 18BF     		it	ne
 111 000a 0120     		movne	r0, #1
ARM GAS  C:\Users\HENRIC~1\AppData\Local\Temp\ccQLIOwX.s 			page 4


 112 000c 08BD     		pop	{r3, pc}
 113              		.cfi_endproc
 114              	.LFE65:
 115              		.size	uart_has_connected, .-uart_has_connected
 116 000e 00BF     		.section	.text.uart_has_data,"ax",%progbits
 117              		.align	2
 118              		.global	uart_has_data
 119              		.thumb
 120              		.thumb_func
 121              		.type	uart_has_data, %function
 122              	uart_has_data:
 123              	.LFB66:
  60:Uart.c        **** 
  61:Uart.c        **** /**
  62:Uart.c        ****  * USB UART received new data, needs to be taken from internal buffer
  63:Uart.c        ****  * @return true if new data else false
  64:Uart.c        ****  */
  65:Uart.c        **** bool uart_has_data(void){
 124              		.loc 1 65 0
 125              		.cfi_startproc
 126              		@ args = 0, pretend = 0, frame = 0
 127              		@ frame_needed = 0, uses_anonymous_args = 0
 128 0000 08B5     		push	{r3, lr}
 129              		.cfi_def_cfa_offset 8
 130              		.cfi_offset 3, -8
 131              		.cfi_offset 14, -4
  66:Uart.c        ****     return USBUART_GetConfiguration() ? USBUART_DataIsReady() : false;
 132              		.loc 1 66 0
 133 0002 FFF7FEFF 		bl	USBUART_GetConfiguration
 134              	.LVL8:
 135 0006 20B1     		cbz	r0, .L12
 136              		.loc 1 66 0 is_stmt 0 discriminator 1
 137 0008 FFF7FEFF 		bl	USBUART_DataIsReady
 138              	.LVL9:
 139 000c 18B1     		cbz	r0, .L13
 140              		.loc 1 66 0
 141 000e 0120     		movs	r0, #1
 142 0010 08BD     		pop	{r3, pc}
 143              	.L12:
 144 0012 0020     		movs	r0, #0
 145 0014 08BD     		pop	{r3, pc}
 146              	.L13:
 147 0016 0020     		movs	r0, #0
  67:Uart.c        **** }
 148              		.loc 1 67 0 is_stmt 1
 149 0018 08BD     		pop	{r3, pc}
 150              		.cfi_endproc
 151              	.LFE66:
 152              		.size	uart_has_data, .-uart_has_data
 153 001a 00BF     		.section	.text.uart_read,"ax",%progbits
 154              		.align	2
 155              		.global	uart_read
 156              		.thumb
 157              		.thumb_func
 158              		.type	uart_read, %function
 159              	uart_read:
 160              	.LFB67:
ARM GAS  C:\Users\HENRIC~1\AppData\Local\Temp\ccQLIOwX.s 			page 5


  68:Uart.c        **** 
  69:Uart.c        **** /**
  70:Uart.c        ****  * Get data from USB UART internal receive buffer.
  71:Uart.c        ****  * @param str is pointer to buffer to write into
  72:Uart.c        ****  * @param str_len is buffer size
  73:Uart.c        ****  * @return number of bytes read from UART internal buffer into supplied
  74:Uart.c        ****  */
  75:Uart.c        **** uint16_t uart_read(char* str, uint16_t str_len){
 161              		.loc 1 75 0
 162              		.cfi_startproc
 163              		@ args = 0, pretend = 0, frame = 0
 164              		@ frame_needed = 0, uses_anonymous_args = 0
 165              	.LVL10:
  76:Uart.c        ****     
  77:Uart.c        ****     //parameter check
  78:Uart.c        ****     if(str == NULL || str_len != USBUART_BUFFER_SIZE){
 166              		.loc 1 78 0
 167 0000 68B1     		cbz	r0, .L17
 168              		.loc 1 78 0 is_stmt 0 discriminator 1
 169 0002 4029     		cmp	r1, #64
 170 0004 0DD1     		bne	.L18
  75:Uart.c        ****     
 171              		.loc 1 75 0 is_stmt 1
 172 0006 10B5     		push	{r4, lr}
 173              		.cfi_def_cfa_offset 8
 174              		.cfi_offset 4, -8
 175              		.cfi_offset 14, -4
 176 0008 0446     		mov	r4, r0
 177              	.LVL11:
  79:Uart.c        ****         return 0;   
  80:Uart.c        ****     }
  81:Uart.c        ****     
  82:Uart.c        ****     //service CDC interface
  83:Uart.c        ****     uint16_t count = 0;
  84:Uart.c        ****     if(USBUART_GetConfiguration()){
 178              		.loc 1 84 0
 179 000a FFF7FEFF 		bl	USBUART_GetConfiguration
 180              	.LVL12:
 181 000e 50B1     		cbz	r0, .L19
  85:Uart.c        ****         //input data from host
  86:Uart.c        ****         if(USBUART_DataIsReady()){
 182              		.loc 1 86 0
 183 0010 FFF7FEFF 		bl	USBUART_DataIsReady
 184              	.LVL13:
 185 0014 48B1     		cbz	r0, .L20
  87:Uart.c        ****             count = USBUART_GetAll((uint8_t*)(str));
 186              		.loc 1 87 0
 187 0016 2046     		mov	r0, r4
 188 0018 FFF7FEFF 		bl	USBUART_GetAll
 189              	.LVL14:
 190 001c 10BD     		pop	{r4, pc}
 191              	.LVL15:
 192              	.L17:
 193              		.cfi_def_cfa_offset 0
 194              		.cfi_restore 4
 195              		.cfi_restore 14
  79:Uart.c        ****         return 0;   
ARM GAS  C:\Users\HENRIC~1\AppData\Local\Temp\ccQLIOwX.s 			page 6


 196              		.loc 1 79 0
 197 001e 0020     		movs	r0, #0
 198              	.LVL16:
 199 0020 7047     		bx	lr
 200              	.LVL17:
 201              	.L18:
 202 0022 0020     		movs	r0, #0
 203              	.LVL18:
  88:Uart.c        ****         }
  89:Uart.c        ****     }
  90:Uart.c        ****     return count;
  91:Uart.c        **** }
 204              		.loc 1 91 0
 205 0024 7047     		bx	lr
 206              	.LVL19:
 207              	.L19:
 208              		.cfi_def_cfa_offset 8
 209              		.cfi_offset 4, -8
 210              		.cfi_offset 14, -4
  83:Uart.c        ****     if(USBUART_GetConfiguration()){
 211              		.loc 1 83 0
 212 0026 0020     		movs	r0, #0
 213 0028 10BD     		pop	{r4, pc}
 214              	.LVL20:
 215              	.L20:
 216 002a 0020     		movs	r0, #0
 217              		.loc 1 91 0
 218 002c 10BD     		pop	{r4, pc}
 219              		.cfi_endproc
 220              	.LFE67:
 221              		.size	uart_read, .-uart_read
 222 002e 00BF     		.section	.text.uart_write,"ax",%progbits
 223              		.align	2
 224              		.global	uart_write
 225              		.thumb
 226              		.thumb_func
 227              		.type	uart_write, %function
 228              	uart_write:
 229              	.LFB68:
  92:Uart.c        **** 
  93:Uart.c        **** /**
  94:Uart.c        ****  * Write data to USB UART internal transmit buffer.
  95:Uart.c        ****  * @param str is pointer to buffer to read from
  96:Uart.c        ****  * @param str_len is size of buffer to write out.
  97:Uart.c        ****  * @return true of successfully wrote data, else false
  98:Uart.c        ****  */
  99:Uart.c        **** bool uart_write(const char* str, uint16_t str_len){
 230              		.loc 1 99 0
 231              		.cfi_startproc
 232              		@ args = 0, pretend = 0, frame = 0
 233              		@ frame_needed = 0, uses_anonymous_args = 0
 234              	.LVL21:
 100:Uart.c        ****     bool retVal = false;
 101:Uart.c        ****     
 102:Uart.c        ****     //parameter check
 103:Uart.c        ****     if(str == NULL || str_len > USBUART_BUFFER_SIZE){
 235              		.loc 1 103 0
ARM GAS  C:\Users\HENRIC~1\AppData\Local\Temp\ccQLIOwX.s 			page 7


 236 0000 D8B1     		cbz	r0, .L28
 237              		.loc 1 103 0 is_stmt 0 discriminator 1
 238 0002 4029     		cmp	r1, #64
 239 0004 1BD8     		bhi	.L29
 104:Uart.c        ****         return false;
 105:Uart.c        ****     }else if(str_len == 0){
 240              		.loc 1 105 0 is_stmt 1
 241 0006 E1B1     		cbz	r1, .L30
  99:Uart.c        ****     bool retVal = false;
 242              		.loc 1 99 0
 243 0008 70B5     		push	{r4, r5, r6, lr}
 244              		.cfi_def_cfa_offset 16
 245              		.cfi_offset 4, -16
 246              		.cfi_offset 5, -12
 247              		.cfi_offset 6, -8
 248              		.cfi_offset 14, -4
 249 000a 0646     		mov	r6, r0
 250 000c 0D46     		mov	r5, r1
 106:Uart.c        ****         return true;
 107:Uart.c        ****     }
 108:Uart.c        **** 
 109:Uart.c        ****     //send data
 110:Uart.c        ****     if(USBUART_GetConfiguration()){       
 251              		.loc 1 110 0
 252 000e FFF7FEFF 		bl	USBUART_GetConfiguration
 253              	.LVL22:
 254 0012 18B9     		cbnz	r0, .L31
 255 0014 70BD     		pop	{r4, r5, r6, pc}
 256              	.LVL23:
 257              	.L27:
 258              	.LBB2:
 111:Uart.c        ****         //wait for uart to be ready
 112:Uart.c        ****         int16_t timeout_count = WAIT_TIMEOUT_COUNT;
 113:Uart.c        ****         while(!USBUART_CDCIsReady() && timeout_count > 0){
 114:Uart.c        ****             timeout_count--;
 259              		.loc 1 114 0
 260 0016 013C     		subs	r4, r4, #1
 261              	.LVL24:
 262 0018 24B2     		sxth	r4, r4
 263              	.LVL25:
 264 001a 01E0     		b	.L25
 265              	.LVL26:
 266              	.L31:
 267              	.LBE2:
 268 001c 4FF47A74 		mov	r4, #1000
 269              	.L25:
 270              	.LVL27:
 271              	.LBB3:
 113:Uart.c        ****             timeout_count--;
 272              		.loc 1 113 0
 273 0020 FFF7FEFF 		bl	USBUART_CDCIsReady
 274              	.LVL28:
 275 0024 08B9     		cbnz	r0, .L26
 113:Uart.c        ****             timeout_count--;
 276              		.loc 1 113 0 is_stmt 0 discriminator 1
 277 0026 002C     		cmp	r4, #0
 278 0028 F5DC     		bgt	.L27
ARM GAS  C:\Users\HENRIC~1\AppData\Local\Temp\ccQLIOwX.s 			page 8


 279              	.L26:
 115:Uart.c        ****         }
 116:Uart.c        ****         //if not timeout
 117:Uart.c        ****         if(timeout_count > 0){
 280              		.loc 1 117 0 is_stmt 1
 281 002a 002C     		cmp	r4, #0
 282 002c 0BDD     		ble	.L32
 283              	.LVL29:
 118:Uart.c        ****             retVal = true;
 119:Uart.c        ****             USBUART_PutData((const uint8_t*)(str),str_len);
 284              		.loc 1 119 0
 285 002e 2946     		mov	r1, r5
 286 0030 3046     		mov	r0, r6
 287 0032 FFF7FEFF 		bl	USBUART_PutData
 288              	.LVL30:
 118:Uart.c        ****             retVal = true;
 289              		.loc 1 118 0
 290 0036 0120     		movs	r0, #1
 291 0038 70BD     		pop	{r4, r5, r6, pc}
 292              	.LVL31:
 293              	.L28:
 294              		.cfi_def_cfa_offset 0
 295              		.cfi_restore 4
 296              		.cfi_restore 5
 297              		.cfi_restore 6
 298              		.cfi_restore 14
 299              	.LBE3:
 104:Uart.c        ****     }else if(str_len == 0){
 300              		.loc 1 104 0
 301 003a 0020     		movs	r0, #0
 302              	.LVL32:
 120:Uart.c        ****         }       
 121:Uart.c        ****     } 
 122:Uart.c        ****  
 123:Uart.c        ****     return retVal;
 124:Uart.c        **** }...
 303              		.loc 1 124 0
 304 003c 7047     		bx	lr
 305              	.LVL33:
 306              	.L29:
 104:Uart.c        ****     }else if(str_len == 0){
 307              		.loc 1 104 0
 308 003e 0020     		movs	r0, #0
 309              	.LVL34:
 310 0040 7047     		bx	lr
 311              	.LVL35:
 312              	.L30:
 106:Uart.c        ****         return true;
 313              		.loc 1 106 0
 314 0042 0120     		movs	r0, #1
 315              	.LVL36:
 316 0044 7047     		bx	lr
 317              	.LVL37:
 318              	.L32:
 319              		.cfi_def_cfa_offset 16
 320              		.cfi_offset 4, -16
 321              		.cfi_offset 5, -12
ARM GAS  C:\Users\HENRIC~1\AppData\Local\Temp\ccQLIOwX.s 			page 9


 322              		.cfi_offset 6, -8
 323              		.cfi_offset 14, -4
 100:Uart.c        ****     bool retVal = false;
 324              		.loc 1 100 0
 325 0046 0020     		movs	r0, #0
 326              		.loc 1 124 0
 327 0048 70BD     		pop	{r4, r5, r6, pc}
 328              		.cfi_endproc
 329              	.LFE68:
 330              		.size	uart_write, .-uart_write
 331 004a 00BF     		.text
 332              	.Letext0:
 333              		.file 2 "c:\\program files (x86)\\cypress\\psoc creator\\4.1\\psoc creator\\import\\gnu\\arm\\5.4.
 334              		.file 3 "c:\\program files (x86)\\cypress\\psoc creator\\4.1\\psoc creator\\import\\gnu\\arm\\5.4.
 335              		.file 4 "Generated_Source\\PSoC5/USBUART.h"
 336              		.file 5 "Generated_Source\\PSoC5/USBUART_cdc.h"
 337              		.file 6 "Generated_Source\\PSoC5/core_cm3.h"