
Milestone_5.elf:     file format elf32-littlenios2
Milestone_5.elf
architecture: nios2, flags 0x00000112:
EXEC_P, HAS_SYMS, D_PAGED
start address 0x000001b4

Program Header:
    LOAD off    0x00001000 vaddr 0x00000000 paddr 0x00000000 align 2**12
         filesz 0x00000020 memsz 0x00000020 flags r-x
    LOAD off    0x00001020 vaddr 0x00000020 paddr 0x00000020 align 2**12
         filesz 0x000150b4 memsz 0x000150b4 flags r-x
    LOAD off    0x000160d4 vaddr 0x000150d4 paddr 0x00016bc8 align 2**12
         filesz 0x00001af4 memsz 0x00001af4 flags rw-
    LOAD off    0x000186bc vaddr 0x000186bc paddr 0x000186bc align 2**12
         filesz 0x00000000 memsz 0x000004e0 flags rw-

Sections:
Idx Name          Size      VMA       LMA       File off  Algn
  0 .entry        00000020  00000000  00000000  00001000  2**5
                  CONTENTS, ALLOC, LOAD, READONLY, CODE
  1 .exceptions   00000194  00000020  00000020  00001020  2**2
                  CONTENTS, ALLOC, LOAD, READONLY, CODE
  2 .text         00014234  000001b4  000001b4  000011b4  2**2
                  CONTENTS, ALLOC, LOAD, READONLY, CODE
  3 .rodata       00000cec  000143e8  000143e8  000153e8  2**2
                  CONTENTS, ALLOC, LOAD, READONLY, DATA
  4 .rwdata       00001af4  000150d4  00016bc8  000160d4  2**2
                  CONTENTS, ALLOC, LOAD, DATA, SMALL_DATA
  5 .bss          000004e0  000186bc  000186bc  000186bc  2**2
                  ALLOC, SMALL_DATA
  6 .comment      00000026  00000000  00000000  00017bc8  2**0
                  CONTENTS, READONLY
  7 .debug_aranges 00001238  00000000  00000000  00017bf0  2**3
                  CONTENTS, READONLY, DEBUGGING
  8 .debug_pubnames 00001bff  00000000  00000000  00018e28  2**0
                  CONTENTS, READONLY, DEBUGGING
  9 .debug_info   00033a1f  00000000  00000000  0001aa27  2**0
                  CONTENTS, READONLY, DEBUGGING
 10 .debug_abbrev 0000b29e  00000000  00000000  0004e446  2**0
                  CONTENTS, READONLY, DEBUGGING
 11 .debug_line   0001cd56  00000000  00000000  000596e4  2**0
                  CONTENTS, READONLY, DEBUGGING
 12 .debug_frame  00002660  00000000  00000000  0007643c  2**2
                  CONTENTS, READONLY, DEBUGGING
 13 .debug_str    00002c87  00000000  00000000  00078a9c  2**0
                  CONTENTS, READONLY, DEBUGGING
 14 .debug_loc    00012c1a  00000000  00000000  0007b723  2**0
                  CONTENTS, READONLY, DEBUGGING
 15 .debug_alt_sim_info 00000030  00000000  00000000  0008e340  2**2
                  CONTENTS, READONLY, DEBUGGING
 16 .debug_ranges 00000b30  00000000  00000000  0008e370  2**3
                  CONTENTS, READONLY, DEBUGGING
 17 .thread_model 00000003  00000000  00000000  0009308a  2**0
                  CONTENTS, READONLY
 18 .cpu          00000003  00000000  00000000  0009308d  2**0
                  CONTENTS, READONLY
 19 .qsys         00000001  00000000  00000000  00093090  2**0
                  CONTENTS, READONLY
 20 .simulation_enabled 00000001  00000000  00000000  00093091  2**0
                  CONTENTS, READONLY
 21 .sysid_hash   00000004  00000000  00000000  00093092  2**0
                  CONTENTS, READONLY
 22 .sysid_base   00000004  00000000  00000000  00093096  2**0
                  CONTENTS, READONLY
 23 .sysid_time   00000004  00000000  00000000  0009309a  2**0
                  CONTENTS, READONLY
 24 .stderr_dev   0000000b  00000000  00000000  0009309e  2**0
                  CONTENTS, READONLY
 25 .stdin_dev    0000000b  00000000  00000000  000930a9  2**0
                  CONTENTS, READONLY
 26 .stdout_dev   0000000b  00000000  00000000  000930b4  2**0
                  CONTENTS, READONLY
 27 .sopc_system_name 00000011  00000000  00000000  000930bf  2**0
                  CONTENTS, READONLY
 28 .quartus_project_dir 00000040  00000000  00000000  000930d0  2**0
                  CONTENTS, READONLY
 29 .sopcinfo     00093cf1  00000000  00000000  00093110  2**0
                  CONTENTS, READONLY
SYMBOL TABLE:
00000000 l    d  .entry	00000000 .entry
00000020 l    d  .exceptions	00000000 .exceptions
000001b4 l    d  .text	00000000 .text
000143e8 l    d  .rodata	00000000 .rodata
000150d4 l    d  .rwdata	00000000 .rwdata
000186bc l    d  .bss	00000000 .bss
00000000 l    d  .comment	00000000 .comment
00000000 l    d  .debug_aranges	00000000 .debug_aranges
00000000 l    d  .debug_pubnames	00000000 .debug_pubnames
00000000 l    d  .debug_info	00000000 .debug_info
00000000 l    d  .debug_abbrev	00000000 .debug_abbrev
00000000 l    d  .debug_line	00000000 .debug_line
00000000 l    d  .debug_frame	00000000 .debug_frame
00000000 l    d  .debug_str	00000000 .debug_str
00000000 l    d  .debug_loc	00000000 .debug_loc
00000000 l    d  .debug_alt_sim_info	00000000 .debug_alt_sim_info
00000000 l    d  .debug_ranges	00000000 .debug_ranges
000001fc l       .text	00000000 alt_after_alt_main
00000000 l    df *ABS*	00000000 alt_irq_handler.c
00000000 l    df *ABS*	00000000 Camera.c
000186e0 l     O .bss	00000002 fd
000186bc l     O .bss	00000001 pixel.1403
000186c0 l     O .bss	00000004 vgaPtr.1402
000186c4 l     O .bss	00000004 col.1401
000186c8 l     O .bss	00000004 row.1400
000186cc l     O .bss	00000002 prevPixel.1519
000186ce l     O .bss	00000002 vpixel.1518
000186d0 l     O .bss	00000002 pixel.1517
000186d4 l     O .bss	00000004 vgaPtr.1516
000186d8 l     O .bss	00000004 col.1515
000186dc l     O .bss	00000004 row.1514
00000000 l    df *ABS*	00000000 CommandLine.c
000150d4 l     O .rwdata	0000000c HELP
00000af0 l     F .text	0000017c _help
00000954 l     F .text	000000d0 _generateList
00018744 l     O .bss	00000050 inputStr
00018794 l     O .bss	00000050 cmdStr
00000a24 l     F .text	000000cc cmd_parseInput
00018720 l     O .bss	00000024 commandList
00000000 l    df *ABS*	00000000 CameraCMD.c
00000c6c l     F .text	00000094 _readCam
00000d00 l     F .text	0000008c _writeCam
00000d8c l     F .text	00000060 _displayImage
00000dec l     F .text	000002a4 _track
000011d0 l     F .text	00000224 _track_inputParsing
00001090 l     F .text	00000140 _track_boundingBox
000186e4 l     O .bss	00000004 ptr.2593
000186e8 l     O .bss	00000001 pixel.2592
000186e9 l     O .bss	00000001 col.2591
000186ea l     O .bss	00000001 row.2590
00000000 l    df *ABS*	00000000 MemoryCMD.c
000013f4 l     F .text	0000009c _read
00001490 l     F .text	00000088 _write
00001518 l     F .text	00000290 _printMem
00000000 l    df *ABS*	00000000 ServoCMD.c
000017a8 l     F .text	000000bc _pan
00001864 l     F .text	000000bc _tilt
00000000 l    df *ABS*	00000000 I2C.c
00000000 l    df *ABS*	00000000 LCD.c
00001ec4 l     F .text	0000008c lcd_util_pollBusyFlag
00000000 l    df *ABS*	00000000 PWM.c
00000000 l    df *ABS*	00000000 Pushbutton.c
00000000 l    df *ABS*	00000000 Timer.c
00000000 l       *ABS*	00000000 irq0
00000002 l       *ABS*	00000000 irq2
00000000 l    df *ABS*	00000000 VGA.c
00000000 l    df *ABS*	00000000 Servo.c
00000000 l    df *ABS*	00000000 main.c
00000000 l    df *ABS*	00000000 lib2-divmod.c
00002768 l     F .text	0000007c udivmodsi4
00000000 l    df *ABS*	00000000 ctype_.c
00014b91 l     O .rodata	00000180 _ctype_b
00000000 l    df *ABS*	00000000 fgets.c
00000000 l    df *ABS*	00000000 findfp.c
00002a20 l     F .text	00000058 std
00002b2c l     F .text	00000008 __fp_lock
00002b34 l     F .text	00000008 __fp_unlock
00000000 l    df *ABS*	00000000 fwalk.c
00000000 l    df *ABS*	00000000 impure.c
00015140 l     O .rwdata	00000400 impure_data
00000000 l    df *ABS*	00000000 mallocr.c
00000000 l    df *ABS*	00000000 memchr.c
00000000 l    df *ABS*	00000000 memcpy.c
00000000 l    df *ABS*	00000000 memset.c
00000000 l    df *ABS*	00000000 printf.c
00000000 l    df *ABS*	00000000 putchar.c
00000000 l    df *ABS*	00000000 puts.c
00000000 l    df *ABS*	00000000 refill.c
00003ad0 l     F .text	0000001c lflush
00000000 l    df *ABS*	00000000 sbrkr.c
00000000 l    df *ABS*	00000000 sprintf.c
00000000 l    df *ABS*	00000000 sscanf.c
00003c30 l     F .text	00000008 eofread
00000000 l    df *ABS*	00000000 stdio.c
00000000 l    df *ABS*	00000000 strcat.c
00000000 l    df *ABS*	00000000 strcmp.c
00000000 l    df *ABS*	00000000 strcpy.c
00000000 l    df *ABS*	00000000 strlen.c
00000000 l    df *ABS*	00000000 vfprintf.c
000040dc l     F .text	00000058 __sprint_r
00014d8a l     O .rodata	00000010 blanks.3452
00014d7a l     O .rodata	00000010 zeroes.3453
00000000 l    df *ABS*	00000000 vfscanf.c
00014da2 l     O .rodata	00000022 basefix.3357
00000000 l    df *ABS*	00000000 writer.c
00000000 l    df *ABS*	00000000 wsetup.c
00000000 l    df *ABS*	00000000 closer.c
00000000 l    df *ABS*	00000000 dtoa.c
000079a8 l     F .text	00000218 quorem
00000000 l    df *ABS*	00000000 fclose.c
00000000 l    df *ABS*	00000000 fflush.c
00000000 l    df *ABS*	00000000 fread.c
00000000 l    df *ABS*	00000000 mallocr.c
00000000 l    df *ABS*	00000000 fvwrite.c
00000000 l    df *ABS*	00000000 int_errno.c
00000000 l    df *ABS*	00000000 iswspace.c
00000000 l    df *ABS*	00000000 locale.c
00016b9c l     O .rwdata	00000004 charset
00014de4 l     O .rodata	00000030 lconv
00000000 l    df *ABS*	00000000 lseekr.c
00000000 l    df *ABS*	00000000 makebuf.c
00000000 l    df *ABS*	00000000 mbrtowc.c
00000000 l    df *ABS*	00000000 mbtowc_r.c
00000000 l    df *ABS*	00000000 memmove.c
00000000 l    df *ABS*	00000000 mprec.c
00014f2c l     O .rodata	0000000c p05.2458
00000000 l    df *ABS*	00000000 putc.c
00000000 l    df *ABS*	00000000 readr.c
00000000 l    df *ABS*	00000000 mallocr.c
00000000 l    df *ABS*	00000000 s_isinfd.c
00000000 l    df *ABS*	00000000 s_isnand.c
00000000 l    df *ABS*	00000000 sccl.c
00000000 l    df *ABS*	00000000 sf_nan.c
00000000 l    df *ABS*	00000000 strtod.c
0000be40 l     F .text	00000048 match
00015968 l     O .rwdata	00000014 fpi.1950
00014f48 l     O .rodata	00000028 tinytens
00015954 l     O .rwdata	00000014 fpinan.1986
00000000 l    df *ABS*	00000000 strtol.c
00000000 l    df *ABS*	00000000 strtoll_r.c
00000000 l    df *ABS*	00000000 strtoul.c
00000000 l    df *ABS*	00000000 strtoull_r.c
00000000 l    df *ABS*	00000000 ungetc.c
00000000 l    df *ABS*	00000000 wbuf.c
00000000 l    df *ABS*	00000000 mallocr.c
00000000 l    df *ABS*	00000000 fstatr.c
00000000 l    df *ABS*	00000000 gdtoa-gethex.c
0000e478 l     F .text	00000024 htinit
0000e504 l     F .text	000000b0 rshift
00000000 l    df *ABS*	00000000 gdtoa-hexnan.c
0000ed6c l     F .text	0000004c L_shift
00000000 l    df *ABS*	00000000 isattyr.c
00000000 l    df *ABS*	00000000 libgcc2.c
00000000 l    df *ABS*	00000000 libgcc2.c
00000000 l    df *ABS*	00000000 libgcc2.c
00000000 l    df *ABS*	00000000 libgcc2.c
00000000 l    df *ABS*	00000000 fp-bit.c
00000000 l    df *ABS*	00000000 fp-bit.c
00000000 l    df *ABS*	00000000 fp-bit.c
00000000 l    df *ABS*	00000000 dp-bit.c
0000fea0 l     F .text	00000410 _fpadd_parts
00000000 l    df *ABS*	00000000 dp-bit.c
00000000 l    df *ABS*	00000000 dp-bit.c
00000000 l    df *ABS*	00000000 dp-bit.c
00000000 l    df *ABS*	00000000 dp-bit.c
00000000 l    df *ABS*	00000000 dp-bit.c
00000000 l    df *ABS*	00000000 dp-bit.c
00000000 l    df *ABS*	00000000 dp-bit.c
00000000 l    df *ABS*	00000000 dp-bit.c
00000000 l    df *ABS*	00000000 dp-bit.c
00000000 l    df *ABS*	00000000 dp-bit.c
00000000 l    df *ABS*	00000000 dp-bit.c
00000000 l    df *ABS*	00000000 dp-bit.c
00000000 l    df *ABS*	00000000 dp-bit.c
00000000 l    df *ABS*	00000000 libgcc2.c
00000000 l    df *ABS*	00000000 libgcc2.c
00000000 l    df *ABS*	00000000 fp-bit.c
00000000 l    df *ABS*	00000000 fp-bit.c
00000000 l    df *ABS*	00000000 fp-bit.c
00000000 l    df *ABS*	00000000 dp-bit.c
00000000 l    df *ABS*	00000000 dp-bit.c
00000000 l    df *ABS*	00000000 dp-bit.c
00000000 l    df *ABS*	00000000 fp-bit.c
00000000 l    df *ABS*	00000000 alt_close.c
00011a54 l     F .text	00000060 alt_get_errno
00000000 l    df *ABS*	00000000 alt_dev.c
00011ab4 l     F .text	0000002c alt_dev_null_write
00000000 l    df *ABS*	00000000 alt_errno.c
00000000 l    df *ABS*	00000000 alt_fstat.c
00011bb4 l     F .text	00000060 alt_get_errno
00000000 l    df *ABS*	00000000 alt_isatty.c
00011cd4 l     F .text	00000060 alt_get_errno
00000000 l    df *ABS*	00000000 alt_load.c
00011db4 l     F .text	0000006c alt_load_section
00000000 l    df *ABS*	00000000 alt_lseek.c
00011f10 l     F .text	00000060 alt_get_errno
00000000 l    df *ABS*	00000000 alt_main.c
00000000 l    df *ABS*	00000000 alt_malloc_lock.c
00000000 l    df *ABS*	00000000 alt_read.c
0001213c l     F .text	00000060 alt_get_errno
00000000 l    df *ABS*	00000000 alt_release_fd.c
00000000 l    df *ABS*	00000000 alt_sbrk.c
00016bb8 l     O .rwdata	00000004 heap_end
00000000 l    df *ABS*	00000000 alt_write.c
000123d8 l     F .text	00000060 alt_get_errno
00000000 l    df *ABS*	00000000 alt_sys_init.c
00015b24 l     O .rwdata	00001060 jtag_uart_0
000124c8 l     F .text	00000038 alt_dev_reg
00000000 l    df *ABS*	00000000 altera_avalon_jtag_uart_fd.c
00000000 l    df *ABS*	00000000 altera_avalon_jtag_uart_init.c
00012708 l     F .text	00000228 altera_avalon_jtag_uart_irq
00012930 l     F .text	000000b0 altera_avalon_jtag_uart_timeout
00000000 l    df *ABS*	00000000 altera_avalon_jtag_uart_ioctl.c
00000000 l    df *ABS*	00000000 altera_avalon_jtag_uart_read.c
00000000 l    df *ABS*	00000000 altera_avalon_jtag_uart_write.c
00000000 l    df *ABS*	00000000 altera_avalon_timer_sc.c
00012fac l     F .text	00000070 alt_avalon_timer_sc_irq
00000000 l    df *ABS*	00000000 alt_alarm_start.c
00000000 l    df *ABS*	00000000 alt_dcache_flush_all.c
00000000 l    df *ABS*	00000000 alt_dev_llist_insert.c
000132f8 l     F .text	00000060 alt_get_errno
00000000 l    df *ABS*	00000000 alt_do_ctors.c
00000000 l    df *ABS*	00000000 alt_do_dtors.c
00000000 l    df *ABS*	00000000 alt_icache_flush_all.c
00000000 l    df *ABS*	00000000 alt_iic.c
00000000 l    df *ABS*	00000000 alt_iic_isr_register.c
00000000 l    df *ABS*	00000000 alt_io_redirect.c
0001371c l     F .text	000000c4 alt_open_fd
00000000 l    df *ABS*	00000000 alt_irq_vars.c
00000000 l    df *ABS*	00000000 alt_open.c
00013858 l     F .text	000000dc alt_file_locked
00013abc l     F .text	00000060 alt_get_errno
00000000 l    df *ABS*	00000000 alt_tick.c
00000000 l    df *ABS*	00000000 altera_nios2_qsys_irq.c
00000000 l    df *ABS*	00000000 alt_find_dev.c
00000000 l    df *ABS*	00000000 alt_find_file.c
00000000 l    df *ABS*	00000000 alt_get_fd.c
00000000 l    df *ABS*	00000000 alt_icache_flush.c
00000000 l    df *ABS*	00000000 atexit.c
00000000 l    df *ABS*	00000000 exit.c
00000000 l    df *ABS*	00000000 memcmp.c
00000000 l    df *ABS*	00000000 __atexit.c
00000000 l    df *ABS*	00000000 __call_atexit.c
000141d0 l     F .text	00000004 register_fini
00000000 l    df *ABS*	00000000 alt_exit.c
00014384 l     F .text	00000040 alt_sim_halt
00003834 g     F .text	0000001c putchar
0000a8c8 g     F .text	00000094 _mprec_log10
0000a9b4 g     F .text	00000088 __any_on
0000f000 g     F .text	00000070 _isatty_r
00014f04 g     O .rodata	00000028 __mprec_tinytens
00011f70 g     F .text	0000006c alt_main
00003fdc g     F .text	0000008c strcpy
00003858 g     F .text	000000a0 _puts_r
0001890c g     O .bss	00000100 alt_irq
0000a0d0 g     F .text	00000078 _lseek_r
0000246c g     F .text	00000034 servo_init
000002c0 g     F .text	00000204 cam_imageCapture
00016bc8 g       *ABS*	00000000 __flash_rwdata_start
000109c0 g     F .text	00000088 __eqdf2
00002184 g     F .text	00000098 timer_delay
00002148 g     F .text	0000003c pushbutton_read
00018b9c g       *ABS*	00000000 __alt_heap_start
000037bc g     F .text	00000044 printf
00003d4c g     F .text	00000068 __sseek
00002a88 g     F .text	000000a4 __sinit
0000e204 g     F .text	00000130 __swbuf_r
0000a030 g     F .text	00000084 _setlocale_r
00002b88 g     F .text	00000068 __sfmoreglue
0000e1e8 g     F .text	0000001c ungetc
00011ffc g     F .text	00000020 __malloc_unlock
0001511c g     O .rwdata	0000000c WR
0000be88 g     F .text	000014e4 _strtod_r
000150e0 g     O .rwdata	0000000c RDCAMREG
0000a3dc g     F .text	000000e0 memmove
000024a0 g     F .text	00000070 servo_pan
00002b78 g     F .text	00000010 _cleanup
0000aa3c g     F .text	000000bc _Balloc
00001cfc g     F .text	0000002c lcd_clr
00010ad0 g     F .text	00000088 __gtdf2
00000000  w      *UND*	00000000 __errno
00001de0 g     F .text	000000e4 lcd_printString
00000000 g     F .entry	0000001c __reset
00000020 g       *ABS*	00000000 __flash_exceptions_start
0000e404 g     F .text	00000074 _fstat_r
000186f8 g     O .bss	00000004 errno
00007684 g     F .text	00000024 __svfscanf
000112b8 g     F .text	0000002c __make_fp
0001870c g     O .bss	00000004 alt_argv
0001eb84 g       *ABS*	00000000 _gp
000020a0 g     F .text	00000050 PWM_writeOCRB
000029fc g     F .text	00000024 fgets
000159a4 g     O .rwdata	00000180 alt_fd_list
0000221c g     F .text	00000124 timer_interrupt_init
00015104 g     O .rwdata	0000000c TRACK
00003850 g     F .text	00000008 _putchar_r
00015128 g     O .rwdata	0000000c PAN
00013ce0 g     F .text	00000094 alt_find_dev
00003684 g     F .text	000000a0 memcpy
0000edb8 g     F .text	00000248 __hexnan
00002b6c g     F .text	0000000c _cleanup_r
00010cf0 g     F .text	000000f8 __floatsidf
000137e0 g     F .text	00000078 alt_io_redirect
00010be0 g     F .text	00000088 __ltdf2
000143e8 g       *ABS*	00000000 __DTOR_END__
000038f8 g     F .text	00000014 puts
0000a35c g     F .text	00000040 mbrtowc
000076a8 g     F .text	00000068 _vfscanf_r
0000a818 g     F .text	000000b0 __ratio
00012b48 g     F .text	00000224 altera_avalon_jtag_uart_read
00000000  w      *UND*	00000000 malloc
00003800 g     F .text	00000034 _printf_r
00800000 g       *ABS*	00000000 __alt_mem_onchip_memory2_0
000028a4 g     F .text	00000008 __udivsi3
00011c14 g     F .text	000000c0 isatty
00009fe0 g     F .text	0000002c iswspace
00014e14 g     O .rodata	000000c8 __mprec_tens
0000a00c g     F .text	00000008 __locale_charset
0000f108 g     F .text	000000a4 __fixunsdfsi
00013f4c g     F .text	00000090 alt_icache_flush
000150ec g     O .rwdata	0000000c WRCAMREG
000186ec g     O .bss	00000004 __malloc_top_pad
0000dc5c g     F .text	00000024 strtoul
00016b98 g     O .rwdata	00000004 __mb_cur_max
0000a014 g     F .text	0000000c _localeconv_r
0000dc80 g     F .text	000002f0 _strtoull_r
0000b134 g     F .text	0000003c __i2b
00009b44 g     F .text	0000049c __sfvwrite_r
00003aec g     F .text	00000070 _sbrk_r
00001b4c g     F .text	00000064 I2C_action
0000b69c g     F .text	00000078 _read_r
00015948 g     O .rwdata	0000000c __lc_ctype
00016bb0 g     O .rwdata	00000004 alt_max_fd
000115f8 g     F .text	00000138 __unpack_d
00009174 g     F .text	00000110 _fclose_r
00009494 g     F .text	00000034 fflush
000186f0 g     O .bss	00000004 __malloc_max_sbrked_mem
00010330 g     F .text	00000074 __adddf3
0000fd38 g     F .text	00000078 __nesf2
0000a6f8 g     F .text	00000120 __b2d
0000f788 g     F .text	000005b0 __umoddi3
00011e20 g     F .text	000000f0 lseek
00016b8c g     O .rwdata	00000004 _global_impure_ptr
000004c4 g     F .text	00000338 cam_track
0000b714 g     F .text	000005f4 _realloc_r
00018b9c g       *ABS*	00000000 __bss_end
00013624 g     F .text	000000f8 alt_iic_isr_register
00013bb4 g     F .text	0000010c alt_tick
0001880c g     O .bss	00000100 __hexdig
0000f1ac g     F .text	000005dc __udivdi3
00014edc g     O .rodata	00000028 __mprec_bigtens
0000b390 g     F .text	00000120 __s2b
00010f34 g     F .text	00000194 __floatunsidf
0000a618 g     F .text	00000060 __mcmp
00016b84 g     O .rwdata	00000004 __ctype_ptr
00002b54 g     F .text	00000018 __fp_lock_all
000135dc g     F .text	00000048 alt_ic_irq_enabled
00013b1c g     F .text	00000098 alt_alarm_stop
0000d6f0 g     F .text	00000024 strtol
00018714 g     O .bss	00000004 alt_irq_active
000000ec g     F .exceptions	000000c8 alt_irq_handler
0001597c g     O .rwdata	00000028 alt_dev_null
00011148 g     F .text	000000c8 __unpack_f
0000211c g     F .text	0000002c PWM_readOCRB
00013200 g     F .text	00000044 alt_dcache_flush_all
0000a4e4 g     F .text	00000070 __hi0bits
00001d28 g     F .text	00000034 lcd_home
00010de8 g     F .text	000000d8 __fixdfsi
0000d490 g     F .text	0000001c strtod
00016bc8 g       *ABS*	00000000 __ram_rwdata_end
00002398 g     F .text	0000002c timer_ISR_TIMER_0
00016ba8 g     O .rwdata	00000008 alt_dev_list
000122b8 g     F .text	00000120 write
0000b5b4 g     F .text	000000e8 _putc_r
0000fdb0 g     F .text	00000078 __gtsf2
00002340 g     F .text	00000058 timer_interrupt_start_stop
000150d4 g       *ABS*	00000000 __ram_rodata_end
00011ae0 g     F .text	000000d4 fstat
00010c68 g     F .text	00000088 __ledf2
00003e90 g     F .text	00000090 strcat
0000b270 g     F .text	00000120 __pow5mult
000186fc g     O .bss	00000004 __nlocale_changed
000028ac g     F .text	00000008 __umodsi3
00018b9c g       *ABS*	00000000 end
000117f8 g     F .text	00000160 __pack_f
00012648 g     F .text	000000c0 altera_avalon_jtag_uart_init
000143e4 g       *ABS*	00000000 __CTOR_LIST__
00800000 g       *ABS*	00000000 __alt_stack_pointer
0001301c g     F .text	00000090 alt_avalon_timer_sc_init
000110c8 g     F .text	00000080 __clzsi2
00012d6c g     F .text	00000240 altera_avalon_jtag_uart_write
00002a78 g     F .text	00000004 __sfp_lock_acquire
000035a0 g     F .text	000000e4 memchr
00004134 g     F .text	00001eac ___vfprintf_internal_r
00003bd0 g     F .text	00000060 _sprintf_r
00009830 g     F .text	00000314 _free_r
000141d4 g     F .text	000001b0 __call_exitprocs
00018700 g     O .bss	00000004 __mlocale_changed
00016b94 g     O .rwdata	00000004 __malloc_sbrk_base
000001b4 g     F .text	0000004c _start
00018718 g     O .bss	00000004 _alt_tick_rate
0000d714 g     F .text	00000318 _strtoll_r
0000ae00 g     F .text	0000014c __lshift
0001871c g     O .bss	00000004 _alt_nticks
0001201c g     F .text	00000120 read
0001246c g     F .text	0000005c alt_sys_init
0001409c g     F .text	00000134 __register_exitproc
0000af4c g     F .text	000001e8 __multiply
000129e0 g     F .text	00000074 altera_avalon_jtag_uart_close
000150d4 g       *ABS*	00000000 __ram_rwdata_start
000143e8 g       *ABS*	00000000 __ram_rodata_start
000187e4 g     O .bss	00000028 __malloc_current_mallinfo
0000aaf8 g     F .text	0000017c __d2b
00001db0 g     F .text	00000030 lcd_portInit
00012500 g     F .text	00000058 altera_avalon_jtag_uart_read_fd
0000da2c g     F .text	00000230 _strtoul_r
00013e94 g     F .text	000000b8 alt_get_fd
00015110 g     O .rwdata	0000000c RR
00011730 g     F .text	000000c8 __fpcmp_parts_d
00007938 g     F .text	00000070 _close_r
00014028 g     F .text	00000074 memcmp
000125b0 g     F .text	00000048 altera_avalon_jtag_uart_close_fd
00018b9c g       *ABS*	00000000 __alt_stack_base
000125f8 g     F .text	00000050 altera_avalon_jtag_uart_ioctl_fd
00003cc0 g     F .text	00000084 sscanf
000077fc g     F .text	0000013c __swsetup_r
00010768 g     F .text	00000258 __divdf3
00002bf0 g     F .text	000000f0 __sfp
0000a95c g     F .text	00000058 __copybits
00015540 g     O .rwdata	00000408 __malloc_av_
00002a84 g     F .text	00000004 __sinit_lock_release
00001fd0 g     F .text	00000080 PWM_setDutyCycle_B
000103a4 g     F .text	000003c4 __muldf3
00003e30 g     F .text	00000060 __sread
000096c4 g     F .text	00000040 fread
00013d74 g     F .text	00000120 alt_find_file
00002580 g     F .text	00000038 getServoX
00013244 g     F .text	000000b4 alt_dev_llist_insert
00011fdc g     F .text	00000020 __malloc_lock
000121fc g     F .text	000000bc sbrk
00009298 g     F .text	000001fc _fflush_r
0000e350 g     F .text	000000b4 _calloc_r
000186bc g       *ABS*	00000000 __bss_start
00003724 g     F .text	00000098 memset
00001d5c g     F .text	00000054 lcd_init
00002730 g     F .text	00000038 main
00018710 g     O .bss	00000004 alt_envp
000186f4 g     O .bss	00000004 __malloc_max_total_mem
00012558 g     F .text	00000058 altera_avalon_jtag_uart_write_fd
0000e334 g     F .text	0000001c __swbuf
0000fe28 g     F .text	00000078 __ltsf2
000094c8 g     F .text	000001fc _fread_r
00002690 g     F .text	000000a0 setServoY
00003d44 g     F .text	00000008 __sclose
00800000 g       *ABS*	00000000 __alt_heap_limit
00009284 g     F .text	00000014 fclose
0000d4ac g     F .text	00000244 _strtol_r
00010ec0 g     F .text	00000074 __truncdfsf2
00018a0c g     O .bss	00000190 _atexit0
00007bc0 g     F .text	000015b4 _dtoa_r
00002e60 g     F .text	00000740 _malloc_r
00016bb4 g     O .rwdata	00000004 alt_errno
0000df70 g     F .text	000000dc __submore
00002da8 g     F .text	000000b8 _fwalk
000028b4 g     F .text	00000148 _fgets_r
0000a39c g     F .text	00000040 _mbtowc_r
0000b4b0 g     F .text	00000104 putc
000027e4 g     F .text	00000060 __divsi3
00014f8c g     O .rodata	00000014 __thenan_df
00015134 g     O .rwdata	0000000c TILT
00009704 g     F .text	0000012c _malloc_trim_r
000143e8 g       *ABS*	00000000 __CTOR_END__
00001990 g     F .text	000000f8 I2C_read
00003f20 g     F .text	000000bc strcmp
000143e8 g       *ABS*	00000000 __flash_rodata_start
000143e8 g       *ABS*	00000000 __DTOR_LIST__
00010a48 g     F .text	00000088 __nedf2
00012438 g     F .text	00000034 alt_irq_init
0001219c g     F .text	00000060 alt_release_fd
000020f0 g     F .text	0000002c PWM_readOCRA
00003b5c g     F .text	00000074 sprintf
00014fa0 g     O .rodata	00000100 __clz_tab
00018704 g     O .bss	00000004 _PathLocale
000025b8 g     F .text	000000a0 setServoX
00001c54 g     F .text	000000a8 lcd_prt
0000d36c g     F .text	00000124 strtof
00013fdc g     F .text	00000014 atexit
00007784 g     F .text	00000078 _write_r
0000a0b4 g     F .text	0000001c setlocale
0000be38 g     F .text	00000008 nanf
00016b88 g     O .rwdata	00000004 _impure_ptr
00018708 g     O .bss	00000004 alt_argc
0000a2dc g     F .text	00000080 _mbrtowc_r
000133bc g     F .text	00000064 _do_dtors
00002050 g     F .text	00000050 PWM_writeOCRA
0000390c g     F .text	000001c4 __srefill_r
00000020 g       .exceptions	00000000 alt_irq_entry
0000a678 g     F .text	00000080 __ulp
0000bd08 g     F .text	00000040 __isinfd
00002b3c g     F .text	00000018 __fp_unlock_all
00016ba0 g     O .rwdata	00000008 alt_fs_list
00001920 g     F .text	00000070 I2C_init
00000020 g       *ABS*	00000000 __ram_exceptions_start
0000a020 g     F .text	00000010 localeconv
00013450 g     F .text	00000050 alt_ic_isr_register
0000e49c g     F .text	00000068 __hexdig_init
00003c38 g     F .text	00000088 _sscanf_r
00016bc8 g       *ABS*	00000000 _edata
00018b9c g       *ABS*	00000000 _end
000001b4 g       *ABS*	00000000 __ram_exceptions_end
00007710 g     F .text	00000074 vfscanf
00012a54 g     F .text	000000f4 altera_avalon_jtag_uart_ioctl
0001353c g     F .text	000000a0 alt_ic_irq_disable
000023c4 g     F .text	0000002c timer_ISR_TIMER_1
000007fc g     F .text	00000028 cmd_init
00003db4 g     F .text	0000007c __swrite
00016b90 g     O .rwdata	00000004 __malloc_trim_threshold
00013cc0 g     F .text	00000020 altera_nios2_qsys_irq_init
00013ff0 g     F .text	00000038 exit
00002ce0 g     F .text	000000c8 _fwalk_reent
0000ac74 g     F .text	0000018c __mdiff
00002844 g     F .text	00000060 __modsi3
00800000 g       *ABS*	00000000 __alt_data_end
00000020 g     F .exceptions	00000000 alt_exception
00000824 g     F .text	00000130 cmd_getCommand
00002a7c g     F .text	00000004 __sfp_lock_release
00000000 g       *ABS*	00000000 __alt_mem_sdram
000023f0 g     F .text	0000007c vga_clearDisplay
0000bd78 g     F .text	000000c0 __sccl
00014a90 g     O .rodata	00000101 _ctype_
000150f8 g     O .rwdata	0000000c IMAGE
00001bb0 g     F .text	000000a4 lcd_cmd
00011210 g     F .text	000000a8 __fpcmp_parts_f
000143c4 g     F .text	00000020 _exit
0000bd48 g     F .text	00000030 __isnand
000130ac g     F .text	00000154 alt_alarm_start
00000200 g     F .text	000000c0 cam_init
0000f070 g     F .text	00000098 __muldi3
0000a148 g     F .text	00000194 __smakebuf_r
00004068 g     F .text	00000074 strlen
00013934 g     F .text	00000188 open
00010b58 g     F .text	00000088 __gedf2
0000e5b4 g     F .text	000007b8 __gethex
00001f50 g     F .text	00000080 PWM_setDutyCycle_A
00013420 g     F .text	00000030 alt_icache_flush_all
00002510 g     F .text	00000070 servo_tilt
00016bbc g     O .rwdata	00000004 alt_priority_mask
000134a0 g     F .text	0000009c alt_ic_irq_enable
00005fe0 g     F .text	00000024 __vfprintf_internal
000102b0 g     F .text	00000080 __subdf3
0000a554 g     F .text	000000c4 __lo0bits
00006004 g     F .text	00001680 __svfscanf_r
00016bc0 g     O .rwdata	00000008 alt_alarm_list
0000e04c g     F .text	0000019c _ungetc_r
00013358 g     F .text	00000064 _do_ctors
00011958 g     F .text	000000fc close
00002658 g     F .text	00000038 getServoY
00011d34 g     F .text	00000080 alt_load
000112e4 g     F .text	00000314 __pack_d
00001a88 g     F .text	000000c4 I2C_write
00000000  w      *UND*	00000000 free
00002a80 g     F .text	00000004 __sinit_lock_acquire
0000b170 g     F .text	00000100 __multadd
0000a4bc g     F .text	00000028 _Bfree



Disassembly of section .entry:

00000000 <__reset>:
#if NIOS2_ICACHE_SIZE > 0 && defined(ALT_ALLOW_CODE_AT_RESET) && !defined(ALT_SIM_OPTIMIZE)
    /* Assume the instruction cache size is always a power of two. */
#if NIOS2_ICACHE_SIZE > 0x8000
    movhi r2, %hi(NIOS2_ICACHE_SIZE)
#else
    movui r2, NIOS2_ICACHE_SIZE
   0:	00840014 	movui	r2,4096
#endif

0:
    initi r2
   4:	1001483a 	initi	r2
    addi r2, r2, -NIOS2_ICACHE_LINE_SIZE
   8:	10bff804 	addi	r2,r2,-32
    bgt r2, zero, 0b
   c:	00bffd16 	blt	zero,r2,4 <irq2+0x2>
 * Jump to the _start entry point in the .text section if reset code
 * is allowed or if optimizing for RTL simulation.
 */
#if defined(ALT_ALLOW_CODE_AT_RESET) || defined(ALT_SIM_OPTIMIZE)
    /* Jump to the _start entry point in the .text section. */
    movhi r1, %hi(_start)
  10:	00400034 	movhi	at,0
    ori r1, r1, %lo(_start)
  14:	08406d14 	ori	at,at,436
    jmp r1
  18:	0800683a 	jmp	at
  1c:	00000000 	call	0 <__reset>

Disassembly of section .exceptions:

00000020 <alt_exception>:
         * Process an exception.  For all exceptions we must preserve all
         * caller saved registers on the stack (See the Nios2 ABI
         * documentation for details).
         */

        addi  sp, sp, -76
  20:	deffed04 	addi	sp,sp,-76

#endif

#endif

        stw   ra,  0(sp)
  24:	dfc00015 	stw	ra,0(sp)
        /*
         * Leave a gap in the stack frame at 4(sp) for the muldiv handler to
         * store zero into.
         */

        stw   r1,   8(sp)
  28:	d8400215 	stw	at,8(sp)
        stw   r2,  12(sp)
  2c:	d8800315 	stw	r2,12(sp)
        stw   r3,  16(sp)
  30:	d8c00415 	stw	r3,16(sp)
        stw   r4,  20(sp)
  34:	d9000515 	stw	r4,20(sp)
        stw   r5,  24(sp)
  38:	d9400615 	stw	r5,24(sp)
        stw   r6,  28(sp)
  3c:	d9800715 	stw	r6,28(sp)
        stw   r7,  32(sp)
  40:	d9c00815 	stw	r7,32(sp)

        rdctl r5, estatus
  44:	000b307a 	rdctl	r5,estatus

        stw   r8,  36(sp)
  48:	da000915 	stw	r8,36(sp)
        stw   r9,  40(sp)
  4c:	da400a15 	stw	r9,40(sp)
        stw   r10, 44(sp)
  50:	da800b15 	stw	r10,44(sp)
        stw   r11, 48(sp)
  54:	dac00c15 	stw	r11,48(sp)
        stw   r12, 52(sp)
  58:	db000d15 	stw	r12,52(sp)
        stw   r13, 56(sp)
  5c:	db400e15 	stw	r13,56(sp)
        stw   r14, 60(sp)
  60:	db800f15 	stw	r14,60(sp)
        stw   r15, 64(sp)
  64:	dbc01015 	stw	r15,64(sp)
        /*
         * ea-4 contains the address of the instruction being executed
         * when the exception occured. For interrupt exceptions, we will
         * will be re-issue the isntruction. Store it in 72(sp)
         */
        stw   r5,  68(sp)  /* estatus */
  68:	d9401115 	stw	r5,68(sp)
        addi  r15, ea, -4  /* instruction that caused exception */
  6c:	ebffff04 	addi	r15,ea,-4
        stw   r15,  72(sp)
  70:	dbc01215 	stw	r15,72(sp)
#else
        /*
         * Test to see if the exception was a software exception or caused 
         * by an external interrupt, and vector accordingly.
         */
        rdctl r4, ipending
  74:	0009313a 	rdctl	r4,ipending
        andi  r2, r5, 1
  78:	2880004c 	andi	r2,r5,1
        beq   r2, zero, .Lnot_irq
  7c:	10000326 	beq	r2,zero,8c <alt_exception+0x6c>
        beq   r4, zero, .Lnot_irq
  80:	20000226 	beq	r4,zero,8c <alt_exception+0x6c>
        /*
         * Now that all necessary registers have been preserved, call 
         * alt_irq_handler() to process the interrupts.
         */

        call alt_irq_handler
  84:	00000ec0 	call	ec <alt_irq_handler>

        .section .exceptions.irqreturn, "xa"

        br    .Lexception_exit
  88:	00000306 	br	98 <alt_exception+0x78>
         * upon completion, so we write ea (address of instruction *after*
         * the one where the exception occured) into 72(sp). The actual
         * instruction that caused the exception is written in r2, which these
         * handlers will utilize.
         */
        stw   ea,  72(sp)  /* Don't re-issue */
  8c:	df401215 	stw	ea,72(sp)
        ldw   r2, -4(ea)   /* Instruction that caused exception */
  90:	e8bfff17 	ldw	r2,-4(ea)
#ifdef NIOS2_HAS_DEBUG_STUB
       /*
        *  Either tell the user now (if there is a debugger attached) or go into
        *  the debug monitor which will loop until a debugger is attached.
        */
        break
  94:	003da03a 	break	0
        /* 
         * Restore the saved registers, so that all general purpose registers 
         * have been restored to their state at the time the interrupt occured.
         */

        ldw   r5,  68(sp)
  98:	d9401117 	ldw	r5,68(sp)
        ldw   ea,  72(sp)  /* This becomes the PC once eret is executed */
  9c:	df401217 	ldw	ea,72(sp)
        ldw   ra,   0(sp)
  a0:	dfc00017 	ldw	ra,0(sp)

        wrctl estatus, r5
  a4:	2801707a 	wrctl	estatus,r5

        ldw   r1,   8(sp)
  a8:	d8400217 	ldw	at,8(sp)
        ldw   r2,  12(sp)
  ac:	d8800317 	ldw	r2,12(sp)
        ldw   r3,  16(sp)
  b0:	d8c00417 	ldw	r3,16(sp)
        ldw   r4,  20(sp)
  b4:	d9000517 	ldw	r4,20(sp)
        ldw   r5,  24(sp)
  b8:	d9400617 	ldw	r5,24(sp)
        ldw   r6,  28(sp)
  bc:	d9800717 	ldw	r6,28(sp)
        ldw   r7,  32(sp)
  c0:	d9c00817 	ldw	r7,32(sp)
#ifdef ALT_STACK_CHECK
        ldw   et, %gprel(alt_exception_old_stack_limit)(gp)
#endif
#endif

        ldw   r8,  36(sp)
  c4:	da000917 	ldw	r8,36(sp)
        ldw   r9,  40(sp)
  c8:	da400a17 	ldw	r9,40(sp)
        ldw   r10, 44(sp)
  cc:	da800b17 	ldw	r10,44(sp)
        ldw   r11, 48(sp)
  d0:	dac00c17 	ldw	r11,48(sp)
        ldw   r12, 52(sp)
  d4:	db000d17 	ldw	r12,52(sp)
        ldw   r13, 56(sp)
  d8:	db400e17 	ldw	r13,56(sp)
        ldw   r14, 60(sp)
  dc:	db800f17 	ldw	r14,60(sp)
        ldw   r15, 64(sp)
  e0:	dbc01017 	ldw	r15,64(sp)
#endif

        ldw   sp,  76(sp)

#else
        addi  sp, sp, 76
  e4:	dec01304 	addi	sp,sp,76

        /*
         * Return to the interrupted instruction.
         */

        eret
  e8:	ef80083a 	eret

000000ec <alt_irq_handler>:
 * instruction is present if the macro ALT_CI_INTERRUPT_VECTOR defined.
 */

void alt_irq_handler (void) __attribute__ ((section (".exceptions")));
void alt_irq_handler (void)
{
  ec:	defff904 	addi	sp,sp,-28
  f0:	dfc00615 	stw	ra,24(sp)
  f4:	df000515 	stw	fp,20(sp)
  f8:	df000504 	addi	fp,sp,20
#ifndef NIOS2_EIC_PRESENT
static ALT_INLINE alt_u32 ALT_ALWAYS_INLINE alt_irq_pending (void)
{
  alt_u32 active;

  NIOS2_READ_IPENDING (active);
  fc:	0005313a 	rdctl	r2,ipending
 100:	e0bffc15 	stw	r2,-16(fp)

  return active;
 104:	e0bffc17 	ldw	r2,-16(fp)
   * Consider the case where the high priority interupt is asserted during
   * the interrupt entry sequence for a lower priority interrupt to see why
   * this is the case.
   */

  active = alt_irq_pending ();
 108:	e0bfff15 	stw	r2,-4(fp)

  do
  {
    i = 0;
 10c:	e03ffd15 	stw	zero,-12(fp)
    mask = 1;
 110:	00800044 	movi	r2,1
 114:	e0bffe15 	stw	r2,-8(fp)
     * called to clear the interrupt condition.
     */

    do
    {
      if (active & mask)
 118:	e0ffff17 	ldw	r3,-4(fp)
 11c:	e0bffe17 	ldw	r2,-8(fp)
 120:	1884703a 	and	r2,r3,r2
 124:	1005003a 	cmpeq	r2,r2,zero
 128:	1000161e 	bne	r2,zero,184 <alt_irq_handler+0x98>
      { 
#ifdef ALT_ENHANCED_INTERRUPT_API_PRESENT
        alt_irq[i].handler(alt_irq[i].context); 
 12c:	e0bffd17 	ldw	r2,-12(fp)
 130:	00c000b4 	movhi	r3,2
 134:	18e24304 	addi	r3,r3,-30452
 138:	100490fa 	slli	r2,r2,3
 13c:	10c5883a 	add	r2,r2,r3
 140:	11400017 	ldw	r5,0(r2)
 144:	e0bffd17 	ldw	r2,-12(fp)
 148:	00c000b4 	movhi	r3,2
 14c:	18e24304 	addi	r3,r3,-30452
 150:	100490fa 	slli	r2,r2,3
 154:	10c5883a 	add	r2,r2,r3
 158:	10800104 	addi	r2,r2,4
 15c:	11000017 	ldw	r4,0(r2)
 160:	283ee83a 	callr	r5
#ifndef NIOS2_EIC_PRESENT
static ALT_INLINE alt_u32 ALT_ALWAYS_INLINE alt_irq_pending (void)
{
  alt_u32 active;

  NIOS2_READ_IPENDING (active);
 164:	0005313a 	rdctl	r2,ipending
 168:	e0bffb15 	stw	r2,-20(fp)

  return active;
 16c:	e0bffb17 	ldw	r2,-20(fp)
      mask <<= 1;
      i++;

    } while (1);

    active = alt_irq_pending ();
 170:	e0bfff15 	stw	r2,-4(fp)
    
  } while (active);
 174:	e0bfff17 	ldw	r2,-4(fp)
 178:	1004c03a 	cmpne	r2,r2,zero
 17c:	103fe31e 	bne	r2,zero,10c <alt_irq_handler+0x20>
 180:	00000706 	br	1a0 <alt_irq_handler+0xb4>
#else
        alt_irq[i].handler(alt_irq[i].context, i); 
#endif
        break;
      }
      mask <<= 1;
 184:	e0bffe17 	ldw	r2,-8(fp)
 188:	1085883a 	add	r2,r2,r2
 18c:	e0bffe15 	stw	r2,-8(fp)
      i++;
 190:	e0bffd17 	ldw	r2,-12(fp)
 194:	10800044 	addi	r2,r2,1
 198:	e0bffd15 	stw	r2,-12(fp)

    } while (1);
 19c:	003fde06 	br	118 <alt_irq_handler+0x2c>
  /*
   * Notify the operating system that interrupt processing is complete.
   */ 

  ALT_OS_INT_EXIT();
}
 1a0:	e037883a 	mov	sp,fp
 1a4:	dfc00117 	ldw	ra,4(sp)
 1a8:	df000017 	ldw	fp,0(sp)
 1ac:	dec00204 	addi	sp,sp,8
 1b0:	f800283a 	ret

Disassembly of section .text:

000001b4 <_start>:

    /* Assume the data cache size is always a power of two. */
#if NIOS2_DCACHE_SIZE > 0x8000
    movhi r2, %hi(NIOS2_DCACHE_SIZE)
#else
    movui r2, NIOS2_DCACHE_SIZE
     1b4:	00820014 	movui	r2,2048
#endif

0:
    initd 0(r2)
     1b8:	10000033 	initd	0(r2)
    addi r2, r2, -NIOS2_DCACHE_LINE_SIZE
     1bc:	10bff804 	addi	r2,r2,-32
    bgt r2, zero, 0b
     1c0:	00bffd16 	blt	zero,r2,1b8 <_start+0x4>
#if (NIOS2_NUM_OF_SHADOW_REG_SETS == 0)    
    /*
     * Now that the caches are initialized, set up the stack pointer.
     * The value provided by the linker is assumed to be correctly aligned.
     */
    movhi sp, %hi(__alt_stack_pointer)
     1c4:	06c02034 	movhi	sp,128
    ori sp, sp, %lo(__alt_stack_pointer)
     1c8:	dec00014 	ori	sp,sp,0

    /* Set up the global pointer. */
    movhi gp, %hi(_gp)
     1cc:	06800074 	movhi	gp,1
    ori gp, gp, %lo(_gp)
     1d0:	d6bae114 	ori	gp,gp,60292
 */
#ifndef ALT_SIM_OPTIMIZE
    /* Log that the BSS is about to be cleared. */
    ALT_LOG_PUTS(alt_log_msg_bss)

    movhi r2, %hi(__bss_start)
     1d4:	00800074 	movhi	r2,1
    ori r2, r2, %lo(__bss_start)
     1d8:	10a1af14 	ori	r2,r2,34492

    movhi r3, %hi(__bss_end)
     1dc:	00c00074 	movhi	r3,1
    ori r3, r3, %lo(__bss_end)
     1e0:	18e2e714 	ori	r3,r3,35740

    beq r2, r3, 1f
     1e4:	10c00326 	beq	r2,r3,1f4 <_start+0x40>

0:
    stw zero, (r2)
     1e8:	10000015 	stw	zero,0(r2)
    addi r2, r2, 4
     1ec:	10800104 	addi	r2,r2,4
    bltu r2, r3, 0b
     1f0:	10fffd36 	bltu	r2,r3,1e8 <_start+0x34>
     * section aren't defined until alt_load() has been called).
     */
    mov   et, zero
#endif

    call alt_load
     1f4:	0011d340 	call	11d34 <alt_load>

    /* Log that alt_main is about to be called. */
    ALT_LOG_PUTS(alt_log_msg_alt_main)

    /* Call the C entry point. It should never return. */
    call alt_main
     1f8:	0011f700 	call	11f70 <alt_main>

000001fc <alt_after_alt_main>:

    /* Wait in infinite loop in case alt_main does return. */
alt_after_alt_main:
    br alt_after_alt_main
     1fc:	003fff06 	br	1fc <alt_after_alt_main>

00000200 <cam_init>:
/**
 * Initializes the camera module over I2C for slow rate and desired format.
 * Sets any necessary flags and controls for the camera and prepares all
 * data structures.
 */
void cam_init(){
     200:	defffe04 	addi	sp,sp,-8
     204:	dfc00115 	stw	ra,4(sp)
     208:	df000015 	stw	fp,0(sp)
     20c:	d839883a 	mov	fp,sp

	//initialize members
	fd.maxBrightness = 0x00;
     210:	d026d705 	stb	zero,-25764(gp)
	fd.minBrightness = 0xFF;
     214:	00c000b4 	movhi	r3,2
     218:	18e1b844 	addi	r3,r3,-31007
     21c:	00bfffc4 	movi	r2,-1
     220:	18800005 	stb	r2,0(r3)

	//initialize I2C camera hardware
	I2C_init();
     224:	00019200 	call	1920 <I2C_init>
	timer_delay(100000,TIMER_0);
     228:	010000b4 	movhi	r4,2
     22c:	2121a804 	addi	r4,r4,-31072
     230:	01602034 	movhi	r5,32896
     234:	29481004 	addi	r5,r5,8256
     238:	00021840 	call	2184 <timer_delay>
	I2C_write(CAMERA_I2C_ADDRESS,CAMERA_I2C_CLKRC,CAMERA_CLKRC_SCALER);
     23c:	01001804 	movi	r4,96
     240:	01400444 	movi	r5,17
     244:	018003c4 	movi	r6,15
     248:	0001a880 	call	1a88 <I2C_write>
	timer_delay(100000,TIMER_0);
     24c:	010000b4 	movhi	r4,2
     250:	2121a804 	addi	r4,r4,-31072
     254:	01602034 	movhi	r5,32896
     258:	29481004 	addi	r5,r5,8256
     25c:	00021840 	call	2184 <timer_delay>
	I2C_write(CAMERA_I2C_ADDRESS,CAMERA_I2C_COML,CAMERA_COML_PCLK_VALID_MASK);
     260:	01001804 	movi	r4,96
     264:	01400e44 	movi	r5,57
     268:	01801004 	movi	r6,64
     26c:	0001a880 	call	1a88 <I2C_write>
	timer_delay(100000,TIMER_0);
     270:	010000b4 	movhi	r4,2
     274:	2121a804 	addi	r4,r4,-31072
     278:	01602034 	movhi	r5,32896
     27c:	29481004 	addi	r5,r5,8256
     280:	00021840 	call	2184 <timer_delay>
	I2C_write(CAMERA_I2C_ADDRESS,CAMERA_I2C_COMC,CAMERA_COMC_QCIF_MASK);
     284:	01001804 	movi	r4,96
     288:	01400504 	movi	r5,20
     28c:	01800804 	movi	r6,32
     290:	0001a880 	call	1a88 <I2C_write>
	timer_delay(100000,TIMER_0);
     294:	010000b4 	movhi	r4,2
     298:	2121a804 	addi	r4,r4,-31072
     29c:	01602034 	movhi	r5,32896
     2a0:	29481004 	addi	r5,r5,8256
     2a4:	00021840 	call	2184 <timer_delay>

	//clear VGA display
	vga_clearDisplay();
     2a8:	00023f00 	call	23f0 <vga_clearDisplay>
}
     2ac:	e037883a 	mov	sp,fp
     2b0:	dfc00117 	ldw	ra,4(sp)
     2b4:	df000017 	ldw	fp,0(sp)
     2b8:	dec00204 	addi	sp,sp,8
     2bc:	f800283a 	ret

000002c0 <cam_imageCapture>:

/**
 * Captures a frame from the camera and returns it unaltered.
 */
void cam_imageCapture(){
     2c0:	deffff04 	addi	sp,sp,-4
     2c4:	df000015 	stw	fp,0(sp)
     2c8:	d839883a 	mov	fp,sp
	static int row, col;
	static volatile uint8_t* vgaPtr;
	static uint8_t pixel;

	//start of image
	while(!(*CAM_CNTRL_REGISTER & CAM_CNTRL_VSYNC_MASK));
     2cc:	00a02034 	movhi	r2,32896
     2d0:	10880004 	addi	r2,r2,8192
     2d4:	10800003 	ldbu	r2,0(r2)
     2d8:	10803fcc 	andi	r2,r2,255
     2dc:	1080010c 	andi	r2,r2,4
     2e0:	1005003a 	cmpeq	r2,r2,zero
     2e4:	103ff91e 	bne	r2,zero,2cc <cam_imageCapture+0xc>
	while((*CAM_CNTRL_REGISTER & CAM_CNTRL_VSYNC_MASK));
     2e8:	00a02034 	movhi	r2,32896
     2ec:	10880004 	addi	r2,r2,8192
     2f0:	10800003 	ldbu	r2,0(r2)
     2f4:	10803fcc 	andi	r2,r2,255
     2f8:	1080010c 	andi	r2,r2,4
     2fc:	1004c03a 	cmpne	r2,r2,zero
     300:	103ff91e 	bne	r2,zero,2e8 <cam_imageCapture+0x28>
	vgaPtr = VGA_MEM_START;
     304:	00a02034 	movhi	r2,32896
     308:	d0a6cf15 	stw	r2,-25796(gp)

	//gather by row
	for(row = QCIF_ROW_MAX-1;row >= 0; row--){
     30c:	008023c4 	movi	r2,143
     310:	d0a6d115 	stw	r2,-25788(gp)
     314:	00006406 	br	4a8 <cam_imageCapture+0x1e8>
		//set next VGA row
		if(row > 11 && row < 132 && row%2){
     318:	d0a6d117 	ldw	r2,-25788(gp)
     31c:	10800310 	cmplti	r2,r2,12
     320:	1000121e 	bne	r2,zero,36c <cam_imageCapture+0xac>
     324:	d0a6d117 	ldw	r2,-25788(gp)
     328:	10802108 	cmpgei	r2,r2,132
     32c:	10000f1e 	bne	r2,zero,36c <cam_imageCapture+0xac>
     330:	d0a6d117 	ldw	r2,-25788(gp)
     334:	1080004c 	andi	r2,r2,1
     338:	10803fcc 	andi	r2,r2,255
     33c:	1005003a 	cmpeq	r2,r2,zero
     340:	10000a1e 	bne	r2,zero,36c <cam_imageCapture+0xac>
			vgaPtr = VGA_MEM_START + ((row - 12)/2 << 7);
     344:	d0a6d117 	ldw	r2,-25788(gp)
     348:	10fffd04 	addi	r3,r2,-12
     34c:	1804d7fa 	srli	r2,r3,31
     350:	10c5883a 	add	r2,r2,r3
     354:	1005d07a 	srai	r2,r2,1
     358:	100491fa 	slli	r2,r2,7
     35c:	1007883a 	mov	r3,r2
     360:	00a02034 	movhi	r2,32896
     364:	1885883a 	add	r2,r3,r2
     368:	d0a6cf15 	stw	r2,-25796(gp)
		}
		//gather pixels in each column
		while(!(*CAM_CNTRL_REGISTER & CAM_CNTRL_HREF_MASK));
     36c:	00a02034 	movhi	r2,32896
     370:	10880004 	addi	r2,r2,8192
     374:	10800003 	ldbu	r2,0(r2)
     378:	10803fcc 	andi	r2,r2,255
     37c:	1080008c 	andi	r2,r2,2
     380:	1005003a 	cmpeq	r2,r2,zero
     384:	103ff91e 	bne	r2,zero,36c <cam_imageCapture+0xac>
		for(col = 0; (col < QCIF_COL_MAX) && (*CAM_CNTRL_REGISTER & CAM_CNTRL_HREF_MASK); col++){
     388:	d026d015 	stw	zero,-25792(gp)
     38c:	00003206 	br	458 <cam_imageCapture+0x198>
			//get single pixel
			while(!(*CAM_CNTRL_REGISTER & CAM_CNTRL_PCLK_MASK));
     390:	00a02034 	movhi	r2,32896
     394:	10880004 	addi	r2,r2,8192
     398:	10800003 	ldbu	r2,0(r2)
     39c:	10803fcc 	andi	r2,r2,255
     3a0:	1080004c 	andi	r2,r2,1
     3a4:	1005003a 	cmpeq	r2,r2,zero
     3a8:	103ff91e 	bne	r2,zero,390 <cam_imageCapture+0xd0>
			pixel = *CAM_PIXEL_REGISTER;
     3ac:	00a02034 	movhi	r2,32896
     3b0:	10880404 	addi	r2,r2,8208
     3b4:	10800003 	ldbu	r2,0(r2)
     3b8:	d0a6ce05 	stb	r2,-25800(gp)
			while((*CAM_CNTRL_REGISTER & CAM_CNTRL_PCLK_MASK));
     3bc:	00a02034 	movhi	r2,32896
     3c0:	10880004 	addi	r2,r2,8192
     3c4:	10800003 	ldbu	r2,0(r2)
     3c8:	10803fcc 	andi	r2,r2,255
     3cc:	1080004c 	andi	r2,r2,1
     3d0:	10803fcc 	andi	r2,r2,255
     3d4:	1004c03a 	cmpne	r2,r2,zero
     3d8:	103ff81e 	bne	r2,zero,3bc <cam_imageCapture+0xfc>

			//display pixels to VGA
			if(row > 11 && row < 132 && row%2 && col > 7 && col < 168 && col%2){
     3dc:	d0a6d117 	ldw	r2,-25788(gp)
     3e0:	10800310 	cmplti	r2,r2,12
     3e4:	1000191e 	bne	r2,zero,44c <cam_imageCapture+0x18c>
     3e8:	d0a6d117 	ldw	r2,-25788(gp)
     3ec:	10802108 	cmpgei	r2,r2,132
     3f0:	1000161e 	bne	r2,zero,44c <cam_imageCapture+0x18c>
     3f4:	d0a6d117 	ldw	r2,-25788(gp)
     3f8:	1080004c 	andi	r2,r2,1
     3fc:	10803fcc 	andi	r2,r2,255
     400:	1005003a 	cmpeq	r2,r2,zero
     404:	1000111e 	bne	r2,zero,44c <cam_imageCapture+0x18c>
     408:	d0a6d017 	ldw	r2,-25792(gp)
     40c:	10800210 	cmplti	r2,r2,8
     410:	10000e1e 	bne	r2,zero,44c <cam_imageCapture+0x18c>
     414:	d0a6d017 	ldw	r2,-25792(gp)
     418:	10802a08 	cmpgei	r2,r2,168
     41c:	10000b1e 	bne	r2,zero,44c <cam_imageCapture+0x18c>
     420:	d0a6d017 	ldw	r2,-25792(gp)
     424:	1080004c 	andi	r2,r2,1
     428:	10803fcc 	andi	r2,r2,255
     42c:	1005003a 	cmpeq	r2,r2,zero
     430:	1000061e 	bne	r2,zero,44c <cam_imageCapture+0x18c>
				//write to VGA
				*vgaPtr = pixel;
     434:	d0e6cf17 	ldw	r3,-25796(gp)
     438:	d0a6ce03 	ldbu	r2,-25800(gp)
     43c:	18800005 	stb	r2,0(r3)
				vgaPtr++;
     440:	d0a6cf17 	ldw	r2,-25796(gp)
     444:	10800044 	addi	r2,r2,1
     448:	d0a6cf15 	stw	r2,-25796(gp)
		if(row > 11 && row < 132 && row%2){
			vgaPtr = VGA_MEM_START + ((row - 12)/2 << 7);
		}
		//gather pixels in each column
		while(!(*CAM_CNTRL_REGISTER & CAM_CNTRL_HREF_MASK));
		for(col = 0; (col < QCIF_COL_MAX) && (*CAM_CNTRL_REGISTER & CAM_CNTRL_HREF_MASK); col++){
     44c:	d0a6d017 	ldw	r2,-25792(gp)
     450:	10800044 	addi	r2,r2,1
     454:	d0a6d015 	stw	r2,-25792(gp)
     458:	d0a6d017 	ldw	r2,-25792(gp)
     45c:	10802c08 	cmpgei	r2,r2,176
     460:	1000071e 	bne	r2,zero,480 <cam_imageCapture+0x1c0>
     464:	00a02034 	movhi	r2,32896
     468:	10880004 	addi	r2,r2,8192
     46c:	10800003 	ldbu	r2,0(r2)
     470:	10803fcc 	andi	r2,r2,255
     474:	1080008c 	andi	r2,r2,2
     478:	1004c03a 	cmpne	r2,r2,zero
     47c:	103fc41e 	bne	r2,zero,390 <cam_imageCapture+0xd0>
				//write to VGA
				*vgaPtr = pixel;
				vgaPtr++;
			}
		}
		while((*CAM_CNTRL_REGISTER & CAM_CNTRL_HREF_MASK));
     480:	00a02034 	movhi	r2,32896
     484:	10880004 	addi	r2,r2,8192
     488:	10800003 	ldbu	r2,0(r2)
     48c:	10803fcc 	andi	r2,r2,255
     490:	1080008c 	andi	r2,r2,2
     494:	1004c03a 	cmpne	r2,r2,zero
     498:	103ff91e 	bne	r2,zero,480 <cam_imageCapture+0x1c0>
	while(!(*CAM_CNTRL_REGISTER & CAM_CNTRL_VSYNC_MASK));
	while((*CAM_CNTRL_REGISTER & CAM_CNTRL_VSYNC_MASK));
	vgaPtr = VGA_MEM_START;

	//gather by row
	for(row = QCIF_ROW_MAX-1;row >= 0; row--){
     49c:	d0a6d117 	ldw	r2,-25788(gp)
     4a0:	10bfffc4 	addi	r2,r2,-1
     4a4:	d0a6d115 	stw	r2,-25788(gp)
     4a8:	d0a6d117 	ldw	r2,-25788(gp)
     4ac:	1004403a 	cmpge	r2,r2,zero
     4b0:	103f991e 	bne	r2,zero,318 <cam_imageCapture+0x58>
				vgaPtr++;
			}
		}
		while((*CAM_CNTRL_REGISTER & CAM_CNTRL_HREF_MASK));
	}
}
     4b4:	e037883a 	mov	sp,fp
     4b8:	df000017 	ldw	fp,0(sp)
     4bc:	dec00104 	addi	sp,sp,4
     4c0:	f800283a 	ret

000004c4 <cam_track>:
 * Captures a frame from the camera and returns it filtered with the given value
 * @param thresMin value used as lower bound for filtering
 * @param thresMax value used as upper bound for filtering
 * @return meta-date of the frame as pointer to the internal structure.
 */
struct frameData* cam_track(uint8_t thresMin, uint8_t thresMax){
     4c4:	defffb04 	addi	sp,sp,-20
     4c8:	df000415 	stw	fp,16(sp)
     4cc:	df000404 	addi	fp,sp,16
     4d0:	e13ffc05 	stb	r4,-16(fp)
     4d4:	e17ffd05 	stb	r5,-12(fp)
	static int row, col;
	static volatile uint8_t* vgaPtr;
	static uint16_t pixel, vpixel, prevPixel;

	//start of image
	while(!(*CAM_CNTRL_REGISTER & CAM_CNTRL_VSYNC_MASK));
     4d8:	00a02034 	movhi	r2,32896
     4dc:	10880004 	addi	r2,r2,8192
     4e0:	10800003 	ldbu	r2,0(r2)
     4e4:	10803fcc 	andi	r2,r2,255
     4e8:	1080010c 	andi	r2,r2,4
     4ec:	1005003a 	cmpeq	r2,r2,zero
     4f0:	103ff91e 	bne	r2,zero,4d8 <cam_track+0x14>
	while((*CAM_CNTRL_REGISTER & CAM_CNTRL_VSYNC_MASK));
     4f4:	00a02034 	movhi	r2,32896
     4f8:	10880004 	addi	r2,r2,8192
     4fc:	10800003 	ldbu	r2,0(r2)
     500:	10803fcc 	andi	r2,r2,255
     504:	1080010c 	andi	r2,r2,4
     508:	1004c03a 	cmpne	r2,r2,zero
     50c:	103ff91e 	bne	r2,zero,4f4 <cam_track+0x30>
	fd.maxBrightness = 0x00;
     510:	d026d705 	stb	zero,-25764(gp)
	fd.minBrightness = 0xFF;
     514:	00c000b4 	movhi	r3,2
     518:	18e1b844 	addi	r3,r3,-31007
     51c:	00bfffc4 	movi	r2,-1
     520:	18800005 	stb	r2,0(r3)
	vgaPtr = VGA_MEM_START;
     524:	00a02034 	movhi	r2,32896
     528:	d0a6d415 	stw	r2,-25776(gp)

	//gather by row
	for(row = QCIF_ROW_MAX-1;row >= 0; row--){
     52c:	008023c4 	movi	r2,143
     530:	d0a6d615 	stw	r2,-25768(gp)
     534:	0000a906 	br	7dc <cam_track+0x318>
		//reset confidence
		prevPixel = 0;
     538:	d026d20d 	sth	zero,-25784(gp)

		//set next VGA row
		if(row > 11 && row < 132 && row%2){
     53c:	d0a6d617 	ldw	r2,-25768(gp)
     540:	10800310 	cmplti	r2,r2,12
     544:	1000121e 	bne	r2,zero,590 <cam_track+0xcc>
     548:	d0a6d617 	ldw	r2,-25768(gp)
     54c:	10802108 	cmpgei	r2,r2,132
     550:	10000f1e 	bne	r2,zero,590 <cam_track+0xcc>
     554:	d0a6d617 	ldw	r2,-25768(gp)
     558:	1080004c 	andi	r2,r2,1
     55c:	10803fcc 	andi	r2,r2,255
     560:	1005003a 	cmpeq	r2,r2,zero
     564:	10000a1e 	bne	r2,zero,590 <cam_track+0xcc>
			vgaPtr = VGA_MEM_START + ((row - 12)/2 << 7);
     568:	d0a6d617 	ldw	r2,-25768(gp)
     56c:	10fffd04 	addi	r3,r2,-12
     570:	1804d7fa 	srli	r2,r3,31
     574:	10c5883a 	add	r2,r2,r3
     578:	1005d07a 	srai	r2,r2,1
     57c:	100491fa 	slli	r2,r2,7
     580:	1007883a 	mov	r3,r2
     584:	00a02034 	movhi	r2,32896
     588:	1885883a 	add	r2,r3,r2
     58c:	d0a6d415 	stw	r2,-25776(gp)
		}
		//gather pixels in each column
		while(!(*CAM_CNTRL_REGISTER & CAM_CNTRL_HREF_MASK)); //while 0
     590:	00a02034 	movhi	r2,32896
     594:	10880004 	addi	r2,r2,8192
     598:	10800003 	ldbu	r2,0(r2)
     59c:	10803fcc 	andi	r2,r2,255
     5a0:	1080008c 	andi	r2,r2,2
     5a4:	1005003a 	cmpeq	r2,r2,zero
     5a8:	103ff91e 	bne	r2,zero,590 <cam_track+0xcc>
		for(col = 0; (col < QCIF_COL_MAX) && (*CAM_CNTRL_REGISTER & CAM_CNTRL_HREF_MASK); col++){
     5ac:	d026d515 	stw	zero,-25772(gp)
     5b0:	00007606 	br	78c <cam_track+0x2c8>
			//get single pixel
			while(!(*CAM_CNTRL_REGISTER & CAM_CNTRL_PCLK_MASK));
     5b4:	00a02034 	movhi	r2,32896
     5b8:	10880004 	addi	r2,r2,8192
     5bc:	10800003 	ldbu	r2,0(r2)
     5c0:	10803fcc 	andi	r2,r2,255
     5c4:	1080004c 	andi	r2,r2,1
     5c8:	1005003a 	cmpeq	r2,r2,zero
     5cc:	103ff91e 	bne	r2,zero,5b4 <cam_track+0xf0>
			pixel = *CAM_PIXEL_REGISTER;
     5d0:	00a02034 	movhi	r2,32896
     5d4:	10880404 	addi	r2,r2,8208
     5d8:	10800003 	ldbu	r2,0(r2)
     5dc:	10803fcc 	andi	r2,r2,255
     5e0:	d0a6d30d 	sth	r2,-25780(gp)
			while((*CAM_CNTRL_REGISTER & CAM_CNTRL_PCLK_MASK));
     5e4:	00a02034 	movhi	r2,32896
     5e8:	10880004 	addi	r2,r2,8192
     5ec:	10800003 	ldbu	r2,0(r2)
     5f0:	10803fcc 	andi	r2,r2,255
     5f4:	1080004c 	andi	r2,r2,1
     5f8:	10803fcc 	andi	r2,r2,255
     5fc:	1004c03a 	cmpne	r2,r2,zero
     600:	103ff81e 	bne	r2,zero,5e4 <cam_track+0x120>

			//display pixels to VGA
			if(row > 11 && row < 132 && row%2 && col > 7 && col < 168 && col%2){
     604:	d0a6d617 	ldw	r2,-25768(gp)
     608:	10800310 	cmplti	r2,r2,12
     60c:	10005c1e 	bne	r2,zero,780 <cam_track+0x2bc>
     610:	d0a6d617 	ldw	r2,-25768(gp)
     614:	10802108 	cmpgei	r2,r2,132
     618:	1000591e 	bne	r2,zero,780 <cam_track+0x2bc>
     61c:	d0a6d617 	ldw	r2,-25768(gp)
     620:	1080004c 	andi	r2,r2,1
     624:	10803fcc 	andi	r2,r2,255
     628:	1005003a 	cmpeq	r2,r2,zero
     62c:	1000541e 	bne	r2,zero,780 <cam_track+0x2bc>
     630:	d0a6d517 	ldw	r2,-25772(gp)
     634:	10800210 	cmplti	r2,r2,8
     638:	1000511e 	bne	r2,zero,780 <cam_track+0x2bc>
     63c:	d0a6d517 	ldw	r2,-25772(gp)
     640:	10802a08 	cmpgei	r2,r2,168
     644:	10004e1e 	bne	r2,zero,780 <cam_track+0x2bc>
     648:	d0a6d517 	ldw	r2,-25772(gp)
     64c:	1080004c 	andi	r2,r2,1
     650:	10803fcc 	andi	r2,r2,255
     654:	1005003a 	cmpeq	r2,r2,zero
     658:	1000491e 	bne	r2,zero,780 <cam_track+0x2bc>
				//write to VGA
				if(pixel >= thresMin && pixel <= thresMax){
     65c:	e0bffc03 	ldbu	r2,-16(fp)
     660:	d0e6d30b 	ldhu	r3,-25780(gp)
     664:	113fffcc 	andi	r4,r2,65535
     668:	18bfffcc 	andi	r2,r3,65535
     66c:	11001b36 	bltu	r2,r4,6dc <cam_track+0x218>
     670:	e0bffd03 	ldbu	r2,-12(fp)
     674:	d0e6d30b 	ldhu	r3,-25780(gp)
     678:	113fffcc 	andi	r4,r2,65535
     67c:	18bfffcc 	andi	r2,r3,65535
     680:	20801636 	bltu	r4,r2,6dc <cam_track+0x218>
					vpixel = MIN_CONFIDENCE_MATCH + prevPixel;
     684:	d0a6d20b 	ldhu	r2,-25784(gp)
     688:	10801fc4 	addi	r2,r2,127
     68c:	d0a6d28d 	sth	r2,-25782(gp)
					prevPixel = *vgaPtr = (vpixel > 0x00FF)? 0xFF : (uint8_t)(vpixel);
     690:	d0a6d417 	ldw	r2,-25776(gp)
     694:	e0bfff15 	stw	r2,-4(fp)
     698:	d0a6d28b 	ldhu	r2,-25782(gp)
     69c:	10bfffcc 	andi	r2,r2,65535
     6a0:	10804028 	cmpgeui	r2,r2,256
     6a4:	1000031e 	bne	r2,zero,6b4 <cam_track+0x1f0>
     6a8:	d0a6d28b 	ldhu	r2,-25782(gp)
     6ac:	e0bffe05 	stb	r2,-8(fp)
     6b0:	00000206 	br	6bc <cam_track+0x1f8>
     6b4:	00ffffc4 	movi	r3,-1
     6b8:	e0fffe05 	stb	r3,-8(fp)
     6bc:	e0bffe03 	ldbu	r2,-8(fp)
     6c0:	e0ffff17 	ldw	r3,-4(fp)
     6c4:	18800005 	stb	r2,0(r3)
     6c8:	e0ffff17 	ldw	r3,-4(fp)
     6cc:	18800003 	ldbu	r2,0(r3)
     6d0:	10803fcc 	andi	r2,r2,255
     6d4:	d0a6d20d 	sth	r2,-25784(gp)
			while((*CAM_CNTRL_REGISTER & CAM_CNTRL_PCLK_MASK));

			//display pixels to VGA
			if(row > 11 && row < 132 && row%2 && col > 7 && col < 168 && col%2){
				//write to VGA
				if(pixel >= thresMin && pixel <= thresMax){
     6d8:	00001106 	br	720 <cam_track+0x25c>
					vpixel = MIN_CONFIDENCE_MATCH + prevPixel;
					prevPixel = *vgaPtr = (vpixel > 0x00FF)? 0xFF : (uint8_t)(vpixel);
				}else{
					vpixel = (prevPixel >= MIN_CONFIDENCE_MATCH)?
     6dc:	d0a6d20b 	ldhu	r2,-25784(gp)
     6e0:	10bfffcc 	andi	r2,r2,65535
     6e4:	10801ff0 	cmpltui	r2,r2,127
     6e8:	1000041e 	bne	r2,zero,6fc <cam_track+0x238>
     6ec:	d0a6d20b 	ldhu	r2,-25784(gp)
     6f0:	10bfe044 	addi	r2,r2,-127
     6f4:	e0bffd8d 	sth	r2,-10(fp)
     6f8:	00000106 	br	700 <cam_track+0x23c>
     6fc:	e03ffd8d 	sth	zero,-10(fp)
     700:	e0bffd8b 	ldhu	r2,-10(fp)
     704:	d0a6d28d 	sth	r2,-25782(gp)
							 (prevPixel - MIN_CONFIDENCE_MATCH) : 0;
					prevPixel = *vgaPtr = (uint8_t)(vpixel);
     708:	d0e6d417 	ldw	r3,-25776(gp)
     70c:	d0a6d28b 	ldhu	r2,-25782(gp)
     710:	18800005 	stb	r2,0(r3)
     714:	18800003 	ldbu	r2,0(r3)
     718:	10803fcc 	andi	r2,r2,255
     71c:	d0a6d20d 	sth	r2,-25784(gp)
				}
				vgaPtr++;
     720:	d0a6d417 	ldw	r2,-25776(gp)
     724:	10800044 	addi	r2,r2,1
     728:	d0a6d415 	stw	r2,-25776(gp)

				//update pixel information
				if(fd.maxBrightness < pixel)
     72c:	d0a6d703 	ldbu	r2,-25764(gp)
     730:	10803fcc 	andi	r2,r2,255
     734:	d0e6d30b 	ldhu	r3,-25780(gp)
     738:	113fffcc 	andi	r4,r2,65535
     73c:	18bfffcc 	andi	r2,r3,65535
     740:	2080022e 	bgeu	r4,r2,74c <cam_track+0x288>
					fd.maxBrightness = pixel;
     744:	d0a6d30b 	ldhu	r2,-25780(gp)
     748:	d0a6d705 	stb	r2,-25764(gp)
				if(fd.minBrightness > pixel)
     74c:	008000b4 	movhi	r2,2
     750:	10a1b844 	addi	r2,r2,-31007
     754:	10800003 	ldbu	r2,0(r2)
     758:	10803fcc 	andi	r2,r2,255
     75c:	d0e6d30b 	ldhu	r3,-25780(gp)
     760:	113fffcc 	andi	r4,r2,65535
     764:	18bfffcc 	andi	r2,r3,65535
     768:	1100052e 	bgeu	r2,r4,780 <cam_track+0x2bc>
					fd.minBrightness = pixel;
     76c:	d0a6d30b 	ldhu	r2,-25780(gp)
     770:	1007883a 	mov	r3,r2
     774:	008000b4 	movhi	r2,2
     778:	10a1b844 	addi	r2,r2,-31007
     77c:	10c00005 	stb	r3,0(r2)
		if(row > 11 && row < 132 && row%2){
			vgaPtr = VGA_MEM_START + ((row - 12)/2 << 7);
		}
		//gather pixels in each column
		while(!(*CAM_CNTRL_REGISTER & CAM_CNTRL_HREF_MASK)); //while 0
		for(col = 0; (col < QCIF_COL_MAX) && (*CAM_CNTRL_REGISTER & CAM_CNTRL_HREF_MASK); col++){
     780:	d0a6d517 	ldw	r2,-25772(gp)
     784:	10800044 	addi	r2,r2,1
     788:	d0a6d515 	stw	r2,-25772(gp)
     78c:	d0a6d517 	ldw	r2,-25772(gp)
     790:	10802c08 	cmpgei	r2,r2,176
     794:	1000071e 	bne	r2,zero,7b4 <cam_track+0x2f0>
     798:	00a02034 	movhi	r2,32896
     79c:	10880004 	addi	r2,r2,8192
     7a0:	10800003 	ldbu	r2,0(r2)
     7a4:	10803fcc 	andi	r2,r2,255
     7a8:	1080008c 	andi	r2,r2,2
     7ac:	1004c03a 	cmpne	r2,r2,zero
     7b0:	103f801e 	bne	r2,zero,5b4 <cam_track+0xf0>
					fd.maxBrightness = pixel;
				if(fd.minBrightness > pixel)
					fd.minBrightness = pixel;
			}
		}
		while((*CAM_CNTRL_REGISTER & CAM_CNTRL_HREF_MASK));
     7b4:	00a02034 	movhi	r2,32896
     7b8:	10880004 	addi	r2,r2,8192
     7bc:	10800003 	ldbu	r2,0(r2)
     7c0:	10803fcc 	andi	r2,r2,255
     7c4:	1080008c 	andi	r2,r2,2
     7c8:	1004c03a 	cmpne	r2,r2,zero
     7cc:	103ff91e 	bne	r2,zero,7b4 <cam_track+0x2f0>
	fd.maxBrightness = 0x00;
	fd.minBrightness = 0xFF;
	vgaPtr = VGA_MEM_START;

	//gather by row
	for(row = QCIF_ROW_MAX-1;row >= 0; row--){
     7d0:	d0a6d617 	ldw	r2,-25768(gp)
     7d4:	10bfffc4 	addi	r2,r2,-1
     7d8:	d0a6d615 	stw	r2,-25768(gp)
     7dc:	d0a6d617 	ldw	r2,-25768(gp)
     7e0:	1004403a 	cmpge	r2,r2,zero
     7e4:	103f541e 	bne	r2,zero,538 <cam_track+0x74>
					fd.minBrightness = pixel;
			}
		}
		while((*CAM_CNTRL_REGISTER & CAM_CNTRL_HREF_MASK));
	}
	return &fd;
     7e8:	d0a6d704 	addi	r2,gp,-25764
}
     7ec:	e037883a 	mov	sp,fp
     7f0:	df000017 	ldw	fp,0(sp)
     7f4:	dec00104 	addi	sp,sp,4
     7f8:	f800283a 	ret

000007fc <cmd_init>:

/**
 * Initializes the command line module. Specifically the command list is
 * generated so that command parsing can occur.
 */
void cmd_init(){
     7fc:	defffe04 	addi	sp,sp,-8
     800:	dfc00115 	stw	ra,4(sp)
     804:	df000015 	stw	fp,0(sp)
     808:	d839883a 	mov	fp,sp
	_generateList();
     80c:	00009540 	call	954 <_generateList>
}
     810:	e037883a 	mov	sp,fp
     814:	dfc00117 	ldw	ra,4(sp)
     818:	df000017 	ldw	fp,0(sp)
     81c:	dec00204 	addi	sp,sp,8
     820:	f800283a 	ret

00000824 <cmd_getCommand>:

/**
 * Gets the command from the user and will perform that action. Blocking
 */
void cmd_getCommand(){
     824:	defffa04 	addi	sp,sp,-24
     828:	dfc00515 	stw	ra,20(sp)
     82c:	df000415 	stw	fp,16(sp)
     830:	df000404 	addi	fp,sp,16
	//print prompt to the user for next command
	printf("\nEnter Command:");
     834:	01000074 	movhi	r4,1
     838:	21111004 	addi	r4,r4,17472
     83c:	00037bc0 	call	37bc <printf>

	//block until string entered
	fgets(inputStr, sizeof inputStr,stdin);
     840:	00800074 	movhi	r2,1
     844:	109ae204 	addi	r2,r2,27528
     848:	10800017 	ldw	r2,0(r2)
     84c:	11800117 	ldw	r6,4(r2)
     850:	010000b4 	movhi	r4,2
     854:	2121d104 	addi	r4,r4,-30908
     858:	01401404 	movi	r5,80
     85c:	00029fc0 	call	29fc <fgets>
	char* str = inputStr;
     860:	008000b4 	movhi	r2,2
     864:	10a1d104 	addi	r2,r2,-30908
     868:	e0bffe15 	stw	r2,-8(fp)
	while(*str){
     86c:	00001d06 	br	8e4 <cmd_getCommand+0xc0>
		*str = toupper(*str);
     870:	e0bffe17 	ldw	r2,-8(fp)
     874:	10800003 	ldbu	r2,0(r2)
     878:	10803fcc 	andi	r2,r2,255
     87c:	1080201c 	xori	r2,r2,128
     880:	10bfe004 	addi	r2,r2,-128
     884:	e0bffc15 	stw	r2,-16(fp)
     888:	00800074 	movhi	r2,1
     88c:	109ae104 	addi	r2,r2,27524
     890:	10c00017 	ldw	r3,0(r2)
     894:	e0bffc17 	ldw	r2,-16(fp)
     898:	1885883a 	add	r2,r3,r2
     89c:	10800003 	ldbu	r2,0(r2)
     8a0:	10803fcc 	andi	r2,r2,255
     8a4:	1080008c 	andi	r2,r2,2
     8a8:	1005003a 	cmpeq	r2,r2,zero
     8ac:	1000041e 	bne	r2,zero,8c0 <cmd_getCommand+0x9c>
     8b0:	e0bffc17 	ldw	r2,-16(fp)
     8b4:	10bff804 	addi	r2,r2,-32
     8b8:	e0bfff15 	stw	r2,-4(fp)
     8bc:	00000206 	br	8c8 <cmd_getCommand+0xa4>
     8c0:	e0bffc17 	ldw	r2,-16(fp)
     8c4:	e0bfff15 	stw	r2,-4(fp)
     8c8:	e0bfff17 	ldw	r2,-4(fp)
     8cc:	1007883a 	mov	r3,r2
     8d0:	e0bffe17 	ldw	r2,-8(fp)
     8d4:	10c00005 	stb	r3,0(r2)
		str++;
     8d8:	e0bffe17 	ldw	r2,-8(fp)
     8dc:	10800044 	addi	r2,r2,1
     8e0:	e0bffe15 	stw	r2,-8(fp)
	printf("\nEnter Command:");

	//block until string entered
	fgets(inputStr, sizeof inputStr,stdin);
	char* str = inputStr;
	while(*str){
     8e4:	e0bffe17 	ldw	r2,-8(fp)
     8e8:	10800003 	ldbu	r2,0(r2)
     8ec:	10803fcc 	andi	r2,r2,255
     8f0:	1080201c 	xori	r2,r2,128
     8f4:	10bfe004 	addi	r2,r2,-128
     8f8:	1004c03a 	cmpne	r2,r2,zero
     8fc:	103fdc1e 	bne	r2,zero,870 <cmd_getCommand+0x4c>
		*str = toupper(*str);
		str++;
	}

	//parse for command
	int matched = sscanf(inputStr,"%s",cmdStr);
     900:	010000b4 	movhi	r4,2
     904:	2121d104 	addi	r4,r4,-30908
     908:	01400074 	movhi	r5,1
     90c:	29511404 	addi	r5,r5,17488
     910:	018000b4 	movhi	r6,2
     914:	31a1e504 	addi	r6,r6,-30828
     918:	0003cc00 	call	3cc0 <sscanf>
     91c:	e0bffd15 	stw	r2,-12(fp)
	if(matched != EOF){
     920:	e0bffd17 	ldw	r2,-12(fp)
     924:	10bfffe0 	cmpeqi	r2,r2,-1
     928:	1000051e 	bne	r2,zero,940 <cmd_getCommand+0x11c>
		cmd_parseInput(inputStr,cmdStr);
     92c:	010000b4 	movhi	r4,2
     930:	2121d104 	addi	r4,r4,-30908
     934:	014000b4 	movhi	r5,2
     938:	2961e504 	addi	r5,r5,-30828
     93c:	0000a240 	call	a24 <cmd_parseInput>
	}
}
     940:	e037883a 	mov	sp,fp
     944:	dfc00117 	ldw	ra,4(sp)
     948:	df000017 	ldw	fp,0(sp)
     94c:	dec00204 	addi	sp,sp,8
     950:	f800283a 	ret

00000954 <_generateList>:

/**
 * Generates the list of commands in an array of pointers so that commands
 * can be looked up based on their name when parsed.
 */
static void _generateList(){
     954:	deffff04 	addi	sp,sp,-4
     958:	df000015 	stw	fp,0(sp)
     95c:	d839883a 	mov	fp,sp
	//setup command list
	commandList[0] = &RR;
     960:	00c000b4 	movhi	r3,2
     964:	18e1c804 	addi	r3,r3,-30944
     968:	00800074 	movhi	r2,1
     96c:	10944404 	addi	r2,r2,20752
     970:	18800015 	stw	r2,0(r3)
	commandList[1] = &WR;
     974:	00c000b4 	movhi	r3,2
     978:	18e1c804 	addi	r3,r3,-30944
     97c:	00800074 	movhi	r2,1
     980:	10944704 	addi	r2,r2,20764
     984:	18800115 	stw	r2,4(r3)
	commandList[2] = &HELP;
     988:	00c000b4 	movhi	r3,2
     98c:	18e1c804 	addi	r3,r3,-30944
     990:	00800074 	movhi	r2,1
     994:	10943504 	addi	r2,r2,20692
     998:	18800215 	stw	r2,8(r3)
	commandList[3] = &PAN;
     99c:	00c000b4 	movhi	r3,2
     9a0:	18e1c804 	addi	r3,r3,-30944
     9a4:	00800074 	movhi	r2,1
     9a8:	10944a04 	addi	r2,r2,20776
     9ac:	18800315 	stw	r2,12(r3)
	commandList[4] = &TILT;
     9b0:	00c000b4 	movhi	r3,2
     9b4:	18e1c804 	addi	r3,r3,-30944
     9b8:	00800074 	movhi	r2,1
     9bc:	10944d04 	addi	r2,r2,20788
     9c0:	18800415 	stw	r2,16(r3)
	commandList[5] = &WRCAMREG;
     9c4:	00c000b4 	movhi	r3,2
     9c8:	18e1c804 	addi	r3,r3,-30944
     9cc:	00800074 	movhi	r2,1
     9d0:	10943b04 	addi	r2,r2,20716
     9d4:	18800515 	stw	r2,20(r3)
	commandList[6] = &RDCAMREG;
     9d8:	00c000b4 	movhi	r3,2
     9dc:	18e1c804 	addi	r3,r3,-30944
     9e0:	00800074 	movhi	r2,1
     9e4:	10943804 	addi	r2,r2,20704
     9e8:	18800615 	stw	r2,24(r3)
	commandList[7] = &IMAGE;
     9ec:	00c000b4 	movhi	r3,2
     9f0:	18e1c804 	addi	r3,r3,-30944
     9f4:	00800074 	movhi	r2,1
     9f8:	10943e04 	addi	r2,r2,20728
     9fc:	18800715 	stw	r2,28(r3)
	commandList[8] = &TRACK;
     a00:	00c000b4 	movhi	r3,2
     a04:	18e1c804 	addi	r3,r3,-30944
     a08:	00800074 	movhi	r2,1
     a0c:	10944104 	addi	r2,r2,20740
     a10:	18800815 	stw	r2,32(r3)
}
     a14:	e037883a 	mov	sp,fp
     a18:	df000017 	ldw	fp,0(sp)
     a1c:	dec00104 	addi	sp,sp,4
     a20:	f800283a 	ret

00000a24 <cmd_parseInput>:
 * Matches the command given by the user with the predefined list. Will run
 * any command that is matched with given.
 * @param inputStr original string from the user.
 * @param cmdStr parsed out command for matching and further parsing.
 */
static void cmd_parseInput(char* inputStr, char* cmdStr){
     a24:	defffa04 	addi	sp,sp,-24
     a28:	dfc00515 	stw	ra,20(sp)
     a2c:	df000415 	stw	fp,16(sp)
     a30:	df000404 	addi	fp,sp,16
     a34:	e13ffe15 	stw	r4,-8(fp)
     a38:	e17fff15 	stw	r5,-4(fp)
		//search command list for match
		int commandFoundFlag = 0;
     a3c:	e03ffd15 	stw	zero,-12(fp)
		int i; for(i = 0; i < NUMBER_OF_COMMANDS;++i){
     a40:	e03ffc15 	stw	zero,-16(fp)
     a44:	00001c06 	br	ab8 <cmd_parseInput+0x94>
			if(strcmp(cmdStr,commandList[i]->name)==0){
     a48:	e0bffc17 	ldw	r2,-16(fp)
     a4c:	00c000b4 	movhi	r3,2
     a50:	18e1c804 	addi	r3,r3,-30944
     a54:	1085883a 	add	r2,r2,r2
     a58:	1085883a 	add	r2,r2,r2
     a5c:	10c5883a 	add	r2,r2,r3
     a60:	10800017 	ldw	r2,0(r2)
     a64:	11400017 	ldw	r5,0(r2)
     a68:	e13fff17 	ldw	r4,-4(fp)
     a6c:	0003f200 	call	3f20 <strcmp>
     a70:	1004c03a 	cmpne	r2,r2,zero
     a74:	10000d1e 	bne	r2,zero,aac <cmd_parseInput+0x88>
				lcd_clr();
     a78:	0001cfc0 	call	1cfc <lcd_clr>
				commandList[i]->cmdFnt(inputStr);
     a7c:	e0bffc17 	ldw	r2,-16(fp)
     a80:	00c000b4 	movhi	r3,2
     a84:	18e1c804 	addi	r3,r3,-30944
     a88:	1085883a 	add	r2,r2,r2
     a8c:	1085883a 	add	r2,r2,r2
     a90:	10c5883a 	add	r2,r2,r3
     a94:	10800017 	ldw	r2,0(r2)
     a98:	10800217 	ldw	r2,8(r2)
     a9c:	e13ffe17 	ldw	r4,-8(fp)
     aa0:	103ee83a 	callr	r2
				commandFoundFlag = 1;
     aa4:	00800044 	movi	r2,1
     aa8:	e0bffd15 	stw	r2,-12(fp)
 * @param cmdStr parsed out command for matching and further parsing.
 */
static void cmd_parseInput(char* inputStr, char* cmdStr){
		//search command list for match
		int commandFoundFlag = 0;
		int i; for(i = 0; i < NUMBER_OF_COMMANDS;++i){
     aac:	e0bffc17 	ldw	r2,-16(fp)
     ab0:	10800044 	addi	r2,r2,1
     ab4:	e0bffc15 	stw	r2,-16(fp)
     ab8:	e0bffc17 	ldw	r2,-16(fp)
     abc:	10800250 	cmplti	r2,r2,9
     ac0:	103fe11e 	bne	r2,zero,a48 <cmd_parseInput+0x24>
				commandFoundFlag = 1;
			}
		}

		//if command not found then print error message
		if(!commandFoundFlag){
     ac4:	e0bffd17 	ldw	r2,-12(fp)
     ac8:	1004c03a 	cmpne	r2,r2,zero
     acc:	1000031e 	bne	r2,zero,adc <cmd_parseInput+0xb8>
			printf("Invalid Command.\n");
     ad0:	01000074 	movhi	r4,1
     ad4:	21111504 	addi	r4,r4,17492
     ad8:	00038f80 	call	38f8 <puts>
		}
}
     adc:	e037883a 	mov	sp,fp
     ae0:	dfc00117 	ldw	ra,4(sp)
     ae4:	df000017 	ldw	fp,0(sp)
     ae8:	dec00204 	addi	sp,sp,8
     aec:	f800283a 	ret

00000af0 <_help>:

/**
 * Help Command Function
 * @param arg string to parse
 */
static void _help(char* arg){
     af0:	deffe404 	addi	sp,sp,-112
     af4:	dfc01b15 	stw	ra,108(sp)
     af8:	df001a15 	stw	fp,104(sp)
     afc:	df001a04 	addi	fp,sp,104
     b00:	e13fff15 	stw	r4,-4(fp)
	lcd_printString("Help Menu");
     b04:	01000074 	movhi	r4,1
     b08:	21111a04 	addi	r4,r4,17512
     b0c:	0001de00 	call	1de0 <lcd_printString>
	char cmd[5];
	char otherStr[80]; //large to prevent failure of size

	//parse string for HELP <command> or HELP
	int matched = sscanf(arg,"%s %s",cmd,otherStr);
     b10:	e1bfe904 	addi	r6,fp,-92
     b14:	e1ffea44 	addi	r7,fp,-87
     b18:	e13fff17 	ldw	r4,-4(fp)
     b1c:	01400074 	movhi	r5,1
     b20:	29511d04 	addi	r5,r5,17524
     b24:	0003cc00 	call	3cc0 <sscanf>
     b28:	e0bfe815 	stw	r2,-96(fp)
	if(matched == 2){
     b2c:	e0bfe817 	ldw	r2,-96(fp)
     b30:	10800098 	cmpnei	r2,r2,2
     b34:	1000441e 	bne	r2,zero,c48 <_help+0x158>
		//check for all parameter
		if(strcmp(otherStr,"ALL") == 0){
     b38:	e13fea44 	addi	r4,fp,-87
     b3c:	01400074 	movhi	r5,1
     b40:	29511f04 	addi	r5,r5,17532
     b44:	0003f200 	call	3f20 <strcmp>
     b48:	1004c03a 	cmpne	r2,r2,zero
     b4c:	10001c1e 	bne	r2,zero,bc0 <_help+0xd0>
			int i; for(i = 0; i < NUMBER_OF_COMMANDS; ++i){
     b50:	e03fe715 	stw	zero,-100(fp)
     b54:	00001606 	br	bb0 <_help+0xc0>
				printf("%s:\n%s\n",commandList[i]->name,
     b58:	e0bfe717 	ldw	r2,-100(fp)
     b5c:	00c000b4 	movhi	r3,2
     b60:	18e1c804 	addi	r3,r3,-30944
     b64:	1085883a 	add	r2,r2,r2
     b68:	1085883a 	add	r2,r2,r2
     b6c:	10c5883a 	add	r2,r2,r3
     b70:	10800017 	ldw	r2,0(r2)
     b74:	11400017 	ldw	r5,0(r2)
     b78:	e0bfe717 	ldw	r2,-100(fp)
     b7c:	00c000b4 	movhi	r3,2
     b80:	18e1c804 	addi	r3,r3,-30944
     b84:	1085883a 	add	r2,r2,r2
     b88:	1085883a 	add	r2,r2,r2
     b8c:	10c5883a 	add	r2,r2,r3
     b90:	10800017 	ldw	r2,0(r2)
     b94:	11800117 	ldw	r6,4(r2)
     b98:	01000074 	movhi	r4,1
     b9c:	21112004 	addi	r4,r4,17536
     ba0:	00037bc0 	call	37bc <printf>
	//parse string for HELP <command> or HELP
	int matched = sscanf(arg,"%s %s",cmd,otherStr);
	if(matched == 2){
		//check for all parameter
		if(strcmp(otherStr,"ALL") == 0){
			int i; for(i = 0; i < NUMBER_OF_COMMANDS; ++i){
     ba4:	e0bfe717 	ldw	r2,-100(fp)
     ba8:	10800044 	addi	r2,r2,1
     bac:	e0bfe715 	stw	r2,-100(fp)
     bb0:	e0bfe717 	ldw	r2,-100(fp)
     bb4:	10800250 	cmplti	r2,r2,9
     bb8:	103fe71e 	bne	r2,zero,b58 <_help+0x68>
				printf("%s:\n%s\n",commandList[i]->name,
						commandList[i]->helpInfo);
			}
			return;
     bbc:	00002606 	br	c58 <_help+0x168>
		}else{
			//search list of commands for helpInfo and print
			int i; for(i = 0; i < NUMBER_OF_COMMANDS; ++i){
     bc0:	e03fe615 	stw	zero,-104(fp)
     bc4:	00001906 	br	c2c <_help+0x13c>
				if(strcmp(otherStr,commandList[i]->name)==0){
     bc8:	e0bfe617 	ldw	r2,-104(fp)
     bcc:	00c000b4 	movhi	r3,2
     bd0:	18e1c804 	addi	r3,r3,-30944
     bd4:	1085883a 	add	r2,r2,r2
     bd8:	1085883a 	add	r2,r2,r2
     bdc:	10c5883a 	add	r2,r2,r3
     be0:	10800017 	ldw	r2,0(r2)
     be4:	11400017 	ldw	r5,0(r2)
     be8:	e13fea44 	addi	r4,fp,-87
     bec:	0003f200 	call	3f20 <strcmp>
     bf0:	1004c03a 	cmpne	r2,r2,zero
     bf4:	10000a1e 	bne	r2,zero,c20 <_help+0x130>
					printf(commandList[i]->helpInfo);
     bf8:	e0bfe617 	ldw	r2,-104(fp)
     bfc:	00c000b4 	movhi	r3,2
     c00:	18e1c804 	addi	r3,r3,-30944
     c04:	1085883a 	add	r2,r2,r2
     c08:	1085883a 	add	r2,r2,r2
     c0c:	10c5883a 	add	r2,r2,r3
     c10:	10800017 	ldw	r2,0(r2)
     c14:	11000117 	ldw	r4,4(r2)
     c18:	00037bc0 	call	37bc <printf>
					return; //ends early as the item was found
     c1c:	00000e06 	br	c58 <_help+0x168>
						commandList[i]->helpInfo);
			}
			return;
		}else{
			//search list of commands for helpInfo and print
			int i; for(i = 0; i < NUMBER_OF_COMMANDS; ++i){
     c20:	e0bfe617 	ldw	r2,-104(fp)
     c24:	10800044 	addi	r2,r2,1
     c28:	e0bfe615 	stw	r2,-104(fp)
     c2c:	e0bfe617 	ldw	r2,-104(fp)
     c30:	10800250 	cmplti	r2,r2,9
     c34:	103fe41e 	bne	r2,zero,bc8 <_help+0xd8>
				}
			}
		}

		//did not find command.
		printf("Command %s is not valid.\n",otherStr);
     c38:	e17fea44 	addi	r5,fp,-87
     c3c:	01000074 	movhi	r4,1
     c40:	21112204 	addi	r4,r4,17544
     c44:	00037bc0 	call	37bc <printf>
	}

	//print its own help info
	printf(HELP.helpInfo);
     c48:	00800074 	movhi	r2,1
     c4c:	10943504 	addi	r2,r2,20692
     c50:	11000117 	ldw	r4,4(r2)
     c54:	00037bc0 	call	37bc <printf>
}
     c58:	e037883a 	mov	sp,fp
     c5c:	dfc00117 	ldw	ra,4(sp)
     c60:	df000017 	ldw	fp,0(sp)
     c64:	dec00204 	addi	sp,sp,8
     c68:	f800283a 	ret

00000c6c <_readCam>:

/**
 * Reads from the I2C camera.
 * @param arg string to parse
 */
static void _readCam(char* arg){
     c6c:	defff704 	addi	sp,sp,-36
     c70:	dfc00815 	stw	ra,32(sp)
     c74:	df000715 	stw	fp,28(sp)
     c78:	df000704 	addi	fp,sp,28
     c7c:	e13fff15 	stw	r4,-4(fp)
	lcd_printString("Reading I2C");
     c80:	01000074 	movhi	r4,1
     c84:	2111ab04 	addi	r4,r4,18092
     c88:	0001de00 	call	1de0 <lcd_printString>
	char cmd[10];
	unsigned int regNumber;
	int matched = sscanf(arg,"%s %x",cmd,&regNumber);
     c8c:	e1bffb04 	addi	r6,fp,-20
     c90:	e1fffe04 	addi	r7,fp,-8
     c94:	e13fff17 	ldw	r4,-4(fp)
     c98:	01400074 	movhi	r5,1
     c9c:	2951ae04 	addi	r5,r5,18104
     ca0:	0003cc00 	call	3cc0 <sscanf>
     ca4:	e0bffa15 	stw	r2,-24(fp)
	if(matched > 1){
     ca8:	e0bffa17 	ldw	r2,-24(fp)
     cac:	10800090 	cmplti	r2,r2,2
     cb0:	10000b1e 	bne	r2,zero,ce0 <_readCam+0x74>
		unsigned char data = I2C_read(CAMERA_I2C_ADDRESS,regNumber);
     cb4:	e0bffe17 	ldw	r2,-8(fp)
     cb8:	11403fcc 	andi	r5,r2,255
     cbc:	01001804 	movi	r4,96
     cc0:	00019900 	call	1990 <I2C_read>
     cc4:	e0bff905 	stb	r2,-28(fp)
		printf("%02x: %02x\n",regNumber,data);
     cc8:	e17ffe17 	ldw	r5,-8(fp)
     ccc:	e1bff903 	ldbu	r6,-28(fp)
     cd0:	01000074 	movhi	r4,1
     cd4:	2111b004 	addi	r4,r4,18112
     cd8:	00037bc0 	call	37bc <printf>
     cdc:	00000306 	br	cec <_readCam+0x80>
	}else{
		printf("Invalid read command structure\n");
     ce0:	01000074 	movhi	r4,1
     ce4:	2111b304 	addi	r4,r4,18124
     ce8:	00038f80 	call	38f8 <puts>
	}
}
     cec:	e037883a 	mov	sp,fp
     cf0:	dfc00117 	ldw	ra,4(sp)
     cf4:	df000017 	ldw	fp,0(sp)
     cf8:	dec00204 	addi	sp,sp,8
     cfc:	f800283a 	ret

00000d00 <_writeCam>:

/**
 * Writes to the I2C camera.
 * @param arg string to parse.
 */
static void _writeCam(char* arg){
     d00:	defff604 	addi	sp,sp,-40
     d04:	dfc00915 	stw	ra,36(sp)
     d08:	df000815 	stw	fp,32(sp)
     d0c:	df000804 	addi	fp,sp,32
     d10:	e13fff15 	stw	r4,-4(fp)
	lcd_printString("Writing I2C");
     d14:	01000074 	movhi	r4,1
     d18:	2111bb04 	addi	r4,r4,18156
     d1c:	0001de00 	call	1de0 <lcd_printString>
	char cmd[10];
	unsigned int regNumber, value;
	int matched = sscanf(arg,"%s %x %x",cmd,&regNumber,&value);
     d20:	e1bffa04 	addi	r6,fp,-24
     d24:	e1fffd04 	addi	r7,fp,-12
     d28:	e0bffe04 	addi	r2,fp,-8
     d2c:	d8800015 	stw	r2,0(sp)
     d30:	e13fff17 	ldw	r4,-4(fp)
     d34:	01400074 	movhi	r5,1
     d38:	2951be04 	addi	r5,r5,18168
     d3c:	0003cc00 	call	3cc0 <sscanf>
     d40:	e0bff915 	stw	r2,-28(fp)
	if(matched > 2){
     d44:	e0bff917 	ldw	r2,-28(fp)
     d48:	108000d0 	cmplti	r2,r2,3
     d4c:	1000071e 	bne	r2,zero,d6c <_writeCam+0x6c>
		I2C_write(CAMERA_I2C_ADDRESS,regNumber,value);
     d50:	e0bffd17 	ldw	r2,-12(fp)
     d54:	11403fcc 	andi	r5,r2,255
     d58:	e0bffe17 	ldw	r2,-8(fp)
     d5c:	11803fcc 	andi	r6,r2,255
     d60:	01001804 	movi	r4,96
     d64:	0001a880 	call	1a88 <I2C_write>
     d68:	00000306 	br	d78 <_writeCam+0x78>
	}else{
		printf("Invalid write command structure\n");
     d6c:	01000074 	movhi	r4,1
     d70:	2111c104 	addi	r4,r4,18180
     d74:	00038f80 	call	38f8 <puts>
	}
}
     d78:	e037883a 	mov	sp,fp
     d7c:	dfc00117 	ldw	ra,4(sp)
     d80:	df000017 	ldw	fp,0(sp)
     d84:	dec00204 	addi	sp,sp,8
     d88:	f800283a 	ret

00000d8c <_displayImage>:
/**
 * Displays the camera image onto the VGA hardware. Runs in a loop until
 * pushbutton two is pressed to exit.
 * @param arg ignored
 */
static void _displayImage(char* arg){
     d8c:	defffd04 	addi	sp,sp,-12
     d90:	dfc00215 	stw	ra,8(sp)
     d94:	df000115 	stw	fp,4(sp)
     d98:	df000104 	addi	fp,sp,4
     d9c:	e13fff15 	stw	r4,-4(fp)
	lcd_printString("Displaying\nCamera Image");
     da0:	01000074 	movhi	r4,1
     da4:	2111c904 	addi	r4,r4,18212
     da8:	0001de00 	call	1de0 <lcd_printString>
	printf("Press Button 2 to exit.\n");
     dac:	01000074 	movhi	r4,1
     db0:	2111cf04 	addi	r4,r4,18236
     db4:	00038f80 	call	38f8 <puts>

	while(pushbutton_read(PUSHBUTTON_1_MASK)){
     db8:	00000106 	br	dc0 <_displayImage+0x34>
		cam_imageCapture();
     dbc:	00002c00 	call	2c0 <cam_imageCapture>
 */
static void _displayImage(char* arg){
	lcd_printString("Displaying\nCamera Image");
	printf("Press Button 2 to exit.\n");

	while(pushbutton_read(PUSHBUTTON_1_MASK)){
     dc0:	01000044 	movi	r4,1
     dc4:	00021480 	call	2148 <pushbutton_read>
     dc8:	10803fcc 	andi	r2,r2,255
     dcc:	1004c03a 	cmpne	r2,r2,zero
     dd0:	103ffa1e 	bne	r2,zero,dbc <_displayImage+0x30>
		cam_imageCapture();
	}

	//set to default
	vga_clearDisplay();
     dd4:	00023f00 	call	23f0 <vga_clearDisplay>
}
     dd8:	e037883a 	mov	sp,fp
     ddc:	dfc00117 	ldw	ra,4(sp)
     de0:	df000017 	ldw	fp,0(sp)
     de4:	dec00204 	addi	sp,sp,8
     de8:	f800283a 	ret

00000dec <_track>:
/**
 * Track command looks for target that meets threshold requirement. Manipulates
 * servo turret to track target under closed loop control.
 * @param arg ignored
 */
static void _track(char* arg){
     dec:	defff104 	addi	sp,sp,-60
     df0:	dfc00e15 	stw	ra,56(sp)
     df4:	df000d15 	stw	fp,52(sp)
     df8:	df000d04 	addi	fp,sp,52
     dfc:	e13ffc15 	stw	r4,-16(fp)

	//data members
	struct frameData* fd;
	struct boundingBox box;
	int16_t errorX, prevErrorX = 0;
     e00:	e03ff80d 	sth	zero,-32(fp)
	int16_t errorY, prevErrorY = 0;
     e04:	e03ff70d 	sth	zero,-36(fp)
	uint8_t targetMin = 0, targetMax = 0;
     e08:	e03ffb05 	stb	zero,-20(fp)
     e0c:	e03ffb45 	stb	zero,-19(fp)

	//parse user input
	FILTER_TYPE_t type = _track_inputParsing(arg,&targetMin,&targetMax);
     e10:	e17ffb04 	addi	r5,fp,-20
     e14:	e1bffb44 	addi	r6,fp,-19
     e18:	e13ffc17 	ldw	r4,-16(fp)
     e1c:	00011d00 	call	11d0 <_track_inputParsing>
     e20:	e0bff615 	stw	r2,-40(fp)
	if(type == ERROR){
     e24:	e0bff617 	ldw	r2,-40(fp)
     e28:	10800160 	cmpeqi	r2,r2,5
     e2c:	1000931e 	bne	r2,zero,107c <_track+0x290>
		return; //return since parse failed
	}

	//notify user UI of exit process
	lcd_printString("Tracking Target");
     e30:	01000074 	movhi	r4,1
     e34:	2111d504 	addi	r4,r4,18260
     e38:	0001de00 	call	1de0 <lcd_printString>
	printf("Press Button 2 to exit.\n");
     e3c:	01000074 	movhi	r4,1
     e40:	2111cf04 	addi	r4,r4,18236
     e44:	00038f80 	call	38f8 <puts>

	//loop the tracking until button pressed
	int16_t cogx,cogy;
	int32_t xcommand, ycommand;
	while(pushbutton_read(PUSHBUTTON_1_MASK)){
     e48:	00008506 	br	1060 <_track+0x274>
		//get frame data
		fd = cam_track(targetMin,targetMax);
     e4c:	e0bffb03 	ldbu	r2,-20(fp)
     e50:	11003fcc 	andi	r4,r2,255
     e54:	e0bffb43 	ldbu	r2,-19(fp)
     e58:	11403fcc 	andi	r5,r2,255
     e5c:	00004c40 	call	4c4 <cam_track>
     e60:	e0bff915 	stw	r2,-28(fp)

		//determine location of object
		box.minr = VGA_ROW_MAX;
     e64:	00800f04 	movi	r2,60
     e68:	e0bffa05 	stb	r2,-24(fp)
		box.minc = VGA_COL_MAX;
     e6c:	00801404 	movi	r2,80
     e70:	e0bffa45 	stb	r2,-23(fp)
		box.maxr = 0;
     e74:	e03ffa85 	stb	zero,-22(fp)
		box.maxc = 0;
     e78:	e03ffac5 	stb	zero,-21(fp)
		_track_boundingBox(&box);
     e7c:	e13ffa04 	addi	r4,fp,-24
     e80:	00010900 	call	1090 <_track_boundingBox>

		//calculate cog of the object
		cogy = (box.maxr + box.minr)/2;
     e84:	e0bffa83 	ldbu	r2,-22(fp)
     e88:	10c03fcc 	andi	r3,r2,255
     e8c:	e0bffa03 	ldbu	r2,-24(fp)
     e90:	10803fcc 	andi	r2,r2,255
     e94:	1887883a 	add	r3,r3,r2
     e98:	1804d7fa 	srli	r2,r3,31
     e9c:	10c5883a 	add	r2,r2,r3
     ea0:	1005d07a 	srai	r2,r2,1
     ea4:	e0bff50d 	sth	r2,-44(fp)
		cogx = (box.maxc + box.minc)/2;
     ea8:	e0bffac3 	ldbu	r2,-21(fp)
     eac:	10c03fcc 	andi	r3,r2,255
     eb0:	e0bffa43 	ldbu	r2,-23(fp)
     eb4:	10803fcc 	andi	r2,r2,255
     eb8:	1887883a 	add	r3,r3,r2
     ebc:	1804d7fa 	srli	r2,r3,31
     ec0:	10c5883a 	add	r2,r2,r3
     ec4:	1005d07a 	srai	r2,r2,1
     ec8:	e0bff58d 	sth	r2,-42(fp)
		if(cogx < 0 || cogy < 0){
     ecc:	e0bff58f 	ldh	r2,-42(fp)
     ed0:	1004803a 	cmplt	r2,r2,zero
     ed4:	1000621e 	bne	r2,zero,1060 <_track+0x274>
     ed8:	e0bff50f 	ldh	r2,-44(fp)
     edc:	1004803a 	cmplt	r2,r2,zero
     ee0:	10005f1e 	bne	r2,zero,1060 <_track+0x274>
			continue; //no pixels to track
		}

		//calculate servo command
		errorX = (40 - cogx);
     ee4:	e0fff58b 	ldhu	r3,-42(fp)
     ee8:	00800a04 	movi	r2,40
     eec:	10c5c83a 	sub	r2,r2,r3
     ef0:	e0bff88d 	sth	r2,-30(fp)
		errorY = (30 - cogy);
     ef4:	e0fff50b 	ldhu	r3,-44(fp)
     ef8:	00800784 	movi	r2,30
     efc:	10c5c83a 	sub	r2,r2,r3
     f00:	e0bff78d 	sth	r2,-34(fp)
		xcommand = ((errorX*PX) + (errorX - prevErrorX)*DX)/PID_DEM;
     f04:	e0bff88f 	ldh	r2,-30(fp)
     f08:	e0bffd15 	stw	r2,-12(fp)
     f0c:	e0fffd17 	ldw	r3,-12(fp)
     f10:	1804403a 	cmpge	r2,r3,zero
     f14:	1000031e 	bne	r2,zero,f24 <_track+0x138>
     f18:	e0bffd17 	ldw	r2,-12(fp)
     f1c:	108000c4 	addi	r2,r2,3
     f20:	e0bffd15 	stw	r2,-12(fp)
     f24:	e0fffd17 	ldw	r3,-12(fp)
     f28:	1805d0ba 	srai	r2,r3,2
     f2c:	e0bff415 	stw	r2,-48(fp)
		if(xcommand < MIN_SERVO_COMMAND_X && xcommand > -MIN_SERVO_COMMAND_X){
     f30:	e0bff417 	ldw	r2,-48(fp)
     f34:	10800048 	cmpgei	r2,r2,1
     f38:	1000041e 	bne	r2,zero,f4c <_track+0x160>
     f3c:	e0bff417 	ldw	r2,-48(fp)
     f40:	1004803a 	cmplt	r2,r2,zero
     f44:	1000011e 	bne	r2,zero,f4c <_track+0x160>
			xcommand = 0;
     f48:	e03ff415 	stw	zero,-48(fp)
		}
		ycommand = ((errorY*PY) + (errorY - prevErrorY)*DY)/PID_DEM;
     f4c:	e0fff78f 	ldh	r3,-34(fp)
     f50:	1805883a 	mov	r2,r3
     f54:	1085883a 	add	r2,r2,r2
     f58:	10c9883a 	add	r4,r2,r3
     f5c:	e0fff78f 	ldh	r3,-34(fp)
     f60:	e0bff70f 	ldh	r2,-36(fp)
     f64:	1885c83a 	sub	r2,r3,r2
     f68:	2085883a 	add	r2,r4,r2
     f6c:	e0bffe15 	stw	r2,-8(fp)
     f70:	e0fffe17 	ldw	r3,-8(fp)
     f74:	1804403a 	cmpge	r2,r3,zero
     f78:	1000031e 	bne	r2,zero,f88 <_track+0x19c>
     f7c:	e0bffe17 	ldw	r2,-8(fp)
     f80:	108001c4 	addi	r2,r2,7
     f84:	e0bffe15 	stw	r2,-8(fp)
     f88:	e0fffe17 	ldw	r3,-8(fp)
     f8c:	1805d0fa 	srai	r2,r3,3
     f90:	e0bff315 	stw	r2,-52(fp)
		if(ycommand < MIN_SERVO_COMMAND_Y && ycommand > -MIN_SERVO_COMMAND_Y){
     f94:	e0bff317 	ldw	r2,-52(fp)
     f98:	10800108 	cmpgei	r2,r2,4
     f9c:	1000041e 	bne	r2,zero,fb0 <_track+0x1c4>
     fa0:	e0bff317 	ldw	r2,-52(fp)
     fa4:	10bfff50 	cmplti	r2,r2,-3
     fa8:	1000011e 	bne	r2,zero,fb0 <_track+0x1c4>
			ycommand = 0;
     fac:	e03ff315 	stw	zero,-52(fp)
		}
		prevErrorX = errorX;
     fb0:	e0bff88b 	ldhu	r2,-30(fp)
     fb4:	e0bff80d 	sth	r2,-32(fp)
		prevErrorY = errorY;
     fb8:	e0bff78b 	ldhu	r2,-34(fp)
     fbc:	e0bff70d 	sth	r2,-36(fp)

		//set servo motors
		setServoX(xcommand);
     fc0:	e13ff417 	ldw	r4,-48(fp)
     fc4:	00025b80 	call	25b8 <setServoX>
		setServoY(ycommand);
     fc8:	e13ff317 	ldw	r4,-52(fp)
     fcc:	00026900 	call	2690 <setServoY>

		//adjust target value in automatic mode
		switch(type){
     fd0:	e0bff617 	ldw	r2,-40(fp)
     fd4:	e0bfff15 	stw	r2,-4(fp)
     fd8:	e0ffff17 	ldw	r3,-4(fp)
     fdc:	1805003a 	cmpeq	r2,r3,zero
     fe0:	1000041e 	bne	r2,zero,ff4 <_track+0x208>
     fe4:	e0ffff17 	ldw	r3,-4(fp)
     fe8:	18800060 	cmpeqi	r2,r3,1
     fec:	10000f1e 	bne	r2,zero,102c <_track+0x240>
     ff0:	00001b06 	br	1060 <_track+0x274>
			case DARK_AUTO:
				if(fd->minBrightness > (0xFF - TOLERANCE)){
     ff4:	e0bff917 	ldw	r2,-28(fp)
     ff8:	10800043 	ldbu	r2,1(r2)
     ffc:	10803fcc 	andi	r2,r2,255
    1000:	10803e30 	cmpltui	r2,r2,248
    1004:	1000041e 	bne	r2,zero,1018 <_track+0x22c>
					targetMax = fd->minBrightness;
    1008:	e0bff917 	ldw	r2,-28(fp)
    100c:	10800043 	ldbu	r2,1(r2)
    1010:	e0bffb45 	stb	r2,-19(fp)
    1014:	00001206 	br	1060 <_track+0x274>
				}else{
					targetMax = fd->minBrightness + TOLERANCE;
    1018:	e0bff917 	ldw	r2,-28(fp)
    101c:	10800043 	ldbu	r2,1(r2)
    1020:	10800204 	addi	r2,r2,8
    1024:	e0bffb45 	stb	r2,-19(fp)
				}
				break;
    1028:	00000d06 	br	1060 <_track+0x274>
			case LIGHT_AUTO:
				if(fd->maxBrightness < (TOLERANCE)){
    102c:	e0bff917 	ldw	r2,-28(fp)
    1030:	10800003 	ldbu	r2,0(r2)
    1034:	10803fcc 	andi	r2,r2,255
    1038:	10800228 	cmpgeui	r2,r2,8
    103c:	1000041e 	bne	r2,zero,1050 <_track+0x264>
					targetMin = fd->maxBrightness;
    1040:	e0bff917 	ldw	r2,-28(fp)
    1044:	10800003 	ldbu	r2,0(r2)
    1048:	e0bffb05 	stb	r2,-20(fp)
    104c:	00000406 	br	1060 <_track+0x274>
				}else{
					targetMin = fd->maxBrightness - TOLERANCE;
    1050:	e0bff917 	ldw	r2,-28(fp)
    1054:	10800003 	ldbu	r2,0(r2)
    1058:	10bffe04 	addi	r2,r2,-8
    105c:	e0bffb05 	stb	r2,-20(fp)
	printf("Press Button 2 to exit.\n");

	//loop the tracking until button pressed
	int16_t cogx,cogy;
	int32_t xcommand, ycommand;
	while(pushbutton_read(PUSHBUTTON_1_MASK)){
    1060:	01000044 	movi	r4,1
    1064:	00021480 	call	2148 <pushbutton_read>
    1068:	10803fcc 	andi	r2,r2,255
    106c:	1004c03a 	cmpne	r2,r2,zero
    1070:	103f761e 	bne	r2,zero,e4c <_track+0x60>
				break;
		}
	}

	//set system to default
	servo_init();
    1074:	000246c0 	call	246c <servo_init>
	vga_clearDisplay();
    1078:	00023f00 	call	23f0 <vga_clearDisplay>
}
    107c:	e037883a 	mov	sp,fp
    1080:	dfc00117 	ldw	ra,4(sp)
    1084:	df000017 	ldw	fp,0(sp)
    1088:	dec00204 	addi	sp,sp,8
    108c:	f800283a 	ret

00001090 <_track_boundingBox>:
/**
 * Calculates the bounding box of the target and updates through the bounding
 * box pointer.
 * @param box pointer to object that will be updated with new bounding info.
 */
static inline void _track_boundingBox(struct boundingBox* box){
    1090:	defffe04 	addi	sp,sp,-8
    1094:	df000115 	stw	fp,4(sp)
    1098:	df000104 	addi	fp,sp,4
    109c:	e13fff15 	stw	r4,-4(fp)
	//store data statically for reduced stack frame time
	static uint8_t row,col,pixel;
	static uint8_t* ptr;

	//iterate through buffer to determine location of object
	for(row=0;row<VGA_ROW_MAX;row++){
    10a0:	d026d985 	stb	zero,-25754(gp)
    10a4:	00004206 	br	11b0 <_track_boundingBox+0x120>
		ptr = (uint8_t*)(VGA_MEM_START + (row << 7));
    10a8:	d0a6d983 	ldbu	r2,-25754(gp)
    10ac:	10803fcc 	andi	r2,r2,255
    10b0:	100491fa 	slli	r2,r2,7
    10b4:	1007883a 	mov	r3,r2
    10b8:	00a02034 	movhi	r2,32896
    10bc:	1885883a 	add	r2,r3,r2
    10c0:	d0a6d815 	stw	r2,-25760(gp)
		for(col=0;col<VGA_COL_MAX;col++){
    10c4:	d026d945 	stb	zero,-25755(gp)
    10c8:	00003206 	br	1194 <_track_boundingBox+0x104>
			pixel = *(ptr + col);
    10cc:	d0a6d943 	ldbu	r2,-25755(gp)
    10d0:	10803fcc 	andi	r2,r2,255
    10d4:	1007883a 	mov	r3,r2
    10d8:	d0a6d817 	ldw	r2,-25760(gp)
    10dc:	1885883a 	add	r2,r3,r2
    10e0:	10800003 	ldbu	r2,0(r2)
    10e4:	d0a6d905 	stb	r2,-25756(gp)
			if(pixel > CONFIDENCE_THRESHOLD){
    10e8:	d0a6d903 	ldbu	r2,-25756(gp)
    10ec:	10803fcc 	andi	r2,r2,255
    10f0:	10803c70 	cmpltui	r2,r2,241
    10f4:	1000241e 	bne	r2,zero,1188 <_track_boundingBox+0xf8>
				//check within current bounding box
				if(row < box->minr)
    10f8:	e0bfff17 	ldw	r2,-4(fp)
    10fc:	10800003 	ldbu	r2,0(r2)
    1100:	d0e6d983 	ldbu	r3,-25754(gp)
    1104:	11003fcc 	andi	r4,r2,255
    1108:	18803fcc 	andi	r2,r3,255
    110c:	1100032e 	bgeu	r2,r4,111c <_track_boundingBox+0x8c>
					box->minr = row;
    1110:	d0e6d983 	ldbu	r3,-25754(gp)
    1114:	e0bfff17 	ldw	r2,-4(fp)
    1118:	10c00005 	stb	r3,0(r2)
				if(col < box->minc)
    111c:	e0bfff17 	ldw	r2,-4(fp)
    1120:	10800043 	ldbu	r2,1(r2)
    1124:	d0e6d943 	ldbu	r3,-25755(gp)
    1128:	11003fcc 	andi	r4,r2,255
    112c:	18803fcc 	andi	r2,r3,255
    1130:	1100032e 	bgeu	r2,r4,1140 <_track_boundingBox+0xb0>
					box->minc = col;
    1134:	d0e6d943 	ldbu	r3,-25755(gp)
    1138:	e0bfff17 	ldw	r2,-4(fp)
    113c:	10c00045 	stb	r3,1(r2)
				if(col > box->maxc)
    1140:	e0bfff17 	ldw	r2,-4(fp)
    1144:	108000c3 	ldbu	r2,3(r2)
    1148:	d0e6d943 	ldbu	r3,-25755(gp)
    114c:	11003fcc 	andi	r4,r2,255
    1150:	18803fcc 	andi	r2,r3,255
    1154:	2080032e 	bgeu	r4,r2,1164 <_track_boundingBox+0xd4>
					box->maxc = col;
    1158:	d0e6d943 	ldbu	r3,-25755(gp)
    115c:	e0bfff17 	ldw	r2,-4(fp)
    1160:	10c000c5 	stb	r3,3(r2)
				if(row > box->maxr)
    1164:	e0bfff17 	ldw	r2,-4(fp)
    1168:	10800083 	ldbu	r2,2(r2)
    116c:	d0e6d983 	ldbu	r3,-25754(gp)
    1170:	11003fcc 	andi	r4,r2,255
    1174:	18803fcc 	andi	r2,r3,255
    1178:	2080032e 	bgeu	r4,r2,1188 <_track_boundingBox+0xf8>
					box->maxr = row;
    117c:	d0e6d983 	ldbu	r3,-25754(gp)
    1180:	e0bfff17 	ldw	r2,-4(fp)
    1184:	10c00085 	stb	r3,2(r2)
	static uint8_t* ptr;

	//iterate through buffer to determine location of object
	for(row=0;row<VGA_ROW_MAX;row++){
		ptr = (uint8_t*)(VGA_MEM_START + (row << 7));
		for(col=0;col<VGA_COL_MAX;col++){
    1188:	d0a6d943 	ldbu	r2,-25755(gp)
    118c:	10800044 	addi	r2,r2,1
    1190:	d0a6d945 	stb	r2,-25755(gp)
    1194:	d0a6d943 	ldbu	r2,-25755(gp)
    1198:	10803fcc 	andi	r2,r2,255
    119c:	10801430 	cmpltui	r2,r2,80
    11a0:	103fca1e 	bne	r2,zero,10cc <_track_boundingBox+0x3c>
	//store data statically for reduced stack frame time
	static uint8_t row,col,pixel;
	static uint8_t* ptr;

	//iterate through buffer to determine location of object
	for(row=0;row<VGA_ROW_MAX;row++){
    11a4:	d0a6d983 	ldbu	r2,-25754(gp)
    11a8:	10800044 	addi	r2,r2,1
    11ac:	d0a6d985 	stb	r2,-25754(gp)
    11b0:	d0a6d983 	ldbu	r2,-25754(gp)
    11b4:	10803fcc 	andi	r2,r2,255
    11b8:	10800f30 	cmpltui	r2,r2,60
    11bc:	103fba1e 	bne	r2,zero,10a8 <_track_boundingBox+0x18>
				if(row > box->maxr)
					box->maxr = row;
			}
		}
	}
}
    11c0:	e037883a 	mov	sp,fp
    11c4:	df000017 	ldw	fp,0(sp)
    11c8:	dec00104 	addi	sp,sp,4
    11cc:	f800283a 	ret

000011d0 <_track_inputParsing>:
 * @param arg String to parse
 * @param min minimum value of range
 * @param max maximum value of range
 * @return filter type
 */
static inline FILTER_TYPE_t _track_inputParsing(char* arg, uint8_t* min, uint8_t* max){
    11d0:	deffdf04 	addi	sp,sp,-132
    11d4:	dfc02015 	stw	ra,128(sp)
    11d8:	df001f15 	stw	fp,124(sp)
    11dc:	df001f04 	addi	fp,sp,124
    11e0:	e13ffc15 	stw	r4,-16(fp)
    11e4:	e17ffd15 	stw	r5,-12(fp)
    11e8:	e1bffe15 	stw	r6,-8(fp)
	// parse input for filtering method
	char cmd[10];
	char typeStr[80]; //large to prevent failure of size
	unsigned int value;
	FILTER_TYPE_t retVal;
	int matched = sscanf(arg,"%s %s %x",cmd,typeStr,&value);
    11ec:	e1bfe404 	addi	r6,fp,-112
    11f0:	e1ffe684 	addi	r7,fp,-102
    11f4:	e0bffb04 	addi	r2,fp,-20
    11f8:	d8800015 	stw	r2,0(sp)
    11fc:	e13ffc17 	ldw	r4,-16(fp)
    1200:	01400074 	movhi	r5,1
    1204:	2951d904 	addi	r5,r5,18276
    1208:	0003cc00 	call	3cc0 <sscanf>
    120c:	e0bfe215 	stw	r2,-120(fp)
	if(matched == 3){
    1210:	e0bfe217 	ldw	r2,-120(fp)
    1214:	108000d8 	cmpnei	r2,r2,3
    1218:	1000461e 	bne	r2,zero,1334 <_track_inputParsing+0x164>
		if(strcmp(typeStr,"TARGET") == 0){
    121c:	e13fe684 	addi	r4,fp,-102
    1220:	01400074 	movhi	r5,1
    1224:	2951dc04 	addi	r5,r5,18288
    1228:	0003f200 	call	3f20 <strcmp>
    122c:	1004c03a 	cmpne	r2,r2,zero
    1230:	10001b1e 	bne	r2,zero,12a0 <_track_inputParsing+0xd0>
			retVal = TARGET_VALUE;
    1234:	00800104 	movi	r2,4
    1238:	e0bfe315 	stw	r2,-116(fp)
			*min = (value < TOLERANCE)? value : value - TOLERANCE;
    123c:	e0bffb17 	ldw	r2,-20(fp)
    1240:	10800230 	cmpltui	r2,r2,8
    1244:	1000041e 	bne	r2,zero,1258 <_track_inputParsing+0x88>
    1248:	e0bffb17 	ldw	r2,-20(fp)
    124c:	10bffe04 	addi	r2,r2,-8
    1250:	e0bfff45 	stb	r2,-3(fp)
    1254:	00000206 	br	1260 <_track_inputParsing+0x90>
    1258:	e0bffb17 	ldw	r2,-20(fp)
    125c:	e0bfff45 	stb	r2,-3(fp)
    1260:	e0bffd17 	ldw	r2,-12(fp)
    1264:	e0ffff43 	ldbu	r3,-3(fp)
    1268:	10c00005 	stb	r3,0(r2)
			*max = (value > 0xFF - TOLERANCE)? value : value + TOLERANCE;
    126c:	e0bffb17 	ldw	r2,-20(fp)
    1270:	10803e28 	cmpgeui	r2,r2,248
    1274:	1000041e 	bne	r2,zero,1288 <_track_inputParsing+0xb8>
    1278:	e0bffb17 	ldw	r2,-20(fp)
    127c:	10800204 	addi	r2,r2,8
    1280:	e0bfff05 	stb	r2,-4(fp)
    1284:	00000206 	br	1290 <_track_inputParsing+0xc0>
    1288:	e0bffb17 	ldw	r2,-20(fp)
    128c:	e0bfff05 	stb	r2,-4(fp)
    1290:	e0bffe17 	ldw	r2,-8(fp)
    1294:	e0ffff03 	ldbu	r3,-4(fp)
    1298:	10c00005 	stb	r3,0(r2)
    129c:	00004f06 	br	13dc <_track_inputParsing+0x20c>
		}else if(strcmp(typeStr,"LIGHT") == 0){
    12a0:	e13fe684 	addi	r4,fp,-102
    12a4:	01400074 	movhi	r5,1
    12a8:	2951de04 	addi	r5,r5,18296
    12ac:	0003f200 	call	3f20 <strcmp>
    12b0:	1004c03a 	cmpne	r2,r2,zero
    12b4:	10000a1e 	bne	r2,zero,12e0 <_track_inputParsing+0x110>
			retVal = LIGHT_MANUAL;
    12b8:	008000c4 	movi	r2,3
    12bc:	e0bfe315 	stw	r2,-116(fp)
			*min = value;
    12c0:	e0bffb17 	ldw	r2,-20(fp)
    12c4:	1007883a 	mov	r3,r2
    12c8:	e0bffd17 	ldw	r2,-12(fp)
    12cc:	10c00005 	stb	r3,0(r2)
			*max = 0xFF;
    12d0:	e0fffe17 	ldw	r3,-8(fp)
    12d4:	00bfffc4 	movi	r2,-1
    12d8:	18800005 	stb	r2,0(r3)
    12dc:	00003f06 	br	13dc <_track_inputParsing+0x20c>
		}else if(strcmp(typeStr,"DARK") == 0){
    12e0:	e13fe684 	addi	r4,fp,-102
    12e4:	01400074 	movhi	r5,1
    12e8:	2951e004 	addi	r5,r5,18304
    12ec:	0003f200 	call	3f20 <strcmp>
    12f0:	1004c03a 	cmpne	r2,r2,zero
    12f4:	1000091e 	bne	r2,zero,131c <_track_inputParsing+0x14c>
			retVal = DARK_MANUAL;
    12f8:	00800084 	movi	r2,2
    12fc:	e0bfe315 	stw	r2,-116(fp)
			*min = 0x00;
    1300:	e0bffd17 	ldw	r2,-12(fp)
    1304:	10000005 	stb	zero,0(r2)
			*max = value;
    1308:	e0bffb17 	ldw	r2,-20(fp)
    130c:	1007883a 	mov	r3,r2
    1310:	e0bffe17 	ldw	r2,-8(fp)
    1314:	10c00005 	stb	r3,0(r2)
    1318:	00003006 	br	13dc <_track_inputParsing+0x20c>
		}else{
			//error
			printf("Invalid TRACK Command Structure.\n");
    131c:	01000074 	movhi	r4,1
    1320:	2111e204 	addi	r4,r4,18312
    1324:	00038f80 	call	38f8 <puts>
			retVal = ERROR;
    1328:	00800144 	movi	r2,5
    132c:	e0bfe315 	stw	r2,-116(fp)
    1330:	00002a06 	br	13dc <_track_inputParsing+0x20c>
		}
	}else if(matched == 2){
    1334:	e0bfe217 	ldw	r2,-120(fp)
    1338:	10800098 	cmpnei	r2,r2,2
    133c:	1000221e 	bne	r2,zero,13c8 <_track_inputParsing+0x1f8>
		if(strcmp(typeStr,"LIGHT") == 0){
    1340:	e13fe684 	addi	r4,fp,-102
    1344:	01400074 	movhi	r5,1
    1348:	2951de04 	addi	r5,r5,18296
    134c:	0003f200 	call	3f20 <strcmp>
    1350:	1004c03a 	cmpne	r2,r2,zero
    1354:	1000091e 	bne	r2,zero,137c <_track_inputParsing+0x1ac>
			retVal = LIGHT_AUTO;
    1358:	00800044 	movi	r2,1
    135c:	e0bfe315 	stw	r2,-116(fp)
			*min = 0x55; //default value
    1360:	e0fffd17 	ldw	r3,-12(fp)
    1364:	00801544 	movi	r2,85
    1368:	18800005 	stb	r2,0(r3)
			*max = 0xFF;
    136c:	e0fffe17 	ldw	r3,-8(fp)
    1370:	00bfffc4 	movi	r2,-1
    1374:	18800005 	stb	r2,0(r3)
    1378:	00001806 	br	13dc <_track_inputParsing+0x20c>
		}else if(strcmp(typeStr,"DARK") == 0){
    137c:	e13fe684 	addi	r4,fp,-102
    1380:	01400074 	movhi	r5,1
    1384:	2951e004 	addi	r5,r5,18304
    1388:	0003f200 	call	3f20 <strcmp>
    138c:	1004c03a 	cmpne	r2,r2,zero
    1390:	1000071e 	bne	r2,zero,13b0 <_track_inputParsing+0x1e0>
			retVal = DARK_AUTO;
    1394:	e03fe315 	stw	zero,-116(fp)
			*min = 0x00;
    1398:	e0bffd17 	ldw	r2,-12(fp)
    139c:	10000005 	stb	zero,0(r2)
			*max = 0x55;
    13a0:	e0fffe17 	ldw	r3,-8(fp)
    13a4:	00801544 	movi	r2,85
    13a8:	18800005 	stb	r2,0(r3)
    13ac:	00000b06 	br	13dc <_track_inputParsing+0x20c>
		}else{
			//error
			printf("Invalid TRACK Command Structure.\n");
    13b0:	01000074 	movhi	r4,1
    13b4:	2111e204 	addi	r4,r4,18312
    13b8:	00038f80 	call	38f8 <puts>
			retVal = ERROR;
    13bc:	00800144 	movi	r2,5
    13c0:	e0bfe315 	stw	r2,-116(fp)
    13c4:	00000506 	br	13dc <_track_inputParsing+0x20c>
		}
	}else{
		printf("Invalid TRACK Command Structure.\n");
    13c8:	01000074 	movhi	r4,1
    13cc:	2111e204 	addi	r4,r4,18312
    13d0:	00038f80 	call	38f8 <puts>
		retVal = ERROR;
    13d4:	00800144 	movi	r2,5
    13d8:	e0bfe315 	stw	r2,-116(fp)
	}
	return retVal;
    13dc:	e0bfe317 	ldw	r2,-116(fp)
}
    13e0:	e037883a 	mov	sp,fp
    13e4:	dfc00117 	ldw	ra,4(sp)
    13e8:	df000017 	ldw	fp,0(sp)
    13ec:	dec00204 	addi	sp,sp,8
    13f0:	f800283a 	ret

000013f4 <_read>:

/**
 * Read Command Function
 * @param arg string to parse
 */
static void _read(char* arg){
    13f4:	defff804 	addi	sp,sp,-32
    13f8:	dfc00715 	stw	ra,28(sp)
    13fc:	df000615 	stw	fp,24(sp)
    1400:	df000604 	addi	fp,sp,24
    1404:	e13fff15 	stw	r4,-4(fp)
	lcd_printString("Reading Memory");
    1408:	01000074 	movhi	r4,1
    140c:	21120e04 	addi	r4,r4,18488
    1410:	0001de00 	call	1de0 <lcd_printString>
	char cmd[3];
	unsigned int address, count;
	int matched = sscanf(arg,"%s %x %x",cmd,&address,&count);
    1414:	e1bffc04 	addi	r6,fp,-16
    1418:	e1fffd04 	addi	r7,fp,-12
    141c:	e0bffe04 	addi	r2,fp,-8
    1420:	d8800015 	stw	r2,0(sp)
    1424:	e13fff17 	ldw	r4,-4(fp)
    1428:	01400074 	movhi	r5,1
    142c:	29521204 	addi	r5,r5,18504
    1430:	0003cc00 	call	3cc0 <sscanf>
    1434:	e0bffb15 	stw	r2,-20(fp)
	if(matched == 3){
    1438:	e0bffb17 	ldw	r2,-20(fp)
    143c:	108000d8 	cmpnei	r2,r2,3
    1440:	1000041e 	bne	r2,zero,1454 <_read+0x60>
		//Read multiple
		_printMem(address,count);
    1444:	e13ffd17 	ldw	r4,-12(fp)
    1448:	e17ffe17 	ldw	r5,-8(fp)
    144c:	00015180 	call	1518 <_printMem>
    1450:	00000a06 	br	147c <_read+0x88>
	}else if(matched == 2){
    1454:	e0bffb17 	ldw	r2,-20(fp)
    1458:	10800098 	cmpnei	r2,r2,2
    145c:	1000041e 	bne	r2,zero,1470 <_read+0x7c>
		//Read single
		_printMem(address,1);
    1460:	e13ffd17 	ldw	r4,-12(fp)
    1464:	01400044 	movi	r5,1
    1468:	00015180 	call	1518 <_printMem>
    146c:	00000306 	br	147c <_read+0x88>
	}else{
		printf("Invalid RR Command Structure.\n");
    1470:	01000074 	movhi	r4,1
    1474:	21121504 	addi	r4,r4,18516
    1478:	00038f80 	call	38f8 <puts>
	}
}
    147c:	e037883a 	mov	sp,fp
    1480:	dfc00117 	ldw	ra,4(sp)
    1484:	df000017 	ldw	fp,0(sp)
    1488:	dec00204 	addi	sp,sp,8
    148c:	f800283a 	ret

00001490 <_write>:

/**
 * Write Command Function
 * @param arg string to parse
 */
static void _write(char* arg){
    1490:	defff804 	addi	sp,sp,-32
    1494:	dfc00715 	stw	ra,28(sp)
    1498:	df000615 	stw	fp,24(sp)
    149c:	df000604 	addi	fp,sp,24
    14a0:	e13fff15 	stw	r4,-4(fp)
	lcd_printString("Writing Memory");
    14a4:	01000074 	movhi	r4,1
    14a8:	21121d04 	addi	r4,r4,18548
    14ac:	0001de00 	call	1de0 <lcd_printString>
	char cmd[3];
	unsigned int address, value;
	int matched = sscanf(arg,"%s %x %x",cmd,&address,&value);
    14b0:	e1bffc04 	addi	r6,fp,-16
    14b4:	e1fffd04 	addi	r7,fp,-12
    14b8:	e0bffe04 	addi	r2,fp,-8
    14bc:	d8800015 	stw	r2,0(sp)
    14c0:	e13fff17 	ldw	r4,-4(fp)
    14c4:	01400074 	movhi	r5,1
    14c8:	29521204 	addi	r5,r5,18504
    14cc:	0003cc00 	call	3cc0 <sscanf>
    14d0:	e0bffb15 	stw	r2,-20(fp)
	if(matched == 3){
    14d4:	e0bffb17 	ldw	r2,-20(fp)
    14d8:	108000d8 	cmpnei	r2,r2,3
    14dc:	1000061e 	bne	r2,zero,14f8 <_write+0x68>
		//always apply the store IO version of the instruction for immediate
		// change and store in original for memory required versions
		*((volatile unsigned char*)(address | BYPASS_CACHE_FLAG)) = value;
    14e0:	e0bffd17 	ldw	r2,-12(fp)
    14e4:	10a00034 	orhi	r2,r2,32768
    14e8:	1007883a 	mov	r3,r2
    14ec:	e0bffe17 	ldw	r2,-8(fp)
    14f0:	18800005 	stb	r2,0(r3)
    14f4:	00000306 	br	1504 <_write+0x74>
	}else{
		printf("Invalid WR Command Structure.\n");
    14f8:	01000074 	movhi	r4,1
    14fc:	21122104 	addi	r4,r4,18564
    1500:	00038f80 	call	38f8 <puts>
	}
}
    1504:	e037883a 	mov	sp,fp
    1508:	dfc00117 	ldw	ra,4(sp)
    150c:	df000017 	ldw	fp,0(sp)
    1510:	dec00204 	addi	sp,sp,8
    1514:	f800283a 	ret

00001518 <_printMem>:
/**
 * Prints out memory starting at the address for the count amount of bytes
 * @param address the address of memory to start printing
 * @param count the number of bytes to read and print
 */
static void _printMem(unsigned int address, unsigned int count){
    1518:	deffdf04 	addi	sp,sp,-132
    151c:	dfc02015 	stw	ra,128(sp)
    1520:	df001f15 	stw	fp,124(sp)
    1524:	dc001e15 	stw	r16,120(sp)
    1528:	df001e04 	addi	fp,sp,120
    152c:	e13ffe15 	stw	r4,-8(fp)
    1530:	e17fff15 	stw	r5,-4(fp)

	//sanity check count for valid specification
	if(count < 1){
    1534:	e0bfff17 	ldw	r2,-4(fp)
    1538:	1004c03a 	cmpne	r2,r2,zero
    153c:	1000041e 	bne	r2,zero,1550 <_printMem+0x38>
		printf("Error - Invalid Number of Addresses Specified.\n");
    1540:	01000074 	movhi	r4,1
    1544:	21122904 	addi	r4,r4,18596
    1548:	00038f80 	call	38f8 <puts>
		return; //error case so leave early
    154c:	00009006 	br	1790 <_printMem+0x278>
	}else if(address + count < address){
    1550:	e0fffe17 	ldw	r3,-8(fp)
    1554:	e0bfff17 	ldw	r2,-4(fp)
    1558:	1887883a 	add	r3,r3,r2
    155c:	e0bffe17 	ldw	r2,-8(fp)
    1560:	1880032e 	bgeu	r3,r2,1570 <_printMem+0x58>
		printf("Warning - Address Overflow.\n");
    1564:	01000074 	movhi	r4,1
    1568:	21123504 	addi	r4,r4,18644
    156c:	00038f80 	call	38f8 <puts>
	//buffer allocation
	char buffer[80];
	char temp[12];

	//print header
	memset(buffer,'\0',sizeof buffer);
    1570:	e0bfe704 	addi	r2,fp,-100
    1574:	1009883a 	mov	r4,r2
    1578:	01801404 	movi	r6,80
    157c:	000b883a 	mov	r5,zero
    1580:	00037240 	call	3724 <memset>
	strcat(buffer,"  Base   :");
    1584:	e43fe704 	addi	r16,fp,-100
    1588:	e13fe704 	addi	r4,fp,-100
    158c:	00040680 	call	4068 <strlen>
    1590:	8085883a 	add	r2,r16,r2
    1594:	1007883a 	mov	r3,r2
    1598:	00800804 	movi	r2,32
    159c:	18800005 	stb	r2,0(r3)
    15a0:	00800804 	movi	r2,32
    15a4:	18800045 	stb	r2,1(r3)
    15a8:	00801084 	movi	r2,66
    15ac:	18800085 	stb	r2,2(r3)
    15b0:	00801844 	movi	r2,97
    15b4:	188000c5 	stb	r2,3(r3)
    15b8:	00801cc4 	movi	r2,115
    15bc:	18800105 	stb	r2,4(r3)
    15c0:	00801944 	movi	r2,101
    15c4:	18800145 	stb	r2,5(r3)
    15c8:	00800804 	movi	r2,32
    15cc:	18800185 	stb	r2,6(r3)
    15d0:	00800804 	movi	r2,32
    15d4:	188001c5 	stb	r2,7(r3)
    15d8:	00800804 	movi	r2,32
    15dc:	18800205 	stb	r2,8(r3)
    15e0:	00800e84 	movi	r2,58
    15e4:	18800245 	stb	r2,9(r3)
    15e8:	18000285 	stb	zero,10(r3)
	int i; for(i = 0; i < count && i < 16; ++i){
    15ec:	e03fe615 	stw	zero,-104(fp)
    15f0:	00000e06 	br	162c <_printMem+0x114>
		*(temp+3) = '\0';
    15f4:	e0bffb04 	addi	r2,fp,-20
    15f8:	108000c4 	addi	r2,r2,3
    15fc:	10000005 	stb	zero,0(r2)
		sprintf(temp," +%x",i);
    1600:	e13ffb04 	addi	r4,fp,-20
    1604:	01400074 	movhi	r5,1
    1608:	29523c04 	addi	r5,r5,18672
    160c:	e1bfe617 	ldw	r6,-104(fp)
    1610:	0003b5c0 	call	3b5c <sprintf>
		strcat(buffer,temp);
    1614:	e13fe704 	addi	r4,fp,-100
    1618:	e17ffb04 	addi	r5,fp,-20
    161c:	0003e900 	call	3e90 <strcat>
	char temp[12];

	//print header
	memset(buffer,'\0',sizeof buffer);
	strcat(buffer,"  Base   :");
	int i; for(i = 0; i < count && i < 16; ++i){
    1620:	e0bfe617 	ldw	r2,-104(fp)
    1624:	10800044 	addi	r2,r2,1
    1628:	e0bfe615 	stw	r2,-104(fp)
    162c:	e0ffe617 	ldw	r3,-104(fp)
    1630:	e0bfff17 	ldw	r2,-4(fp)
    1634:	1880032e 	bgeu	r3,r2,1644 <_printMem+0x12c>
    1638:	e0bfe617 	ldw	r2,-104(fp)
    163c:	10800410 	cmplti	r2,r2,16
    1640:	103fec1e 	bne	r2,zero,15f4 <_printMem+0xdc>
		*(temp+3) = '\0';
		sprintf(temp," +%x",i);
		strcat(buffer,temp);
	}
	strcat(buffer,"\n");
    1644:	e13fe704 	addi	r4,fp,-100
    1648:	01400074 	movhi	r5,1
    164c:	29523e04 	addi	r5,r5,18680
    1650:	0003e900 	call	3e90 <strcat>
	printf(buffer);
    1654:	e13fe704 	addi	r4,fp,-100
    1658:	00037bc0 	call	37bc <printf>

	//print bytes as chunks of buffer
	int j; for(j = 0; j < (count - 1) / 16 + 1; ++j){
    165c:	e03fe515 	stw	zero,-108(fp)
    1660:	00004306 	br	1770 <_printMem+0x258>
		memset(buffer,'\0',sizeof buffer);
    1664:	e0bfe704 	addi	r2,fp,-100
    1668:	1009883a 	mov	r4,r2
    166c:	01801404 	movi	r6,80
    1670:	000b883a 	mov	r5,zero
    1674:	00037240 	call	3724 <memset>

		//print address
		*(temp+10) = '\0';
    1678:	e0bffb04 	addi	r2,fp,-20
    167c:	10800284 	addi	r2,r2,10
    1680:	10000005 	stb	zero,0(r2)
		sprintf(temp,"%08x :",address + j*16);
    1684:	e0bfe517 	ldw	r2,-108(fp)
    1688:	1004913a 	slli	r2,r2,4
    168c:	1007883a 	mov	r3,r2
    1690:	e0bffe17 	ldw	r2,-8(fp)
    1694:	188d883a 	add	r6,r3,r2
    1698:	e13ffb04 	addi	r4,fp,-20
    169c:	01400074 	movhi	r5,1
    16a0:	29523f04 	addi	r5,r5,18684
    16a4:	0003b5c0 	call	3b5c <sprintf>
		strcat(buffer,temp);
    16a8:	e13fe704 	addi	r4,fp,-100
    16ac:	e17ffb04 	addi	r5,fp,-20
    16b0:	0003e900 	call	3e90 <strcat>

		//print row or less if count
		int a; for(a = 0; a < 16 && a < (count - j * 16); ++a){
    16b4:	e03fe415 	stw	zero,-112(fp)
    16b8:	00001a06 	br	1724 <_printMem+0x20c>
			unsigned int addr = address + j*16+a;
    16bc:	e0bfe517 	ldw	r2,-108(fp)
    16c0:	1004913a 	slli	r2,r2,4
    16c4:	1007883a 	mov	r3,r2
    16c8:	e0bffe17 	ldw	r2,-8(fp)
    16cc:	1887883a 	add	r3,r3,r2
    16d0:	e0bfe417 	ldw	r2,-112(fp)
    16d4:	1885883a 	add	r2,r3,r2
    16d8:	e0bfe315 	stw	r2,-116(fp)
			unsigned char val = *((unsigned char*)(addr | BYPASS_CACHE_FLAG));
    16dc:	e0bfe317 	ldw	r2,-116(fp)
    16e0:	10a00034 	orhi	r2,r2,32768
    16e4:	10800003 	ldbu	r2,0(r2)
    16e8:	e0bfe205 	stb	r2,-120(fp)
			*(temp+3) = '\0';
    16ec:	e0bffb04 	addi	r2,fp,-20
    16f0:	108000c4 	addi	r2,r2,3
    16f4:	10000005 	stb	zero,0(r2)
			sprintf(temp," %02x",val);
    16f8:	e1bfe203 	ldbu	r6,-120(fp)
    16fc:	e13ffb04 	addi	r4,fp,-20
    1700:	01400074 	movhi	r5,1
    1704:	29524104 	addi	r5,r5,18692
    1708:	0003b5c0 	call	3b5c <sprintf>
			strcat(buffer,temp);
    170c:	e13fe704 	addi	r4,fp,-100
    1710:	e17ffb04 	addi	r5,fp,-20
    1714:	0003e900 	call	3e90 <strcat>
		*(temp+10) = '\0';
		sprintf(temp,"%08x :",address + j*16);
		strcat(buffer,temp);

		//print row or less if count
		int a; for(a = 0; a < 16 && a < (count - j * 16); ++a){
    1718:	e0bfe417 	ldw	r2,-112(fp)
    171c:	10800044 	addi	r2,r2,1
    1720:	e0bfe415 	stw	r2,-112(fp)
    1724:	e0bfe417 	ldw	r2,-112(fp)
    1728:	10800408 	cmpgei	r2,r2,16
    172c:	1000071e 	bne	r2,zero,174c <_printMem+0x234>
    1730:	e13fe417 	ldw	r4,-112(fp)
    1734:	e0bfe517 	ldw	r2,-108(fp)
    1738:	1004913a 	slli	r2,r2,4
    173c:	1007883a 	mov	r3,r2
    1740:	e0bfff17 	ldw	r2,-4(fp)
    1744:	10c5c83a 	sub	r2,r2,r3
    1748:	20bfdc36 	bltu	r4,r2,16bc <_printMem+0x1a4>
			sprintf(temp," %02x",val);
			strcat(buffer,temp);
		}

		//send to serial device
		strcat(buffer,"\n");
    174c:	e13fe704 	addi	r4,fp,-100
    1750:	01400074 	movhi	r5,1
    1754:	29523e04 	addi	r5,r5,18680
    1758:	0003e900 	call	3e90 <strcat>
		printf(buffer);
    175c:	e13fe704 	addi	r4,fp,-100
    1760:	00037bc0 	call	37bc <printf>
	}
	strcat(buffer,"\n");
	printf(buffer);

	//print bytes as chunks of buffer
	int j; for(j = 0; j < (count - 1) / 16 + 1; ++j){
    1764:	e0bfe517 	ldw	r2,-108(fp)
    1768:	10800044 	addi	r2,r2,1
    176c:	e0bfe515 	stw	r2,-108(fp)
    1770:	e0ffe517 	ldw	r3,-108(fp)
    1774:	e0bfff17 	ldw	r2,-4(fp)
    1778:	10bfffc4 	addi	r2,r2,-1
    177c:	1004d13a 	srli	r2,r2,4
    1780:	10800044 	addi	r2,r2,1
    1784:	18bfb736 	bltu	r3,r2,1664 <_printMem+0x14c>
		strcat(buffer,"\n");
		printf(buffer);
	}

	//send final character to clean up display
	printf("\n");
    1788:	01000284 	movi	r4,10
    178c:	00038340 	call	3834 <putchar>
}
    1790:	e037883a 	mov	sp,fp
    1794:	dfc00217 	ldw	ra,8(sp)
    1798:	df000117 	ldw	fp,4(sp)
    179c:	dc000017 	ldw	r16,0(sp)
    17a0:	dec00304 	addi	sp,sp,12
    17a4:	f800283a 	ret

000017a8 <_pan>:

/**
 * Pans the servo by the input value provided
 * @param arg string to parse
 */
static void _pan(char* arg){
    17a8:	defff604 	addi	sp,sp,-40
    17ac:	dfc00915 	stw	ra,36(sp)
    17b0:	df000815 	stw	fp,32(sp)
    17b4:	df000804 	addi	fp,sp,32
    17b8:	e13fff15 	stw	r4,-4(fp)
	lcd_printString("Panning");
    17bc:	01000074 	movhi	r4,1
    17c0:	21127904 	addi	r4,r4,18916
    17c4:	0001de00 	call	1de0 <lcd_printString>
	char cmd[5];
	int pos;
	int matched = sscanf(arg,"%s %d",cmd,&pos);
    17c8:	e1bff904 	addi	r6,fp,-28
    17cc:	e1fffb04 	addi	r7,fp,-20
    17d0:	e13fff17 	ldw	r4,-4(fp)
    17d4:	01400074 	movhi	r5,1
    17d8:	29527b04 	addi	r5,r5,18924
    17dc:	0003cc00 	call	3cc0 <sscanf>
    17e0:	e0bff815 	stw	r2,-32(fp)
	if(matched > 1){
    17e4:	e0bff817 	ldw	r2,-32(fp)
    17e8:	10800090 	cmplti	r2,r2,2
    17ec:	1000151e 	bne	r2,zero,1844 <_pan+0x9c>
		if(servo_pan(pos) == -1){
    17f0:	e13ffb17 	ldw	r4,-20(fp)
    17f4:	00024a00 	call	24a0 <servo_pan>
    17f8:	10bfffd8 	cmpnei	r2,r2,-1
    17fc:	1000141e 	bne	r2,zero,1850 <_pan+0xa8>
			printf("Position ");
    1800:	01000074 	movhi	r4,1
    1804:	21127d04 	addi	r4,r4,18932
    1808:	00037bc0 	call	37bc <printf>
			char temp[11]; *(temp+10) = '\0';
    180c:	e0bffc04 	addi	r2,fp,-16
    1810:	10800284 	addi	r2,r2,10
    1814:	10000005 	stb	zero,0(r2)
			sprintf(temp,"%d",pos);
    1818:	e1bffb17 	ldw	r6,-20(fp)
    181c:	e13ffc04 	addi	r4,fp,-16
    1820:	01400074 	movhi	r5,1
    1824:	29528004 	addi	r5,r5,18944
    1828:	0003b5c0 	call	3b5c <sprintf>
			printf(temp);
    182c:	e13ffc04 	addi	r4,fp,-16
    1830:	00037bc0 	call	37bc <printf>
			printf(" is invalid. Enter between 0 and 175.\n");
    1834:	01000074 	movhi	r4,1
    1838:	21128104 	addi	r4,r4,18948
    183c:	00038f80 	call	38f8 <puts>
    1840:	00000306 	br	1850 <_pan+0xa8>
		}
	}else{
		printf("Invalid command structure.\n");
    1844:	01000074 	movhi	r4,1
    1848:	21128b04 	addi	r4,r4,18988
    184c:	00038f80 	call	38f8 <puts>
	}
}
    1850:	e037883a 	mov	sp,fp
    1854:	dfc00117 	ldw	ra,4(sp)
    1858:	df000017 	ldw	fp,0(sp)
    185c:	dec00204 	addi	sp,sp,8
    1860:	f800283a 	ret

00001864 <_tilt>:

/**
 * Tilts the servo by the input value provided
 * @param arg string to parse
 */
static void _tilt(char* arg){
    1864:	defff604 	addi	sp,sp,-40
    1868:	dfc00915 	stw	ra,36(sp)
    186c:	df000815 	stw	fp,32(sp)
    1870:	df000804 	addi	fp,sp,32
    1874:	e13fff15 	stw	r4,-4(fp)
	lcd_printString("Tilting");
    1878:	01000074 	movhi	r4,1
    187c:	21129204 	addi	r4,r4,19016
    1880:	0001de00 	call	1de0 <lcd_printString>
	char cmd[5];
	int pos;
	int matched = sscanf(arg,"%s %d",cmd,&pos);
    1884:	e1bff904 	addi	r6,fp,-28
    1888:	e1fffb04 	addi	r7,fp,-20
    188c:	e13fff17 	ldw	r4,-4(fp)
    1890:	01400074 	movhi	r5,1
    1894:	29527b04 	addi	r5,r5,18924
    1898:	0003cc00 	call	3cc0 <sscanf>
    189c:	e0bff815 	stw	r2,-32(fp)
	if(matched > 1){
    18a0:	e0bff817 	ldw	r2,-32(fp)
    18a4:	10800090 	cmplti	r2,r2,2
    18a8:	1000151e 	bne	r2,zero,1900 <_tilt+0x9c>
		if(servo_tilt(pos) == -1){
    18ac:	e13ffb17 	ldw	r4,-20(fp)
    18b0:	00025100 	call	2510 <servo_tilt>
    18b4:	10bfffd8 	cmpnei	r2,r2,-1
    18b8:	1000141e 	bne	r2,zero,190c <_tilt+0xa8>
			printf("Position ");
    18bc:	01000074 	movhi	r4,1
    18c0:	21127d04 	addi	r4,r4,18932
    18c4:	00037bc0 	call	37bc <printf>
			char temp[11]; *(temp+10) = '\0';
    18c8:	e0bffc04 	addi	r2,fp,-16
    18cc:	10800284 	addi	r2,r2,10
    18d0:	10000005 	stb	zero,0(r2)
			sprintf(temp,"%d",pos);
    18d4:	e1bffb17 	ldw	r6,-20(fp)
    18d8:	e13ffc04 	addi	r4,fp,-16
    18dc:	01400074 	movhi	r5,1
    18e0:	29528004 	addi	r5,r5,18944
    18e4:	0003b5c0 	call	3b5c <sprintf>
			printf(temp);
    18e8:	e13ffc04 	addi	r4,fp,-16
    18ec:	00037bc0 	call	37bc <printf>
			printf(" is invalid. Enter between 0 and 143.\n");
    18f0:	01000074 	movhi	r4,1
    18f4:	21129404 	addi	r4,r4,19024
    18f8:	00038f80 	call	38f8 <puts>
    18fc:	00000306 	br	190c <_tilt+0xa8>
		}
	}else{
		printf("Invalid command structure.\n");
    1900:	01000074 	movhi	r4,1
    1904:	21128b04 	addi	r4,r4,18988
    1908:	00038f80 	call	38f8 <puts>
	}
}
    190c:	e037883a 	mov	sp,fp
    1910:	dfc00117 	ldw	ra,4(sp)
    1914:	df000017 	ldw	fp,0(sp)
    1918:	dec00204 	addi	sp,sp,8
    191c:	f800283a 	ret

00001920 <I2C_init>:

/**
 * This function will initialize the pre-scaler register and enable the I2C
 * peripheral
 */
void I2C_init(){
    1920:	defffe04 	addi	sp,sp,-8
    1924:	df000115 	stw	fp,4(sp)
    1928:	df000104 	addi	fp,sp,4
	uint16_t scaler = I2C_PRESCALER_FORMULA(50000000,100000);
    192c:	008018c4 	movi	r2,99
    1930:	e0bfff0d 	sth	r2,-4(fp)
	I2C->PRESCALER_LO = (scaler)&0xFF;
    1934:	01202034 	movhi	r4,32896
    1938:	21080804 	addi	r4,r4,8224
    193c:	e0bfff0b 	ldhu	r2,-4(fp)
    1940:	1007883a 	mov	r3,r2
    1944:	00bfffc4 	movi	r2,-1
    1948:	1884703a 	and	r2,r3,r2
    194c:	20800005 	stb	r2,0(r4)
	I2C->PRESCALER_HI = (scaler>>8)&0xFF;
    1950:	01202034 	movhi	r4,32896
    1954:	21080804 	addi	r4,r4,8224
    1958:	e0bfff0b 	ldhu	r2,-4(fp)
    195c:	1004d23a 	srli	r2,r2,8
    1960:	1007883a 	mov	r3,r2
    1964:	00bfffc4 	movi	r2,-1
    1968:	1884703a 	and	r2,r3,r2
    196c:	20800045 	stb	r2,1(r4)
	I2C->CNTRL = I2C_CNTRL_ENABLE_MASK;
    1970:	00e02034 	movhi	r3,32896
    1974:	18c80804 	addi	r3,r3,8224
    1978:	00bfe004 	movi	r2,-128
    197c:	18800085 	stb	r2,2(r3)
}
    1980:	e037883a 	mov	sp,fp
    1984:	df000017 	ldw	fp,0(sp)
    1988:	dec00104 	addi	sp,sp,4
    198c:	f800283a 	ret

00001990 <I2C_read>:
 * It returns the 8-bit contents of the specified register.
 * @param addr slave address of device 7-bit
 * @param regNumber register address to read on slave device.
 * @return byte read from the device.
 */
uint8_t I2C_read(uint8_t addr, uint8_t regNumber){
    1990:	defffa04 	addi	sp,sp,-24
    1994:	dfc00515 	stw	ra,20(sp)
    1998:	df000415 	stw	fp,16(sp)
    199c:	df000404 	addi	fp,sp,16
    19a0:	e13ffd05 	stb	r4,-12(fp)
    19a4:	e17ffe05 	stb	r5,-8(fp)
	uint8_t nacked;

	//write slave address
	I2C->RX_TX = addr << 1;
    19a8:	00e02034 	movhi	r3,32896
    19ac:	18c80804 	addi	r3,r3,8224
    19b0:	e0bffd03 	ldbu	r2,-12(fp)
    19b4:	1085883a 	add	r2,r2,r2
    19b8:	188000c5 	stb	r2,3(r3)
	nacked = I2C_action(I2C_CMD_STA_MASK | I2C_CMD_WR_MASK);
    19bc:	01002404 	movi	r4,144
    19c0:	0001b4c0 	call	1b4c <I2C_action>
    19c4:	e0bffc05 	stb	r2,-16(fp)
	if(nacked){
    19c8:	e0bffc03 	ldbu	r2,-16(fp)
    19cc:	1005003a 	cmpeq	r2,r2,zero
    19d0:	1000031e 	bne	r2,zero,19e0 <I2C_read+0x50>
		return -1; //error occurred
    19d4:	00803fc4 	movi	r2,255
    19d8:	e0bfff15 	stw	r2,-4(fp)
    19dc:	00002406 	br	1a70 <I2C_read+0xe0>
	}

	//write register address and end transmit
	I2C->RX_TX = regNumber;
    19e0:	00e02034 	movhi	r3,32896
    19e4:	18c80804 	addi	r3,r3,8224
    19e8:	e0bffe03 	ldbu	r2,-8(fp)
    19ec:	188000c5 	stb	r2,3(r3)
	nacked = I2C_action(I2C_CMD_WR_MASK| I2C_CMD_STO_MASK);
    19f0:	01001404 	movi	r4,80
    19f4:	0001b4c0 	call	1b4c <I2C_action>
    19f8:	e0bffc05 	stb	r2,-16(fp)
	if(nacked){
    19fc:	e0bffc03 	ldbu	r2,-16(fp)
    1a00:	1005003a 	cmpeq	r2,r2,zero
    1a04:	1000031e 	bne	r2,zero,1a14 <I2C_read+0x84>
		return -1; //error occurred
    1a08:	00803fc4 	movi	r2,255
    1a0c:	e0bfff15 	stw	r2,-4(fp)
    1a10:	00001706 	br	1a70 <I2C_read+0xe0>
	}

	//write slave read address, data received is from device
	I2C->RX_TX = (addr << 1) | 1;
    1a14:	00e02034 	movhi	r3,32896
    1a18:	18c80804 	addi	r3,r3,8224
    1a1c:	e0bffd03 	ldbu	r2,-12(fp)
    1a20:	1085883a 	add	r2,r2,r2
    1a24:	10800054 	ori	r2,r2,1
    1a28:	188000c5 	stb	r2,3(r3)
	nacked = I2C_action(I2C_CMD_STA_MASK | I2C_CMD_WR_MASK);
    1a2c:	01002404 	movi	r4,144
    1a30:	0001b4c0 	call	1b4c <I2C_action>
    1a34:	e0bffc05 	stb	r2,-16(fp)
	if(nacked){
    1a38:	e0bffc03 	ldbu	r2,-16(fp)
    1a3c:	1005003a 	cmpeq	r2,r2,zero
    1a40:	1000031e 	bne	r2,zero,1a50 <I2C_read+0xc0>
		return -1; //error occurred
    1a44:	00803fc4 	movi	r2,255
    1a48:	e0bfff15 	stw	r2,-4(fp)
    1a4c:	00000806 	br	1a70 <I2C_read+0xe0>
	}
	nacked = I2C_action(I2C_CMD_RD_MASK | I2C_CMD_STO_MASK | I2C_CMD_ACK_MASK);
    1a50:	01001a04 	movi	r4,104
    1a54:	0001b4c0 	call	1b4c <I2C_action>
    1a58:	e0bffc05 	stb	r2,-16(fp)
	return I2C->RX_TX;
    1a5c:	00a02034 	movhi	r2,32896
    1a60:	10880804 	addi	r2,r2,8224
    1a64:	108000c3 	ldbu	r2,3(r2)
    1a68:	10803fcc 	andi	r2,r2,255
    1a6c:	e0bfff15 	stw	r2,-4(fp)
    1a70:	e0bfff17 	ldw	r2,-4(fp)

}
    1a74:	e037883a 	mov	sp,fp
    1a78:	dfc00117 	ldw	ra,4(sp)
    1a7c:	df000017 	ldw	fp,0(sp)
    1a80:	dec00204 	addi	sp,sp,8
    1a84:	f800283a 	ret

00001a88 <I2C_write>:
 * @param addr slave address of device 7-bit
 * @param regNumber register address to write on slave device.
 * @param value data byte to send to slave register.
 * @return 1 if nacked, 0 if acked
 */
uint8_t I2C_write(uint8_t addr, uint8_t regNumber, uint8_t value){
    1a88:	defff904 	addi	sp,sp,-28
    1a8c:	dfc00615 	stw	ra,24(sp)
    1a90:	df000515 	stw	fp,20(sp)
    1a94:	df000504 	addi	fp,sp,20
    1a98:	e13ffc05 	stb	r4,-16(fp)
    1a9c:	e17ffd05 	stb	r5,-12(fp)
    1aa0:	e1bffe05 	stb	r6,-8(fp)
	uint8_t nacked;

	//write slave address
	I2C->RX_TX = addr << 1;
    1aa4:	00e02034 	movhi	r3,32896
    1aa8:	18c80804 	addi	r3,r3,8224
    1aac:	e0bffc03 	ldbu	r2,-16(fp)
    1ab0:	1085883a 	add	r2,r2,r2
    1ab4:	188000c5 	stb	r2,3(r3)
	nacked = I2C_action(I2C_CMD_STA_MASK | I2C_CMD_WR_MASK);
    1ab8:	01002404 	movi	r4,144
    1abc:	0001b4c0 	call	1b4c <I2C_action>
    1ac0:	e0bffb05 	stb	r2,-20(fp)
	if(nacked){
    1ac4:	e0bffb03 	ldbu	r2,-20(fp)
    1ac8:	1005003a 	cmpeq	r2,r2,zero
    1acc:	1000031e 	bne	r2,zero,1adc <I2C_write+0x54>
		return nacked; //error occurred
    1ad0:	e0bffb03 	ldbu	r2,-20(fp)
    1ad4:	e0bfff15 	stw	r2,-4(fp)
    1ad8:	00001606 	br	1b34 <I2C_write+0xac>
	}

	//write register address
	I2C->RX_TX = regNumber;
    1adc:	00e02034 	movhi	r3,32896
    1ae0:	18c80804 	addi	r3,r3,8224
    1ae4:	e0bffd03 	ldbu	r2,-12(fp)
    1ae8:	188000c5 	stb	r2,3(r3)
	nacked = I2C_action(I2C_CMD_WR_MASK);
    1aec:	01000404 	movi	r4,16
    1af0:	0001b4c0 	call	1b4c <I2C_action>
    1af4:	e0bffb05 	stb	r2,-20(fp)
	if(nacked){
    1af8:	e0bffb03 	ldbu	r2,-20(fp)
    1afc:	1005003a 	cmpeq	r2,r2,zero
    1b00:	1000031e 	bne	r2,zero,1b10 <I2C_write+0x88>
		return nacked; //error occurred
    1b04:	e0bffb03 	ldbu	r2,-20(fp)
    1b08:	e0bfff15 	stw	r2,-4(fp)
    1b0c:	00000906 	br	1b34 <I2C_write+0xac>
	}

	//write data
	I2C->RX_TX = value;
    1b10:	00a02034 	movhi	r2,32896
    1b14:	10880804 	addi	r2,r2,8224
    1b18:	e0fffe03 	ldbu	r3,-8(fp)
    1b1c:	10c000c5 	stb	r3,3(r2)
	nacked = I2C_action(I2C_CMD_WR_MASK | I2C_CMD_STO_MASK);
    1b20:	01001404 	movi	r4,80
    1b24:	0001b4c0 	call	1b4c <I2C_action>
    1b28:	e0bffb05 	stb	r2,-20(fp)
	return nacked;
    1b2c:	e0bffb03 	ldbu	r2,-20(fp)
    1b30:	e0bfff15 	stw	r2,-4(fp)
    1b34:	e0bfff17 	ldw	r2,-4(fp)
}
    1b38:	e037883a 	mov	sp,fp
    1b3c:	dfc00117 	ldw	ra,4(sp)
    1b40:	df000017 	ldw	fp,0(sp)
    1b44:	dec00204 	addi	sp,sp,8
    1b48:	f800283a 	ret

00001b4c <I2C_action>:
 * particular I2C transfer, polls TIP for end of transfer and returns the
 * RxACK status (0 for success).
 * @param command bit flags specifying the commands to apply to I2C control
 * @return success/fail of command (NACK != 0, ACK = 0)
 */
uint8_t I2C_action(uint8_t command){
    1b4c:	defffe04 	addi	sp,sp,-8
    1b50:	df000115 	stw	fp,4(sp)
    1b54:	df000104 	addi	fp,sp,4
    1b58:	e13fff05 	stb	r4,-4(fp)
	I2C->STATUS_CMD = command;
    1b5c:	00e02034 	movhi	r3,32896
    1b60:	18c80804 	addi	r3,r3,8224
    1b64:	e0bfff03 	ldbu	r2,-4(fp)
    1b68:	18800105 	stb	r2,4(r3)
	while(I2C->STATUS_CMD&I2C_STATUS_TIP_FLAG); //wait for TIP
    1b6c:	00a02034 	movhi	r2,32896
    1b70:	10880804 	addi	r2,r2,8224
    1b74:	10800103 	ldbu	r2,4(r2)
    1b78:	10803fcc 	andi	r2,r2,255
    1b7c:	1080008c 	andi	r2,r2,2
    1b80:	1004c03a 	cmpne	r2,r2,zero
    1b84:	103ff91e 	bne	r2,zero,1b6c <I2C_action+0x20>
	return I2C->STATUS_CMD&I2C_STATUS_RXACK_FLAG;
    1b88:	00a02034 	movhi	r2,32896
    1b8c:	10880804 	addi	r2,r2,8224
    1b90:	10800103 	ldbu	r2,4(r2)
    1b94:	10c03fcc 	andi	r3,r2,255
    1b98:	00802004 	movi	r2,128
    1b9c:	1884703a 	and	r2,r3,r2
}
    1ba0:	e037883a 	mov	sp,fp
    1ba4:	df000017 	ldw	fp,0(sp)
    1ba8:	dec00104 	addi	sp,sp,4
    1bac:	f800283a 	ret

00001bb0 <lcd_cmd>:

/**
 * Writes a command to the LCD.
 * @param cmd command to be sent to LCD.
 */
void lcd_cmd(uint8_t cmd){
    1bb0:	defffc04 	addi	sp,sp,-16
    1bb4:	dfc00315 	stw	ra,12(sp)
    1bb8:	df000215 	stw	fp,8(sp)
    1bbc:	df000204 	addi	fp,sp,8
    1bc0:	e13fff05 	stb	r4,-4(fp)
	//temporary value for data pin manipulation
	uint8_t ctrlVal;

	//Wait till LCD is ready to accept new instruction
	lcd_util_pollBusyFlag();
    1bc4:	0001ec40 	call	1ec4 <lcd_util_pollBusyFlag>

	// write E=RS=RW=0
	(LCD_CTRL->L_CTRL) = LCD_DATA_CMD_SELECT_CMD_MASK;
    1bc8:	00a02034 	movhi	r2,32896
    1bcc:	10882004 	addi	r2,r2,8320
    1bd0:	10000005 	stb	zero,0(r2)

	// write command to data port
	(LCD_DATA->DATA) = cmd;
    1bd4:	00e02034 	movhi	r3,32896
    1bd8:	18c82804 	addi	r3,r3,8352
    1bdc:	e0bfff03 	ldbu	r2,-4(fp)
    1be0:	18800015 	stw	r2,0(r3)

	// set enable ON
	ctrlVal = (LCD_CTRL->L_CTRL) | LCD_ENABLE_ON_MASK;
    1be4:	00a02034 	movhi	r2,32896
    1be8:	10882004 	addi	r2,r2,8320
    1bec:	10800003 	ldbu	r2,0(r2)
    1bf0:	10800114 	ori	r2,r2,4
    1bf4:	e0bffe05 	stb	r2,-8(fp)
	(LCD_CTRL->L_CTRL) = ctrlVal;
    1bf8:	00e02034 	movhi	r3,32896
    1bfc:	18c82004 	addi	r3,r3,8320
    1c00:	e0bffe03 	ldbu	r2,-8(fp)
    1c04:	18800005 	stb	r2,0(r3)

	// delay for 500ns
	timer_delay(500, TIMER_1);
    1c08:	01007d04 	movi	r4,500
    1c0c:	01602034 	movhi	r5,32896
    1c10:	29481804 	addi	r5,r5,8288
    1c14:	00021840 	call	2184 <timer_delay>

	// set enable OFF
	ctrlVal = (LCD_CTRL->L_CTRL) & LCD_ENABLE_OFF_MASK;
    1c18:	00a02034 	movhi	r2,32896
    1c1c:	10882004 	addi	r2,r2,8320
    1c20:	10c00003 	ldbu	r3,0(r2)
    1c24:	00bffec4 	movi	r2,-5
    1c28:	1884703a 	and	r2,r3,r2
    1c2c:	e0bffe05 	stb	r2,-8(fp)
	(LCD_CTRL->L_CTRL) = ctrlVal;
    1c30:	00e02034 	movhi	r3,32896
    1c34:	18c82004 	addi	r3,r3,8320
    1c38:	e0bffe03 	ldbu	r2,-8(fp)
    1c3c:	18800005 	stb	r2,0(r3)

}
    1c40:	e037883a 	mov	sp,fp
    1c44:	dfc00117 	ldw	ra,4(sp)
    1c48:	df000017 	ldw	fp,0(sp)
    1c4c:	dec00204 	addi	sp,sp,8
    1c50:	f800283a 	ret

00001c54 <lcd_prt>:

/**
 * Writes a character to the LCD.
 * @param c character that is to be sent to LCD.
 */
void lcd_prt(char c){
    1c54:	defffc04 	addi	sp,sp,-16
    1c58:	dfc00315 	stw	ra,12(sp)
    1c5c:	df000215 	stw	fp,8(sp)
    1c60:	df000204 	addi	fp,sp,8
    1c64:	e13fff05 	stb	r4,-4(fp)

	//temporary value for data pin manipulation
	uint8_t ctrlVal;

	//Wait till LCD is ready to accept new instruction
	lcd_util_pollBusyFlag();
    1c68:	0001ec40 	call	1ec4 <lcd_util_pollBusyFlag>

	// write RW=E=0 RS=1  "0b010"
	(LCD_CTRL->L_CTRL) = LCD_DATA_CMD_SELECT_DATA_MASK;
    1c6c:	00e02034 	movhi	r3,32896
    1c70:	18c82004 	addi	r3,r3,8320
    1c74:	00800084 	movi	r2,2
    1c78:	18800005 	stb	r2,0(r3)

	// write character to data port
	(LCD_DATA->DATA) = c;
    1c7c:	00e02034 	movhi	r3,32896
    1c80:	18c82804 	addi	r3,r3,8352
    1c84:	e0bfff07 	ldb	r2,-4(fp)
    1c88:	18800015 	stw	r2,0(r3)

	// set enable ON
	ctrlVal = (LCD_CTRL->L_CTRL) | LCD_ENABLE_ON_MASK;
    1c8c:	00a02034 	movhi	r2,32896
    1c90:	10882004 	addi	r2,r2,8320
    1c94:	10800003 	ldbu	r2,0(r2)
    1c98:	10800114 	ori	r2,r2,4
    1c9c:	e0bffe05 	stb	r2,-8(fp)
	(LCD_CTRL->L_CTRL) = ctrlVal;
    1ca0:	00e02034 	movhi	r3,32896
    1ca4:	18c82004 	addi	r3,r3,8320
    1ca8:	e0bffe03 	ldbu	r2,-8(fp)
    1cac:	18800005 	stb	r2,0(r3)

	// delay for 500ns
	timer_delay(500, TIMER_1);
    1cb0:	01007d04 	movi	r4,500
    1cb4:	01602034 	movhi	r5,32896
    1cb8:	29481804 	addi	r5,r5,8288
    1cbc:	00021840 	call	2184 <timer_delay>

	// set enable OFF
	ctrlVal = (LCD_CTRL->L_CTRL) & LCD_ENABLE_OFF_MASK;
    1cc0:	00a02034 	movhi	r2,32896
    1cc4:	10882004 	addi	r2,r2,8320
    1cc8:	10c00003 	ldbu	r3,0(r2)
    1ccc:	00bffec4 	movi	r2,-5
    1cd0:	1884703a 	and	r2,r3,r2
    1cd4:	e0bffe05 	stb	r2,-8(fp)
	(LCD_CTRL->L_CTRL) = ctrlVal;
    1cd8:	00e02034 	movhi	r3,32896
    1cdc:	18c82004 	addi	r3,r3,8320
    1ce0:	e0bffe03 	ldbu	r2,-8(fp)
    1ce4:	18800005 	stb	r2,0(r3)
}
    1ce8:	e037883a 	mov	sp,fp
    1cec:	dfc00117 	ldw	ra,4(sp)
    1cf0:	df000017 	ldw	fp,0(sp)
    1cf4:	dec00204 	addi	sp,sp,8
    1cf8:	f800283a 	ret

00001cfc <lcd_clr>:

/**
 * Writes the clear command to the LCD.
 */
void lcd_clr(void){
    1cfc:	defffe04 	addi	sp,sp,-8
    1d00:	dfc00115 	stw	ra,4(sp)
    1d04:	df000015 	stw	fp,0(sp)
    1d08:	d839883a 	mov	fp,sp
	lcd_cmd(LCD_CMD_CLEAR);
    1d0c:	01000044 	movi	r4,1
    1d10:	0001bb00 	call	1bb0 <lcd_cmd>
}
    1d14:	e037883a 	mov	sp,fp
    1d18:	dfc00117 	ldw	ra,4(sp)
    1d1c:	df000017 	ldw	fp,0(sp)
    1d20:	dec00204 	addi	sp,sp,8
    1d24:	f800283a 	ret

00001d28 <lcd_home>:

/**
 * Moves the cursor back to home on the LCD.
 */
void lcd_home(void){
    1d28:	defffe04 	addi	sp,sp,-8
    1d2c:	dfc00115 	stw	ra,4(sp)
    1d30:	df000015 	stw	fp,0(sp)
    1d34:	d839883a 	mov	fp,sp
	lcd_cmd(LCD_CMD_INCREMENT_CURSOR_1);
    1d38:	01000184 	movi	r4,6
    1d3c:	0001bb00 	call	1bb0 <lcd_cmd>
	lcd_cmd(LCD_CMD_CURSOR_HOME);
    1d40:	01000084 	movi	r4,2
    1d44:	0001bb00 	call	1bb0 <lcd_cmd>
}
    1d48:	e037883a 	mov	sp,fp
    1d4c:	dfc00117 	ldw	ra,4(sp)
    1d50:	df000017 	ldw	fp,0(sp)
    1d54:	dec00204 	addi	sp,sp,8
    1d58:	f800283a 	ret

00001d5c <lcd_init>:

/**
 * Initializes the LCD. Sends out the command stream to setup the display. Must
 * call LCDportInit first for direction setting.
 */
void lcd_init(void){
    1d5c:	defffe04 	addi	sp,sp,-8
    1d60:	dfc00115 	stw	ra,4(sp)
    1d64:	df000015 	stw	fp,0(sp)
    1d68:	d839883a 	mov	fp,sp
	lcd_portInit(0xFF);
    1d6c:	01003fc4 	movi	r4,255
    1d70:	0001db00 	call	1db0 <lcd_portInit>
	lcd_cmd(LCD_CMD_DATALENGTH_8BIT);
    1d74:	01000e04 	movi	r4,56
    1d78:	0001bb00 	call	1bb0 <lcd_cmd>
	lcd_cmd(LCD_CMD_DISPLAY_CURSOR_BLINK_ON);
    1d7c:	010003c4 	movi	r4,15
    1d80:	0001bb00 	call	1bb0 <lcd_cmd>
	lcd_cmd(LCD_CMD_CLEAR);
    1d84:	01000044 	movi	r4,1
    1d88:	0001bb00 	call	1bb0 <lcd_cmd>
	lcd_cmd(LCD_CMD_INCREMENT_CURSOR_1);
    1d8c:	01000184 	movi	r4,6
    1d90:	0001bb00 	call	1bb0 <lcd_cmd>
	lcd_cmd(LCD_CMD_CURSOR_HOME);
    1d94:	01000084 	movi	r4,2
    1d98:	0001bb00 	call	1bb0 <lcd_cmd>
}
    1d9c:	e037883a 	mov	sp,fp
    1da0:	dfc00117 	ldw	ra,4(sp)
    1da4:	df000017 	ldw	fp,0(sp)
    1da8:	dec00204 	addi	sp,sp,8
    1dac:	f800283a 	ret

00001db0 <lcd_portInit>:

/**
 * Sets the direction of the LCD data port.
 * @param dir Port direction mask for the LCD data port
 */
void lcd_portInit(uint8_t dir){
    1db0:	defffe04 	addi	sp,sp,-8
    1db4:	df000115 	stw	fp,4(sp)
    1db8:	df000104 	addi	fp,sp,4
    1dbc:	e13fff05 	stb	r4,-4(fp)
	(LCD_DATA->DIRECTION) = dir;
    1dc0:	00e02034 	movhi	r3,32896
    1dc4:	18c82804 	addi	r3,r3,8352
    1dc8:	e0bfff03 	ldbu	r2,-4(fp)
    1dcc:	18800115 	stw	r2,4(r3)
}
    1dd0:	e037883a 	mov	sp,fp
    1dd4:	df000017 	ldw	fp,0(sp)
    1dd8:	dec00104 	addi	sp,sp,4
    1ddc:	f800283a 	ret

00001de0 <lcd_printString>:

/**
 * Prints a string of characters to the LCD.
 * @param ptr pointer to the start of a C-string ended with a nul character.
 */
void lcd_printString(char* ptr){
    1de0:	defffc04 	addi	sp,sp,-16
    1de4:	dfc00315 	stw	ra,12(sp)
    1de8:	df000215 	stw	fp,8(sp)
    1dec:	df000204 	addi	fp,sp,8
    1df0:	e13fff15 	stw	r4,-4(fp)
	int counter;
	for(counter = 0; (*ptr != '\0')&&(counter != 32); counter++){
    1df4:	e03ffe15 	stw	zero,-8(fp)
    1df8:	00002306 	br	1e88 <lcd_printString+0xa8>

		// If enter character
		if(*ptr == '\n'){
    1dfc:	e0bfff17 	ldw	r2,-4(fp)
    1e00:	10800003 	ldbu	r2,0(r2)
    1e04:	10803fcc 	andi	r2,r2,255
    1e08:	1080201c 	xori	r2,r2,128
    1e0c:	10bfe004 	addi	r2,r2,-128
    1e10:	10800298 	cmpnei	r2,r2,10
    1e14:	10000b1e 	bne	r2,zero,1e44 <lcd_printString+0x64>
			//If on first line move to second
			if(counter < 16){
    1e18:	e0bffe17 	ldw	r2,-8(fp)
    1e1c:	10800408 	cmpgei	r2,r2,16
    1e20:	1000231e 	bne	r2,zero,1eb0 <lcd_printString+0xd0>
				lcd_cmd(LCD_SECONDLINE_CMD);
    1e24:	01003004 	movi	r4,192
    1e28:	0001bb00 	call	1bb0 <lcd_cmd>
				counter = 16;
    1e2c:	00800404 	movi	r2,16
    1e30:	e0bffe15 	stw	r2,-8(fp)
			else {
				return;
			}

			//index pointer
			ptr++;
    1e34:	e0bfff17 	ldw	r2,-4(fp)
    1e38:	10800044 	addi	r2,r2,1
    1e3c:	e0bfff15 	stw	r2,-4(fp)
    1e40:	00000e06 	br	1e7c <lcd_printString+0x9c>
		}
		//Roll over to second line when first line fills
		else{
			if(counter == 16)
    1e44:	e0bffe17 	ldw	r2,-8(fp)
    1e48:	10800418 	cmpnei	r2,r2,16
    1e4c:	1000021e 	bne	r2,zero,1e58 <lcd_printString+0x78>
				lcd_cmd(LCD_SECONDLINE_CMD);
    1e50:	01003004 	movi	r4,192
    1e54:	0001bb00 	call	1bb0 <lcd_cmd>

			//print the character and index pointer
			lcd_prt(*ptr);
    1e58:	e0bfff17 	ldw	r2,-4(fp)
    1e5c:	10800003 	ldbu	r2,0(r2)
    1e60:	11003fcc 	andi	r4,r2,255
    1e64:	2100201c 	xori	r4,r4,128
    1e68:	213fe004 	addi	r4,r4,-128
    1e6c:	0001c540 	call	1c54 <lcd_prt>
			ptr++;
    1e70:	e0bfff17 	ldw	r2,-4(fp)
    1e74:	10800044 	addi	r2,r2,1
    1e78:	e0bfff15 	stw	r2,-4(fp)
 * Prints a string of characters to the LCD.
 * @param ptr pointer to the start of a C-string ended with a nul character.
 */
void lcd_printString(char* ptr){
	int counter;
	for(counter = 0; (*ptr != '\0')&&(counter != 32); counter++){
    1e7c:	e0bffe17 	ldw	r2,-8(fp)
    1e80:	10800044 	addi	r2,r2,1
    1e84:	e0bffe15 	stw	r2,-8(fp)
    1e88:	e0bfff17 	ldw	r2,-4(fp)
    1e8c:	10800003 	ldbu	r2,0(r2)
    1e90:	10803fcc 	andi	r2,r2,255
    1e94:	1080201c 	xori	r2,r2,128
    1e98:	10bfe004 	addi	r2,r2,-128
    1e9c:	1005003a 	cmpeq	r2,r2,zero
    1ea0:	1000031e 	bne	r2,zero,1eb0 <lcd_printString+0xd0>
    1ea4:	e0bffe17 	ldw	r2,-8(fp)
    1ea8:	10800818 	cmpnei	r2,r2,32
    1eac:	103fd31e 	bne	r2,zero,1dfc <lcd_printString+0x1c>
			//print the character and index pointer
			lcd_prt(*ptr);
			ptr++;
		}
	}
}
    1eb0:	e037883a 	mov	sp,fp
    1eb4:	dfc00117 	ldw	ra,4(sp)
    1eb8:	df000017 	ldw	fp,0(sp)
    1ebc:	dec00204 	addi	sp,sp,8
    1ec0:	f800283a 	ret

00001ec4 <lcd_util_pollBusyFlag>:

/**
 * Polls the busy flag of the LCD to synchronize the program to the LCD
 * instruction execution.
 */
static void lcd_util_pollBusyFlag(){
    1ec4:	defffd04 	addi	sp,sp,-12
    1ec8:	df000215 	stw	fp,8(sp)
    1ecc:	df000204 	addi	fp,sp,8

	//Set data register to input
	uint32_t tempDataDir = (LCD_DATA->DIRECTION);
    1ed0:	00a02034 	movhi	r2,32896
    1ed4:	10882804 	addi	r2,r2,8352
    1ed8:	10800117 	ldw	r2,4(r2)
    1edc:	e0bfff15 	stw	r2,-4(fp)
	(LCD_DATA->DIRECTION) = 0;
    1ee0:	00a02034 	movhi	r2,32896
    1ee4:	10882804 	addi	r2,r2,8352
    1ee8:	10000115 	stw	zero,4(r2)

	// Set RW=E=1, RS=0 to get visible busy flag
	(LCD_CTRL->L_CTRL) = 0x5;
    1eec:	00e02034 	movhi	r3,32896
    1ef0:	18c82004 	addi	r3,r3,8320
    1ef4:	00800144 	movi	r2,5
    1ef8:	18800005 	stb	r2,0(r3)

	// Needs small delay since processor is faster than LCD. Thus this noop
	// is ran.
	int i = 0; i++;
    1efc:	e03ffe15 	stw	zero,-8(fp)
    1f00:	e0bffe17 	ldw	r2,-8(fp)
    1f04:	10800044 	addi	r2,r2,1
    1f08:	e0bffe15 	stw	r2,-8(fp)

	// Poll busy flag while it is active, since old operation is still running
	while((LCD_DATA->DATA) & 0x80);
    1f0c:	00a02034 	movhi	r2,32896
    1f10:	10882804 	addi	r2,r2,8352
    1f14:	10800017 	ldw	r2,0(r2)
    1f18:	1080200c 	andi	r2,r2,128
    1f1c:	1004c03a 	cmpne	r2,r2,zero
    1f20:	103ffa1e 	bne	r2,zero,1f0c <lcd_util_pollBusyFlag+0x48>

	// Restore the initial direction of the data ports
	(LCD_DATA->DIRECTION) = tempDataDir;
    1f24:	00a02034 	movhi	r2,32896
    1f28:	10882804 	addi	r2,r2,8352
    1f2c:	e0ffff17 	ldw	r3,-4(fp)
    1f30:	10c00115 	stw	r3,4(r2)
	(LCD_CTRL->L_CTRL) = 0;
    1f34:	00a02034 	movhi	r2,32896
    1f38:	10882004 	addi	r2,r2,8320
    1f3c:	10000005 	stb	zero,0(r2)
}
    1f40:	e037883a 	mov	sp,fp
    1f44:	df000017 	ldw	fp,0(sp)
    1f48:	dec00104 	addi	sp,sp,4
    1f4c:	f800283a 	ret

00001f50 <PWM_setDutyCycle_A>:
 * @param dutyPercent Duty cycle, given as a percent from 0 to 100. (anything
 *        lower or higher will be ignored and no change will occur to register
 * @return Either a 0 if there was no error (Bad input) or a EOF (-1) if the
 *         input was out of bounds.
 */
int PWM_setDutyCycle_A(int dutyCycle){
    1f50:	defffc04 	addi	sp,sp,-16
    1f54:	df000315 	stw	fp,12(sp)
    1f58:	df000304 	addi	fp,sp,12
    1f5c:	e13ffe15 	stw	r4,-8(fp)
	if((dutyCycle <= 100) && (dutyCycle >= 0)){
    1f60:	e0bffe17 	ldw	r2,-8(fp)
    1f64:	10801948 	cmpgei	r2,r2,101
    1f68:	1000121e 	bne	r2,zero,1fb4 <PWM_setDutyCycle_A+0x64>
    1f6c:	e0bffe17 	ldw	r2,-8(fp)
    1f70:	1004803a 	cmplt	r2,r2,zero
    1f74:	10000f1e 	bne	r2,zero,1fb4 <PWM_setDutyCycle_A+0x64>
		//Convert from percent to the acceptable OCR value with max 20000
		int duty = dutyCycle * (MAX_OCR_VALUE / 100);
    1f78:	e0bffe17 	ldw	r2,-8(fp)
    1f7c:	10803224 	muli	r2,r2,200
    1f80:	e0bffd15 	stw	r2,-12(fp)
		//We can never actually get to 20000 based on my CE2800 notes
		if(duty == MAX_OCR_VALUE)
    1f84:	e0bffd17 	ldw	r2,-12(fp)
    1f88:	10938818 	cmpnei	r2,r2,20000
    1f8c:	1000031e 	bne	r2,zero,1f9c <PWM_setDutyCycle_A+0x4c>
			duty--;
    1f90:	e0bffd17 	ldw	r2,-12(fp)
    1f94:	10bfffc4 	addi	r2,r2,-1
    1f98:	e0bffd15 	stw	r2,-12(fp)
		//set register
		*OCRA = duty;
    1f9c:	00a02034 	movhi	r2,32896
    1fa0:	10880a04 	addi	r2,r2,8232
    1fa4:	e0fffd17 	ldw	r3,-12(fp)
    1fa8:	10c0000d 	sth	r3,0(r2)
	} else {
		return -1; // return an error
	}
	// no error
	return 0;
    1fac:	e03fff15 	stw	zero,-4(fp)
    1fb0:	00000206 	br	1fbc <PWM_setDutyCycle_A+0x6c>
		if(duty == MAX_OCR_VALUE)
			duty--;
		//set register
		*OCRA = duty;
	} else {
		return -1; // return an error
    1fb4:	00bfffc4 	movi	r2,-1
    1fb8:	e0bfff15 	stw	r2,-4(fp)
    1fbc:	e0bfff17 	ldw	r2,-4(fp)
	}
	// no error
	return 0;
}
    1fc0:	e037883a 	mov	sp,fp
    1fc4:	df000017 	ldw	fp,0(sp)
    1fc8:	dec00104 	addi	sp,sp,4
    1fcc:	f800283a 	ret

00001fd0 <PWM_setDutyCycle_B>:
 * @param dutyPercent Duty cycle, given as a percent from 0 to 100. (anything
 *        lower or higher will be ignored and no change will occur to register
 * @return Either a 0 if there was no error (Bad input) or a EOF (-1) if the
 *         input was out of bounds.
 */
int PWM_setDutyCycle_B(int dutyCycle){
    1fd0:	defffc04 	addi	sp,sp,-16
    1fd4:	df000315 	stw	fp,12(sp)
    1fd8:	df000304 	addi	fp,sp,12
    1fdc:	e13ffe15 	stw	r4,-8(fp)
	if((dutyCycle <= 100) && (dutyCycle >= 0)){
    1fe0:	e0bffe17 	ldw	r2,-8(fp)
    1fe4:	10801948 	cmpgei	r2,r2,101
    1fe8:	1000121e 	bne	r2,zero,2034 <PWM_setDutyCycle_B+0x64>
    1fec:	e0bffe17 	ldw	r2,-8(fp)
    1ff0:	1004803a 	cmplt	r2,r2,zero
    1ff4:	10000f1e 	bne	r2,zero,2034 <PWM_setDutyCycle_B+0x64>
		//Convert from percent to the acceptable OCR value with max 20000
		int duty = dutyCycle * (MAX_OCR_VALUE / 100);
    1ff8:	e0bffe17 	ldw	r2,-8(fp)
    1ffc:	10803224 	muli	r2,r2,200
    2000:	e0bffd15 	stw	r2,-12(fp)
		//We can never actually get to 20000 based on my CE2800 notes
		if(duty == MAX_OCR_VALUE)
    2004:	e0bffd17 	ldw	r2,-12(fp)
    2008:	10938818 	cmpnei	r2,r2,20000
    200c:	1000031e 	bne	r2,zero,201c <PWM_setDutyCycle_B+0x4c>
			duty--;
    2010:	e0bffd17 	ldw	r2,-12(fp)
    2014:	10bfffc4 	addi	r2,r2,-1
    2018:	e0bffd15 	stw	r2,-12(fp)
		//set register
		*OCRB = duty;
    201c:	00a02034 	movhi	r2,32896
    2020:	10880a84 	addi	r2,r2,8234
    2024:	e0fffd17 	ldw	r3,-12(fp)
    2028:	10c0000d 	sth	r3,0(r2)
	} else {
		return -1;
	}
	return 0;
    202c:	e03fff15 	stw	zero,-4(fp)
    2030:	00000206 	br	203c <PWM_setDutyCycle_B+0x6c>
		if(duty == MAX_OCR_VALUE)
			duty--;
		//set register
		*OCRB = duty;
	} else {
		return -1;
    2034:	00bfffc4 	movi	r2,-1
    2038:	e0bfff15 	stw	r2,-4(fp)
    203c:	e0bfff17 	ldw	r2,-4(fp)
	}
	return 0;
}
    2040:	e037883a 	mov	sp,fp
    2044:	df000017 	ldw	fp,0(sp)
    2048:	dec00104 	addi	sp,sp,4
    204c:	f800283a 	ret

00002050 <PWM_writeOCRA>:
 * Writes a value to the PWM register. Note that the function will only
 * write out valid ranged values.
 * @param value place number directly into register
 * @return -1 if invalid data, 0 otherwise
 */
int PWM_writeOCRA(unsigned int value){
    2050:	defffd04 	addi	sp,sp,-12
    2054:	df000215 	stw	fp,8(sp)
    2058:	df000204 	addi	fp,sp,8
    205c:	e13ffe15 	stw	r4,-8(fp)
	if(value > MAX_OCR_VALUE){
    2060:	e0bffe17 	ldw	r2,-8(fp)
    2064:	10938870 	cmpltui	r2,r2,20001
    2068:	1000031e 	bne	r2,zero,2078 <PWM_writeOCRA+0x28>
		return -1;
    206c:	00bfffc4 	movi	r2,-1
    2070:	e0bfff15 	stw	r2,-4(fp)
    2074:	00000506 	br	208c <PWM_writeOCRA+0x3c>
	}
	*OCRA = value;
    2078:	00a02034 	movhi	r2,32896
    207c:	10880a04 	addi	r2,r2,8232
    2080:	e0fffe17 	ldw	r3,-8(fp)
    2084:	10c0000d 	sth	r3,0(r2)
	return 0;
    2088:	e03fff15 	stw	zero,-4(fp)
    208c:	e0bfff17 	ldw	r2,-4(fp)
}
    2090:	e037883a 	mov	sp,fp
    2094:	df000017 	ldw	fp,0(sp)
    2098:	dec00104 	addi	sp,sp,4
    209c:	f800283a 	ret

000020a0 <PWM_writeOCRB>:
 * Writes a value to the PWM register. Note that the function will only
 * write out valid ranged values.
 * @param value place number directly into register
 * @return -1 if invalid data, 0 otherwise
 */
int PWM_writeOCRB(unsigned int value){
    20a0:	defffd04 	addi	sp,sp,-12
    20a4:	df000215 	stw	fp,8(sp)
    20a8:	df000204 	addi	fp,sp,8
    20ac:	e13ffe15 	stw	r4,-8(fp)
	if(value > MAX_OCR_VALUE){
    20b0:	e0bffe17 	ldw	r2,-8(fp)
    20b4:	10938870 	cmpltui	r2,r2,20001
    20b8:	1000031e 	bne	r2,zero,20c8 <PWM_writeOCRB+0x28>
		return -1;
    20bc:	00bfffc4 	movi	r2,-1
    20c0:	e0bfff15 	stw	r2,-4(fp)
    20c4:	00000506 	br	20dc <PWM_writeOCRB+0x3c>
	}
	*OCRB = value;
    20c8:	00a02034 	movhi	r2,32896
    20cc:	10880a84 	addi	r2,r2,8234
    20d0:	e0fffe17 	ldw	r3,-8(fp)
    20d4:	10c0000d 	sth	r3,0(r2)
	return 0;
    20d8:	e03fff15 	stw	zero,-4(fp)
    20dc:	e0bfff17 	ldw	r2,-4(fp)
}
    20e0:	e037883a 	mov	sp,fp
    20e4:	df000017 	ldw	fp,0(sp)
    20e8:	dec00104 	addi	sp,sp,4
    20ec:	f800283a 	ret

000020f0 <PWM_readOCRA>:

/**
 * Reads from the OCRA register in counts.
 * @return count value.
 */
int PWM_readOCRA(){
    20f0:	deffff04 	addi	sp,sp,-4
    20f4:	df000015 	stw	fp,0(sp)
    20f8:	d839883a 	mov	fp,sp
	return *OCRA;
    20fc:	00a02034 	movhi	r2,32896
    2100:	10880a04 	addi	r2,r2,8232
    2104:	1080000b 	ldhu	r2,0(r2)
    2108:	10bfffcc 	andi	r2,r2,65535
}
    210c:	e037883a 	mov	sp,fp
    2110:	df000017 	ldw	fp,0(sp)
    2114:	dec00104 	addi	sp,sp,4
    2118:	f800283a 	ret

0000211c <PWM_readOCRB>:

/**
 * Reads from the OCRB register in counts.
 * @return count value.
 */
int PWM_readOCRB(){
    211c:	deffff04 	addi	sp,sp,-4
    2120:	df000015 	stw	fp,0(sp)
    2124:	d839883a 	mov	fp,sp
	return *OCRB;
    2128:	00a02034 	movhi	r2,32896
    212c:	10880a84 	addi	r2,r2,8234
    2130:	1080000b 	ldhu	r2,0(r2)
    2134:	10bfffcc 	andi	r2,r2,65535
}
    2138:	e037883a 	mov	sp,fp
    213c:	df000017 	ldw	fp,0(sp)
    2140:	dec00104 	addi	sp,sp,4
    2144:	f800283a 	ret

00002148 <pushbutton_read>:
 * Reads the raw data from the pushbutton. Note that the pushbutton logic is
 * inverted.
 * @param selectedButton number for the correct pushbutton. 1 or 2
 * @return  masked value returning value for register
 */
uint8_t pushbutton_read(uint8_t selectedButton){
    2148:	defffe04 	addi	sp,sp,-8
    214c:	df000115 	stw	fp,4(sp)
    2150:	df000104 	addi	fp,sp,4
    2154:	e13fff05 	stb	r4,-4(fp)
	return (PUSHBUTTON -> DATA) & selectedButton;
    2158:	00a02034 	movhi	r2,32896
    215c:	10883404 	addi	r2,r2,8400
    2160:	10800017 	ldw	r2,0(r2)
    2164:	1007883a 	mov	r3,r2
    2168:	e0bfff03 	ldbu	r2,-4(fp)
    216c:	1884703a 	and	r2,r3,r2
    2170:	10803fcc 	andi	r2,r2,255
}
    2174:	e037883a 	mov	sp,fp
    2178:	df000017 	ldw	fp,0(sp)
    217c:	dec00104 	addi	sp,sp,4
    2180:	f800283a 	ret

00002184 <timer_delay>:
/**
 * Delay for the time passed into the timer as a polling loop.
 * @param timeToDelay nanoseconds to delay
 * @param timer Pointer to TIMER hardware.
 */
void timer_delay(uint32_t timeToDelay, struct TIMER_HARDWARE volatile * timer){
    2184:	defffb04 	addi	sp,sp,-20
    2188:	dfc00415 	stw	ra,16(sp)
    218c:	df000315 	stw	fp,12(sp)
    2190:	df000304 	addi	fp,sp,12
    2194:	e13ffe15 	stw	r4,-8(fp)
    2198:	e17fff15 	stw	r5,-4(fp)

	//Convert from seconds to clock cycles
	timeToDelay = timeToDelay / TIME_PER_CYCLE;
    219c:	e13ffe17 	ldw	r4,-8(fp)
    21a0:	01400504 	movi	r5,20
    21a4:	00028a40 	call	28a4 <__udivsi3>
    21a8:	e0bffe15 	stw	r2,-8(fp)

	//Set initial state of the timer needs both since they are 16 bit registers
	(timer -> PERIODL) = timeToDelay;
    21ac:	e0ffff17 	ldw	r3,-4(fp)
    21b0:	e0bffe17 	ldw	r2,-8(fp)
    21b4:	18800215 	stw	r2,8(r3)
	(timer -> PERIODH) = timeToDelay >> 16;
    21b8:	e0bffe17 	ldw	r2,-8(fp)
    21bc:	1006d43a 	srli	r3,r2,16
    21c0:	e0bfff17 	ldw	r2,-4(fp)
    21c4:	10c00315 	stw	r3,12(r2)

	// Clear t0 flag to reset timer if it was set before for whatever reason
	(timer -> STATUS) = TIMER_STATUS_T0_MASK;
    21c8:	e0ffff17 	ldw	r3,-4(fp)
    21cc:	00800044 	movi	r2,1
    21d0:	18800015 	stw	r2,0(r3)

	//Start timer count down by setting start bit
	uint8_t timerStatus = START_TIMER_MASK;
    21d4:	00800104 	movi	r2,4
    21d8:	e0bffd05 	stb	r2,-12(fp)
	(timer -> CTRL) = timerStatus;
    21dc:	e0fffd03 	ldbu	r3,-12(fp)
    21e0:	e0bfff17 	ldw	r2,-4(fp)
    21e4:	10c00115 	stw	r3,4(r2)

	//Loop while t0 flag is a zero
	while(((timer -> STATUS) & TIMER_STATUS_T0_MASK) == 0)
    21e8:	e0bfff17 	ldw	r2,-4(fp)
    21ec:	10800017 	ldw	r2,0(r2)
    21f0:	1080004c 	andi	r2,r2,1
    21f4:	1005003a 	cmpeq	r2,r2,zero
    21f8:	103ffb1e 	bne	r2,zero,21e8 <timer_delay+0x64>
		;

	// Clear t0 flag to reset timer
	(timer -> STATUS) = TIMER_STATUS_T0_MASK;
    21fc:	e0ffff17 	ldw	r3,-4(fp)
    2200:	00800044 	movi	r2,1
    2204:	18800015 	stw	r2,0(r3)
}
    2208:	e037883a 	mov	sp,fp
    220c:	dfc00117 	ldw	ra,4(sp)
    2210:	df000017 	ldw	fp,0(sp)
    2214:	dec00204 	addi	sp,sp,8
    2218:	f800283a 	ret

0000221c <timer_interrupt_init>:
 * @param isInterruptable 0 is disabling interrupts, 1 is enabling interrupts
 * @param timeToDelay Time to set in timer before interrupt once started.
 * @param timer Pointer to Timer hardware
 */
void timer_interrupt_init(uint8_t isInterruptable, uint32_t timeToDelay,
		struct TIMER_HARDWARE volatile * timer){
    221c:	defffb04 	addi	sp,sp,-20
    2220:	dfc00415 	stw	ra,16(sp)
    2224:	df000315 	stw	fp,12(sp)
    2228:	df000304 	addi	fp,sp,12
    222c:	e17ffe15 	stw	r5,-8(fp)
    2230:	e1bfff15 	stw	r6,-4(fp)
    2234:	e13ffd05 	stb	r4,-12(fp)

	//check to see if enabling or disabling interrupts
	if(isInterruptable){
    2238:	e0bffd03 	ldbu	r2,-12(fp)
    223c:	1005003a 	cmpeq	r2,r2,zero
    2240:	1000251e 	bne	r2,zero,22d8 <timer_interrupt_init+0xbc>

		// set IRQ0
		if(timer == TIMER_0){
    2244:	e0ffff17 	ldw	r3,-4(fp)
    2248:	00a02034 	movhi	r2,32896
    224c:	10881004 	addi	r2,r2,8256
    2250:	1880051e 	bne	r3,r2,2268 <timer_interrupt_init+0x4c>
			// set interrupt ienable
			asm volatile(
    2254:	01c00044 	movi	r7,1
    2258:	000d30fa 	rdctl	r6,ienable
    225c:	398eb03a 	or	r7,r7,r6
    2260:	380170fa 	wrctl	ienable,r7
    2264:	00000806 	br	2288 <timer_interrupt_init+0x6c>
							::
						);

		}
		// set IRQ2
		else if (timer == TIMER_1){
    2268:	e0ffff17 	ldw	r3,-4(fp)
    226c:	00a02034 	movhi	r2,32896
    2270:	10881804 	addi	r2,r2,8288
    2274:	1880041e 	bne	r3,r2,2288 <timer_interrupt_init+0x6c>
			// set interrupt ienable
			asm volatile(
    2278:	01c00104 	movi	r7,4
    227c:	000d30fa 	rdctl	r6,ienable
    2280:	398eb03a 	or	r7,r7,r6
    2284:	380170fa 	wrctl	ienable,r7
						);
		}

		//Clear t0 flag to reset timer if it was
		// set before for whatever reason
		(timer -> STATUS) = TIMER_STATUS_T0_MASK;
    2288:	e0ffff17 	ldw	r3,-4(fp)
    228c:	00800044 	movi	r2,1
    2290:	18800015 	stw	r2,0(r3)

		//Convert from seconds to clock cycles
		timeToDelay = timeToDelay / TIME_PER_CYCLE;
    2294:	e13ffe17 	ldw	r4,-8(fp)
    2298:	01400504 	movi	r5,20
    229c:	00028a40 	call	28a4 <__udivsi3>
    22a0:	e0bffe15 	stw	r2,-8(fp)

		//Set initial state of the timer needs both since
		// they are 16 bit registers
		(timer -> PERIODL) = timeToDelay;
    22a4:	e0ffff17 	ldw	r3,-4(fp)
    22a8:	e0bffe17 	ldw	r2,-8(fp)
    22ac:	18800215 	stw	r2,8(r3)
		(timer -> PERIODH) = timeToDelay >> 16;
    22b0:	e0bffe17 	ldw	r2,-8(fp)
    22b4:	1006d43a 	srli	r3,r2,16
    22b8:	e0bfff17 	ldw	r2,-4(fp)
    22bc:	10c00315 	stw	r3,12(r2)

		// set interrupt on control register
		(timer -> CTRL) = (timer -> CTRL) | (INTERRUPT_TIMER_MASK | CONT_TIMER_MASK);
    22c0:	e0bfff17 	ldw	r2,-4(fp)
    22c4:	10800117 	ldw	r2,4(r2)
    22c8:	10c000d4 	ori	r3,r2,3
    22cc:	e0bfff17 	ldw	r2,-4(fp)
    22d0:	10c00115 	stw	r3,4(r2)
    22d4:	00001506 	br	232c <timer_interrupt_init+0x110>

	} else {
		// set IRQ to off
		if(timer == TIMER_0){
    22d8:	e0ffff17 	ldw	r3,-4(fp)
    22dc:	00a02034 	movhi	r2,32896
    22e0:	10881004 	addi	r2,r2,8256
    22e4:	1880051e 	bne	r3,r2,22fc <timer_interrupt_init+0xe0>
			asm volatile(
    22e8:	01ffff84 	movi	r7,-2
    22ec:	000d30fa 	rdctl	r6,ienable
    22f0:	398e703a 	and	r7,r7,r6
    22f4:	380170fa 	wrctl	ienable,r7
    22f8:	00000806 	br	231c <timer_interrupt_init+0x100>
							"rdctl	r6, ienable\n\t"	// combine previous
							"and	r7, r7, r6\n\t"     // ienable and irq0
							"wrctl	ienable, r7"
							::
						);
		}else if(timer == TIMER_1){
    22fc:	e0ffff17 	ldw	r3,-4(fp)
    2300:	00a02034 	movhi	r2,32896
    2304:	10881804 	addi	r2,r2,8288
    2308:	1880041e 	bne	r3,r2,231c <timer_interrupt_init+0x100>
			asm volatile(
    230c:	01fffec4 	movi	r7,-5
    2310:	000d30fa 	rdctl	r6,ienable
    2314:	398e703a 	and	r7,r7,r6
    2318:	380170fa 	wrctl	ienable,r7
							::
						);
		}

		// disable interrupt
		(timer -> CTRL) = (timer -> CTRL) & !(INTERRUPT_TIMER_MASK | CONT_TIMER_MASK);
    231c:	e0bfff17 	ldw	r2,-4(fp)
    2320:	10800117 	ldw	r2,4(r2)
    2324:	e0bfff17 	ldw	r2,-4(fp)
    2328:	10000115 	stw	zero,4(r2)
	}
}
    232c:	e037883a 	mov	sp,fp
    2330:	dfc00117 	ldw	ra,4(sp)
    2334:	df000017 	ldw	fp,0(sp)
    2338:	dec00204 	addi	sp,sp,8
    233c:	f800283a 	ret

00002340 <timer_interrupt_start_stop>:
 * Sets the timer to be started or stopped for interrupt use.
 * @param isStart boolean value whether to start of stop timer
 * @param timer Pointer to Timer hardware
 */
void timer_interrupt_start_stop(uint8_t isStart,
		struct TIMER_HARDWARE volatile * timer){
    2340:	defffd04 	addi	sp,sp,-12
    2344:	df000215 	stw	fp,8(sp)
    2348:	df000204 	addi	fp,sp,8
    234c:	e17fff15 	stw	r5,-4(fp)
    2350:	e13ffe05 	stb	r4,-8(fp)
	//Start the timer
	if(isStart){
    2354:	e0bffe03 	ldbu	r2,-8(fp)
    2358:	1005003a 	cmpeq	r2,r2,zero
    235c:	1000061e 	bne	r2,zero,2378 <timer_interrupt_start_stop+0x38>
		(timer -> CTRL) = (timer -> CTRL) | START_TIMER_MASK;
    2360:	e0bfff17 	ldw	r2,-4(fp)
    2364:	10800117 	ldw	r2,4(r2)
    2368:	10c00114 	ori	r3,r2,4
    236c:	e0bfff17 	ldw	r2,-4(fp)
    2370:	10c00115 	stw	r3,4(r2)
    2374:	00000406 	br	2388 <timer_interrupt_start_stop+0x48>
	}
	//Stop the timer
	else {
		(timer -> CTRL) = (timer -> CTRL) & !START_TIMER_MASK;
    2378:	e0bfff17 	ldw	r2,-4(fp)
    237c:	10800117 	ldw	r2,4(r2)
    2380:	e0bfff17 	ldw	r2,-4(fp)
    2384:	10000115 	stw	zero,4(r2)
	}
}
    2388:	e037883a 	mov	sp,fp
    238c:	df000017 	ldw	fp,0(sp)
    2390:	dec00104 	addi	sp,sp,4
    2394:	f800283a 	ret

00002398 <timer_ISR_TIMER_0>:
/**
 * Handles the interrupt for the given timer in name. Note that this clears the
 * interrupt but does not perform a callback. Instead template this function or
 * call from actual ISR.
 */
void timer_ISR_TIMER_0(){
    2398:	deffff04 	addi	sp,sp,-4
    239c:	df000015 	stw	fp,0(sp)
    23a0:	d839883a 	mov	fp,sp
	//write T0 flag to clear interrupt
	(TIMER_0 -> STATUS) = TIMER_STATUS_T0_MASK;
    23a4:	00e02034 	movhi	r3,32896
    23a8:	18c81004 	addi	r3,r3,8256
    23ac:	00800044 	movi	r2,1
    23b0:	18800015 	stw	r2,0(r3)
}
    23b4:	e037883a 	mov	sp,fp
    23b8:	df000017 	ldw	fp,0(sp)
    23bc:	dec00104 	addi	sp,sp,4
    23c0:	f800283a 	ret

000023c4 <timer_ISR_TIMER_1>:
/**
 * Handles the interrupt for the given timer in name. Note that this clears the
 * interrupt but does not perform a callback. Instead template this function or
 * call from actual ISR.
 */
void timer_ISR_TIMER_1(){
    23c4:	deffff04 	addi	sp,sp,-4
    23c8:	df000015 	stw	fp,0(sp)
    23cc:	d839883a 	mov	fp,sp
	//write T0 flag to clear interrupt
	(TIMER_1 -> STATUS) = TIMER_STATUS_T0_MASK;
    23d0:	00e02034 	movhi	r3,32896
    23d4:	18c81804 	addi	r3,r3,8288
    23d8:	00800044 	movi	r2,1
    23dc:	18800015 	stw	r2,0(r3)
}
    23e0:	e037883a 	mov	sp,fp
    23e4:	df000017 	ldw	fp,0(sp)
    23e8:	dec00104 	addi	sp,sp,4
    23ec:	f800283a 	ret

000023f0 <vga_clearDisplay>:
//=============================================================================

/**
 * Clears the VGA device by making the screen black on all pixels.
 */
void vga_clearDisplay(){
    23f0:	defffe04 	addi	sp,sp,-8
    23f4:	df000115 	stw	fp,4(sp)
    23f8:	df000104 	addi	fp,sp,4
	uint8_t row,col;
	for(row=0;row<VGA_ROW_MAX;row++){
    23fc:	e03fff45 	stb	zero,-3(fp)
    2400:	00001306 	br	2450 <vga_clearDisplay+0x60>
		for(col=0;col<VGA_COL_MAX;col++){
    2404:	e03fff05 	stb	zero,-4(fp)
    2408:	00000b06 	br	2438 <vga_clearDisplay+0x48>
			*(VGA_MEM_START + (row << 7) + col) = 0x00;
    240c:	e0bfff43 	ldbu	r2,-3(fp)
    2410:	100491fa 	slli	r2,r2,7
    2414:	1007883a 	mov	r3,r2
    2418:	e0bfff03 	ldbu	r2,-4(fp)
    241c:	1887883a 	add	r3,r3,r2
    2420:	00a02034 	movhi	r2,32896
    2424:	1885883a 	add	r2,r3,r2
    2428:	10000005 	stb	zero,0(r2)
 * Clears the VGA device by making the screen black on all pixels.
 */
void vga_clearDisplay(){
	uint8_t row,col;
	for(row=0;row<VGA_ROW_MAX;row++){
		for(col=0;col<VGA_COL_MAX;col++){
    242c:	e0bfff03 	ldbu	r2,-4(fp)
    2430:	10800044 	addi	r2,r2,1
    2434:	e0bfff05 	stb	r2,-4(fp)
    2438:	e0bfff03 	ldbu	r2,-4(fp)
    243c:	10801430 	cmpltui	r2,r2,80
    2440:	103ff21e 	bne	r2,zero,240c <vga_clearDisplay+0x1c>
/**
 * Clears the VGA device by making the screen black on all pixels.
 */
void vga_clearDisplay(){
	uint8_t row,col;
	for(row=0;row<VGA_ROW_MAX;row++){
    2444:	e0bfff43 	ldbu	r2,-3(fp)
    2448:	10800044 	addi	r2,r2,1
    244c:	e0bfff45 	stb	r2,-3(fp)
    2450:	e0bfff43 	ldbu	r2,-3(fp)
    2454:	10800f30 	cmpltui	r2,r2,60
    2458:	103fea1e 	bne	r2,zero,2404 <vga_clearDisplay+0x14>
		for(col=0;col<VGA_COL_MAX;col++){
			*(VGA_MEM_START + (row << 7) + col) = 0x00;
		}
	}
}
    245c:	e037883a 	mov	sp,fp
    2460:	df000017 	ldw	fp,0(sp)
    2464:	dec00104 	addi	sp,sp,4
    2468:	f800283a 	ret

0000246c <servo_init>:
//=============================================================================

/**
 * Sets up the PWM to move the servos to center position
 */
void servo_init(){
    246c:	defffe04 	addi	sp,sp,-8
    2470:	dfc00115 	stw	ra,4(sp)
    2474:	df000015 	stw	fp,0(sp)
    2478:	d839883a 	mov	fp,sp
	servo_pan(PAN_MAX/2);
    247c:	010015c4 	movi	r4,87
    2480:	00024a00 	call	24a0 <servo_pan>
	servo_tilt(TILT_MAX/2+5);
    2484:	01001304 	movi	r4,76
    2488:	00025100 	call	2510 <servo_tilt>
}
    248c:	e037883a 	mov	sp,fp
    2490:	dfc00117 	ldw	ra,4(sp)
    2494:	df000017 	ldw	fp,0(sp)
    2498:	dec00204 	addi	sp,sp,8
    249c:	f800283a 	ret

000024a0 <servo_pan>:
 * of the camera. These values should cause a full range of travel from far
 * left to far right.
 * @param col the x tracking position
 * @return -1 if invalid input, else 0
 */
int servo_pan(int col){
    24a0:	defffc04 	addi	sp,sp,-16
    24a4:	dfc00315 	stw	ra,12(sp)
    24a8:	df000215 	stw	fp,8(sp)
    24ac:	df000204 	addi	fp,sp,8
    24b0:	e13ffe15 	stw	r4,-8(fp)
	if(col < PAN_MIN || col > PAN_MAX){
    24b4:	e0bffe17 	ldw	r2,-8(fp)
    24b8:	1004803a 	cmplt	r2,r2,zero
    24bc:	1000031e 	bne	r2,zero,24cc <servo_pan+0x2c>
    24c0:	e0bffe17 	ldw	r2,-8(fp)
    24c4:	10802c10 	cmplti	r2,r2,176
    24c8:	1000031e 	bne	r2,zero,24d8 <servo_pan+0x38>
		return -1;
    24cc:	00bfffc4 	movi	r2,-1
    24d0:	e0bfff15 	stw	r2,-4(fp)
    24d4:	00000806 	br	24f8 <servo_pan+0x58>
	}
	PWM_writeOCRA(PAN_POS_TO_OCR_VALUE(col));
    24d8:	e0bffe17 	ldw	r2,-8(fp)
    24dc:	11001ae4 	muli	r4,r2,107
    24e0:	01400284 	movi	r5,10
    24e4:	00027e40 	call	27e4 <__divsi3>
    24e8:	10807f84 	addi	r2,r2,510
    24ec:	1009883a 	mov	r4,r2
    24f0:	00020500 	call	2050 <PWM_writeOCRA>
	return 0;
    24f4:	e03fff15 	stw	zero,-4(fp)
    24f8:	e0bfff17 	ldw	r2,-4(fp)
}
    24fc:	e037883a 	mov	sp,fp
    2500:	dfc00117 	ldw	ra,4(sp)
    2504:	df000017 	ldw	fp,0(sp)
    2508:	dec00204 	addi	sp,sp,8
    250c:	f800283a 	ret

00002510 <servo_tilt>:
 * the camera. These values should cause a full range of travel from top to
 * bottom.
 * @param row the y tracking position
 * @return -1 if invalid input, else 0
 */
int servo_tilt(int row){
    2510:	defffc04 	addi	sp,sp,-16
    2514:	dfc00315 	stw	ra,12(sp)
    2518:	df000215 	stw	fp,8(sp)
    251c:	df000204 	addi	fp,sp,8
    2520:	e13ffe15 	stw	r4,-8(fp)
	if(row < TILT_MIN || row > TILT_MAX){
    2524:	e0bffe17 	ldw	r2,-8(fp)
    2528:	1004803a 	cmplt	r2,r2,zero
    252c:	1000031e 	bne	r2,zero,253c <servo_tilt+0x2c>
    2530:	e0bffe17 	ldw	r2,-8(fp)
    2534:	10802410 	cmplti	r2,r2,144
    2538:	1000031e 	bne	r2,zero,2548 <servo_tilt+0x38>
		return -1;
    253c:	00bfffc4 	movi	r2,-1
    2540:	e0bfff15 	stw	r2,-4(fp)
    2544:	00000806 	br	2568 <servo_tilt+0x58>
	}
	PWM_writeOCRB(TILT_POS_TO_OCR_VALUE(row));
    2548:	e0bffe17 	ldw	r2,-8(fp)
    254c:	11001164 	muli	r4,r2,69
    2550:	01400284 	movi	r5,10
    2554:	00027e40 	call	27e4 <__divsi3>
    2558:	1080fdc4 	addi	r2,r2,1015
    255c:	1009883a 	mov	r4,r2
    2560:	00020a00 	call	20a0 <PWM_writeOCRB>
	return 0;
    2564:	e03fff15 	stw	zero,-4(fp)
    2568:	e0bfff17 	ldw	r2,-4(fp)
}
    256c:	e037883a 	mov	sp,fp
    2570:	dfc00117 	ldw	ra,4(sp)
    2574:	df000017 	ldw	fp,0(sp)
    2578:	dec00204 	addi	sp,sp,8
    257c:	f800283a 	ret

00002580 <getServoX>:

/**
 * Gets the current pan location
 * @return absolute position of servo.
 */
int getServoX(){
    2580:	defffe04 	addi	sp,sp,-8
    2584:	dfc00115 	stw	ra,4(sp)
    2588:	df000015 	stw	fp,0(sp)
    258c:	d839883a 	mov	fp,sp
	return OCR_VALUE_TO_PAN_POS(PWM_readOCRA());
    2590:	00020f00 	call	20f0 <PWM_readOCRA>
    2594:	108002a4 	muli	r2,r2,10
    2598:	113b0504 	addi	r4,r2,-5100
    259c:	01401ac4 	movi	r5,107
    25a0:	00027e40 	call	27e4 <__divsi3>
}
    25a4:	e037883a 	mov	sp,fp
    25a8:	dfc00117 	ldw	ra,4(sp)
    25ac:	df000017 	ldw	fp,0(sp)
    25b0:	dec00204 	addi	sp,sp,8
    25b4:	f800283a 	ret

000025b8 <setServoX>:

/**
 * Sets the relative pan location. Will stop at limit of range.
 * @param xpos position to add to current position.
 */
void setServoX(int xpos){
    25b8:	defffb04 	addi	sp,sp,-20
    25bc:	dfc00415 	stw	ra,16(sp)
    25c0:	df000315 	stw	fp,12(sp)
    25c4:	df000304 	addi	fp,sp,12
    25c8:	e13ffe15 	stw	r4,-8(fp)
	int pos = OCR_VALUE_TO_PAN_POS(PWM_readOCRA()) + xpos;
    25cc:	00020f00 	call	20f0 <PWM_readOCRA>
    25d0:	108002a4 	muli	r2,r2,10
    25d4:	113b0504 	addi	r4,r2,-5100
    25d8:	01401ac4 	movi	r5,107
    25dc:	00027e40 	call	27e4 <__divsi3>
    25e0:	1007883a 	mov	r3,r2
    25e4:	e0bffe17 	ldw	r2,-8(fp)
    25e8:	1885883a 	add	r2,r3,r2
    25ec:	e0bffd15 	stw	r2,-12(fp)
	pos = (pos > PAN_MAX) ? (PAN_MAX) : ((pos < PAN_MIN) ? PAN_MIN : pos);
    25f0:	e0bffd17 	ldw	r2,-12(fp)
    25f4:	10802c08 	cmpgei	r2,r2,176
    25f8:	1000071e 	bne	r2,zero,2618 <setServoX+0x60>
    25fc:	e0bffd17 	ldw	r2,-12(fp)
    2600:	e0bfff15 	stw	r2,-4(fp)
    2604:	e0ffff17 	ldw	r3,-4(fp)
    2608:	1804403a 	cmpge	r2,r3,zero
    260c:	1000041e 	bne	r2,zero,2620 <setServoX+0x68>
    2610:	e03fff15 	stw	zero,-4(fp)
    2614:	00000206 	br	2620 <setServoX+0x68>
    2618:	00802bc4 	movi	r2,175
    261c:	e0bfff15 	stw	r2,-4(fp)
    2620:	e0ffff17 	ldw	r3,-4(fp)
    2624:	e0fffd15 	stw	r3,-12(fp)
	PWM_writeOCRA(PAN_POS_TO_OCR_VALUE(pos));
    2628:	e0bffd17 	ldw	r2,-12(fp)
    262c:	11001ae4 	muli	r4,r2,107
    2630:	01400284 	movi	r5,10
    2634:	00027e40 	call	27e4 <__divsi3>
    2638:	10807f84 	addi	r2,r2,510
    263c:	1009883a 	mov	r4,r2
    2640:	00020500 	call	2050 <PWM_writeOCRA>
}
    2644:	e037883a 	mov	sp,fp
    2648:	dfc00117 	ldw	ra,4(sp)
    264c:	df000017 	ldw	fp,0(sp)
    2650:	dec00204 	addi	sp,sp,8
    2654:	f800283a 	ret

00002658 <getServoY>:

/**
 * Gets the current tilt location.
 * @return absolute position of servo.
 */
int getServoY(){
    2658:	defffe04 	addi	sp,sp,-8
    265c:	dfc00115 	stw	ra,4(sp)
    2660:	df000015 	stw	fp,0(sp)
    2664:	d839883a 	mov	fp,sp
	return OCR_VALUE_TO_TILT_POS(PWM_readOCRB());
    2668:	000211c0 	call	211c <PWM_readOCRB>
    266c:	108002a4 	muli	r2,r2,10
    2670:	11361684 	addi	r4,r2,-10150
    2674:	01401144 	movi	r5,69
    2678:	00027e40 	call	27e4 <__divsi3>
}
    267c:	e037883a 	mov	sp,fp
    2680:	dfc00117 	ldw	ra,4(sp)
    2684:	df000017 	ldw	fp,0(sp)
    2688:	dec00204 	addi	sp,sp,8
    268c:	f800283a 	ret

00002690 <setServoY>:

/**
 * Sets the relative tilt location. Will stop at limit of range.
 * @param ypos position to add to current position.
 */
void setServoY(int ypos){
    2690:	defffb04 	addi	sp,sp,-20
    2694:	dfc00415 	stw	ra,16(sp)
    2698:	df000315 	stw	fp,12(sp)
    269c:	df000304 	addi	fp,sp,12
    26a0:	e13ffe15 	stw	r4,-8(fp)
	int pos = OCR_VALUE_TO_TILT_POS(PWM_readOCRB()) + ypos;
    26a4:	000211c0 	call	211c <PWM_readOCRB>
    26a8:	108002a4 	muli	r2,r2,10
    26ac:	11361684 	addi	r4,r2,-10150
    26b0:	01401144 	movi	r5,69
    26b4:	00027e40 	call	27e4 <__divsi3>
    26b8:	1007883a 	mov	r3,r2
    26bc:	e0bffe17 	ldw	r2,-8(fp)
    26c0:	1885883a 	add	r2,r3,r2
    26c4:	e0bffd15 	stw	r2,-12(fp)
	pos = (pos > TILT_MAX) ? (TILT_MAX) : ((pos < TILT_MIN) ? TILT_MIN : pos);
    26c8:	e0bffd17 	ldw	r2,-12(fp)
    26cc:	10802408 	cmpgei	r2,r2,144
    26d0:	1000071e 	bne	r2,zero,26f0 <setServoY+0x60>
    26d4:	e0bffd17 	ldw	r2,-12(fp)
    26d8:	e0bfff15 	stw	r2,-4(fp)
    26dc:	e0ffff17 	ldw	r3,-4(fp)
    26e0:	1804403a 	cmpge	r2,r3,zero
    26e4:	1000041e 	bne	r2,zero,26f8 <setServoY+0x68>
    26e8:	e03fff15 	stw	zero,-4(fp)
    26ec:	00000206 	br	26f8 <setServoY+0x68>
    26f0:	008023c4 	movi	r2,143
    26f4:	e0bfff15 	stw	r2,-4(fp)
    26f8:	e0ffff17 	ldw	r3,-4(fp)
    26fc:	e0fffd15 	stw	r3,-12(fp)
	PWM_writeOCRB(TILT_POS_TO_OCR_VALUE(pos));
    2700:	e0bffd17 	ldw	r2,-12(fp)
    2704:	11001164 	muli	r4,r2,69
    2708:	01400284 	movi	r5,10
    270c:	00027e40 	call	27e4 <__divsi3>
    2710:	1080fdc4 	addi	r2,r2,1015
    2714:	1009883a 	mov	r4,r2
    2718:	00020a00 	call	20a0 <PWM_writeOCRB>
}
    271c:	e037883a 	mov	sp,fp
    2720:	dfc00117 	ldw	ra,4(sp)
    2724:	df000017 	ldw	fp,0(sp)
    2728:	dec00204 	addi	sp,sp,8
    272c:	f800283a 	ret

00002730 <main>:
/**
 * main will run the serial command line input to get information from user
 * and enact the commands.
 * @return does not actually return (infinite loop)
 */
int main(){
    2730:	defffe04 	addi	sp,sp,-8
    2734:	dfc00115 	stw	ra,4(sp)
    2738:	df000015 	stw	fp,0(sp)
    273c:	d839883a 	mov	fp,sp
	//initialization
	lcd_init();
    2740:	0001d5c0 	call	1d5c <lcd_init>
	servo_init();
    2744:	000246c0 	call	246c <servo_init>
	cam_init();
    2748:	00002000 	call	200 <cam_init>
	cmd_init();
    274c:	00007fc0 	call	7fc <cmd_init>

	//run input loop from serial input to command the controller
	while(1){
		lcd_clr();
    2750:	0001cfc0 	call	1cfc <lcd_clr>
		lcd_printString("Waiting For\nUser Input");
    2754:	01000074 	movhi	r4,1
    2758:	21129e04 	addi	r4,r4,19064
    275c:	0001de00 	call	1de0 <lcd_printString>
		cmd_getCommand();
    2760:	00008240 	call	824 <cmd_getCommand>
	}
    2764:	003ffa06 	br	2750 <main+0x20>

00002768 <udivmodsi4>:
    2768:	29001b2e 	bgeu	r5,r4,27d8 <udivmodsi4+0x70>
    276c:	28001a16 	blt	r5,zero,27d8 <udivmodsi4+0x70>
    2770:	00800044 	movi	r2,1
    2774:	0007883a 	mov	r3,zero
    2778:	01c007c4 	movi	r7,31
    277c:	00000306 	br	278c <udivmodsi4+0x24>
    2780:	19c01326 	beq	r3,r7,27d0 <udivmodsi4+0x68>
    2784:	18c00044 	addi	r3,r3,1
    2788:	28000416 	blt	r5,zero,279c <udivmodsi4+0x34>
    278c:	294b883a 	add	r5,r5,r5
    2790:	1085883a 	add	r2,r2,r2
    2794:	293ffa36 	bltu	r5,r4,2780 <udivmodsi4+0x18>
    2798:	10000d26 	beq	r2,zero,27d0 <udivmodsi4+0x68>
    279c:	0007883a 	mov	r3,zero
    27a0:	21400236 	bltu	r4,r5,27ac <udivmodsi4+0x44>
    27a4:	2149c83a 	sub	r4,r4,r5
    27a8:	1886b03a 	or	r3,r3,r2
    27ac:	1004d07a 	srli	r2,r2,1
    27b0:	280ad07a 	srli	r5,r5,1
    27b4:	103ffa1e 	bne	r2,zero,27a0 <udivmodsi4+0x38>
    27b8:	30000226 	beq	r6,zero,27c4 <udivmodsi4+0x5c>
    27bc:	2005883a 	mov	r2,r4
    27c0:	f800283a 	ret
    27c4:	1809883a 	mov	r4,r3
    27c8:	2005883a 	mov	r2,r4
    27cc:	f800283a 	ret
    27d0:	0007883a 	mov	r3,zero
    27d4:	003ff806 	br	27b8 <udivmodsi4+0x50>
    27d8:	00800044 	movi	r2,1
    27dc:	0007883a 	mov	r3,zero
    27e0:	003fef06 	br	27a0 <udivmodsi4+0x38>

000027e4 <__divsi3>:
    27e4:	defffe04 	addi	sp,sp,-8
    27e8:	dc000015 	stw	r16,0(sp)
    27ec:	dfc00115 	stw	ra,4(sp)
    27f0:	0021883a 	mov	r16,zero
    27f4:	20000c16 	blt	r4,zero,2828 <__divsi3+0x44>
    27f8:	000d883a 	mov	r6,zero
    27fc:	28000e16 	blt	r5,zero,2838 <__divsi3+0x54>
    2800:	00027680 	call	2768 <udivmodsi4>
    2804:	1007883a 	mov	r3,r2
    2808:	8005003a 	cmpeq	r2,r16,zero
    280c:	1000011e 	bne	r2,zero,2814 <__divsi3+0x30>
    2810:	00c7c83a 	sub	r3,zero,r3
    2814:	1805883a 	mov	r2,r3
    2818:	dfc00117 	ldw	ra,4(sp)
    281c:	dc000017 	ldw	r16,0(sp)
    2820:	dec00204 	addi	sp,sp,8
    2824:	f800283a 	ret
    2828:	0109c83a 	sub	r4,zero,r4
    282c:	04000044 	movi	r16,1
    2830:	000d883a 	mov	r6,zero
    2834:	283ff20e 	bge	r5,zero,2800 <__divsi3+0x1c>
    2838:	014bc83a 	sub	r5,zero,r5
    283c:	8021003a 	cmpeq	r16,r16,zero
    2840:	003fef06 	br	2800 <__divsi3+0x1c>

00002844 <__modsi3>:
    2844:	deffff04 	addi	sp,sp,-4
    2848:	dfc00015 	stw	ra,0(sp)
    284c:	01800044 	movi	r6,1
    2850:	2807883a 	mov	r3,r5
    2854:	20000416 	blt	r4,zero,2868 <__modsi3+0x24>
    2858:	28000c16 	blt	r5,zero,288c <__modsi3+0x48>
    285c:	dfc00017 	ldw	ra,0(sp)
    2860:	dec00104 	addi	sp,sp,4
    2864:	00027681 	jmpi	2768 <udivmodsi4>
    2868:	0109c83a 	sub	r4,zero,r4
    286c:	28000b16 	blt	r5,zero,289c <__modsi3+0x58>
    2870:	180b883a 	mov	r5,r3
    2874:	01800044 	movi	r6,1
    2878:	00027680 	call	2768 <udivmodsi4>
    287c:	0085c83a 	sub	r2,zero,r2
    2880:	dfc00017 	ldw	ra,0(sp)
    2884:	dec00104 	addi	sp,sp,4
    2888:	f800283a 	ret
    288c:	014bc83a 	sub	r5,zero,r5
    2890:	dfc00017 	ldw	ra,0(sp)
    2894:	dec00104 	addi	sp,sp,4
    2898:	00027681 	jmpi	2768 <udivmodsi4>
    289c:	0147c83a 	sub	r3,zero,r5
    28a0:	003ff306 	br	2870 <__modsi3+0x2c>

000028a4 <__udivsi3>:
    28a4:	000d883a 	mov	r6,zero
    28a8:	00027681 	jmpi	2768 <udivmodsi4>

000028ac <__umodsi3>:
    28ac:	01800044 	movi	r6,1
    28b0:	00027681 	jmpi	2768 <udivmodsi4>

000028b4 <_fgets_r>:
    28b4:	defff804 	addi	sp,sp,-32
    28b8:	00800044 	movi	r2,1
    28bc:	dd800615 	stw	r22,24(sp)
    28c0:	dd400515 	stw	r21,20(sp)
    28c4:	dc400115 	stw	r17,4(sp)
    28c8:	dc000015 	stw	r16,0(sp)
    28cc:	dfc00715 	stw	ra,28(sp)
    28d0:	dd000415 	stw	r20,16(sp)
    28d4:	dcc00315 	stw	r19,12(sp)
    28d8:	dc800215 	stw	r18,8(sp)
    28dc:	3021883a 	mov	r16,r6
    28e0:	282d883a 	mov	r22,r5
    28e4:	3823883a 	mov	r17,r7
    28e8:	202b883a 	mov	r21,r4
    28ec:	1180410e 	bge	r2,r6,29f4 <_fgets_r+0x140>
    28f0:	20000226 	beq	r4,zero,28fc <_fgets_r+0x48>
    28f4:	20800e17 	ldw	r2,56(r4)
    28f8:	10002e26 	beq	r2,zero,29b4 <_fgets_r+0x100>
    28fc:	853fffc4 	addi	r20,r16,-1
    2900:	b027883a 	mov	r19,r22
    2904:	88800117 	ldw	r2,4(r17)
    2908:	a809883a 	mov	r4,r21
    290c:	880b883a 	mov	r5,r17
    2910:	100d883a 	mov	r6,r2
    2914:	1000031e 	bne	r2,zero,2924 <_fgets_r+0x70>
    2918:	000390c0 	call	390c <__srefill_r>
    291c:	1000341e 	bne	r2,zero,29f0 <_fgets_r+0x13c>
    2920:	89800117 	ldw	r6,4(r17)
    2924:	01400284 	movi	r5,10
    2928:	3021883a 	mov	r16,r6
    292c:	8c800017 	ldw	r18,0(r17)
    2930:	a180012e 	bgeu	r20,r6,2938 <_fgets_r+0x84>
    2934:	a021883a 	mov	r16,r20
    2938:	9009883a 	mov	r4,r18
    293c:	800d883a 	mov	r6,r16
    2940:	00035a00 	call	35a0 <memchr>
    2944:	1007883a 	mov	r3,r2
    2948:	900b883a 	mov	r5,r18
    294c:	9809883a 	mov	r4,r19
    2950:	800d883a 	mov	r6,r16
    2954:	1000191e 	bne	r2,zero,29bc <_fgets_r+0x108>
    2958:	88800117 	ldw	r2,4(r17)
    295c:	88c00017 	ldw	r3,0(r17)
    2960:	9c27883a 	add	r19,r19,r16
    2964:	1405c83a 	sub	r2,r2,r16
    2968:	1c07883a 	add	r3,r3,r16
    296c:	88c00015 	stw	r3,0(r17)
    2970:	88800115 	stw	r2,4(r17)
    2974:	00036840 	call	3684 <memcpy>
    2978:	a407c83a 	sub	r3,r20,r16
    297c:	1829883a 	mov	r20,r3
    2980:	183fe01e 	bne	r3,zero,2904 <_fgets_r+0x50>
    2984:	98000005 	stb	zero,0(r19)
    2988:	b005883a 	mov	r2,r22
    298c:	dfc00717 	ldw	ra,28(sp)
    2990:	dd800617 	ldw	r22,24(sp)
    2994:	dd400517 	ldw	r21,20(sp)
    2998:	dd000417 	ldw	r20,16(sp)
    299c:	dcc00317 	ldw	r19,12(sp)
    29a0:	dc800217 	ldw	r18,8(sp)
    29a4:	dc400117 	ldw	r17,4(sp)
    29a8:	dc000017 	ldw	r16,0(sp)
    29ac:	dec00804 	addi	sp,sp,32
    29b0:	f800283a 	ret
    29b4:	0002a880 	call	2a88 <__sinit>
    29b8:	003fd006 	br	28fc <_fgets_r+0x48>
    29bc:	88800117 	ldw	r2,4(r17)
    29c0:	18c00044 	addi	r3,r3,1
    29c4:	1ca1c83a 	sub	r16,r3,r18
    29c8:	1405c83a 	sub	r2,r2,r16
    29cc:	800d883a 	mov	r6,r16
    29d0:	88c00015 	stw	r3,0(r17)
    29d4:	88800115 	stw	r2,4(r17)
    29d8:	900b883a 	mov	r5,r18
    29dc:	9809883a 	mov	r4,r19
    29e0:	00036840 	call	3684 <memcpy>
    29e4:	9c21883a 	add	r16,r19,r16
    29e8:	80000005 	stb	zero,0(r16)
    29ec:	003fe606 	br	2988 <_fgets_r+0xd4>
    29f0:	9dbfe41e 	bne	r19,r22,2984 <_fgets_r+0xd0>
    29f4:	002d883a 	mov	r22,zero
    29f8:	003fe306 	br	2988 <_fgets_r+0xd4>

000029fc <fgets>:
    29fc:	00800074 	movhi	r2,1
    2a00:	109ae204 	addi	r2,r2,27528
    2a04:	2013883a 	mov	r9,r4
    2a08:	11000017 	ldw	r4,0(r2)
    2a0c:	2805883a 	mov	r2,r5
    2a10:	300f883a 	mov	r7,r6
    2a14:	480b883a 	mov	r5,r9
    2a18:	100d883a 	mov	r6,r2
    2a1c:	00028b41 	jmpi	28b4 <_fgets_r>

00002a20 <std>:
    2a20:	00800034 	movhi	r2,0
    2a24:	108f5104 	addi	r2,r2,15684
    2a28:	20800b15 	stw	r2,44(r4)
    2a2c:	00800034 	movhi	r2,0
    2a30:	108f8c04 	addi	r2,r2,15920
    2a34:	20800815 	stw	r2,32(r4)
    2a38:	00c00034 	movhi	r3,0
    2a3c:	18cf6d04 	addi	r3,r3,15796
    2a40:	00800034 	movhi	r2,0
    2a44:	108f5304 	addi	r2,r2,15692
    2a48:	2140030d 	sth	r5,12(r4)
    2a4c:	2180038d 	sth	r6,14(r4)
    2a50:	20c00915 	stw	r3,36(r4)
    2a54:	20800a15 	stw	r2,40(r4)
    2a58:	20000015 	stw	zero,0(r4)
    2a5c:	20000115 	stw	zero,4(r4)
    2a60:	20000215 	stw	zero,8(r4)
    2a64:	20000415 	stw	zero,16(r4)
    2a68:	20000515 	stw	zero,20(r4)
    2a6c:	20000615 	stw	zero,24(r4)
    2a70:	21000715 	stw	r4,28(r4)
    2a74:	f800283a 	ret

00002a78 <__sfp_lock_acquire>:
    2a78:	f800283a 	ret

00002a7c <__sfp_lock_release>:
    2a7c:	f800283a 	ret

00002a80 <__sinit_lock_acquire>:
    2a80:	f800283a 	ret

00002a84 <__sinit_lock_release>:
    2a84:	f800283a 	ret

00002a88 <__sinit>:
    2a88:	20800e17 	ldw	r2,56(r4)
    2a8c:	defffd04 	addi	sp,sp,-12
    2a90:	dc400115 	stw	r17,4(sp)
    2a94:	dc000015 	stw	r16,0(sp)
    2a98:	dfc00215 	stw	ra,8(sp)
    2a9c:	04400044 	movi	r17,1
    2aa0:	01400104 	movi	r5,4
    2aa4:	000d883a 	mov	r6,zero
    2aa8:	2021883a 	mov	r16,r4
    2aac:	2200bb04 	addi	r8,r4,748
    2ab0:	200f883a 	mov	r7,r4
    2ab4:	10000526 	beq	r2,zero,2acc <__sinit+0x44>
    2ab8:	dfc00217 	ldw	ra,8(sp)
    2abc:	dc400117 	ldw	r17,4(sp)
    2ac0:	dc000017 	ldw	r16,0(sp)
    2ac4:	dec00304 	addi	sp,sp,12
    2ac8:	f800283a 	ret
    2acc:	21000117 	ldw	r4,4(r4)
    2ad0:	00800034 	movhi	r2,0
    2ad4:	108adb04 	addi	r2,r2,11116
    2ad8:	00c000c4 	movi	r3,3
    2adc:	80800f15 	stw	r2,60(r16)
    2ae0:	80c0b915 	stw	r3,740(r16)
    2ae4:	8200ba15 	stw	r8,744(r16)
    2ae8:	84400e15 	stw	r17,56(r16)
    2aec:	8000b815 	stw	zero,736(r16)
    2af0:	0002a200 	call	2a20 <std>
    2af4:	81000217 	ldw	r4,8(r16)
    2af8:	880d883a 	mov	r6,r17
    2afc:	800f883a 	mov	r7,r16
    2b00:	01400284 	movi	r5,10
    2b04:	0002a200 	call	2a20 <std>
    2b08:	81000317 	ldw	r4,12(r16)
    2b0c:	800f883a 	mov	r7,r16
    2b10:	01400484 	movi	r5,18
    2b14:	01800084 	movi	r6,2
    2b18:	dfc00217 	ldw	ra,8(sp)
    2b1c:	dc400117 	ldw	r17,4(sp)
    2b20:	dc000017 	ldw	r16,0(sp)
    2b24:	dec00304 	addi	sp,sp,12
    2b28:	0002a201 	jmpi	2a20 <std>

00002b2c <__fp_lock>:
    2b2c:	0005883a 	mov	r2,zero
    2b30:	f800283a 	ret

00002b34 <__fp_unlock>:
    2b34:	0005883a 	mov	r2,zero
    2b38:	f800283a 	ret

00002b3c <__fp_unlock_all>:
    2b3c:	00800074 	movhi	r2,1
    2b40:	109ae204 	addi	r2,r2,27528
    2b44:	11000017 	ldw	r4,0(r2)
    2b48:	01400034 	movhi	r5,0
    2b4c:	294acd04 	addi	r5,r5,11060
    2b50:	0002da81 	jmpi	2da8 <_fwalk>

00002b54 <__fp_lock_all>:
    2b54:	00800074 	movhi	r2,1
    2b58:	109ae204 	addi	r2,r2,27528
    2b5c:	11000017 	ldw	r4,0(r2)
    2b60:	01400034 	movhi	r5,0
    2b64:	294acb04 	addi	r5,r5,11052
    2b68:	0002da81 	jmpi	2da8 <_fwalk>

00002b6c <_cleanup_r>:
    2b6c:	01400074 	movhi	r5,1
    2b70:	2964a104 	addi	r5,r5,-28028
    2b74:	0002da81 	jmpi	2da8 <_fwalk>

00002b78 <_cleanup>:
    2b78:	00800074 	movhi	r2,1
    2b7c:	109ae304 	addi	r2,r2,27532
    2b80:	11000017 	ldw	r4,0(r2)
    2b84:	0002b6c1 	jmpi	2b6c <_cleanup_r>

00002b88 <__sfmoreglue>:
    2b88:	defffc04 	addi	sp,sp,-16
    2b8c:	dc400115 	stw	r17,4(sp)
    2b90:	2c401724 	muli	r17,r5,92
    2b94:	dc800215 	stw	r18,8(sp)
    2b98:	2825883a 	mov	r18,r5
    2b9c:	89400304 	addi	r5,r17,12
    2ba0:	dc000015 	stw	r16,0(sp)
    2ba4:	dfc00315 	stw	ra,12(sp)
    2ba8:	0002e600 	call	2e60 <_malloc_r>
    2bac:	0021883a 	mov	r16,zero
    2bb0:	880d883a 	mov	r6,r17
    2bb4:	000b883a 	mov	r5,zero
    2bb8:	10000626 	beq	r2,zero,2bd4 <__sfmoreglue+0x4c>
    2bbc:	11000304 	addi	r4,r2,12
    2bc0:	14800115 	stw	r18,4(r2)
    2bc4:	10000015 	stw	zero,0(r2)
    2bc8:	11000215 	stw	r4,8(r2)
    2bcc:	1021883a 	mov	r16,r2
    2bd0:	00037240 	call	3724 <memset>
    2bd4:	8005883a 	mov	r2,r16
    2bd8:	dfc00317 	ldw	ra,12(sp)
    2bdc:	dc800217 	ldw	r18,8(sp)
    2be0:	dc400117 	ldw	r17,4(sp)
    2be4:	dc000017 	ldw	r16,0(sp)
    2be8:	dec00404 	addi	sp,sp,16
    2bec:	f800283a 	ret

00002bf0 <__sfp>:
    2bf0:	defffd04 	addi	sp,sp,-12
    2bf4:	00800074 	movhi	r2,1
    2bf8:	109ae304 	addi	r2,r2,27532
    2bfc:	dc000015 	stw	r16,0(sp)
    2c00:	14000017 	ldw	r16,0(r2)
    2c04:	dc400115 	stw	r17,4(sp)
    2c08:	dfc00215 	stw	ra,8(sp)
    2c0c:	80800e17 	ldw	r2,56(r16)
    2c10:	2023883a 	mov	r17,r4
    2c14:	10002626 	beq	r2,zero,2cb0 <__sfp+0xc0>
    2c18:	8400b804 	addi	r16,r16,736
    2c1c:	80800117 	ldw	r2,4(r16)
    2c20:	81000217 	ldw	r4,8(r16)
    2c24:	10ffffc4 	addi	r3,r2,-1
    2c28:	18000916 	blt	r3,zero,2c50 <__sfp+0x60>
    2c2c:	2080030f 	ldh	r2,12(r4)
    2c30:	10000b26 	beq	r2,zero,2c60 <__sfp+0x70>
    2c34:	017fffc4 	movi	r5,-1
    2c38:	00000206 	br	2c44 <__sfp+0x54>
    2c3c:	2080030f 	ldh	r2,12(r4)
    2c40:	10000726 	beq	r2,zero,2c60 <__sfp+0x70>
    2c44:	18ffffc4 	addi	r3,r3,-1
    2c48:	21001704 	addi	r4,r4,92
    2c4c:	197ffb1e 	bne	r3,r5,2c3c <__sfp+0x4c>
    2c50:	80800017 	ldw	r2,0(r16)
    2c54:	10001926 	beq	r2,zero,2cbc <__sfp+0xcc>
    2c58:	1021883a 	mov	r16,r2
    2c5c:	003fef06 	br	2c1c <__sfp+0x2c>
    2c60:	00bfffc4 	movi	r2,-1
    2c64:	00c00044 	movi	r3,1
    2c68:	2080038d 	sth	r2,14(r4)
    2c6c:	20c0030d 	sth	r3,12(r4)
    2c70:	20000015 	stw	zero,0(r4)
    2c74:	20000215 	stw	zero,8(r4)
    2c78:	20000115 	stw	zero,4(r4)
    2c7c:	20000415 	stw	zero,16(r4)
    2c80:	20000515 	stw	zero,20(r4)
    2c84:	20000615 	stw	zero,24(r4)
    2c88:	20000c15 	stw	zero,48(r4)
    2c8c:	20000d15 	stw	zero,52(r4)
    2c90:	20001115 	stw	zero,68(r4)
    2c94:	20001215 	stw	zero,72(r4)
    2c98:	2005883a 	mov	r2,r4
    2c9c:	dfc00217 	ldw	ra,8(sp)
    2ca0:	dc400117 	ldw	r17,4(sp)
    2ca4:	dc000017 	ldw	r16,0(sp)
    2ca8:	dec00304 	addi	sp,sp,12
    2cac:	f800283a 	ret
    2cb0:	8009883a 	mov	r4,r16
    2cb4:	0002a880 	call	2a88 <__sinit>
    2cb8:	003fd706 	br	2c18 <__sfp+0x28>
    2cbc:	8809883a 	mov	r4,r17
    2cc0:	01400104 	movi	r5,4
    2cc4:	0002b880 	call	2b88 <__sfmoreglue>
    2cc8:	80800015 	stw	r2,0(r16)
    2ccc:	103fe21e 	bne	r2,zero,2c58 <__sfp+0x68>
    2cd0:	00800304 	movi	r2,12
    2cd4:	0009883a 	mov	r4,zero
    2cd8:	88800015 	stw	r2,0(r17)
    2cdc:	003fee06 	br	2c98 <__sfp+0xa8>

00002ce0 <_fwalk_reent>:
    2ce0:	defff704 	addi	sp,sp,-36
    2ce4:	dcc00315 	stw	r19,12(sp)
    2ce8:	24c0b804 	addi	r19,r4,736
    2cec:	dd800615 	stw	r22,24(sp)
    2cf0:	dd400515 	stw	r21,20(sp)
    2cf4:	dfc00815 	stw	ra,32(sp)
    2cf8:	ddc00715 	stw	r23,28(sp)
    2cfc:	dd000415 	stw	r20,16(sp)
    2d00:	dc800215 	stw	r18,8(sp)
    2d04:	dc400115 	stw	r17,4(sp)
    2d08:	dc000015 	stw	r16,0(sp)
    2d0c:	202b883a 	mov	r21,r4
    2d10:	282d883a 	mov	r22,r5
    2d14:	0002a780 	call	2a78 <__sfp_lock_acquire>
    2d18:	98002126 	beq	r19,zero,2da0 <_fwalk_reent+0xc0>
    2d1c:	002f883a 	mov	r23,zero
    2d20:	9c800117 	ldw	r18,4(r19)
    2d24:	9c000217 	ldw	r16,8(r19)
    2d28:	90bfffc4 	addi	r2,r18,-1
    2d2c:	10000d16 	blt	r2,zero,2d64 <_fwalk_reent+0x84>
    2d30:	0023883a 	mov	r17,zero
    2d34:	053fffc4 	movi	r20,-1
    2d38:	8080030f 	ldh	r2,12(r16)
    2d3c:	8c400044 	addi	r17,r17,1
    2d40:	10000626 	beq	r2,zero,2d5c <_fwalk_reent+0x7c>
    2d44:	8080038f 	ldh	r2,14(r16)
    2d48:	800b883a 	mov	r5,r16
    2d4c:	a809883a 	mov	r4,r21
    2d50:	15000226 	beq	r2,r20,2d5c <_fwalk_reent+0x7c>
    2d54:	b03ee83a 	callr	r22
    2d58:	b8aeb03a 	or	r23,r23,r2
    2d5c:	84001704 	addi	r16,r16,92
    2d60:	947ff51e 	bne	r18,r17,2d38 <_fwalk_reent+0x58>
    2d64:	9cc00017 	ldw	r19,0(r19)
    2d68:	983fed1e 	bne	r19,zero,2d20 <_fwalk_reent+0x40>
    2d6c:	0002a7c0 	call	2a7c <__sfp_lock_release>
    2d70:	b805883a 	mov	r2,r23
    2d74:	dfc00817 	ldw	ra,32(sp)
    2d78:	ddc00717 	ldw	r23,28(sp)
    2d7c:	dd800617 	ldw	r22,24(sp)
    2d80:	dd400517 	ldw	r21,20(sp)
    2d84:	dd000417 	ldw	r20,16(sp)
    2d88:	dcc00317 	ldw	r19,12(sp)
    2d8c:	dc800217 	ldw	r18,8(sp)
    2d90:	dc400117 	ldw	r17,4(sp)
    2d94:	dc000017 	ldw	r16,0(sp)
    2d98:	dec00904 	addi	sp,sp,36
    2d9c:	f800283a 	ret
    2da0:	002f883a 	mov	r23,zero
    2da4:	003ff106 	br	2d6c <_fwalk_reent+0x8c>

00002da8 <_fwalk>:
    2da8:	defff804 	addi	sp,sp,-32
    2dac:	dcc00315 	stw	r19,12(sp)
    2db0:	24c0b804 	addi	r19,r4,736
    2db4:	dd400515 	stw	r21,20(sp)
    2db8:	dfc00715 	stw	ra,28(sp)
    2dbc:	dd800615 	stw	r22,24(sp)
    2dc0:	dd000415 	stw	r20,16(sp)
    2dc4:	dc800215 	stw	r18,8(sp)
    2dc8:	dc400115 	stw	r17,4(sp)
    2dcc:	dc000015 	stw	r16,0(sp)
    2dd0:	282b883a 	mov	r21,r5
    2dd4:	0002a780 	call	2a78 <__sfp_lock_acquire>
    2dd8:	98001f26 	beq	r19,zero,2e58 <_fwalk+0xb0>
    2ddc:	002d883a 	mov	r22,zero
    2de0:	9c800117 	ldw	r18,4(r19)
    2de4:	9c000217 	ldw	r16,8(r19)
    2de8:	90bfffc4 	addi	r2,r18,-1
    2dec:	10000c16 	blt	r2,zero,2e20 <_fwalk+0x78>
    2df0:	0023883a 	mov	r17,zero
    2df4:	053fffc4 	movi	r20,-1
    2df8:	8080030f 	ldh	r2,12(r16)
    2dfc:	8c400044 	addi	r17,r17,1
    2e00:	10000526 	beq	r2,zero,2e18 <_fwalk+0x70>
    2e04:	8080038f 	ldh	r2,14(r16)
    2e08:	8009883a 	mov	r4,r16
    2e0c:	15000226 	beq	r2,r20,2e18 <_fwalk+0x70>
    2e10:	a83ee83a 	callr	r21
    2e14:	b0acb03a 	or	r22,r22,r2
    2e18:	84001704 	addi	r16,r16,92
    2e1c:	947ff61e 	bne	r18,r17,2df8 <_fwalk+0x50>
    2e20:	9cc00017 	ldw	r19,0(r19)
    2e24:	983fee1e 	bne	r19,zero,2de0 <_fwalk+0x38>
    2e28:	0002a7c0 	call	2a7c <__sfp_lock_release>
    2e2c:	b005883a 	mov	r2,r22
    2e30:	dfc00717 	ldw	ra,28(sp)
    2e34:	dd800617 	ldw	r22,24(sp)
    2e38:	dd400517 	ldw	r21,20(sp)
    2e3c:	dd000417 	ldw	r20,16(sp)
    2e40:	dcc00317 	ldw	r19,12(sp)
    2e44:	dc800217 	ldw	r18,8(sp)
    2e48:	dc400117 	ldw	r17,4(sp)
    2e4c:	dc000017 	ldw	r16,0(sp)
    2e50:	dec00804 	addi	sp,sp,32
    2e54:	f800283a 	ret
    2e58:	002d883a 	mov	r22,zero
    2e5c:	003ff206 	br	2e28 <_fwalk+0x80>

00002e60 <_malloc_r>:
    2e60:	defff604 	addi	sp,sp,-40
    2e64:	28c002c4 	addi	r3,r5,11
    2e68:	00800584 	movi	r2,22
    2e6c:	dc800215 	stw	r18,8(sp)
    2e70:	dfc00915 	stw	ra,36(sp)
    2e74:	df000815 	stw	fp,32(sp)
    2e78:	ddc00715 	stw	r23,28(sp)
    2e7c:	dd800615 	stw	r22,24(sp)
    2e80:	dd400515 	stw	r21,20(sp)
    2e84:	dd000415 	stw	r20,16(sp)
    2e88:	dcc00315 	stw	r19,12(sp)
    2e8c:	dc400115 	stw	r17,4(sp)
    2e90:	dc000015 	stw	r16,0(sp)
    2e94:	2025883a 	mov	r18,r4
    2e98:	10c01236 	bltu	r2,r3,2ee4 <_malloc_r+0x84>
    2e9c:	04400404 	movi	r17,16
    2ea0:	8940142e 	bgeu	r17,r5,2ef4 <_malloc_r+0x94>
    2ea4:	00800304 	movi	r2,12
    2ea8:	0007883a 	mov	r3,zero
    2eac:	90800015 	stw	r2,0(r18)
    2eb0:	1805883a 	mov	r2,r3
    2eb4:	dfc00917 	ldw	ra,36(sp)
    2eb8:	df000817 	ldw	fp,32(sp)
    2ebc:	ddc00717 	ldw	r23,28(sp)
    2ec0:	dd800617 	ldw	r22,24(sp)
    2ec4:	dd400517 	ldw	r21,20(sp)
    2ec8:	dd000417 	ldw	r20,16(sp)
    2ecc:	dcc00317 	ldw	r19,12(sp)
    2ed0:	dc800217 	ldw	r18,8(sp)
    2ed4:	dc400117 	ldw	r17,4(sp)
    2ed8:	dc000017 	ldw	r16,0(sp)
    2edc:	dec00a04 	addi	sp,sp,40
    2ee0:	f800283a 	ret
    2ee4:	00bffe04 	movi	r2,-8
    2ee8:	18a2703a 	and	r17,r3,r2
    2eec:	883fed16 	blt	r17,zero,2ea4 <_malloc_r+0x44>
    2ef0:	897fec36 	bltu	r17,r5,2ea4 <_malloc_r+0x44>
    2ef4:	9009883a 	mov	r4,r18
    2ef8:	0011fdc0 	call	11fdc <__malloc_lock>
    2efc:	00807dc4 	movi	r2,503
    2f00:	14402b2e 	bgeu	r2,r17,2fb0 <_malloc_r+0x150>
    2f04:	8806d27a 	srli	r3,r17,9
    2f08:	18003f1e 	bne	r3,zero,3008 <_malloc_r+0x1a8>
    2f0c:	880cd0fa 	srli	r6,r17,3
    2f10:	300490fa 	slli	r2,r6,3
    2f14:	02c00074 	movhi	r11,1
    2f18:	5ad55004 	addi	r11,r11,21824
    2f1c:	12cb883a 	add	r5,r2,r11
    2f20:	2c000317 	ldw	r16,12(r5)
    2f24:	580f883a 	mov	r7,r11
    2f28:	2c00041e 	bne	r5,r16,2f3c <_malloc_r+0xdc>
    2f2c:	00000a06 	br	2f58 <_malloc_r+0xf8>
    2f30:	1800860e 	bge	r3,zero,314c <_malloc_r+0x2ec>
    2f34:	84000317 	ldw	r16,12(r16)
    2f38:	2c000726 	beq	r5,r16,2f58 <_malloc_r+0xf8>
    2f3c:	80800117 	ldw	r2,4(r16)
    2f40:	00ffff04 	movi	r3,-4
    2f44:	10c8703a 	and	r4,r2,r3
    2f48:	2447c83a 	sub	r3,r4,r17
    2f4c:	008003c4 	movi	r2,15
    2f50:	10fff70e 	bge	r2,r3,2f30 <_malloc_r+0xd0>
    2f54:	31bfffc4 	addi	r6,r6,-1
    2f58:	32400044 	addi	r9,r6,1
    2f5c:	02800074 	movhi	r10,1
    2f60:	52955204 	addi	r10,r10,21832
    2f64:	54000217 	ldw	r16,8(r10)
    2f68:	8280a026 	beq	r16,r10,31ec <_malloc_r+0x38c>
    2f6c:	80800117 	ldw	r2,4(r16)
    2f70:	00ffff04 	movi	r3,-4
    2f74:	10ca703a 	and	r5,r2,r3
    2f78:	2c4dc83a 	sub	r6,r5,r17
    2f7c:	008003c4 	movi	r2,15
    2f80:	11808316 	blt	r2,r6,3190 <_malloc_r+0x330>
    2f84:	52800315 	stw	r10,12(r10)
    2f88:	52800215 	stw	r10,8(r10)
    2f8c:	30002916 	blt	r6,zero,3034 <_malloc_r+0x1d4>
    2f90:	8147883a 	add	r3,r16,r5
    2f94:	18800117 	ldw	r2,4(r3)
    2f98:	9009883a 	mov	r4,r18
    2f9c:	10800054 	ori	r2,r2,1
    2fa0:	18800115 	stw	r2,4(r3)
    2fa4:	0011ffc0 	call	11ffc <__malloc_unlock>
    2fa8:	80c00204 	addi	r3,r16,8
    2fac:	003fc006 	br	2eb0 <_malloc_r+0x50>
    2fb0:	02c00074 	movhi	r11,1
    2fb4:	5ad55004 	addi	r11,r11,21824
    2fb8:	8ac5883a 	add	r2,r17,r11
    2fbc:	14000317 	ldw	r16,12(r2)
    2fc0:	580f883a 	mov	r7,r11
    2fc4:	8806d0fa 	srli	r3,r17,3
    2fc8:	14006c26 	beq	r2,r16,317c <_malloc_r+0x31c>
    2fcc:	80c00117 	ldw	r3,4(r16)
    2fd0:	00bfff04 	movi	r2,-4
    2fd4:	81800317 	ldw	r6,12(r16)
    2fd8:	1886703a 	and	r3,r3,r2
    2fdc:	80c7883a 	add	r3,r16,r3
    2fe0:	18800117 	ldw	r2,4(r3)
    2fe4:	81400217 	ldw	r5,8(r16)
    2fe8:	9009883a 	mov	r4,r18
    2fec:	10800054 	ori	r2,r2,1
    2ff0:	18800115 	stw	r2,4(r3)
    2ff4:	31400215 	stw	r5,8(r6)
    2ff8:	29800315 	stw	r6,12(r5)
    2ffc:	0011ffc0 	call	11ffc <__malloc_unlock>
    3000:	80c00204 	addi	r3,r16,8
    3004:	003faa06 	br	2eb0 <_malloc_r+0x50>
    3008:	00800104 	movi	r2,4
    300c:	10c0052e 	bgeu	r2,r3,3024 <_malloc_r+0x1c4>
    3010:	00800504 	movi	r2,20
    3014:	10c07836 	bltu	r2,r3,31f8 <_malloc_r+0x398>
    3018:	198016c4 	addi	r6,r3,91
    301c:	300490fa 	slli	r2,r6,3
    3020:	003fbc06 	br	2f14 <_malloc_r+0xb4>
    3024:	8804d1ba 	srli	r2,r17,6
    3028:	11800e04 	addi	r6,r2,56
    302c:	300490fa 	slli	r2,r6,3
    3030:	003fb806 	br	2f14 <_malloc_r+0xb4>
    3034:	00807fc4 	movi	r2,511
    3038:	1140bb36 	bltu	r2,r5,3328 <_malloc_r+0x4c8>
    303c:	2806d0fa 	srli	r3,r5,3
    3040:	573ffe04 	addi	fp,r10,-8
    3044:	00800044 	movi	r2,1
    3048:	180890fa 	slli	r4,r3,3
    304c:	1807d0ba 	srai	r3,r3,2
    3050:	e1c00117 	ldw	r7,4(fp)
    3054:	5909883a 	add	r4,r11,r4
    3058:	21400217 	ldw	r5,8(r4)
    305c:	10c4983a 	sll	r2,r2,r3
    3060:	81000315 	stw	r4,12(r16)
    3064:	81400215 	stw	r5,8(r16)
    3068:	388eb03a 	or	r7,r7,r2
    306c:	2c000315 	stw	r16,12(r5)
    3070:	24000215 	stw	r16,8(r4)
    3074:	e1c00115 	stw	r7,4(fp)
    3078:	4807883a 	mov	r3,r9
    307c:	4800cd16 	blt	r9,zero,33b4 <_malloc_r+0x554>
    3080:	1807d0ba 	srai	r3,r3,2
    3084:	00800044 	movi	r2,1
    3088:	10c8983a 	sll	r4,r2,r3
    308c:	39004436 	bltu	r7,r4,31a0 <_malloc_r+0x340>
    3090:	21c4703a 	and	r2,r4,r7
    3094:	10000a1e 	bne	r2,zero,30c0 <_malloc_r+0x260>
    3098:	2109883a 	add	r4,r4,r4
    309c:	00bfff04 	movi	r2,-4
    30a0:	4884703a 	and	r2,r9,r2
    30a4:	3906703a 	and	r3,r7,r4
    30a8:	12400104 	addi	r9,r2,4
    30ac:	1800041e 	bne	r3,zero,30c0 <_malloc_r+0x260>
    30b0:	2109883a 	add	r4,r4,r4
    30b4:	3904703a 	and	r2,r7,r4
    30b8:	4a400104 	addi	r9,r9,4
    30bc:	103ffc26 	beq	r2,zero,30b0 <_malloc_r+0x250>
    30c0:	480490fa 	slli	r2,r9,3
    30c4:	4819883a 	mov	r12,r9
    30c8:	023fff04 	movi	r8,-4
    30cc:	589b883a 	add	r13,r11,r2
    30d0:	6807883a 	mov	r3,r13
    30d4:	014003c4 	movi	r5,15
    30d8:	1c000317 	ldw	r16,12(r3)
    30dc:	1c00041e 	bne	r3,r16,30f0 <_malloc_r+0x290>
    30e0:	0000a706 	br	3380 <_malloc_r+0x520>
    30e4:	3000ab0e 	bge	r6,zero,3394 <_malloc_r+0x534>
    30e8:	84000317 	ldw	r16,12(r16)
    30ec:	1c00a426 	beq	r3,r16,3380 <_malloc_r+0x520>
    30f0:	80800117 	ldw	r2,4(r16)
    30f4:	1204703a 	and	r2,r2,r8
    30f8:	144dc83a 	sub	r6,r2,r17
    30fc:	29bff90e 	bge	r5,r6,30e4 <_malloc_r+0x284>
    3100:	81000317 	ldw	r4,12(r16)
    3104:	80c00217 	ldw	r3,8(r16)
    3108:	89400054 	ori	r5,r17,1
    310c:	8445883a 	add	r2,r16,r17
    3110:	20c00215 	stw	r3,8(r4)
    3114:	19000315 	stw	r4,12(r3)
    3118:	81400115 	stw	r5,4(r16)
    311c:	1187883a 	add	r3,r2,r6
    3120:	31000054 	ori	r4,r6,1
    3124:	50800315 	stw	r2,12(r10)
    3128:	50800215 	stw	r2,8(r10)
    312c:	19800015 	stw	r6,0(r3)
    3130:	11000115 	stw	r4,4(r2)
    3134:	12800215 	stw	r10,8(r2)
    3138:	12800315 	stw	r10,12(r2)
    313c:	9009883a 	mov	r4,r18
    3140:	0011ffc0 	call	11ffc <__malloc_unlock>
    3144:	80c00204 	addi	r3,r16,8
    3148:	003f5906 	br	2eb0 <_malloc_r+0x50>
    314c:	8109883a 	add	r4,r16,r4
    3150:	20800117 	ldw	r2,4(r4)
    3154:	80c00217 	ldw	r3,8(r16)
    3158:	81400317 	ldw	r5,12(r16)
    315c:	10800054 	ori	r2,r2,1
    3160:	20800115 	stw	r2,4(r4)
    3164:	28c00215 	stw	r3,8(r5)
    3168:	19400315 	stw	r5,12(r3)
    316c:	9009883a 	mov	r4,r18
    3170:	0011ffc0 	call	11ffc <__malloc_unlock>
    3174:	80c00204 	addi	r3,r16,8
    3178:	003f4d06 	br	2eb0 <_malloc_r+0x50>
    317c:	80800204 	addi	r2,r16,8
    3180:	14000317 	ldw	r16,12(r2)
    3184:	143f911e 	bne	r2,r16,2fcc <_malloc_r+0x16c>
    3188:	1a400084 	addi	r9,r3,2
    318c:	003f7306 	br	2f5c <_malloc_r+0xfc>
    3190:	88c00054 	ori	r3,r17,1
    3194:	8445883a 	add	r2,r16,r17
    3198:	80c00115 	stw	r3,4(r16)
    319c:	003fdf06 	br	311c <_malloc_r+0x2bc>
    31a0:	e4000217 	ldw	r16,8(fp)
    31a4:	00bfff04 	movi	r2,-4
    31a8:	80c00117 	ldw	r3,4(r16)
    31ac:	802d883a 	mov	r22,r16
    31b0:	18aa703a 	and	r21,r3,r2
    31b4:	ac401636 	bltu	r21,r17,3210 <_malloc_r+0x3b0>
    31b8:	ac49c83a 	sub	r4,r21,r17
    31bc:	008003c4 	movi	r2,15
    31c0:	1100130e 	bge	r2,r4,3210 <_malloc_r+0x3b0>
    31c4:	88800054 	ori	r2,r17,1
    31c8:	8447883a 	add	r3,r16,r17
    31cc:	80800115 	stw	r2,4(r16)
    31d0:	20800054 	ori	r2,r4,1
    31d4:	18800115 	stw	r2,4(r3)
    31d8:	e0c00215 	stw	r3,8(fp)
    31dc:	9009883a 	mov	r4,r18
    31e0:	0011ffc0 	call	11ffc <__malloc_unlock>
    31e4:	80c00204 	addi	r3,r16,8
    31e8:	003f3106 	br	2eb0 <_malloc_r+0x50>
    31ec:	39c00117 	ldw	r7,4(r7)
    31f0:	573ffe04 	addi	fp,r10,-8
    31f4:	003fa006 	br	3078 <_malloc_r+0x218>
    31f8:	00801504 	movi	r2,84
    31fc:	10c06736 	bltu	r2,r3,339c <_malloc_r+0x53c>
    3200:	8804d33a 	srli	r2,r17,12
    3204:	11801b84 	addi	r6,r2,110
    3208:	300490fa 	slli	r2,r6,3
    320c:	003f4106 	br	2f14 <_malloc_r+0xb4>
    3210:	d0a6da17 	ldw	r2,-25752(gp)
    3214:	d0e00417 	ldw	r3,-32752(gp)
    3218:	053fffc4 	movi	r20,-1
    321c:	10800404 	addi	r2,r2,16
    3220:	88a7883a 	add	r19,r17,r2
    3224:	1d000326 	beq	r3,r20,3234 <_malloc_r+0x3d4>
    3228:	98c3ffc4 	addi	r3,r19,4095
    322c:	00bc0004 	movi	r2,-4096
    3230:	18a6703a 	and	r19,r3,r2
    3234:	9009883a 	mov	r4,r18
    3238:	980b883a 	mov	r5,r19
    323c:	0003aec0 	call	3aec <_sbrk_r>
    3240:	1009883a 	mov	r4,r2
    3244:	15000426 	beq	r2,r20,3258 <_malloc_r+0x3f8>
    3248:	854b883a 	add	r5,r16,r21
    324c:	1029883a 	mov	r20,r2
    3250:	11405a2e 	bgeu	r2,r5,33bc <_malloc_r+0x55c>
    3254:	87000c26 	beq	r16,fp,3288 <_malloc_r+0x428>
    3258:	e4000217 	ldw	r16,8(fp)
    325c:	80c00117 	ldw	r3,4(r16)
    3260:	00bfff04 	movi	r2,-4
    3264:	1884703a 	and	r2,r3,r2
    3268:	14400336 	bltu	r2,r17,3278 <_malloc_r+0x418>
    326c:	1449c83a 	sub	r4,r2,r17
    3270:	008003c4 	movi	r2,15
    3274:	113fd316 	blt	r2,r4,31c4 <_malloc_r+0x364>
    3278:	9009883a 	mov	r4,r18
    327c:	0011ffc0 	call	11ffc <__malloc_unlock>
    3280:	0007883a 	mov	r3,zero
    3284:	003f0a06 	br	2eb0 <_malloc_r+0x50>
    3288:	05c000b4 	movhi	r23,2
    328c:	bde1f904 	addi	r23,r23,-30748
    3290:	b8800017 	ldw	r2,0(r23)
    3294:	988d883a 	add	r6,r19,r2
    3298:	b9800015 	stw	r6,0(r23)
    329c:	d0e00417 	ldw	r3,-32752(gp)
    32a0:	00bfffc4 	movi	r2,-1
    32a4:	18808e26 	beq	r3,r2,34e0 <_malloc_r+0x680>
    32a8:	2145c83a 	sub	r2,r4,r5
    32ac:	3085883a 	add	r2,r6,r2
    32b0:	b8800015 	stw	r2,0(r23)
    32b4:	20c001cc 	andi	r3,r4,7
    32b8:	18005f1e 	bne	r3,zero,3438 <_malloc_r+0x5d8>
    32bc:	000b883a 	mov	r5,zero
    32c0:	a4c5883a 	add	r2,r20,r19
    32c4:	1083ffcc 	andi	r2,r2,4095
    32c8:	00c40004 	movi	r3,4096
    32cc:	1887c83a 	sub	r3,r3,r2
    32d0:	28e7883a 	add	r19,r5,r3
    32d4:	9009883a 	mov	r4,r18
    32d8:	980b883a 	mov	r5,r19
    32dc:	0003aec0 	call	3aec <_sbrk_r>
    32e0:	1007883a 	mov	r3,r2
    32e4:	00bfffc4 	movi	r2,-1
    32e8:	18807a26 	beq	r3,r2,34d4 <_malloc_r+0x674>
    32ec:	1d05c83a 	sub	r2,r3,r20
    32f0:	9885883a 	add	r2,r19,r2
    32f4:	10c00054 	ori	r3,r2,1
    32f8:	b8800017 	ldw	r2,0(r23)
    32fc:	a021883a 	mov	r16,r20
    3300:	a0c00115 	stw	r3,4(r20)
    3304:	9885883a 	add	r2,r19,r2
    3308:	b8800015 	stw	r2,0(r23)
    330c:	e5000215 	stw	r20,8(fp)
    3310:	b7003626 	beq	r22,fp,33ec <_malloc_r+0x58c>
    3314:	018003c4 	movi	r6,15
    3318:	35404b36 	bltu	r6,r21,3448 <_malloc_r+0x5e8>
    331c:	00800044 	movi	r2,1
    3320:	a0800115 	stw	r2,4(r20)
    3324:	003fcd06 	br	325c <_malloc_r+0x3fc>
    3328:	2808d27a 	srli	r4,r5,9
    332c:	2000371e 	bne	r4,zero,340c <_malloc_r+0x5ac>
    3330:	2808d0fa 	srli	r4,r5,3
    3334:	200690fa 	slli	r3,r4,3
    3338:	1ad1883a 	add	r8,r3,r11
    333c:	41800217 	ldw	r6,8(r8)
    3340:	41805b26 	beq	r8,r6,34b0 <_malloc_r+0x650>
    3344:	30800117 	ldw	r2,4(r6)
    3348:	00ffff04 	movi	r3,-4
    334c:	10c4703a 	and	r2,r2,r3
    3350:	2880022e 	bgeu	r5,r2,335c <_malloc_r+0x4fc>
    3354:	31800217 	ldw	r6,8(r6)
    3358:	41bffa1e 	bne	r8,r6,3344 <_malloc_r+0x4e4>
    335c:	32000317 	ldw	r8,12(r6)
    3360:	39c00117 	ldw	r7,4(r7)
    3364:	82000315 	stw	r8,12(r16)
    3368:	81800215 	stw	r6,8(r16)
    336c:	07000074 	movhi	fp,1
    3370:	e7155004 	addi	fp,fp,21824
    3374:	34000315 	stw	r16,12(r6)
    3378:	44000215 	stw	r16,8(r8)
    337c:	003f3e06 	br	3078 <_malloc_r+0x218>
    3380:	63000044 	addi	r12,r12,1
    3384:	608000cc 	andi	r2,r12,3
    3388:	10005d26 	beq	r2,zero,3500 <_malloc_r+0x6a0>
    338c:	18c00204 	addi	r3,r3,8
    3390:	003f5106 	br	30d8 <_malloc_r+0x278>
    3394:	8089883a 	add	r4,r16,r2
    3398:	003f6d06 	br	3150 <_malloc_r+0x2f0>
    339c:	00805504 	movi	r2,340
    33a0:	10c02036 	bltu	r2,r3,3424 <_malloc_r+0x5c4>
    33a4:	8804d3fa 	srli	r2,r17,15
    33a8:	11801dc4 	addi	r6,r2,119
    33ac:	300490fa 	slli	r2,r6,3
    33b0:	003ed806 	br	2f14 <_malloc_r+0xb4>
    33b4:	48c000c4 	addi	r3,r9,3
    33b8:	003f3106 	br	3080 <_malloc_r+0x220>
    33bc:	05c000b4 	movhi	r23,2
    33c0:	bde1f904 	addi	r23,r23,-30748
    33c4:	b8800017 	ldw	r2,0(r23)
    33c8:	988d883a 	add	r6,r19,r2
    33cc:	b9800015 	stw	r6,0(r23)
    33d0:	293fb21e 	bne	r5,r4,329c <_malloc_r+0x43c>
    33d4:	2083ffcc 	andi	r2,r4,4095
    33d8:	103fb01e 	bne	r2,zero,329c <_malloc_r+0x43c>
    33dc:	e4000217 	ldw	r16,8(fp)
    33e0:	9d45883a 	add	r2,r19,r21
    33e4:	10800054 	ori	r2,r2,1
    33e8:	80800115 	stw	r2,4(r16)
    33ec:	b8c00017 	ldw	r3,0(r23)
    33f0:	d0a6db17 	ldw	r2,-25748(gp)
    33f4:	10c0012e 	bgeu	r2,r3,33fc <_malloc_r+0x59c>
    33f8:	d0e6db15 	stw	r3,-25748(gp)
    33fc:	d0a6dc17 	ldw	r2,-25744(gp)
    3400:	10ff962e 	bgeu	r2,r3,325c <_malloc_r+0x3fc>
    3404:	d0e6dc15 	stw	r3,-25744(gp)
    3408:	003f9406 	br	325c <_malloc_r+0x3fc>
    340c:	00800104 	movi	r2,4
    3410:	11001e36 	bltu	r2,r4,348c <_malloc_r+0x62c>
    3414:	2804d1ba 	srli	r2,r5,6
    3418:	11000e04 	addi	r4,r2,56
    341c:	200690fa 	slli	r3,r4,3
    3420:	003fc506 	br	3338 <_malloc_r+0x4d8>
    3424:	00815504 	movi	r2,1364
    3428:	10c01d2e 	bgeu	r2,r3,34a0 <_malloc_r+0x640>
    342c:	01801f84 	movi	r6,126
    3430:	0080fc04 	movi	r2,1008
    3434:	003eb706 	br	2f14 <_malloc_r+0xb4>
    3438:	00800204 	movi	r2,8
    343c:	10cbc83a 	sub	r5,r2,r3
    3440:	2169883a 	add	r20,r4,r5
    3444:	003f9e06 	br	32c0 <_malloc_r+0x460>
    3448:	00bffe04 	movi	r2,-8
    344c:	a93ffd04 	addi	r4,r21,-12
    3450:	2088703a 	and	r4,r4,r2
    3454:	b10b883a 	add	r5,r22,r4
    3458:	00c00144 	movi	r3,5
    345c:	28c00215 	stw	r3,8(r5)
    3460:	28c00115 	stw	r3,4(r5)
    3464:	b0800117 	ldw	r2,4(r22)
    3468:	1080004c 	andi	r2,r2,1
    346c:	2084b03a 	or	r2,r4,r2
    3470:	b0800115 	stw	r2,4(r22)
    3474:	313fdd2e 	bgeu	r6,r4,33ec <_malloc_r+0x58c>
    3478:	b1400204 	addi	r5,r22,8
    347c:	9009883a 	mov	r4,r18
    3480:	00098300 	call	9830 <_free_r>
    3484:	e4000217 	ldw	r16,8(fp)
    3488:	003fd806 	br	33ec <_malloc_r+0x58c>
    348c:	00800504 	movi	r2,20
    3490:	11001536 	bltu	r2,r4,34e8 <_malloc_r+0x688>
    3494:	210016c4 	addi	r4,r4,91
    3498:	200690fa 	slli	r3,r4,3
    349c:	003fa606 	br	3338 <_malloc_r+0x4d8>
    34a0:	8804d4ba 	srli	r2,r17,18
    34a4:	11801f04 	addi	r6,r2,124
    34a8:	300490fa 	slli	r2,r6,3
    34ac:	003e9906 	br	2f14 <_malloc_r+0xb4>
    34b0:	2009d0ba 	srai	r4,r4,2
    34b4:	01400074 	movhi	r5,1
    34b8:	29555004 	addi	r5,r5,21824
    34bc:	00c00044 	movi	r3,1
    34c0:	28800117 	ldw	r2,4(r5)
    34c4:	1906983a 	sll	r3,r3,r4
    34c8:	10c4b03a 	or	r2,r2,r3
    34cc:	28800115 	stw	r2,4(r5)
    34d0:	003fa306 	br	3360 <_malloc_r+0x500>
    34d4:	0027883a 	mov	r19,zero
    34d8:	00c00044 	movi	r3,1
    34dc:	003f8606 	br	32f8 <_malloc_r+0x498>
    34e0:	d1200415 	stw	r4,-32752(gp)
    34e4:	003f7306 	br	32b4 <_malloc_r+0x454>
    34e8:	00801504 	movi	r2,84
    34ec:	11001936 	bltu	r2,r4,3554 <_malloc_r+0x6f4>
    34f0:	2804d33a 	srli	r2,r5,12
    34f4:	11001b84 	addi	r4,r2,110
    34f8:	200690fa 	slli	r3,r4,3
    34fc:	003f8e06 	br	3338 <_malloc_r+0x4d8>
    3500:	480b883a 	mov	r5,r9
    3504:	6807883a 	mov	r3,r13
    3508:	288000cc 	andi	r2,r5,3
    350c:	18fffe04 	addi	r3,r3,-8
    3510:	297fffc4 	addi	r5,r5,-1
    3514:	10001526 	beq	r2,zero,356c <_malloc_r+0x70c>
    3518:	18800217 	ldw	r2,8(r3)
    351c:	10fffa26 	beq	r2,r3,3508 <_malloc_r+0x6a8>
    3520:	2109883a 	add	r4,r4,r4
    3524:	393f1e36 	bltu	r7,r4,31a0 <_malloc_r+0x340>
    3528:	203f1d26 	beq	r4,zero,31a0 <_malloc_r+0x340>
    352c:	21c4703a 	and	r2,r4,r7
    3530:	10000226 	beq	r2,zero,353c <_malloc_r+0x6dc>
    3534:	6013883a 	mov	r9,r12
    3538:	003ee106 	br	30c0 <_malloc_r+0x260>
    353c:	2109883a 	add	r4,r4,r4
    3540:	3904703a 	and	r2,r7,r4
    3544:	63000104 	addi	r12,r12,4
    3548:	103ffc26 	beq	r2,zero,353c <_malloc_r+0x6dc>
    354c:	6013883a 	mov	r9,r12
    3550:	003edb06 	br	30c0 <_malloc_r+0x260>
    3554:	00805504 	movi	r2,340
    3558:	11000836 	bltu	r2,r4,357c <_malloc_r+0x71c>
    355c:	2804d3fa 	srli	r2,r5,15
    3560:	11001dc4 	addi	r4,r2,119
    3564:	200690fa 	slli	r3,r4,3
    3568:	003f7306 	br	3338 <_malloc_r+0x4d8>
    356c:	0104303a 	nor	r2,zero,r4
    3570:	388e703a 	and	r7,r7,r2
    3574:	e1c00115 	stw	r7,4(fp)
    3578:	003fe906 	br	3520 <_malloc_r+0x6c0>
    357c:	00815504 	movi	r2,1364
    3580:	1100032e 	bgeu	r2,r4,3590 <_malloc_r+0x730>
    3584:	01001f84 	movi	r4,126
    3588:	00c0fc04 	movi	r3,1008
    358c:	003f6a06 	br	3338 <_malloc_r+0x4d8>
    3590:	2804d4ba 	srli	r2,r5,18
    3594:	11001f04 	addi	r4,r2,124
    3598:	200690fa 	slli	r3,r4,3
    359c:	003f6606 	br	3338 <_malloc_r+0x4d8>

000035a0 <memchr>:
    35a0:	008000c4 	movi	r2,3
    35a4:	29403fcc 	andi	r5,r5,255
    35a8:	2007883a 	mov	r3,r4
    35ac:	1180022e 	bgeu	r2,r6,35b8 <memchr+0x18>
    35b0:	2084703a 	and	r2,r4,r2
    35b4:	10000b26 	beq	r2,zero,35e4 <memchr+0x44>
    35b8:	313fffc4 	addi	r4,r6,-1
    35bc:	3000051e 	bne	r6,zero,35d4 <memchr+0x34>
    35c0:	00002c06 	br	3674 <memchr+0xd4>
    35c4:	213fffc4 	addi	r4,r4,-1
    35c8:	00bfffc4 	movi	r2,-1
    35cc:	18c00044 	addi	r3,r3,1
    35d0:	20802826 	beq	r4,r2,3674 <memchr+0xd4>
    35d4:	18800003 	ldbu	r2,0(r3)
    35d8:	28bffa1e 	bne	r5,r2,35c4 <memchr+0x24>
    35dc:	1805883a 	mov	r2,r3
    35e0:	f800283a 	ret
    35e4:	0011883a 	mov	r8,zero
    35e8:	0007883a 	mov	r3,zero
    35ec:	01c00104 	movi	r7,4
    35f0:	4004923a 	slli	r2,r8,8
    35f4:	18c00044 	addi	r3,r3,1
    35f8:	1151883a 	add	r8,r2,r5
    35fc:	19fffc1e 	bne	r3,r7,35f0 <memchr+0x50>
    3600:	02bfbff4 	movhi	r10,65279
    3604:	52bfbfc4 	addi	r10,r10,-257
    3608:	02602074 	movhi	r9,32897
    360c:	4a602004 	addi	r9,r9,-32640
    3610:	02c000c4 	movi	r11,3
    3614:	20800017 	ldw	r2,0(r4)
    3618:	31bfff04 	addi	r6,r6,-4
    361c:	200f883a 	mov	r7,r4
    3620:	1204f03a 	xor	r2,r2,r8
    3624:	1287883a 	add	r3,r2,r10
    3628:	1a46703a 	and	r3,r3,r9
    362c:	0084303a 	nor	r2,zero,r2
    3630:	10c4703a 	and	r2,r2,r3
    3634:	10000b26 	beq	r2,zero,3664 <memchr+0xc4>
    3638:	20800003 	ldbu	r2,0(r4)
    363c:	28800f26 	beq	r5,r2,367c <memchr+0xdc>
    3640:	20800043 	ldbu	r2,1(r4)
    3644:	21c00044 	addi	r7,r4,1
    3648:	28800c26 	beq	r5,r2,367c <memchr+0xdc>
    364c:	20800083 	ldbu	r2,2(r4)
    3650:	21c00084 	addi	r7,r4,2
    3654:	28800926 	beq	r5,r2,367c <memchr+0xdc>
    3658:	208000c3 	ldbu	r2,3(r4)
    365c:	21c000c4 	addi	r7,r4,3
    3660:	28800626 	beq	r5,r2,367c <memchr+0xdc>
    3664:	21000104 	addi	r4,r4,4
    3668:	59bfea36 	bltu	r11,r6,3614 <memchr+0x74>
    366c:	2007883a 	mov	r3,r4
    3670:	003fd106 	br	35b8 <memchr+0x18>
    3674:	0005883a 	mov	r2,zero
    3678:	f800283a 	ret
    367c:	3805883a 	mov	r2,r7
    3680:	f800283a 	ret

00003684 <memcpy>:
    3684:	01c003c4 	movi	r7,15
    3688:	2007883a 	mov	r3,r4
    368c:	3980032e 	bgeu	r7,r6,369c <memcpy+0x18>
    3690:	2904b03a 	or	r2,r5,r4
    3694:	108000cc 	andi	r2,r2,3
    3698:	10000926 	beq	r2,zero,36c0 <memcpy+0x3c>
    369c:	30000626 	beq	r6,zero,36b8 <memcpy+0x34>
    36a0:	30cd883a 	add	r6,r6,r3
    36a4:	28800003 	ldbu	r2,0(r5)
    36a8:	29400044 	addi	r5,r5,1
    36ac:	18800005 	stb	r2,0(r3)
    36b0:	18c00044 	addi	r3,r3,1
    36b4:	30fffb1e 	bne	r6,r3,36a4 <memcpy+0x20>
    36b8:	2005883a 	mov	r2,r4
    36bc:	f800283a 	ret
    36c0:	3811883a 	mov	r8,r7
    36c4:	200f883a 	mov	r7,r4
    36c8:	28c00017 	ldw	r3,0(r5)
    36cc:	31bffc04 	addi	r6,r6,-16
    36d0:	38c00015 	stw	r3,0(r7)
    36d4:	28800117 	ldw	r2,4(r5)
    36d8:	38800115 	stw	r2,4(r7)
    36dc:	28c00217 	ldw	r3,8(r5)
    36e0:	38c00215 	stw	r3,8(r7)
    36e4:	28800317 	ldw	r2,12(r5)
    36e8:	29400404 	addi	r5,r5,16
    36ec:	38800315 	stw	r2,12(r7)
    36f0:	39c00404 	addi	r7,r7,16
    36f4:	41bff436 	bltu	r8,r6,36c8 <memcpy+0x44>
    36f8:	008000c4 	movi	r2,3
    36fc:	1180072e 	bgeu	r2,r6,371c <memcpy+0x98>
    3700:	1007883a 	mov	r3,r2
    3704:	28800017 	ldw	r2,0(r5)
    3708:	31bfff04 	addi	r6,r6,-4
    370c:	29400104 	addi	r5,r5,4
    3710:	38800015 	stw	r2,0(r7)
    3714:	39c00104 	addi	r7,r7,4
    3718:	19bffa36 	bltu	r3,r6,3704 <memcpy+0x80>
    371c:	3807883a 	mov	r3,r7
    3720:	003fde06 	br	369c <memcpy+0x18>

00003724 <memset>:
    3724:	008000c4 	movi	r2,3
    3728:	29403fcc 	andi	r5,r5,255
    372c:	2007883a 	mov	r3,r4
    3730:	1180022e 	bgeu	r2,r6,373c <memset+0x18>
    3734:	2084703a 	and	r2,r4,r2
    3738:	10000826 	beq	r2,zero,375c <memset+0x38>
    373c:	30000526 	beq	r6,zero,3754 <memset+0x30>
    3740:	2805883a 	mov	r2,r5
    3744:	30cd883a 	add	r6,r6,r3
    3748:	18800005 	stb	r2,0(r3)
    374c:	18c00044 	addi	r3,r3,1
    3750:	19bffd1e 	bne	r3,r6,3748 <memset+0x24>
    3754:	2005883a 	mov	r2,r4
    3758:	f800283a 	ret
    375c:	2804923a 	slli	r2,r5,8
    3760:	020003c4 	movi	r8,15
    3764:	200f883a 	mov	r7,r4
    3768:	2884b03a 	or	r2,r5,r2
    376c:	1006943a 	slli	r3,r2,16
    3770:	10c6b03a 	or	r3,r2,r3
    3774:	41800a2e 	bgeu	r8,r6,37a0 <memset+0x7c>
    3778:	4005883a 	mov	r2,r8
    377c:	31bffc04 	addi	r6,r6,-16
    3780:	38c00015 	stw	r3,0(r7)
    3784:	38c00115 	stw	r3,4(r7)
    3788:	38c00215 	stw	r3,8(r7)
    378c:	38c00315 	stw	r3,12(r7)
    3790:	39c00404 	addi	r7,r7,16
    3794:	11bff936 	bltu	r2,r6,377c <memset+0x58>
    3798:	008000c4 	movi	r2,3
    379c:	1180052e 	bgeu	r2,r6,37b4 <memset+0x90>
    37a0:	31bfff04 	addi	r6,r6,-4
    37a4:	008000c4 	movi	r2,3
    37a8:	38c00015 	stw	r3,0(r7)
    37ac:	39c00104 	addi	r7,r7,4
    37b0:	11bffb36 	bltu	r2,r6,37a0 <memset+0x7c>
    37b4:	3807883a 	mov	r3,r7
    37b8:	003fe006 	br	373c <memset+0x18>

000037bc <printf>:
    37bc:	defffb04 	addi	sp,sp,-20
    37c0:	dfc00115 	stw	ra,4(sp)
    37c4:	d9400215 	stw	r5,8(sp)
    37c8:	d9800315 	stw	r6,12(sp)
    37cc:	d9c00415 	stw	r7,16(sp)
    37d0:	00800074 	movhi	r2,1
    37d4:	109ae204 	addi	r2,r2,27528
    37d8:	10c00017 	ldw	r3,0(r2)
    37dc:	200b883a 	mov	r5,r4
    37e0:	d8800204 	addi	r2,sp,8
    37e4:	19000217 	ldw	r4,8(r3)
    37e8:	100d883a 	mov	r6,r2
    37ec:	d8800015 	stw	r2,0(sp)
    37f0:	0005fe00 	call	5fe0 <__vfprintf_internal>
    37f4:	dfc00117 	ldw	ra,4(sp)
    37f8:	dec00504 	addi	sp,sp,20
    37fc:	f800283a 	ret

00003800 <_printf_r>:
    3800:	defffc04 	addi	sp,sp,-16
    3804:	dfc00115 	stw	ra,4(sp)
    3808:	d9800215 	stw	r6,8(sp)
    380c:	d9c00315 	stw	r7,12(sp)
    3810:	280d883a 	mov	r6,r5
    3814:	21400217 	ldw	r5,8(r4)
    3818:	d8c00204 	addi	r3,sp,8
    381c:	180f883a 	mov	r7,r3
    3820:	d8c00015 	stw	r3,0(sp)
    3824:	00041340 	call	4134 <___vfprintf_internal_r>
    3828:	dfc00117 	ldw	ra,4(sp)
    382c:	dec00404 	addi	sp,sp,16
    3830:	f800283a 	ret

00003834 <putchar>:
    3834:	00800074 	movhi	r2,1
    3838:	109ae204 	addi	r2,r2,27528
    383c:	11800017 	ldw	r6,0(r2)
    3840:	200b883a 	mov	r5,r4
    3844:	3009883a 	mov	r4,r6
    3848:	31800217 	ldw	r6,8(r6)
    384c:	000b5b41 	jmpi	b5b4 <_putc_r>

00003850 <_putchar_r>:
    3850:	21800217 	ldw	r6,8(r4)
    3854:	000b5b41 	jmpi	b5b4 <_putc_r>

00003858 <_puts_r>:
    3858:	defff604 	addi	sp,sp,-40
    385c:	dc400715 	stw	r17,28(sp)
    3860:	2023883a 	mov	r17,r4
    3864:	2809883a 	mov	r4,r5
    3868:	dfc00915 	stw	ra,36(sp)
    386c:	dcc00815 	stw	r19,32(sp)
    3870:	2827883a 	mov	r19,r5
    3874:	00040680 	call	4068 <strlen>
    3878:	89400217 	ldw	r5,8(r17)
    387c:	00c00074 	movhi	r3,1
    3880:	18d34604 	addi	r3,r3,19736
    3884:	01c00044 	movi	r7,1
    3888:	12000044 	addi	r8,r2,1
    388c:	d8c00515 	stw	r3,20(sp)
    3890:	d9c00615 	stw	r7,24(sp)
    3894:	d8c00304 	addi	r3,sp,12
    3898:	01c00084 	movi	r7,2
    389c:	8809883a 	mov	r4,r17
    38a0:	d80d883a 	mov	r6,sp
    38a4:	d8c00015 	stw	r3,0(sp)
    38a8:	dcc00315 	stw	r19,12(sp)
    38ac:	da000215 	stw	r8,8(sp)
    38b0:	d9c00115 	stw	r7,4(sp)
    38b4:	d8800415 	stw	r2,16(sp)
    38b8:	0009b440 	call	9b44 <__sfvwrite_r>
    38bc:	00ffffc4 	movi	r3,-1
    38c0:	10000626 	beq	r2,zero,38dc <_puts_r+0x84>
    38c4:	1805883a 	mov	r2,r3
    38c8:	dfc00917 	ldw	ra,36(sp)
    38cc:	dcc00817 	ldw	r19,32(sp)
    38d0:	dc400717 	ldw	r17,28(sp)
    38d4:	dec00a04 	addi	sp,sp,40
    38d8:	f800283a 	ret
    38dc:	00c00284 	movi	r3,10
    38e0:	1805883a 	mov	r2,r3
    38e4:	dfc00917 	ldw	ra,36(sp)
    38e8:	dcc00817 	ldw	r19,32(sp)
    38ec:	dc400717 	ldw	r17,28(sp)
    38f0:	dec00a04 	addi	sp,sp,40
    38f4:	f800283a 	ret

000038f8 <puts>:
    38f8:	00800074 	movhi	r2,1
    38fc:	109ae204 	addi	r2,r2,27528
    3900:	200b883a 	mov	r5,r4
    3904:	11000017 	ldw	r4,0(r2)
    3908:	00038581 	jmpi	3858 <_puts_r>

0000390c <__srefill_r>:
    390c:	defffd04 	addi	sp,sp,-12
    3910:	dc400115 	stw	r17,4(sp)
    3914:	dc000015 	stw	r16,0(sp)
    3918:	dfc00215 	stw	ra,8(sp)
    391c:	2023883a 	mov	r17,r4
    3920:	2821883a 	mov	r16,r5
    3924:	20000226 	beq	r4,zero,3930 <__srefill_r+0x24>
    3928:	20800e17 	ldw	r2,56(r4)
    392c:	10004126 	beq	r2,zero,3a34 <__srefill_r+0x128>
    3930:	80c0030b 	ldhu	r3,12(r16)
    3934:	80000115 	stw	zero,4(r16)
    3938:	1880080c 	andi	r2,r3,32
    393c:	1000361e 	bne	r2,zero,3a18 <__srefill_r+0x10c>
    3940:	1880010c 	andi	r2,r3,4
    3944:	1000211e 	bne	r2,zero,39cc <__srefill_r+0xc0>
    3948:	1880040c 	andi	r2,r3,16
    394c:	10005026 	beq	r2,zero,3a90 <__srefill_r+0x184>
    3950:	1880020c 	andi	r2,r3,8
    3954:	1000541e 	bne	r2,zero,3aa8 <__srefill_r+0x19c>
    3958:	8080030b 	ldhu	r2,12(r16)
    395c:	10800114 	ori	r2,r2,4
    3960:	8080030d 	sth	r2,12(r16)
    3964:	80800417 	ldw	r2,16(r16)
    3968:	10004526 	beq	r2,zero,3a80 <__srefill_r+0x174>
    396c:	8080030b 	ldhu	r2,12(r16)
    3970:	108000cc 	andi	r2,r2,3
    3974:	1000361e 	bne	r2,zero,3a50 <__srefill_r+0x144>
    3978:	81800417 	ldw	r6,16(r16)
    397c:	80c00817 	ldw	r3,32(r16)
    3980:	81400717 	ldw	r5,28(r16)
    3984:	81c00517 	ldw	r7,20(r16)
    3988:	8809883a 	mov	r4,r17
    398c:	81800015 	stw	r6,0(r16)
    3990:	183ee83a 	callr	r3
    3994:	80c0030b 	ldhu	r3,12(r16)
    3998:	1009883a 	mov	r4,r2
    399c:	80800115 	stw	r2,4(r16)
    39a0:	00b7ffc4 	movi	r2,-8193
    39a4:	1884703a 	and	r2,r3,r2
    39a8:	8080030d 	sth	r2,12(r16)
    39ac:	0100230e 	bge	zero,r4,3a3c <__srefill_r+0x130>
    39b0:	0009883a 	mov	r4,zero
    39b4:	2005883a 	mov	r2,r4
    39b8:	dfc00217 	ldw	ra,8(sp)
    39bc:	dc400117 	ldw	r17,4(sp)
    39c0:	dc000017 	ldw	r16,0(sp)
    39c4:	dec00304 	addi	sp,sp,12
    39c8:	f800283a 	ret
    39cc:	81400c17 	ldw	r5,48(r16)
    39d0:	283fe426 	beq	r5,zero,3964 <__srefill_r+0x58>
    39d4:	80801004 	addi	r2,r16,64
    39d8:	28800226 	beq	r5,r2,39e4 <__srefill_r+0xd8>
    39dc:	8809883a 	mov	r4,r17
    39e0:	00098300 	call	9830 <_free_r>
    39e4:	80800f17 	ldw	r2,60(r16)
    39e8:	80000c15 	stw	zero,48(r16)
    39ec:	80800115 	stw	r2,4(r16)
    39f0:	103fdc26 	beq	r2,zero,3964 <__srefill_r+0x58>
    39f4:	80800e17 	ldw	r2,56(r16)
    39f8:	0009883a 	mov	r4,zero
    39fc:	80800015 	stw	r2,0(r16)
    3a00:	2005883a 	mov	r2,r4
    3a04:	dfc00217 	ldw	ra,8(sp)
    3a08:	dc400117 	ldw	r17,4(sp)
    3a0c:	dc000017 	ldw	r16,0(sp)
    3a10:	dec00304 	addi	sp,sp,12
    3a14:	f800283a 	ret
    3a18:	013fffc4 	movi	r4,-1
    3a1c:	2005883a 	mov	r2,r4
    3a20:	dfc00217 	ldw	ra,8(sp)
    3a24:	dc400117 	ldw	r17,4(sp)
    3a28:	dc000017 	ldw	r16,0(sp)
    3a2c:	dec00304 	addi	sp,sp,12
    3a30:	f800283a 	ret
    3a34:	0002a880 	call	2a88 <__sinit>
    3a38:	003fbd06 	br	3930 <__srefill_r+0x24>
    3a3c:	20000b1e 	bne	r4,zero,3a6c <__srefill_r+0x160>
    3a40:	10800814 	ori	r2,r2,32
    3a44:	013fffc4 	movi	r4,-1
    3a48:	8080030d 	sth	r2,12(r16)
    3a4c:	003fd906 	br	39b4 <__srefill_r+0xa8>
    3a50:	00800074 	movhi	r2,1
    3a54:	109ae304 	addi	r2,r2,27532
    3a58:	11000017 	ldw	r4,0(r2)
    3a5c:	01400034 	movhi	r5,0
    3a60:	294eb404 	addi	r5,r5,15056
    3a64:	0002da80 	call	2da8 <_fwalk>
    3a68:	003fc306 	br	3978 <__srefill_r+0x6c>
    3a6c:	10801014 	ori	r2,r2,64
    3a70:	013fffc4 	movi	r4,-1
    3a74:	8080030d 	sth	r2,12(r16)
    3a78:	80000115 	stw	zero,4(r16)
    3a7c:	003fcd06 	br	39b4 <__srefill_r+0xa8>
    3a80:	8809883a 	mov	r4,r17
    3a84:	800b883a 	mov	r5,r16
    3a88:	000a1480 	call	a148 <__smakebuf_r>
    3a8c:	003fb706 	br	396c <__srefill_r+0x60>
    3a90:	18c01014 	ori	r3,r3,64
    3a94:	00800244 	movi	r2,9
    3a98:	013fffc4 	movi	r4,-1
    3a9c:	88800015 	stw	r2,0(r17)
    3aa0:	80c0030d 	sth	r3,12(r16)
    3aa4:	003fc306 	br	39b4 <__srefill_r+0xa8>
    3aa8:	8809883a 	mov	r4,r17
    3aac:	800b883a 	mov	r5,r16
    3ab0:	00092980 	call	9298 <_fflush_r>
    3ab4:	103fd81e 	bne	r2,zero,3a18 <__srefill_r+0x10c>
    3ab8:	8080030b 	ldhu	r2,12(r16)
    3abc:	80000215 	stw	zero,8(r16)
    3ac0:	80000615 	stw	zero,24(r16)
    3ac4:	10bffdcc 	andi	r2,r2,65527
    3ac8:	8080030d 	sth	r2,12(r16)
    3acc:	003fa206 	br	3958 <__srefill_r+0x4c>

00003ad0 <lflush>:
    3ad0:	20c0030b 	ldhu	r3,12(r4)
    3ad4:	01400244 	movi	r5,9
    3ad8:	0005883a 	mov	r2,zero
    3adc:	18c0024c 	andi	r3,r3,9
    3ae0:	19400126 	beq	r3,r5,3ae8 <lflush+0x18>
    3ae4:	f800283a 	ret
    3ae8:	00094941 	jmpi	9494 <fflush>

00003aec <_sbrk_r>:
    3aec:	defffd04 	addi	sp,sp,-12
    3af0:	dc000015 	stw	r16,0(sp)
    3af4:	040000b4 	movhi	r16,2
    3af8:	8421be04 	addi	r16,r16,-30984
    3afc:	dc400115 	stw	r17,4(sp)
    3b00:	80000015 	stw	zero,0(r16)
    3b04:	2023883a 	mov	r17,r4
    3b08:	2809883a 	mov	r4,r5
    3b0c:	dfc00215 	stw	ra,8(sp)
    3b10:	00121fc0 	call	121fc <sbrk>
    3b14:	1007883a 	mov	r3,r2
    3b18:	00bfffc4 	movi	r2,-1
    3b1c:	18800626 	beq	r3,r2,3b38 <_sbrk_r+0x4c>
    3b20:	1805883a 	mov	r2,r3
    3b24:	dfc00217 	ldw	ra,8(sp)
    3b28:	dc400117 	ldw	r17,4(sp)
    3b2c:	dc000017 	ldw	r16,0(sp)
    3b30:	dec00304 	addi	sp,sp,12
    3b34:	f800283a 	ret
    3b38:	80800017 	ldw	r2,0(r16)
    3b3c:	103ff826 	beq	r2,zero,3b20 <_sbrk_r+0x34>
    3b40:	88800015 	stw	r2,0(r17)
    3b44:	1805883a 	mov	r2,r3
    3b48:	dfc00217 	ldw	ra,8(sp)
    3b4c:	dc400117 	ldw	r17,4(sp)
    3b50:	dc000017 	ldw	r16,0(sp)
    3b54:	dec00304 	addi	sp,sp,12
    3b58:	f800283a 	ret

00003b5c <sprintf>:
    3b5c:	deffe504 	addi	sp,sp,-108
    3b60:	2013883a 	mov	r9,r4
    3b64:	dfc01815 	stw	ra,96(sp)
    3b68:	d9801915 	stw	r6,100(sp)
    3b6c:	d9c01a15 	stw	r7,104(sp)
    3b70:	d8801904 	addi	r2,sp,100
    3b74:	d8800015 	stw	r2,0(sp)
    3b78:	00800074 	movhi	r2,1
    3b7c:	109ae204 	addi	r2,r2,27528
    3b80:	11000017 	ldw	r4,0(r2)
    3b84:	d9c00017 	ldw	r7,0(sp)
    3b88:	00808204 	movi	r2,520
    3b8c:	00e00034 	movhi	r3,32768
    3b90:	18ffffc4 	addi	r3,r3,-1
    3b94:	280d883a 	mov	r6,r5
    3b98:	d880040d 	sth	r2,16(sp)
    3b9c:	d9400104 	addi	r5,sp,4
    3ba0:	00bfffc4 	movi	r2,-1
    3ba4:	d8c00615 	stw	r3,24(sp)
    3ba8:	d8c00315 	stw	r3,12(sp)
    3bac:	da400515 	stw	r9,20(sp)
    3bb0:	d880048d 	sth	r2,18(sp)
    3bb4:	da400115 	stw	r9,4(sp)
    3bb8:	00041340 	call	4134 <___vfprintf_internal_r>
    3bbc:	d8c00117 	ldw	r3,4(sp)
    3bc0:	18000005 	stb	zero,0(r3)
    3bc4:	dfc01817 	ldw	ra,96(sp)
    3bc8:	dec01b04 	addi	sp,sp,108
    3bcc:	f800283a 	ret

00003bd0 <_sprintf_r>:
    3bd0:	deffe604 	addi	sp,sp,-104
    3bd4:	2813883a 	mov	r9,r5
    3bd8:	dfc01815 	stw	ra,96(sp)
    3bdc:	d9c01915 	stw	r7,100(sp)
    3be0:	d8801904 	addi	r2,sp,100
    3be4:	d8800015 	stw	r2,0(sp)
    3be8:	100f883a 	mov	r7,r2
    3bec:	00808204 	movi	r2,520
    3bf0:	00e00034 	movhi	r3,32768
    3bf4:	18ffffc4 	addi	r3,r3,-1
    3bf8:	d880040d 	sth	r2,16(sp)
    3bfc:	d9400104 	addi	r5,sp,4
    3c00:	00bfffc4 	movi	r2,-1
    3c04:	d8c00615 	stw	r3,24(sp)
    3c08:	d8c00315 	stw	r3,12(sp)
    3c0c:	da400515 	stw	r9,20(sp)
    3c10:	d880048d 	sth	r2,18(sp)
    3c14:	da400115 	stw	r9,4(sp)
    3c18:	00041340 	call	4134 <___vfprintf_internal_r>
    3c1c:	d8c00117 	ldw	r3,4(sp)
    3c20:	18000005 	stb	zero,0(r3)
    3c24:	dfc01817 	ldw	ra,96(sp)
    3c28:	dec01a04 	addi	sp,sp,104
    3c2c:	f800283a 	ret

00003c30 <eofread>:
    3c30:	0005883a 	mov	r2,zero
    3c34:	f800283a 	ret

00003c38 <_sscanf_r>:
    3c38:	deffe404 	addi	sp,sp,-112
    3c3c:	dcc01915 	stw	r19,100(sp)
    3c40:	2027883a 	mov	r19,r4
    3c44:	dfc01a15 	stw	ra,104(sp)
    3c48:	dc401815 	stw	r17,96(sp)
    3c4c:	d9c01b15 	stw	r7,108(sp)
    3c50:	00808104 	movi	r2,516
    3c54:	2809883a 	mov	r4,r5
    3c58:	3023883a 	mov	r17,r6
    3c5c:	d9400115 	stw	r5,4(sp)
    3c60:	d9400515 	stw	r5,20(sp)
    3c64:	d880040d 	sth	r2,16(sp)
    3c68:	00040680 	call	4068 <strlen>
    3c6c:	d8c01b04 	addi	r3,sp,108
    3c70:	d8c00015 	stw	r3,0(sp)
    3c74:	180f883a 	mov	r7,r3
    3c78:	023fffc4 	movi	r8,-1
    3c7c:	00c00034 	movhi	r3,0
    3c80:	18cf0c04 	addi	r3,r3,15408
    3c84:	9809883a 	mov	r4,r19
    3c88:	880d883a 	mov	r6,r17
    3c8c:	d9400104 	addi	r5,sp,4
    3c90:	d8800615 	stw	r2,24(sp)
    3c94:	d8c00915 	stw	r3,36(sp)
    3c98:	da00048d 	sth	r8,18(sp)
    3c9c:	d8800215 	stw	r2,8(sp)
    3ca0:	d8000d15 	stw	zero,52(sp)
    3ca4:	d8001215 	stw	zero,72(sp)
    3ca8:	00060040 	call	6004 <__svfscanf_r>
    3cac:	dfc01a17 	ldw	ra,104(sp)
    3cb0:	dcc01917 	ldw	r19,100(sp)
    3cb4:	dc401817 	ldw	r17,96(sp)
    3cb8:	dec01c04 	addi	sp,sp,112
    3cbc:	f800283a 	ret

00003cc0 <sscanf>:
    3cc0:	deffe404 	addi	sp,sp,-112
    3cc4:	dfc01915 	stw	ra,100(sp)
    3cc8:	dc401815 	stw	r17,96(sp)
    3ccc:	d9801a15 	stw	r6,104(sp)
    3cd0:	d9c01b15 	stw	r7,108(sp)
    3cd4:	00808104 	movi	r2,516
    3cd8:	2823883a 	mov	r17,r5
    3cdc:	d9000515 	stw	r4,20(sp)
    3ce0:	d9000115 	stw	r4,4(sp)
    3ce4:	d880040d 	sth	r2,16(sp)
    3ce8:	00040680 	call	4068 <strlen>
    3cec:	d8c01a04 	addi	r3,sp,104
    3cf0:	d8c00015 	stw	r3,0(sp)
    3cf4:	00c00074 	movhi	r3,1
    3cf8:	18dae204 	addi	r3,r3,27528
    3cfc:	19000017 	ldw	r4,0(r3)
    3d00:	d9c00017 	ldw	r7,0(sp)
    3d04:	00c00034 	movhi	r3,0
    3d08:	18cf0c04 	addi	r3,r3,15408
    3d0c:	023fffc4 	movi	r8,-1
    3d10:	880d883a 	mov	r6,r17
    3d14:	d9400104 	addi	r5,sp,4
    3d18:	d8800615 	stw	r2,24(sp)
    3d1c:	d8c00915 	stw	r3,36(sp)
    3d20:	da00048d 	sth	r8,18(sp)
    3d24:	d8800215 	stw	r2,8(sp)
    3d28:	d8000d15 	stw	zero,52(sp)
    3d2c:	d8001215 	stw	zero,72(sp)
    3d30:	00060040 	call	6004 <__svfscanf_r>
    3d34:	dfc01917 	ldw	ra,100(sp)
    3d38:	dc401817 	ldw	r17,96(sp)
    3d3c:	dec01c04 	addi	sp,sp,112
    3d40:	f800283a 	ret

00003d44 <__sclose>:
    3d44:	2940038f 	ldh	r5,14(r5)
    3d48:	00079381 	jmpi	7938 <_close_r>

00003d4c <__sseek>:
    3d4c:	defffe04 	addi	sp,sp,-8
    3d50:	dc000015 	stw	r16,0(sp)
    3d54:	2821883a 	mov	r16,r5
    3d58:	2940038f 	ldh	r5,14(r5)
    3d5c:	dfc00115 	stw	ra,4(sp)
    3d60:	000a0d00 	call	a0d0 <_lseek_r>
    3d64:	1007883a 	mov	r3,r2
    3d68:	00bfffc4 	movi	r2,-1
    3d6c:	18800926 	beq	r3,r2,3d94 <__sseek+0x48>
    3d70:	8080030b 	ldhu	r2,12(r16)
    3d74:	80c01415 	stw	r3,80(r16)
    3d78:	10840014 	ori	r2,r2,4096
    3d7c:	8080030d 	sth	r2,12(r16)
    3d80:	1805883a 	mov	r2,r3
    3d84:	dfc00117 	ldw	ra,4(sp)
    3d88:	dc000017 	ldw	r16,0(sp)
    3d8c:	dec00204 	addi	sp,sp,8
    3d90:	f800283a 	ret
    3d94:	8080030b 	ldhu	r2,12(r16)
    3d98:	10bbffcc 	andi	r2,r2,61439
    3d9c:	8080030d 	sth	r2,12(r16)
    3da0:	1805883a 	mov	r2,r3
    3da4:	dfc00117 	ldw	ra,4(sp)
    3da8:	dc000017 	ldw	r16,0(sp)
    3dac:	dec00204 	addi	sp,sp,8
    3db0:	f800283a 	ret

00003db4 <__swrite>:
    3db4:	2880030b 	ldhu	r2,12(r5)
    3db8:	defffb04 	addi	sp,sp,-20
    3dbc:	dcc00315 	stw	r19,12(sp)
    3dc0:	1080400c 	andi	r2,r2,256
    3dc4:	dc800215 	stw	r18,8(sp)
    3dc8:	dc400115 	stw	r17,4(sp)
    3dcc:	dc000015 	stw	r16,0(sp)
    3dd0:	3027883a 	mov	r19,r6
    3dd4:	3825883a 	mov	r18,r7
    3dd8:	dfc00415 	stw	ra,16(sp)
    3ddc:	2821883a 	mov	r16,r5
    3de0:	000d883a 	mov	r6,zero
    3de4:	01c00084 	movi	r7,2
    3de8:	2023883a 	mov	r17,r4
    3dec:	10000226 	beq	r2,zero,3df8 <__swrite+0x44>
    3df0:	2940038f 	ldh	r5,14(r5)
    3df4:	000a0d00 	call	a0d0 <_lseek_r>
    3df8:	8080030b 	ldhu	r2,12(r16)
    3dfc:	8140038f 	ldh	r5,14(r16)
    3e00:	8809883a 	mov	r4,r17
    3e04:	10bbffcc 	andi	r2,r2,61439
    3e08:	980d883a 	mov	r6,r19
    3e0c:	900f883a 	mov	r7,r18
    3e10:	8080030d 	sth	r2,12(r16)
    3e14:	dfc00417 	ldw	ra,16(sp)
    3e18:	dcc00317 	ldw	r19,12(sp)
    3e1c:	dc800217 	ldw	r18,8(sp)
    3e20:	dc400117 	ldw	r17,4(sp)
    3e24:	dc000017 	ldw	r16,0(sp)
    3e28:	dec00504 	addi	sp,sp,20
    3e2c:	00077841 	jmpi	7784 <_write_r>

00003e30 <__sread>:
    3e30:	defffe04 	addi	sp,sp,-8
    3e34:	dc000015 	stw	r16,0(sp)
    3e38:	2821883a 	mov	r16,r5
    3e3c:	2940038f 	ldh	r5,14(r5)
    3e40:	dfc00115 	stw	ra,4(sp)
    3e44:	000b69c0 	call	b69c <_read_r>
    3e48:	1007883a 	mov	r3,r2
    3e4c:	10000816 	blt	r2,zero,3e70 <__sread+0x40>
    3e50:	80801417 	ldw	r2,80(r16)
    3e54:	10c5883a 	add	r2,r2,r3
    3e58:	80801415 	stw	r2,80(r16)
    3e5c:	1805883a 	mov	r2,r3
    3e60:	dfc00117 	ldw	ra,4(sp)
    3e64:	dc000017 	ldw	r16,0(sp)
    3e68:	dec00204 	addi	sp,sp,8
    3e6c:	f800283a 	ret
    3e70:	8080030b 	ldhu	r2,12(r16)
    3e74:	10bbffcc 	andi	r2,r2,61439
    3e78:	8080030d 	sth	r2,12(r16)
    3e7c:	1805883a 	mov	r2,r3
    3e80:	dfc00117 	ldw	ra,4(sp)
    3e84:	dc000017 	ldw	r16,0(sp)
    3e88:	dec00204 	addi	sp,sp,8
    3e8c:	f800283a 	ret

00003e90 <strcat>:
    3e90:	defffe04 	addi	sp,sp,-8
    3e94:	208000cc 	andi	r2,r4,3
    3e98:	dc000015 	stw	r16,0(sp)
    3e9c:	dfc00115 	stw	ra,4(sp)
    3ea0:	2021883a 	mov	r16,r4
    3ea4:	1000161e 	bne	r2,zero,3f00 <strcat+0x70>
    3ea8:	20c00017 	ldw	r3,0(r4)
    3eac:	01bfbff4 	movhi	r6,65279
    3eb0:	31bfbfc4 	addi	r6,r6,-257
    3eb4:	02202074 	movhi	r8,32897
    3eb8:	42202004 	addi	r8,r8,-32640
    3ebc:	1985883a 	add	r2,r3,r6
    3ec0:	1204703a 	and	r2,r2,r8
    3ec4:	00c6303a 	nor	r3,zero,r3
    3ec8:	1886703a 	and	r3,r3,r2
    3ecc:	18000c1e 	bne	r3,zero,3f00 <strcat+0x70>
    3ed0:	300f883a 	mov	r7,r6
    3ed4:	400d883a 	mov	r6,r8
    3ed8:	21000104 	addi	r4,r4,4
    3edc:	20800017 	ldw	r2,0(r4)
    3ee0:	11c7883a 	add	r3,r2,r7
    3ee4:	1986703a 	and	r3,r3,r6
    3ee8:	0084303a 	nor	r2,zero,r2
    3eec:	10c4703a 	and	r2,r2,r3
    3ef0:	103ff926 	beq	r2,zero,3ed8 <strcat+0x48>
    3ef4:	20800007 	ldb	r2,0(r4)
    3ef8:	10000326 	beq	r2,zero,3f08 <strcat+0x78>
    3efc:	21000044 	addi	r4,r4,1
    3f00:	20800007 	ldb	r2,0(r4)
    3f04:	103ffd1e 	bne	r2,zero,3efc <strcat+0x6c>
    3f08:	0003fdc0 	call	3fdc <strcpy>
    3f0c:	8005883a 	mov	r2,r16
    3f10:	dfc00117 	ldw	ra,4(sp)
    3f14:	dc000017 	ldw	r16,0(sp)
    3f18:	dec00204 	addi	sp,sp,8
    3f1c:	f800283a 	ret

00003f20 <strcmp>:
    3f20:	2144b03a 	or	r2,r4,r5
    3f24:	108000cc 	andi	r2,r2,3
    3f28:	10001d1e 	bne	r2,zero,3fa0 <strcmp+0x80>
    3f2c:	200f883a 	mov	r7,r4
    3f30:	28800017 	ldw	r2,0(r5)
    3f34:	21000017 	ldw	r4,0(r4)
    3f38:	280d883a 	mov	r6,r5
    3f3c:	2080161e 	bne	r4,r2,3f98 <strcmp+0x78>
    3f40:	023fbff4 	movhi	r8,65279
    3f44:	423fbfc4 	addi	r8,r8,-257
    3f48:	2207883a 	add	r3,r4,r8
    3f4c:	01602074 	movhi	r5,32897
    3f50:	29602004 	addi	r5,r5,-32640
    3f54:	1946703a 	and	r3,r3,r5
    3f58:	0104303a 	nor	r2,zero,r4
    3f5c:	10c4703a 	and	r2,r2,r3
    3f60:	10001c1e 	bne	r2,zero,3fd4 <strcmp+0xb4>
    3f64:	4013883a 	mov	r9,r8
    3f68:	2811883a 	mov	r8,r5
    3f6c:	00000106 	br	3f74 <strcmp+0x54>
    3f70:	1800181e 	bne	r3,zero,3fd4 <strcmp+0xb4>
    3f74:	39c00104 	addi	r7,r7,4
    3f78:	39000017 	ldw	r4,0(r7)
    3f7c:	31800104 	addi	r6,r6,4
    3f80:	31400017 	ldw	r5,0(r6)
    3f84:	2245883a 	add	r2,r4,r9
    3f88:	1204703a 	and	r2,r2,r8
    3f8c:	0106303a 	nor	r3,zero,r4
    3f90:	1886703a 	and	r3,r3,r2
    3f94:	217ff626 	beq	r4,r5,3f70 <strcmp+0x50>
    3f98:	3809883a 	mov	r4,r7
    3f9c:	300b883a 	mov	r5,r6
    3fa0:	20c00007 	ldb	r3,0(r4)
    3fa4:	1800051e 	bne	r3,zero,3fbc <strcmp+0x9c>
    3fa8:	00000606 	br	3fc4 <strcmp+0xa4>
    3fac:	21000044 	addi	r4,r4,1
    3fb0:	20c00007 	ldb	r3,0(r4)
    3fb4:	29400044 	addi	r5,r5,1
    3fb8:	18000226 	beq	r3,zero,3fc4 <strcmp+0xa4>
    3fbc:	28800007 	ldb	r2,0(r5)
    3fc0:	18bffa26 	beq	r3,r2,3fac <strcmp+0x8c>
    3fc4:	20c00003 	ldbu	r3,0(r4)
    3fc8:	28800003 	ldbu	r2,0(r5)
    3fcc:	1885c83a 	sub	r2,r3,r2
    3fd0:	f800283a 	ret
    3fd4:	0005883a 	mov	r2,zero
    3fd8:	f800283a 	ret

00003fdc <strcpy>:
    3fdc:	2904b03a 	or	r2,r5,r4
    3fe0:	108000cc 	andi	r2,r2,3
    3fe4:	10000826 	beq	r2,zero,4008 <strcpy+0x2c>
    3fe8:	2007883a 	mov	r3,r4
    3fec:	28800003 	ldbu	r2,0(r5)
    3ff0:	29400044 	addi	r5,r5,1
    3ff4:	18800005 	stb	r2,0(r3)
    3ff8:	18c00044 	addi	r3,r3,1
    3ffc:	103ffb1e 	bne	r2,zero,3fec <strcpy+0x10>
    4000:	2005883a 	mov	r2,r4
    4004:	f800283a 	ret
    4008:	29800017 	ldw	r6,0(r5)
    400c:	023fbff4 	movhi	r8,65279
    4010:	423fbfc4 	addi	r8,r8,-257
    4014:	02a02074 	movhi	r10,32897
    4018:	52a02004 	addi	r10,r10,-32640
    401c:	3205883a 	add	r2,r6,r8
    4020:	0186303a 	nor	r3,zero,r6
    4024:	10c4703a 	and	r2,r2,r3
    4028:	1284703a 	and	r2,r2,r10
    402c:	200f883a 	mov	r7,r4
    4030:	10000b1e 	bne	r2,zero,4060 <strcpy+0x84>
    4034:	4013883a 	mov	r9,r8
    4038:	5011883a 	mov	r8,r10
    403c:	39800015 	stw	r6,0(r7)
    4040:	29400104 	addi	r5,r5,4
    4044:	29800017 	ldw	r6,0(r5)
    4048:	39c00104 	addi	r7,r7,4
    404c:	3245883a 	add	r2,r6,r9
    4050:	0186303a 	nor	r3,zero,r6
    4054:	10c4703a 	and	r2,r2,r3
    4058:	1204703a 	and	r2,r2,r8
    405c:	103ff726 	beq	r2,zero,403c <strcpy+0x60>
    4060:	3807883a 	mov	r3,r7
    4064:	003fe106 	br	3fec <strcpy+0x10>

00004068 <strlen>:
    4068:	208000cc 	andi	r2,r4,3
    406c:	2011883a 	mov	r8,r4
    4070:	1000161e 	bne	r2,zero,40cc <strlen+0x64>
    4074:	20c00017 	ldw	r3,0(r4)
    4078:	017fbff4 	movhi	r5,65279
    407c:	297fbfc4 	addi	r5,r5,-257
    4080:	01e02074 	movhi	r7,32897
    4084:	39e02004 	addi	r7,r7,-32640
    4088:	1945883a 	add	r2,r3,r5
    408c:	11c4703a 	and	r2,r2,r7
    4090:	00c6303a 	nor	r3,zero,r3
    4094:	1886703a 	and	r3,r3,r2
    4098:	18000c1e 	bne	r3,zero,40cc <strlen+0x64>
    409c:	280d883a 	mov	r6,r5
    40a0:	380b883a 	mov	r5,r7
    40a4:	21000104 	addi	r4,r4,4
    40a8:	20800017 	ldw	r2,0(r4)
    40ac:	1187883a 	add	r3,r2,r6
    40b0:	1946703a 	and	r3,r3,r5
    40b4:	0084303a 	nor	r2,zero,r2
    40b8:	10c4703a 	and	r2,r2,r3
    40bc:	103ff926 	beq	r2,zero,40a4 <strlen+0x3c>
    40c0:	20800007 	ldb	r2,0(r4)
    40c4:	10000326 	beq	r2,zero,40d4 <strlen+0x6c>
    40c8:	21000044 	addi	r4,r4,1
    40cc:	20800007 	ldb	r2,0(r4)
    40d0:	103ffd1e 	bne	r2,zero,40c8 <strlen+0x60>
    40d4:	2205c83a 	sub	r2,r4,r8
    40d8:	f800283a 	ret

000040dc <__sprint_r>:
    40dc:	30800217 	ldw	r2,8(r6)
    40e0:	defffe04 	addi	sp,sp,-8
    40e4:	dc000015 	stw	r16,0(sp)
    40e8:	dfc00115 	stw	ra,4(sp)
    40ec:	3021883a 	mov	r16,r6
    40f0:	0007883a 	mov	r3,zero
    40f4:	1000061e 	bne	r2,zero,4110 <__sprint_r+0x34>
    40f8:	1805883a 	mov	r2,r3
    40fc:	30000115 	stw	zero,4(r6)
    4100:	dfc00117 	ldw	ra,4(sp)
    4104:	dc000017 	ldw	r16,0(sp)
    4108:	dec00204 	addi	sp,sp,8
    410c:	f800283a 	ret
    4110:	0009b440 	call	9b44 <__sfvwrite_r>
    4114:	1007883a 	mov	r3,r2
    4118:	1805883a 	mov	r2,r3
    411c:	80000115 	stw	zero,4(r16)
    4120:	80000215 	stw	zero,8(r16)
    4124:	dfc00117 	ldw	ra,4(sp)
    4128:	dc000017 	ldw	r16,0(sp)
    412c:	dec00204 	addi	sp,sp,8
    4130:	f800283a 	ret

00004134 <___vfprintf_internal_r>:
    4134:	defea404 	addi	sp,sp,-1392
    4138:	dd815815 	stw	r22,1376(sp)
    413c:	dc015215 	stw	r16,1352(sp)
    4140:	d9c15115 	stw	r7,1348(sp)
    4144:	dfc15b15 	stw	ra,1388(sp)
    4148:	df015a15 	stw	fp,1384(sp)
    414c:	ddc15915 	stw	r23,1380(sp)
    4150:	dd415715 	stw	r21,1372(sp)
    4154:	dd015615 	stw	r20,1368(sp)
    4158:	dcc15515 	stw	r19,1364(sp)
    415c:	dc815415 	stw	r18,1360(sp)
    4160:	dc415315 	stw	r17,1356(sp)
    4164:	282d883a 	mov	r22,r5
    4168:	3021883a 	mov	r16,r6
    416c:	d9014f15 	stw	r4,1340(sp)
    4170:	000a0140 	call	a014 <_localeconv_r>
    4174:	10800017 	ldw	r2,0(r2)
    4178:	d9c15117 	ldw	r7,1348(sp)
    417c:	d8814915 	stw	r2,1316(sp)
    4180:	d8814f17 	ldw	r2,1340(sp)
    4184:	10000226 	beq	r2,zero,4190 <___vfprintf_internal_r+0x5c>
    4188:	10800e17 	ldw	r2,56(r2)
    418c:	10020d26 	beq	r2,zero,49c4 <___vfprintf_internal_r+0x890>
    4190:	b080030b 	ldhu	r2,12(r22)
    4194:	1080020c 	andi	r2,r2,8
    4198:	10020e26 	beq	r2,zero,49d4 <___vfprintf_internal_r+0x8a0>
    419c:	b0800417 	ldw	r2,16(r22)
    41a0:	10020c26 	beq	r2,zero,49d4 <___vfprintf_internal_r+0x8a0>
    41a4:	b200030b 	ldhu	r8,12(r22)
    41a8:	00800284 	movi	r2,10
    41ac:	40c0068c 	andi	r3,r8,26
    41b0:	18802f1e 	bne	r3,r2,4270 <___vfprintf_internal_r+0x13c>
    41b4:	b080038f 	ldh	r2,14(r22)
    41b8:	10002d16 	blt	r2,zero,4270 <___vfprintf_internal_r+0x13c>
    41bc:	b240038b 	ldhu	r9,14(r22)
    41c0:	b2800717 	ldw	r10,28(r22)
    41c4:	b2c00917 	ldw	r11,36(r22)
    41c8:	d9014f17 	ldw	r4,1340(sp)
    41cc:	dc402904 	addi	r17,sp,164
    41d0:	d8804004 	addi	r2,sp,256
    41d4:	00c10004 	movi	r3,1024
    41d8:	423fff4c 	andi	r8,r8,65533
    41dc:	800d883a 	mov	r6,r16
    41e0:	880b883a 	mov	r5,r17
    41e4:	da002c0d 	sth	r8,176(sp)
    41e8:	da402c8d 	sth	r9,178(sp)
    41ec:	da803015 	stw	r10,192(sp)
    41f0:	dac03215 	stw	r11,200(sp)
    41f4:	d8802d15 	stw	r2,180(sp)
    41f8:	d8c02e15 	stw	r3,184(sp)
    41fc:	d8802915 	stw	r2,164(sp)
    4200:	d8c02b15 	stw	r3,172(sp)
    4204:	d8002f15 	stw	zero,188(sp)
    4208:	00041340 	call	4134 <___vfprintf_internal_r>
    420c:	d8814b15 	stw	r2,1324(sp)
    4210:	10000416 	blt	r2,zero,4224 <___vfprintf_internal_r+0xf0>
    4214:	d9014f17 	ldw	r4,1340(sp)
    4218:	880b883a 	mov	r5,r17
    421c:	00092980 	call	9298 <_fflush_r>
    4220:	1002321e 	bne	r2,zero,4aec <___vfprintf_internal_r+0x9b8>
    4224:	d8802c0b 	ldhu	r2,176(sp)
    4228:	1080100c 	andi	r2,r2,64
    422c:	10000326 	beq	r2,zero,423c <___vfprintf_internal_r+0x108>
    4230:	b080030b 	ldhu	r2,12(r22)
    4234:	10801014 	ori	r2,r2,64
    4238:	b080030d 	sth	r2,12(r22)
    423c:	d8814b17 	ldw	r2,1324(sp)
    4240:	dfc15b17 	ldw	ra,1388(sp)
    4244:	df015a17 	ldw	fp,1384(sp)
    4248:	ddc15917 	ldw	r23,1380(sp)
    424c:	dd815817 	ldw	r22,1376(sp)
    4250:	dd415717 	ldw	r21,1372(sp)
    4254:	dd015617 	ldw	r20,1368(sp)
    4258:	dcc15517 	ldw	r19,1364(sp)
    425c:	dc815417 	ldw	r18,1360(sp)
    4260:	dc415317 	ldw	r17,1356(sp)
    4264:	dc015217 	ldw	r16,1352(sp)
    4268:	dec15c04 	addi	sp,sp,1392
    426c:	f800283a 	ret
    4270:	0005883a 	mov	r2,zero
    4274:	0007883a 	mov	r3,zero
    4278:	dd401904 	addi	r21,sp,100
    427c:	d8814215 	stw	r2,1288(sp)
    4280:	802f883a 	mov	r23,r16
    4284:	d8c14315 	stw	r3,1292(sp)
    4288:	d8014b15 	stw	zero,1324(sp)
    428c:	d8014815 	stw	zero,1312(sp)
    4290:	d8014415 	stw	zero,1296(sp)
    4294:	d8014715 	stw	zero,1308(sp)
    4298:	dd400c15 	stw	r21,48(sp)
    429c:	d8000e15 	stw	zero,56(sp)
    42a0:	d8000d15 	stw	zero,52(sp)
    42a4:	b8800007 	ldb	r2,0(r23)
    42a8:	10001926 	beq	r2,zero,4310 <___vfprintf_internal_r+0x1dc>
    42ac:	00c00944 	movi	r3,37
    42b0:	10c01726 	beq	r2,r3,4310 <___vfprintf_internal_r+0x1dc>
    42b4:	b821883a 	mov	r16,r23
    42b8:	00000106 	br	42c0 <___vfprintf_internal_r+0x18c>
    42bc:	10c00326 	beq	r2,r3,42cc <___vfprintf_internal_r+0x198>
    42c0:	84000044 	addi	r16,r16,1
    42c4:	80800007 	ldb	r2,0(r16)
    42c8:	103ffc1e 	bne	r2,zero,42bc <___vfprintf_internal_r+0x188>
    42cc:	85e7c83a 	sub	r19,r16,r23
    42d0:	98000e26 	beq	r19,zero,430c <___vfprintf_internal_r+0x1d8>
    42d4:	dc800e17 	ldw	r18,56(sp)
    42d8:	dc400d17 	ldw	r17,52(sp)
    42dc:	008001c4 	movi	r2,7
    42e0:	94e5883a 	add	r18,r18,r19
    42e4:	8c400044 	addi	r17,r17,1
    42e8:	adc00015 	stw	r23,0(r21)
    42ec:	dc800e15 	stw	r18,56(sp)
    42f0:	acc00115 	stw	r19,4(r21)
    42f4:	dc400d15 	stw	r17,52(sp)
    42f8:	14428b16 	blt	r2,r17,4d28 <___vfprintf_internal_r+0xbf4>
    42fc:	ad400204 	addi	r21,r21,8
    4300:	d9014b17 	ldw	r4,1324(sp)
    4304:	24c9883a 	add	r4,r4,r19
    4308:	d9014b15 	stw	r4,1324(sp)
    430c:	802f883a 	mov	r23,r16
    4310:	b8800007 	ldb	r2,0(r23)
    4314:	10013c26 	beq	r2,zero,4808 <___vfprintf_internal_r+0x6d4>
    4318:	bdc00044 	addi	r23,r23,1
    431c:	d8000405 	stb	zero,16(sp)
    4320:	b8c00007 	ldb	r3,0(r23)
    4324:	04ffffc4 	movi	r19,-1
    4328:	d8014c15 	stw	zero,1328(sp)
    432c:	d8014a15 	stw	zero,1320(sp)
    4330:	d8c14d15 	stw	r3,1332(sp)
    4334:	bdc00044 	addi	r23,r23,1
    4338:	d9414d17 	ldw	r5,1332(sp)
    433c:	00801604 	movi	r2,88
    4340:	28fff804 	addi	r3,r5,-32
    4344:	10c06036 	bltu	r2,r3,44c8 <___vfprintf_internal_r+0x394>
    4348:	18c5883a 	add	r2,r3,r3
    434c:	1085883a 	add	r2,r2,r2
    4350:	00c00034 	movhi	r3,0
    4354:	18d0d904 	addi	r3,r3,17252
    4358:	10c5883a 	add	r2,r2,r3
    435c:	11000017 	ldw	r4,0(r2)
    4360:	2000683a 	jmp	r4
    4364:	000052d8 	cmpnei	zero,zero,331
    4368:	000044c8 	cmpgei	zero,zero,275
    436c:	000044c8 	cmpgei	zero,zero,275
    4370:	000052c4 	movi	zero,331
    4374:	000044c8 	cmpgei	zero,zero,275
    4378:	000044c8 	cmpgei	zero,zero,275
    437c:	000044c8 	cmpgei	zero,zero,275
    4380:	000044c8 	cmpgei	zero,zero,275
    4384:	000044c8 	cmpgei	zero,zero,275
    4388:	000044c8 	cmpgei	zero,zero,275
    438c:	000050a4 	muli	zero,zero,322
    4390:	000052b4 	movhi	zero,330
    4394:	000044c8 	cmpgei	zero,zero,275
    4398:	000050bc 	xorhi	zero,zero,322
    439c:	00005350 	cmplti	zero,zero,333
    43a0:	000044c8 	cmpgei	zero,zero,275
    43a4:	0000533c 	xorhi	zero,zero,332
    43a8:	00005304 	movi	zero,332
    43ac:	00005304 	movi	zero,332
    43b0:	00005304 	movi	zero,332
    43b4:	00005304 	movi	zero,332
    43b8:	00005304 	movi	zero,332
    43bc:	00005304 	movi	zero,332
    43c0:	00005304 	movi	zero,332
    43c4:	00005304 	movi	zero,332
    43c8:	00005304 	movi	zero,332
    43cc:	000044c8 	cmpgei	zero,zero,275
    43d0:	000044c8 	cmpgei	zero,zero,275
    43d4:	000044c8 	cmpgei	zero,zero,275
    43d8:	000044c8 	cmpgei	zero,zero,275
    43dc:	000044c8 	cmpgei	zero,zero,275
    43e0:	000044c8 	cmpgei	zero,zero,275
    43e4:	000044c8 	cmpgei	zero,zero,275
    43e8:	000044c8 	cmpgei	zero,zero,275
    43ec:	000044c8 	cmpgei	zero,zero,275
    43f0:	000044c8 	cmpgei	zero,zero,275
    43f4:	00004b20 	cmpeqi	zero,zero,300
    43f8:	0000518c 	andi	zero,zero,326
    43fc:	000044c8 	cmpgei	zero,zero,275
    4400:	0000518c 	andi	zero,zero,326
    4404:	000044c8 	cmpgei	zero,zero,275
    4408:	000044c8 	cmpgei	zero,zero,275
    440c:	000044c8 	cmpgei	zero,zero,275
    4410:	000044c8 	cmpgei	zero,zero,275
    4414:	000052f0 	cmpltui	zero,zero,331
    4418:	000044c8 	cmpgei	zero,zero,275
    441c:	000044c8 	cmpgei	zero,zero,275
    4420:	00004bd4 	movui	zero,303
    4424:	000044c8 	cmpgei	zero,zero,275
    4428:	000044c8 	cmpgei	zero,zero,275
    442c:	000044c8 	cmpgei	zero,zero,275
    4430:	000044c8 	cmpgei	zero,zero,275
    4434:	000044c8 	cmpgei	zero,zero,275
    4438:	00004c20 	cmpeqi	zero,zero,304
    443c:	000044c8 	cmpgei	zero,zero,275
    4440:	000044c8 	cmpgei	zero,zero,275
    4444:	00005240 	call	524 <cam_track+0x60>
    4448:	000044c8 	cmpgei	zero,zero,275
    444c:	000044c8 	cmpgei	zero,zero,275
    4450:	000044c8 	cmpgei	zero,zero,275
    4454:	000044c8 	cmpgei	zero,zero,275
    4458:	000044c8 	cmpgei	zero,zero,275
    445c:	000044c8 	cmpgei	zero,zero,275
    4460:	000044c8 	cmpgei	zero,zero,275
    4464:	000044c8 	cmpgei	zero,zero,275
    4468:	000044c8 	cmpgei	zero,zero,275
    446c:	000044c8 	cmpgei	zero,zero,275
    4470:	00005214 	movui	zero,328
    4474:	00004b2c 	andhi	zero,zero,300
    4478:	0000518c 	andi	zero,zero,326
    447c:	0000518c 	andi	zero,zero,326
    4480:	0000518c 	andi	zero,zero,326
    4484:	00005178 	rdprs	zero,zero,325
    4488:	00004b2c 	andhi	zero,zero,300
    448c:	000044c8 	cmpgei	zero,zero,275
    4490:	000044c8 	cmpgei	zero,zero,275
    4494:	00005100 	call	510 <cam_track+0x4c>
    4498:	000044c8 	cmpgei	zero,zero,275
    449c:	000050d0 	cmplti	zero,zero,323
    44a0:	00004be0 	cmpeqi	zero,zero,303
    44a4:	00005130 	cmpltui	zero,zero,324
    44a8:	0000511c 	xori	zero,zero,324
    44ac:	000044c8 	cmpgei	zero,zero,275
    44b0:	000053ac 	andhi	zero,zero,334
    44b4:	000044c8 	cmpgei	zero,zero,275
    44b8:	00004c2c 	andhi	zero,zero,304
    44bc:	000044c8 	cmpgei	zero,zero,275
    44c0:	000044c8 	cmpgei	zero,zero,275
    44c4:	000052a4 	muli	zero,zero,330
    44c8:	d9014d17 	ldw	r4,1332(sp)
    44cc:	2000ce26 	beq	r4,zero,4808 <___vfprintf_internal_r+0x6d4>
    44d0:	01400044 	movi	r5,1
    44d4:	d9800f04 	addi	r6,sp,60
    44d8:	d9c14015 	stw	r7,1280(sp)
    44dc:	d9414515 	stw	r5,1300(sp)
    44e0:	d9814115 	stw	r6,1284(sp)
    44e4:	280f883a 	mov	r7,r5
    44e8:	d9000f05 	stb	r4,60(sp)
    44ec:	d8000405 	stb	zero,16(sp)
    44f0:	d8014615 	stw	zero,1304(sp)
    44f4:	d8c14c17 	ldw	r3,1328(sp)
    44f8:	1880008c 	andi	r2,r3,2
    44fc:	1005003a 	cmpeq	r2,r2,zero
    4500:	d8815015 	stw	r2,1344(sp)
    4504:	1000031e 	bne	r2,zero,4514 <___vfprintf_internal_r+0x3e0>
    4508:	d9014517 	ldw	r4,1300(sp)
    450c:	21000084 	addi	r4,r4,2
    4510:	d9014515 	stw	r4,1300(sp)
    4514:	d9414c17 	ldw	r5,1328(sp)
    4518:	2940210c 	andi	r5,r5,132
    451c:	d9414e15 	stw	r5,1336(sp)
    4520:	28002d1e 	bne	r5,zero,45d8 <___vfprintf_internal_r+0x4a4>
    4524:	d9814a17 	ldw	r6,1320(sp)
    4528:	d8814517 	ldw	r2,1300(sp)
    452c:	30a1c83a 	sub	r16,r6,r2
    4530:	0400290e 	bge	zero,r16,45d8 <___vfprintf_internal_r+0x4a4>
    4534:	00800404 	movi	r2,16
    4538:	1404580e 	bge	r2,r16,569c <___vfprintf_internal_r+0x1568>
    453c:	dc800e17 	ldw	r18,56(sp)
    4540:	dc400d17 	ldw	r17,52(sp)
    4544:	1027883a 	mov	r19,r2
    4548:	07000074 	movhi	fp,1
    454c:	e7136284 	addi	fp,fp,19850
    4550:	050001c4 	movi	r20,7
    4554:	00000306 	br	4564 <___vfprintf_internal_r+0x430>
    4558:	843ffc04 	addi	r16,r16,-16
    455c:	ad400204 	addi	r21,r21,8
    4560:	9c00130e 	bge	r19,r16,45b0 <___vfprintf_internal_r+0x47c>
    4564:	94800404 	addi	r18,r18,16
    4568:	8c400044 	addi	r17,r17,1
    456c:	af000015 	stw	fp,0(r21)
    4570:	acc00115 	stw	r19,4(r21)
    4574:	dc800e15 	stw	r18,56(sp)
    4578:	dc400d15 	stw	r17,52(sp)
    457c:	a47ff60e 	bge	r20,r17,4558 <___vfprintf_internal_r+0x424>
    4580:	d9014f17 	ldw	r4,1340(sp)
    4584:	b00b883a 	mov	r5,r22
    4588:	d9800c04 	addi	r6,sp,48
    458c:	d9c15115 	stw	r7,1348(sp)
    4590:	00040dc0 	call	40dc <__sprint_r>
    4594:	d9c15117 	ldw	r7,1348(sp)
    4598:	10009e1e 	bne	r2,zero,4814 <___vfprintf_internal_r+0x6e0>
    459c:	843ffc04 	addi	r16,r16,-16
    45a0:	dc800e17 	ldw	r18,56(sp)
    45a4:	dc400d17 	ldw	r17,52(sp)
    45a8:	dd401904 	addi	r21,sp,100
    45ac:	9c3fed16 	blt	r19,r16,4564 <___vfprintf_internal_r+0x430>
    45b0:	9425883a 	add	r18,r18,r16
    45b4:	8c400044 	addi	r17,r17,1
    45b8:	008001c4 	movi	r2,7
    45bc:	af000015 	stw	fp,0(r21)
    45c0:	ac000115 	stw	r16,4(r21)
    45c4:	dc800e15 	stw	r18,56(sp)
    45c8:	dc400d15 	stw	r17,52(sp)
    45cc:	1441f516 	blt	r2,r17,4da4 <___vfprintf_internal_r+0xc70>
    45d0:	ad400204 	addi	r21,r21,8
    45d4:	00000206 	br	45e0 <___vfprintf_internal_r+0x4ac>
    45d8:	dc800e17 	ldw	r18,56(sp)
    45dc:	dc400d17 	ldw	r17,52(sp)
    45e0:	d8800407 	ldb	r2,16(sp)
    45e4:	10000b26 	beq	r2,zero,4614 <___vfprintf_internal_r+0x4e0>
    45e8:	00800044 	movi	r2,1
    45ec:	94800044 	addi	r18,r18,1
    45f0:	8c400044 	addi	r17,r17,1
    45f4:	a8800115 	stw	r2,4(r21)
    45f8:	d8c00404 	addi	r3,sp,16
    45fc:	008001c4 	movi	r2,7
    4600:	a8c00015 	stw	r3,0(r21)
    4604:	dc800e15 	stw	r18,56(sp)
    4608:	dc400d15 	stw	r17,52(sp)
    460c:	1441da16 	blt	r2,r17,4d78 <___vfprintf_internal_r+0xc44>
    4610:	ad400204 	addi	r21,r21,8
    4614:	d9015017 	ldw	r4,1344(sp)
    4618:	20000b1e 	bne	r4,zero,4648 <___vfprintf_internal_r+0x514>
    461c:	d8800444 	addi	r2,sp,17
    4620:	94800084 	addi	r18,r18,2
    4624:	8c400044 	addi	r17,r17,1
    4628:	a8800015 	stw	r2,0(r21)
    462c:	00c00084 	movi	r3,2
    4630:	008001c4 	movi	r2,7
    4634:	a8c00115 	stw	r3,4(r21)
    4638:	dc800e15 	stw	r18,56(sp)
    463c:	dc400d15 	stw	r17,52(sp)
    4640:	1441c216 	blt	r2,r17,4d4c <___vfprintf_internal_r+0xc18>
    4644:	ad400204 	addi	r21,r21,8
    4648:	d9414e17 	ldw	r5,1336(sp)
    464c:	00802004 	movi	r2,128
    4650:	2880b126 	beq	r5,r2,4918 <___vfprintf_internal_r+0x7e4>
    4654:	d8c14617 	ldw	r3,1304(sp)
    4658:	19e1c83a 	sub	r16,r3,r7
    465c:	0400260e 	bge	zero,r16,46f8 <___vfprintf_internal_r+0x5c4>
    4660:	00800404 	movi	r2,16
    4664:	1403c90e 	bge	r2,r16,558c <___vfprintf_internal_r+0x1458>
    4668:	1027883a 	mov	r19,r2
    466c:	07000074 	movhi	fp,1
    4670:	e7135e84 	addi	fp,fp,19834
    4674:	050001c4 	movi	r20,7
    4678:	00000306 	br	4688 <___vfprintf_internal_r+0x554>
    467c:	843ffc04 	addi	r16,r16,-16
    4680:	ad400204 	addi	r21,r21,8
    4684:	9c00130e 	bge	r19,r16,46d4 <___vfprintf_internal_r+0x5a0>
    4688:	94800404 	addi	r18,r18,16
    468c:	8c400044 	addi	r17,r17,1
    4690:	af000015 	stw	fp,0(r21)
    4694:	acc00115 	stw	r19,4(r21)
    4698:	dc800e15 	stw	r18,56(sp)
    469c:	dc400d15 	stw	r17,52(sp)
    46a0:	a47ff60e 	bge	r20,r17,467c <___vfprintf_internal_r+0x548>
    46a4:	d9014f17 	ldw	r4,1340(sp)
    46a8:	b00b883a 	mov	r5,r22
    46ac:	d9800c04 	addi	r6,sp,48
    46b0:	d9c15115 	stw	r7,1348(sp)
    46b4:	00040dc0 	call	40dc <__sprint_r>
    46b8:	d9c15117 	ldw	r7,1348(sp)
    46bc:	1000551e 	bne	r2,zero,4814 <___vfprintf_internal_r+0x6e0>
    46c0:	843ffc04 	addi	r16,r16,-16
    46c4:	dc800e17 	ldw	r18,56(sp)
    46c8:	dc400d17 	ldw	r17,52(sp)
    46cc:	dd401904 	addi	r21,sp,100
    46d0:	9c3fed16 	blt	r19,r16,4688 <___vfprintf_internal_r+0x554>
    46d4:	9425883a 	add	r18,r18,r16
    46d8:	8c400044 	addi	r17,r17,1
    46dc:	008001c4 	movi	r2,7
    46e0:	af000015 	stw	fp,0(r21)
    46e4:	ac000115 	stw	r16,4(r21)
    46e8:	dc800e15 	stw	r18,56(sp)
    46ec:	dc400d15 	stw	r17,52(sp)
    46f0:	14418216 	blt	r2,r17,4cfc <___vfprintf_internal_r+0xbc8>
    46f4:	ad400204 	addi	r21,r21,8
    46f8:	d9014c17 	ldw	r4,1328(sp)
    46fc:	2080400c 	andi	r2,r4,256
    4700:	10004a1e 	bne	r2,zero,482c <___vfprintf_internal_r+0x6f8>
    4704:	d9414117 	ldw	r5,1284(sp)
    4708:	91e5883a 	add	r18,r18,r7
    470c:	8c400044 	addi	r17,r17,1
    4710:	008001c4 	movi	r2,7
    4714:	a9400015 	stw	r5,0(r21)
    4718:	a9c00115 	stw	r7,4(r21)
    471c:	dc800e15 	stw	r18,56(sp)
    4720:	dc400d15 	stw	r17,52(sp)
    4724:	14416716 	blt	r2,r17,4cc4 <___vfprintf_internal_r+0xb90>
    4728:	a8c00204 	addi	r3,r21,8
    472c:	d9814c17 	ldw	r6,1328(sp)
    4730:	3080010c 	andi	r2,r6,4
    4734:	10002826 	beq	r2,zero,47d8 <___vfprintf_internal_r+0x6a4>
    4738:	d8814a17 	ldw	r2,1320(sp)
    473c:	d9014517 	ldw	r4,1300(sp)
    4740:	1121c83a 	sub	r16,r2,r4
    4744:	0400240e 	bge	zero,r16,47d8 <___vfprintf_internal_r+0x6a4>
    4748:	00800404 	movi	r2,16
    474c:	14044f0e 	bge	r2,r16,588c <___vfprintf_internal_r+0x1758>
    4750:	dc400d17 	ldw	r17,52(sp)
    4754:	1027883a 	mov	r19,r2
    4758:	07000074 	movhi	fp,1
    475c:	e7136284 	addi	fp,fp,19850
    4760:	050001c4 	movi	r20,7
    4764:	00000306 	br	4774 <___vfprintf_internal_r+0x640>
    4768:	843ffc04 	addi	r16,r16,-16
    476c:	18c00204 	addi	r3,r3,8
    4770:	9c00110e 	bge	r19,r16,47b8 <___vfprintf_internal_r+0x684>
    4774:	94800404 	addi	r18,r18,16
    4778:	8c400044 	addi	r17,r17,1
    477c:	1f000015 	stw	fp,0(r3)
    4780:	1cc00115 	stw	r19,4(r3)
    4784:	dc800e15 	stw	r18,56(sp)
    4788:	dc400d15 	stw	r17,52(sp)
    478c:	a47ff60e 	bge	r20,r17,4768 <___vfprintf_internal_r+0x634>
    4790:	d9014f17 	ldw	r4,1340(sp)
    4794:	b00b883a 	mov	r5,r22
    4798:	d9800c04 	addi	r6,sp,48
    479c:	00040dc0 	call	40dc <__sprint_r>
    47a0:	10001c1e 	bne	r2,zero,4814 <___vfprintf_internal_r+0x6e0>
    47a4:	843ffc04 	addi	r16,r16,-16
    47a8:	dc800e17 	ldw	r18,56(sp)
    47ac:	dc400d17 	ldw	r17,52(sp)
    47b0:	d8c01904 	addi	r3,sp,100
    47b4:	9c3fef16 	blt	r19,r16,4774 <___vfprintf_internal_r+0x640>
    47b8:	9425883a 	add	r18,r18,r16
    47bc:	8c400044 	addi	r17,r17,1
    47c0:	008001c4 	movi	r2,7
    47c4:	1f000015 	stw	fp,0(r3)
    47c8:	1c000115 	stw	r16,4(r3)
    47cc:	dc800e15 	stw	r18,56(sp)
    47d0:	dc400d15 	stw	r17,52(sp)
    47d4:	1440cb16 	blt	r2,r17,4b04 <___vfprintf_internal_r+0x9d0>
    47d8:	d8814a17 	ldw	r2,1320(sp)
    47dc:	d9414517 	ldw	r5,1300(sp)
    47e0:	1140010e 	bge	r2,r5,47e8 <___vfprintf_internal_r+0x6b4>
    47e4:	2805883a 	mov	r2,r5
    47e8:	d9814b17 	ldw	r6,1324(sp)
    47ec:	308d883a 	add	r6,r6,r2
    47f0:	d9814b15 	stw	r6,1324(sp)
    47f4:	90013b1e 	bne	r18,zero,4ce4 <___vfprintf_internal_r+0xbb0>
    47f8:	d9c14017 	ldw	r7,1280(sp)
    47fc:	dd401904 	addi	r21,sp,100
    4800:	d8000d15 	stw	zero,52(sp)
    4804:	003ea706 	br	42a4 <___vfprintf_internal_r+0x170>
    4808:	d8800e17 	ldw	r2,56(sp)
    480c:	10053f1e 	bne	r2,zero,5d0c <___vfprintf_internal_r+0x1bd8>
    4810:	d8000d15 	stw	zero,52(sp)
    4814:	b080030b 	ldhu	r2,12(r22)
    4818:	1080100c 	andi	r2,r2,64
    481c:	103e8726 	beq	r2,zero,423c <___vfprintf_internal_r+0x108>
    4820:	00bfffc4 	movi	r2,-1
    4824:	d8814b15 	stw	r2,1324(sp)
    4828:	003e8406 	br	423c <___vfprintf_internal_r+0x108>
    482c:	d9814d17 	ldw	r6,1332(sp)
    4830:	00801944 	movi	r2,101
    4834:	11806e16 	blt	r2,r6,49f0 <___vfprintf_internal_r+0x8bc>
    4838:	d9414717 	ldw	r5,1308(sp)
    483c:	00c00044 	movi	r3,1
    4840:	1943430e 	bge	r3,r5,5550 <___vfprintf_internal_r+0x141c>
    4844:	d8814117 	ldw	r2,1284(sp)
    4848:	94800044 	addi	r18,r18,1
    484c:	8c400044 	addi	r17,r17,1
    4850:	a8800015 	stw	r2,0(r21)
    4854:	008001c4 	movi	r2,7
    4858:	a8c00115 	stw	r3,4(r21)
    485c:	dc800e15 	stw	r18,56(sp)
    4860:	dc400d15 	stw	r17,52(sp)
    4864:	1441ca16 	blt	r2,r17,4f90 <___vfprintf_internal_r+0xe5c>
    4868:	a8c00204 	addi	r3,r21,8
    486c:	d9014917 	ldw	r4,1316(sp)
    4870:	00800044 	movi	r2,1
    4874:	94800044 	addi	r18,r18,1
    4878:	8c400044 	addi	r17,r17,1
    487c:	18800115 	stw	r2,4(r3)
    4880:	008001c4 	movi	r2,7
    4884:	19000015 	stw	r4,0(r3)
    4888:	dc800e15 	stw	r18,56(sp)
    488c:	dc400d15 	stw	r17,52(sp)
    4890:	1441b616 	blt	r2,r17,4f6c <___vfprintf_internal_r+0xe38>
    4894:	1cc00204 	addi	r19,r3,8
    4898:	d9014217 	ldw	r4,1288(sp)
    489c:	d9414317 	ldw	r5,1292(sp)
    48a0:	000d883a 	mov	r6,zero
    48a4:	000f883a 	mov	r7,zero
    48a8:	0010a480 	call	10a48 <__nedf2>
    48ac:	10017426 	beq	r2,zero,4e80 <___vfprintf_internal_r+0xd4c>
    48b0:	d9414717 	ldw	r5,1308(sp)
    48b4:	d9814117 	ldw	r6,1284(sp)
    48b8:	8c400044 	addi	r17,r17,1
    48bc:	2c85883a 	add	r2,r5,r18
    48c0:	14bfffc4 	addi	r18,r2,-1
    48c4:	28bfffc4 	addi	r2,r5,-1
    48c8:	30c00044 	addi	r3,r6,1
    48cc:	98800115 	stw	r2,4(r19)
    48d0:	008001c4 	movi	r2,7
    48d4:	98c00015 	stw	r3,0(r19)
    48d8:	dc800e15 	stw	r18,56(sp)
    48dc:	dc400d15 	stw	r17,52(sp)
    48e0:	14418e16 	blt	r2,r17,4f1c <___vfprintf_internal_r+0xde8>
    48e4:	9cc00204 	addi	r19,r19,8
    48e8:	d9414817 	ldw	r5,1312(sp)
    48ec:	d8800804 	addi	r2,sp,32
    48f0:	8c400044 	addi	r17,r17,1
    48f4:	9165883a 	add	r18,r18,r5
    48f8:	98800015 	stw	r2,0(r19)
    48fc:	008001c4 	movi	r2,7
    4900:	99400115 	stw	r5,4(r19)
    4904:	dc800e15 	stw	r18,56(sp)
    4908:	dc400d15 	stw	r17,52(sp)
    490c:	1440ed16 	blt	r2,r17,4cc4 <___vfprintf_internal_r+0xb90>
    4910:	98c00204 	addi	r3,r19,8
    4914:	003f8506 	br	472c <___vfprintf_internal_r+0x5f8>
    4918:	d9814a17 	ldw	r6,1320(sp)
    491c:	d8814517 	ldw	r2,1300(sp)
    4920:	30a1c83a 	sub	r16,r6,r2
    4924:	043f4b0e 	bge	zero,r16,4654 <___vfprintf_internal_r+0x520>
    4928:	00800404 	movi	r2,16
    492c:	1404340e 	bge	r2,r16,5a00 <___vfprintf_internal_r+0x18cc>
    4930:	1027883a 	mov	r19,r2
    4934:	07000074 	movhi	fp,1
    4938:	e7135e84 	addi	fp,fp,19834
    493c:	050001c4 	movi	r20,7
    4940:	00000306 	br	4950 <___vfprintf_internal_r+0x81c>
    4944:	843ffc04 	addi	r16,r16,-16
    4948:	ad400204 	addi	r21,r21,8
    494c:	9c00130e 	bge	r19,r16,499c <___vfprintf_internal_r+0x868>
    4950:	94800404 	addi	r18,r18,16
    4954:	8c400044 	addi	r17,r17,1
    4958:	af000015 	stw	fp,0(r21)
    495c:	acc00115 	stw	r19,4(r21)
    4960:	dc800e15 	stw	r18,56(sp)
    4964:	dc400d15 	stw	r17,52(sp)
    4968:	a47ff60e 	bge	r20,r17,4944 <___vfprintf_internal_r+0x810>
    496c:	d9014f17 	ldw	r4,1340(sp)
    4970:	b00b883a 	mov	r5,r22
    4974:	d9800c04 	addi	r6,sp,48
    4978:	d9c15115 	stw	r7,1348(sp)
    497c:	00040dc0 	call	40dc <__sprint_r>
    4980:	d9c15117 	ldw	r7,1348(sp)
    4984:	103fa31e 	bne	r2,zero,4814 <___vfprintf_internal_r+0x6e0>
    4988:	843ffc04 	addi	r16,r16,-16
    498c:	dc800e17 	ldw	r18,56(sp)
    4990:	dc400d17 	ldw	r17,52(sp)
    4994:	dd401904 	addi	r21,sp,100
    4998:	9c3fed16 	blt	r19,r16,4950 <___vfprintf_internal_r+0x81c>
    499c:	9425883a 	add	r18,r18,r16
    49a0:	8c400044 	addi	r17,r17,1
    49a4:	008001c4 	movi	r2,7
    49a8:	af000015 	stw	fp,0(r21)
    49ac:	ac000115 	stw	r16,4(r21)
    49b0:	dc800e15 	stw	r18,56(sp)
    49b4:	dc400d15 	stw	r17,52(sp)
    49b8:	14416116 	blt	r2,r17,4f40 <___vfprintf_internal_r+0xe0c>
    49bc:	ad400204 	addi	r21,r21,8
    49c0:	003f2406 	br	4654 <___vfprintf_internal_r+0x520>
    49c4:	d9014f17 	ldw	r4,1340(sp)
    49c8:	0002a880 	call	2a88 <__sinit>
    49cc:	d9c15117 	ldw	r7,1348(sp)
    49d0:	003def06 	br	4190 <___vfprintf_internal_r+0x5c>
    49d4:	d9014f17 	ldw	r4,1340(sp)
    49d8:	b00b883a 	mov	r5,r22
    49dc:	d9c15115 	stw	r7,1348(sp)
    49e0:	00077fc0 	call	77fc <__swsetup_r>
    49e4:	d9c15117 	ldw	r7,1348(sp)
    49e8:	103dee26 	beq	r2,zero,41a4 <___vfprintf_internal_r+0x70>
    49ec:	003f8c06 	br	4820 <___vfprintf_internal_r+0x6ec>
    49f0:	d9014217 	ldw	r4,1288(sp)
    49f4:	d9414317 	ldw	r5,1292(sp)
    49f8:	000d883a 	mov	r6,zero
    49fc:	000f883a 	mov	r7,zero
    4a00:	00109c00 	call	109c0 <__eqdf2>
    4a04:	1000f21e 	bne	r2,zero,4dd0 <___vfprintf_internal_r+0xc9c>
    4a08:	00800074 	movhi	r2,1
    4a0c:	10935e04 	addi	r2,r2,19832
    4a10:	94800044 	addi	r18,r18,1
    4a14:	8c400044 	addi	r17,r17,1
    4a18:	a8800015 	stw	r2,0(r21)
    4a1c:	00c00044 	movi	r3,1
    4a20:	008001c4 	movi	r2,7
    4a24:	a8c00115 	stw	r3,4(r21)
    4a28:	dc800e15 	stw	r18,56(sp)
    4a2c:	dc400d15 	stw	r17,52(sp)
    4a30:	1442fa16 	blt	r2,r17,561c <___vfprintf_internal_r+0x14e8>
    4a34:	a8c00204 	addi	r3,r21,8
    4a38:	d8800517 	ldw	r2,20(sp)
    4a3c:	d9014717 	ldw	r4,1308(sp)
    4a40:	11015c0e 	bge	r2,r4,4fb4 <___vfprintf_internal_r+0xe80>
    4a44:	dc400d17 	ldw	r17,52(sp)
    4a48:	d9814917 	ldw	r6,1316(sp)
    4a4c:	00800044 	movi	r2,1
    4a50:	94800044 	addi	r18,r18,1
    4a54:	8c400044 	addi	r17,r17,1
    4a58:	18800115 	stw	r2,4(r3)
    4a5c:	008001c4 	movi	r2,7
    4a60:	19800015 	stw	r6,0(r3)
    4a64:	dc800e15 	stw	r18,56(sp)
    4a68:	dc400d15 	stw	r17,52(sp)
    4a6c:	14431016 	blt	r2,r17,56b0 <___vfprintf_internal_r+0x157c>
    4a70:	18c00204 	addi	r3,r3,8
    4a74:	d8814717 	ldw	r2,1308(sp)
    4a78:	143fffc4 	addi	r16,r2,-1
    4a7c:	043f2b0e 	bge	zero,r16,472c <___vfprintf_internal_r+0x5f8>
    4a80:	00800404 	movi	r2,16
    4a84:	1402a20e 	bge	r2,r16,5510 <___vfprintf_internal_r+0x13dc>
    4a88:	dc400d17 	ldw	r17,52(sp)
    4a8c:	1027883a 	mov	r19,r2
    4a90:	07000074 	movhi	fp,1
    4a94:	e7135e84 	addi	fp,fp,19834
    4a98:	050001c4 	movi	r20,7
    4a9c:	00000306 	br	4aac <___vfprintf_internal_r+0x978>
    4aa0:	18c00204 	addi	r3,r3,8
    4aa4:	843ffc04 	addi	r16,r16,-16
    4aa8:	9c029c0e 	bge	r19,r16,551c <___vfprintf_internal_r+0x13e8>
    4aac:	94800404 	addi	r18,r18,16
    4ab0:	8c400044 	addi	r17,r17,1
    4ab4:	1f000015 	stw	fp,0(r3)
    4ab8:	1cc00115 	stw	r19,4(r3)
    4abc:	dc800e15 	stw	r18,56(sp)
    4ac0:	dc400d15 	stw	r17,52(sp)
    4ac4:	a47ff60e 	bge	r20,r17,4aa0 <___vfprintf_internal_r+0x96c>
    4ac8:	d9014f17 	ldw	r4,1340(sp)
    4acc:	b00b883a 	mov	r5,r22
    4ad0:	d9800c04 	addi	r6,sp,48
    4ad4:	00040dc0 	call	40dc <__sprint_r>
    4ad8:	103f4e1e 	bne	r2,zero,4814 <___vfprintf_internal_r+0x6e0>
    4adc:	dc800e17 	ldw	r18,56(sp)
    4ae0:	dc400d17 	ldw	r17,52(sp)
    4ae4:	d8c01904 	addi	r3,sp,100
    4ae8:	003fee06 	br	4aa4 <___vfprintf_internal_r+0x970>
    4aec:	d8802c0b 	ldhu	r2,176(sp)
    4af0:	00ffffc4 	movi	r3,-1
    4af4:	d8c14b15 	stw	r3,1324(sp)
    4af8:	1080100c 	andi	r2,r2,64
    4afc:	103dcc1e 	bne	r2,zero,4230 <___vfprintf_internal_r+0xfc>
    4b00:	003dce06 	br	423c <___vfprintf_internal_r+0x108>
    4b04:	d9014f17 	ldw	r4,1340(sp)
    4b08:	b00b883a 	mov	r5,r22
    4b0c:	d9800c04 	addi	r6,sp,48
    4b10:	00040dc0 	call	40dc <__sprint_r>
    4b14:	103f3f1e 	bne	r2,zero,4814 <___vfprintf_internal_r+0x6e0>
    4b18:	dc800e17 	ldw	r18,56(sp)
    4b1c:	003f2e06 	br	47d8 <___vfprintf_internal_r+0x6a4>
    4b20:	d9414c17 	ldw	r5,1328(sp)
    4b24:	29400414 	ori	r5,r5,16
    4b28:	d9414c15 	stw	r5,1328(sp)
    4b2c:	d9814c17 	ldw	r6,1328(sp)
    4b30:	3080080c 	andi	r2,r6,32
    4b34:	10014f1e 	bne	r2,zero,5074 <___vfprintf_internal_r+0xf40>
    4b38:	d8c14c17 	ldw	r3,1328(sp)
    4b3c:	1880040c 	andi	r2,r3,16
    4b40:	1002ea1e 	bne	r2,zero,56ec <___vfprintf_internal_r+0x15b8>
    4b44:	d9014c17 	ldw	r4,1328(sp)
    4b48:	2080100c 	andi	r2,r4,64
    4b4c:	1002e726 	beq	r2,zero,56ec <___vfprintf_internal_r+0x15b8>
    4b50:	3880000f 	ldh	r2,0(r7)
    4b54:	39c00104 	addi	r7,r7,4
    4b58:	d9c14015 	stw	r7,1280(sp)
    4b5c:	1023d7fa 	srai	r17,r2,31
    4b60:	1021883a 	mov	r16,r2
    4b64:	88037216 	blt	r17,zero,5930 <___vfprintf_internal_r+0x17fc>
    4b68:	01000044 	movi	r4,1
    4b6c:	98000416 	blt	r19,zero,4b80 <___vfprintf_internal_r+0xa4c>
    4b70:	d8c14c17 	ldw	r3,1328(sp)
    4b74:	00bfdfc4 	movi	r2,-129
    4b78:	1886703a 	and	r3,r3,r2
    4b7c:	d8c14c15 	stw	r3,1328(sp)
    4b80:	8444b03a 	or	r2,r16,r17
    4b84:	1002261e 	bne	r2,zero,5420 <___vfprintf_internal_r+0x12ec>
    4b88:	9802251e 	bne	r19,zero,5420 <___vfprintf_internal_r+0x12ec>
    4b8c:	20803fcc 	andi	r2,r4,255
    4b90:	10029b26 	beq	r2,zero,5600 <___vfprintf_internal_r+0x14cc>
    4b94:	d8c01904 	addi	r3,sp,100
    4b98:	dd000f04 	addi	r20,sp,60
    4b9c:	d8c14115 	stw	r3,1284(sp)
    4ba0:	d8c14117 	ldw	r3,1284(sp)
    4ba4:	dcc14515 	stw	r19,1300(sp)
    4ba8:	a0c5c83a 	sub	r2,r20,r3
    4bac:	11c00a04 	addi	r7,r2,40
    4bb0:	99c0010e 	bge	r19,r7,4bb8 <___vfprintf_internal_r+0xa84>
    4bb4:	d9c14515 	stw	r7,1300(sp)
    4bb8:	dcc14615 	stw	r19,1304(sp)
    4bbc:	d8800407 	ldb	r2,16(sp)
    4bc0:	103e4c26 	beq	r2,zero,44f4 <___vfprintf_internal_r+0x3c0>
    4bc4:	d8814517 	ldw	r2,1300(sp)
    4bc8:	10800044 	addi	r2,r2,1
    4bcc:	d8814515 	stw	r2,1300(sp)
    4bd0:	003e4806 	br	44f4 <___vfprintf_internal_r+0x3c0>
    4bd4:	d9814c17 	ldw	r6,1328(sp)
    4bd8:	31800414 	ori	r6,r6,16
    4bdc:	d9814c15 	stw	r6,1328(sp)
    4be0:	d8c14c17 	ldw	r3,1328(sp)
