ARM GAS  C:\Users\HENRIC~1\AppData\Local\Temp\ccL0852m.s 			page 1


   1              		.syntax unified
   2              		.cpu cortex-m3
   3              		.fpu softvfp
   4              		.eabi_attribute 20, 1
   5              		.eabi_attribute 21, 1
   6              		.eabi_attribute 23, 3
   7              		.eabi_attribute 24, 1
   8              		.eabi_attribute 25, 1
   9              		.eabi_attribute 26, 1
  10              		.eabi_attribute 30, 6
  11              		.eabi_attribute 34, 1
  12              		.eabi_attribute 18, 4
  13              		.thumb
  14              		.syntax unified
  15              		.file	"CapSense_CSD_CSHL.c"
  16              		.text
  17              	.Ltext0:
  18              		.cfi_sections	.debug_frame
  19              		.comm	CapSense_CSD_sensorBaseline,14,4
  20              		.comm	CapSense_CSD_sensorBaselineLow,7,4
  21              		.comm	CapSense_CSD_sensorSignal,14,4
  22              		.comm	CapSense_CSD_sensorOnMask,1,4
  23              		.comm	CapSense_CSD_lowBaselineResetCnt,7,4
  24              		.global	CapSense_CSD_fingerThreshold
  25              		.section	.rodata
  26              		.align	2
  27              		.type	CapSense_CSD_fingerThreshold, %object
  28              		.size	CapSense_CSD_fingerThreshold, 6
  29              	CapSense_CSD_fingerThreshold:
  30 0000 5400     		.short	84
  31 0002 7C00     		.short	124
  32 0004 4200     		.short	66
  33              		.global	CapSense_CSD_noiseThreshold
  34 0006 0000     		.align	2
  35              		.type	CapSense_CSD_noiseThreshold, %object
  36              		.size	CapSense_CSD_noiseThreshold, 6
  37              	CapSense_CSD_noiseThreshold:
  38 0008 2A00     		.short	42
  39 000a 2D00     		.short	45
  40 000c 2100     		.short	33
  41              		.global	CapSense_CSD_hysteresis
  42 000e 0000     		.align	2
  43              		.type	CapSense_CSD_hysteresis, %object
  44              		.size	CapSense_CSD_hysteresis, 6
  45              	CapSense_CSD_hysteresis:
  46 0010 0000     		.short	0
  47 0012 1200     		.short	18
  48 0014 0900     		.short	9
  49              		.global	CapSense_CSD_debounce
  50 0016 0000     		.align	2
  51              		.type	CapSense_CSD_debounce, %object
  52              		.size	CapSense_CSD_debounce, 3
  53              	CapSense_CSD_debounce:
  54 0018 01       		.byte	1
  55 0019 05       		.byte	5
  56 001a 05       		.byte	5
  57              		.global	CapSense_CSD_debounceCounter
ARM GAS  C:\Users\HENRIC~1\AppData\Local\Temp\ccL0852m.s 			page 2


  58              		.bss
  59              		.align	2
  60              		.type	CapSense_CSD_debounceCounter, %object
  61              		.size	CapSense_CSD_debounceCounter, 3
  62              	CapSense_CSD_debounceCounter:
  63 0000 000000   		.space	3
  64              		.global	CapSense_CSD_rawDataIndex
  65              		.section	.rodata
  66 001b 00       		.align	2
  67              		.type	CapSense_CSD_rawDataIndex, %object
  68              		.size	CapSense_CSD_rawDataIndex, 3
  69              	CapSense_CSD_rawDataIndex:
  70 001c 02       		.byte	2
  71 001d 00       		.byte	0
  72 001e 01       		.byte	1
  73              		.global	CapSense_CSD_numberOfSensors
  74 001f 00       		.align	2
  75              		.type	CapSense_CSD_numberOfSensors, %object
  76              		.size	CapSense_CSD_numberOfSensors, 3
  77              	CapSense_CSD_numberOfSensors:
  78 0020 05       		.byte	5
  79 0021 01       		.byte	1
  80 0022 01       		.byte	1
  81              		.global	CapSense_CSD_centroidMult
  82 0023 00       		.align	2
  83              		.type	CapSense_CSD_centroidMult, %object
  84              		.size	CapSense_CSD_centroidMult, 2
  85              	CapSense_CSD_centroidMult:
  86 0024 0019     		.short	6400
  87              		.section	.text.CapSense_CSD_BaseInit,"ax",%progbits
  88              		.align	2
  89              		.global	CapSense_CSD_BaseInit
  90              		.thumb
  91              		.thumb_func
  92              		.type	CapSense_CSD_BaseInit, %function
  93              	CapSense_CSD_BaseInit:
  94              	.LFB0:
  95              		.file 1 "Generated_Source\\PSoC5\\CapSense_CSD_CSHL.c"
   1:Generated_Source\PSoC5/CapSense_CSD_CSHL.c **** /*******************************************************************************
   2:Generated_Source\PSoC5/CapSense_CSD_CSHL.c **** * File Name: CapSense_CSD_CSHL.c
   3:Generated_Source\PSoC5/CapSense_CSD_CSHL.c **** * Version 3.50
   4:Generated_Source\PSoC5/CapSense_CSD_CSHL.c **** *
   5:Generated_Source\PSoC5/CapSense_CSD_CSHL.c **** * Description:
   6:Generated_Source\PSoC5/CapSense_CSD_CSHL.c **** *  This file provides the source code to the High Level APIs for the CapSesne
   7:Generated_Source\PSoC5/CapSense_CSD_CSHL.c **** *  CSD component.
   8:Generated_Source\PSoC5/CapSense_CSD_CSHL.c **** *
   9:Generated_Source\PSoC5/CapSense_CSD_CSHL.c **** * Note:
  10:Generated_Source\PSoC5/CapSense_CSD_CSHL.c **** *
  11:Generated_Source\PSoC5/CapSense_CSD_CSHL.c **** ********************************************************************************
  12:Generated_Source\PSoC5/CapSense_CSD_CSHL.c **** * Copyright 2008-2013, Cypress Semiconductor Corporation.  All rights reserved.
  13:Generated_Source\PSoC5/CapSense_CSD_CSHL.c **** * You may use this file only in accordance with the license, terms, conditions,
  14:Generated_Source\PSoC5/CapSense_CSD_CSHL.c **** * disclaimers, and limitations in the end user license agreement accompanying
  15:Generated_Source\PSoC5/CapSense_CSD_CSHL.c **** * the software package with which this file was provided.
  16:Generated_Source\PSoC5/CapSense_CSD_CSHL.c **** *******************************************************************************/
  17:Generated_Source\PSoC5/CapSense_CSD_CSHL.c **** 
  18:Generated_Source\PSoC5/CapSense_CSD_CSHL.c **** #include "CapSense_CSD_CSHL.h"
  19:Generated_Source\PSoC5/CapSense_CSD_CSHL.c **** 
ARM GAS  C:\Users\HENRIC~1\AppData\Local\Temp\ccL0852m.s 			page 3


  20:Generated_Source\PSoC5/CapSense_CSD_CSHL.c **** /* Storage of filters data */
  21:Generated_Source\PSoC5/CapSense_CSD_CSHL.c **** #if ( (CapSense_CSD_RAW_FILTER_MASK & CapSense_CSD_MEDIAN_FILTER) | \
  22:Generated_Source\PSoC5/CapSense_CSD_CSHL.c ****       (CapSense_CSD_RAW_FILTER_MASK & CapSense_CSD_AVERAGING_FILTER) )
  23:Generated_Source\PSoC5/CapSense_CSD_CSHL.c **** 
  24:Generated_Source\PSoC5/CapSense_CSD_CSHL.c ****     uint16 CapSense_CSD_rawFilterData1[CapSense_CSD_TOTAL_SENSOR_COUNT];
  25:Generated_Source\PSoC5/CapSense_CSD_CSHL.c ****     uint16 CapSense_CSD_rawFilterData2[CapSense_CSD_TOTAL_SENSOR_COUNT];
  26:Generated_Source\PSoC5/CapSense_CSD_CSHL.c **** 
  27:Generated_Source\PSoC5/CapSense_CSD_CSHL.c **** #elif ( (CapSense_CSD_RAW_FILTER_MASK & CapSense_CSD_IIR2_FILTER)   | \
  28:Generated_Source\PSoC5/CapSense_CSD_CSHL.c ****         (CapSense_CSD_RAW_FILTER_MASK & CapSense_CSD_IIR4_FILTER)   | \
  29:Generated_Source\PSoC5/CapSense_CSD_CSHL.c ****         (CapSense_CSD_RAW_FILTER_MASK & CapSense_CSD_JITTER_FILTER) | \
  30:Generated_Source\PSoC5/CapSense_CSD_CSHL.c ****         (CapSense_CSD_RAW_FILTER_MASK & CapSense_CSD_IIR8_FILTER)   | \
  31:Generated_Source\PSoC5/CapSense_CSD_CSHL.c ****         (CapSense_CSD_RAW_FILTER_MASK & CapSense_CSD_IIR16_FILTER) )
  32:Generated_Source\PSoC5/CapSense_CSD_CSHL.c ****         
  33:Generated_Source\PSoC5/CapSense_CSD_CSHL.c ****     uint16 CapSense_CSD_rawFilterData1[CapSense_CSD_TOTAL_SENSOR_COUNT];
  34:Generated_Source\PSoC5/CapSense_CSD_CSHL.c **** 
  35:Generated_Source\PSoC5/CapSense_CSD_CSHL.c **** #else
  36:Generated_Source\PSoC5/CapSense_CSD_CSHL.c ****     /* No Raw filters */
  37:Generated_Source\PSoC5/CapSense_CSD_CSHL.c **** #endif  /* ( (CapSense_CSD_RAW_FILTER_MASK & CapSense_CSD_MEDIAN_FILTER) || \
  38:Generated_Source\PSoC5/CapSense_CSD_CSHL.c ****         *    (CapSense_CSD_RAW_FILTER_MASK & CapSense_CSD_AVERAGING_FILTER) )
  39:Generated_Source\PSoC5/CapSense_CSD_CSHL.c ****         */
  40:Generated_Source\PSoC5/CapSense_CSD_CSHL.c **** 
  41:Generated_Source\PSoC5/CapSense_CSD_CSHL.c **** uint16 CapSense_CSD_sensorBaseline[CapSense_CSD_TOTAL_SENSOR_COUNT];
  42:Generated_Source\PSoC5/CapSense_CSD_CSHL.c **** uint8 CapSense_CSD_sensorBaselineLow[CapSense_CSD_TOTAL_SENSOR_COUNT];
  43:Generated_Source\PSoC5/CapSense_CSD_CSHL.c **** uint16 CapSense_CSD_sensorSignal[CapSense_CSD_TOTAL_SENSOR_COUNT];
  44:Generated_Source\PSoC5/CapSense_CSD_CSHL.c **** uint8 CapSense_CSD_sensorOnMask[(((CapSense_CSD_TOTAL_SENSOR_COUNT - 1u) / 8u) + 1u)];
  45:Generated_Source\PSoC5/CapSense_CSD_CSHL.c **** 
  46:Generated_Source\PSoC5/CapSense_CSD_CSHL.c **** uint8 CapSense_CSD_lowBaselineResetCnt[CapSense_CSD_TOTAL_SENSOR_COUNT];
  47:Generated_Source\PSoC5/CapSense_CSD_CSHL.c **** 
  48:Generated_Source\PSoC5/CapSense_CSD_CSHL.c **** const uint16 CYCODE CapSense_CSD_fingerThreshold[] = {
  49:Generated_Source\PSoC5/CapSense_CSD_CSHL.c ****     84u, 124u, 66u, 
  50:Generated_Source\PSoC5/CapSense_CSD_CSHL.c **** };
  51:Generated_Source\PSoC5/CapSense_CSD_CSHL.c **** 
  52:Generated_Source\PSoC5/CapSense_CSD_CSHL.c **** const uint16 CYCODE CapSense_CSD_noiseThreshold[] = {
  53:Generated_Source\PSoC5/CapSense_CSD_CSHL.c ****     42u, 45u, 33u, 
  54:Generated_Source\PSoC5/CapSense_CSD_CSHL.c **** };
  55:Generated_Source\PSoC5/CapSense_CSD_CSHL.c **** 
  56:Generated_Source\PSoC5/CapSense_CSD_CSHL.c **** const uint16 CYCODE CapSense_CSD_hysteresis[] = {
  57:Generated_Source\PSoC5/CapSense_CSD_CSHL.c ****     0u, 18u, 9u, 
  58:Generated_Source\PSoC5/CapSense_CSD_CSHL.c **** };
  59:Generated_Source\PSoC5/CapSense_CSD_CSHL.c **** 
  60:Generated_Source\PSoC5/CapSense_CSD_CSHL.c **** const uint8 CYCODE CapSense_CSD_debounce[] = {
  61:Generated_Source\PSoC5/CapSense_CSD_CSHL.c ****     1u, 5u, 5u, 
  62:Generated_Source\PSoC5/CapSense_CSD_CSHL.c **** };
  63:Generated_Source\PSoC5/CapSense_CSD_CSHL.c **** 
  64:Generated_Source\PSoC5/CapSense_CSD_CSHL.c **** uint8 CapSense_CSD_debounceCounter[] = {
  65:Generated_Source\PSoC5/CapSense_CSD_CSHL.c ****     0u, 0u, 0u, 
  66:Generated_Source\PSoC5/CapSense_CSD_CSHL.c **** };
  67:Generated_Source\PSoC5/CapSense_CSD_CSHL.c **** 
  68:Generated_Source\PSoC5/CapSense_CSD_CSHL.c **** const uint8 CYCODE CapSense_CSD_rawDataIndex[] = {
  69:Generated_Source\PSoC5/CapSense_CSD_CSHL.c ****     2u, /* LinearSlider0__LS */
  70:Generated_Source\PSoC5/CapSense_CSD_CSHL.c ****     0u, /* Button0__BTN */
  71:Generated_Source\PSoC5/CapSense_CSD_CSHL.c ****     1u, /* Button1__BTN */
  72:Generated_Source\PSoC5/CapSense_CSD_CSHL.c **** 
  73:Generated_Source\PSoC5/CapSense_CSD_CSHL.c **** };
  74:Generated_Source\PSoC5/CapSense_CSD_CSHL.c **** 
  75:Generated_Source\PSoC5/CapSense_CSD_CSHL.c **** const uint8 CYCODE CapSense_CSD_numberOfSensors[] = {
  76:Generated_Source\PSoC5/CapSense_CSD_CSHL.c ****     5u, /* LinearSlider0__LS */
ARM GAS  C:\Users\HENRIC~1\AppData\Local\Temp\ccL0852m.s 			page 4


  77:Generated_Source\PSoC5/CapSense_CSD_CSHL.c ****     1u, /* Button0__BTN */
  78:Generated_Source\PSoC5/CapSense_CSD_CSHL.c ****     1u, /* Button1__BTN */
  79:Generated_Source\PSoC5/CapSense_CSD_CSHL.c **** 
  80:Generated_Source\PSoC5/CapSense_CSD_CSHL.c **** };
  81:Generated_Source\PSoC5/CapSense_CSD_CSHL.c **** 
  82:Generated_Source\PSoC5/CapSense_CSD_CSHL.c **** const uint16 CYCODE CapSense_CSD_centroidMult[] = {
  83:Generated_Source\PSoC5/CapSense_CSD_CSHL.c ****     6400u, 
  84:Generated_Source\PSoC5/CapSense_CSD_CSHL.c **** };
  85:Generated_Source\PSoC5/CapSense_CSD_CSHL.c **** 
  86:Generated_Source\PSoC5/CapSense_CSD_CSHL.c **** 
  87:Generated_Source\PSoC5/CapSense_CSD_CSHL.c **** 
  88:Generated_Source\PSoC5/CapSense_CSD_CSHL.c **** 
  89:Generated_Source\PSoC5/CapSense_CSD_CSHL.c **** /*******************************************************************************
  90:Generated_Source\PSoC5/CapSense_CSD_CSHL.c **** * Function Name: CapSense_CSD_BaseInit
  91:Generated_Source\PSoC5/CapSense_CSD_CSHL.c **** ********************************************************************************
  92:Generated_Source\PSoC5/CapSense_CSD_CSHL.c **** *
  93:Generated_Source\PSoC5/CapSense_CSD_CSHL.c **** * Summary:
  94:Generated_Source\PSoC5/CapSense_CSD_CSHL.c **** *  Loads the CapSense_CSD_sensorBaseline[sensor] array element with an 
  95:Generated_Source\PSoC5/CapSense_CSD_CSHL.c **** *  initial value which is equal to raw count value. 
  96:Generated_Source\PSoC5/CapSense_CSD_CSHL.c **** *  Resets to zero CapSense_CSD_sensorBaselineLow[sensor] and 
  97:Generated_Source\PSoC5/CapSense_CSD_CSHL.c **** *  CapSense_CSD_sensorSignal[sensor] array element.
  98:Generated_Source\PSoC5/CapSense_CSD_CSHL.c **** *  Loads CapSense_CSD_debounceCounter[sensor] array element with initial 
  99:Generated_Source\PSoC5/CapSense_CSD_CSHL.c **** *  value equal CapSense_CSD_debounce[].
 100:Generated_Source\PSoC5/CapSense_CSD_CSHL.c **** *  Loads the CapSense_CSD_rawFilterData2[sensor] and 
 101:Generated_Source\PSoC5/CapSense_CSD_CSHL.c **** *  CapSense_CSD_rawFilterData2[sensor] array element with an 
 102:Generated_Source\PSoC5/CapSense_CSD_CSHL.c **** *  initial value which is equal raw count value if raw data filter is enabled.
 103:Generated_Source\PSoC5/CapSense_CSD_CSHL.c **** *
 104:Generated_Source\PSoC5/CapSense_CSD_CSHL.c **** * Parameters:
 105:Generated_Source\PSoC5/CapSense_CSD_CSHL.c **** *  sensor:  Sensor number.
 106:Generated_Source\PSoC5/CapSense_CSD_CSHL.c **** *
 107:Generated_Source\PSoC5/CapSense_CSD_CSHL.c **** * Return:
 108:Generated_Source\PSoC5/CapSense_CSD_CSHL.c **** *  None
 109:Generated_Source\PSoC5/CapSense_CSD_CSHL.c **** *
 110:Generated_Source\PSoC5/CapSense_CSD_CSHL.c **** * Global Variables:
 111:Generated_Source\PSoC5/CapSense_CSD_CSHL.c **** *  CapSense_CSD_sensorBaseline[]    - used to store baseline value.
 112:Generated_Source\PSoC5/CapSense_CSD_CSHL.c **** *  CapSense_CSD_sensorBaselineLow[] - used to store fraction byte of 
 113:Generated_Source\PSoC5/CapSense_CSD_CSHL.c **** *  baseline value.
 114:Generated_Source\PSoC5/CapSense_CSD_CSHL.c **** *  CapSense_CSD_sensorSignal[]      - used to store diffence between 
 115:Generated_Source\PSoC5/CapSense_CSD_CSHL.c **** *  current value of raw data and previous value of baseline.
 116:Generated_Source\PSoC5/CapSense_CSD_CSHL.c **** *  CapSense_CSD_debounceCounter[]   - used to store current debounce 
 117:Generated_Source\PSoC5/CapSense_CSD_CSHL.c **** *  counter of sensor. Widget which has this parameter are buttons, matrix 
 118:Generated_Source\PSoC5/CapSense_CSD_CSHL.c **** *  buttons, proximity, guard. All other widgets haven't debounce parameter
 119:Generated_Source\PSoC5/CapSense_CSD_CSHL.c **** *  and use the last element of this array with value 0 (it means no debounce).
 120:Generated_Source\PSoC5/CapSense_CSD_CSHL.c **** *  CapSense_CSD_rawFilterData1[]    - used to store previous sample of 
 121:Generated_Source\PSoC5/CapSense_CSD_CSHL.c **** *  any enabled raw data filter.
 122:Generated_Source\PSoC5/CapSense_CSD_CSHL.c **** *  CapSense_CSD_rawFilterData2[]    - used to store before previous sample
 123:Generated_Source\PSoC5/CapSense_CSD_CSHL.c **** *  of enabled raw data filter. Only required for median or average filters.
 124:Generated_Source\PSoC5/CapSense_CSD_CSHL.c **** *
 125:Generated_Source\PSoC5/CapSense_CSD_CSHL.c **** * Reentrant:
 126:Generated_Source\PSoC5/CapSense_CSD_CSHL.c **** *  No
 127:Generated_Source\PSoC5/CapSense_CSD_CSHL.c **** *
 128:Generated_Source\PSoC5/CapSense_CSD_CSHL.c **** *******************************************************************************/
 129:Generated_Source\PSoC5/CapSense_CSD_CSHL.c **** void CapSense_CSD_BaseInit(uint8 sensor) 
 130:Generated_Source\PSoC5/CapSense_CSD_CSHL.c **** {
  96              		.loc 1 130 0
  97              		.cfi_startproc
  98              		@ args = 0, pretend = 0, frame = 16
ARM GAS  C:\Users\HENRIC~1\AppData\Local\Temp\ccL0852m.s 			page 5


  99              		@ frame_needed = 1, uses_anonymous_args = 0
 100              		@ link register save eliminated.
 101 0000 80B4     		push	{r7}
 102              		.cfi_def_cfa_offset 4
 103              		.cfi_offset 7, -4
 104 0002 85B0     		sub	sp, sp, #20
 105              		.cfi_def_cfa_offset 24
 106 0004 00AF     		add	r7, sp, #0
 107              		.cfi_def_cfa_register 7
 108 0006 0346     		mov	r3, r0
 109 0008 FB71     		strb	r3, [r7, #7]
 131:Generated_Source\PSoC5/CapSense_CSD_CSHL.c ****     #if ((CapSense_CSD_TOTAL_BUTTONS_COUNT) || (CapSense_CSD_TOTAL_MATRIX_BUTTONS_COUNT) || \
 132:Generated_Source\PSoC5/CapSense_CSD_CSHL.c ****          (CapSense_CSD_TOTAL_GENERICS_COUNT))
 133:Generated_Source\PSoC5/CapSense_CSD_CSHL.c ****         uint8 widget = CapSense_CSD_widgetNumber[sensor];
 110              		.loc 1 133 0
 111 000a FB79     		ldrb	r3, [r7, #7]	@ zero_extendqisi2
 112 000c 114A     		ldr	r2, .L4
 113 000e D35C     		ldrb	r3, [r2, r3]
 114 0010 FB73     		strb	r3, [r7, #15]
 134:Generated_Source\PSoC5/CapSense_CSD_CSHL.c ****     #endif /* ((CapSense_CSD_TOTAL_MATRIX_BUTTONS_COUNT) || (CapSense_CSD_TOTAL_MATRIX_BUTTONS_COUN
 135:Generated_Source\PSoC5/CapSense_CSD_CSHL.c ****     
 136:Generated_Source\PSoC5/CapSense_CSD_CSHL.c ****     #if (CapSense_CSD_TOTAL_MATRIX_BUTTONS_COUNT)
 137:Generated_Source\PSoC5/CapSense_CSD_CSHL.c ****         uint8 debounceIndex;
 138:Generated_Source\PSoC5/CapSense_CSD_CSHL.c ****     #endif  /* (CapSense_CSD_TOTAL_MATRIX_BUTTONS_COUNT) */
 139:Generated_Source\PSoC5/CapSense_CSD_CSHL.c ****     
 140:Generated_Source\PSoC5/CapSense_CSD_CSHL.c ****     #if (CapSense_CSD_TOTAL_GENERICS_COUNT)
 141:Generated_Source\PSoC5/CapSense_CSD_CSHL.c ****         /* Exclude generic widget */
 142:Generated_Source\PSoC5/CapSense_CSD_CSHL.c ****         if(widget < CapSense_CSD_END_OF_WIDGETS_INDEX)
 143:Generated_Source\PSoC5/CapSense_CSD_CSHL.c ****         {
 144:Generated_Source\PSoC5/CapSense_CSD_CSHL.c ****     #endif  /* CapSense_CSD_TOTAL_GENERICS_COUNT */
 145:Generated_Source\PSoC5/CapSense_CSD_CSHL.c ****     
 146:Generated_Source\PSoC5/CapSense_CSD_CSHL.c ****     /* Initialize Baseline */
 147:Generated_Source\PSoC5/CapSense_CSD_CSHL.c ****     CapSense_CSD_sensorBaseline[sensor] = CapSense_CSD_sensorRaw[sensor];
 115              		.loc 1 147 0
 116 0012 FB79     		ldrb	r3, [r7, #7]	@ zero_extendqisi2
 117 0014 FA79     		ldrb	r2, [r7, #7]	@ zero_extendqisi2
 118 0016 1049     		ldr	r1, .L4+4
 119 0018 31F81210 		ldrh	r1, [r1, r2, lsl #1]
 120 001c 0F4A     		ldr	r2, .L4+8
 121 001e 22F81310 		strh	r1, [r2, r3, lsl #1]	@ movhi
 148:Generated_Source\PSoC5/CapSense_CSD_CSHL.c ****     CapSense_CSD_sensorBaselineLow[sensor] = 0u;
 122              		.loc 1 148 0
 123 0022 FB79     		ldrb	r3, [r7, #7]	@ zero_extendqisi2
 124 0024 0E4A     		ldr	r2, .L4+12
 125 0026 0021     		movs	r1, #0
 126 0028 D154     		strb	r1, [r2, r3]
 149:Generated_Source\PSoC5/CapSense_CSD_CSHL.c ****     CapSense_CSD_sensorSignal[sensor] = 0u;
 127              		.loc 1 149 0
 128 002a FB79     		ldrb	r3, [r7, #7]	@ zero_extendqisi2
 129 002c 0D4A     		ldr	r2, .L4+16
 130 002e 0021     		movs	r1, #0
 131 0030 22F81310 		strh	r1, [r2, r3, lsl #1]	@ movhi
 150:Generated_Source\PSoC5/CapSense_CSD_CSHL.c ****         
 151:Generated_Source\PSoC5/CapSense_CSD_CSHL.c ****     if(widget > CapSense_CSD_END_OF_TOUCH_PAD_INDEX)
 132              		.loc 1 151 0
 133 0034 FB7B     		ldrb	r3, [r7, #15]	@ zero_extendqisi2
 134 0036 002B     		cmp	r3, #0
ARM GAS  C:\Users\HENRIC~1\AppData\Local\Temp\ccL0852m.s 			page 6


 135 0038 06D0     		beq	.L3
 152:Generated_Source\PSoC5/CapSense_CSD_CSHL.c ****     {
 153:Generated_Source\PSoC5/CapSense_CSD_CSHL.c ****         CapSense_CSD_debounceCounter[widget - (CapSense_CSD_END_OF_TOUCH_PAD_INDEX + 1)] =  CapSens
 136              		.loc 1 153 0
 137 003a FB7B     		ldrb	r3, [r7, #15]	@ zero_extendqisi2
 138 003c 013B     		subs	r3, r3, #1
 139 003e FA7B     		ldrb	r2, [r7, #15]	@ zero_extendqisi2
 140 0040 0949     		ldr	r1, .L4+20
 141 0042 895C     		ldrb	r1, [r1, r2]	@ zero_extendqisi2
 142 0044 094A     		ldr	r2, .L4+24
 143 0046 D154     		strb	r1, [r2, r3]
 144              	.L3:
 154:Generated_Source\PSoC5/CapSense_CSD_CSHL.c ****     }
 155:Generated_Source\PSoC5/CapSense_CSD_CSHL.c **** 
 156:Generated_Source\PSoC5/CapSense_CSD_CSHL.c ****     
 157:Generated_Source\PSoC5/CapSense_CSD_CSHL.c ****     #if ((CapSense_CSD_RAW_FILTER_MASK & CapSense_CSD_MEDIAN_FILTER) |\
 158:Generated_Source\PSoC5/CapSense_CSD_CSHL.c ****          (CapSense_CSD_RAW_FILTER_MASK & CapSense_CSD_AVERAGING_FILTER))
 159:Generated_Source\PSoC5/CapSense_CSD_CSHL.c **** 
 160:Generated_Source\PSoC5/CapSense_CSD_CSHL.c ****         CapSense_CSD_rawFilterData1[sensor] = CapSense_CSD_sensorRaw[sensor];
 161:Generated_Source\PSoC5/CapSense_CSD_CSHL.c ****         CapSense_CSD_rawFilterData2[sensor] = CapSense_CSD_sensorRaw[sensor];
 162:Generated_Source\PSoC5/CapSense_CSD_CSHL.c ****     
 163:Generated_Source\PSoC5/CapSense_CSD_CSHL.c ****     #elif ((CapSense_CSD_RAW_FILTER_MASK & CapSense_CSD_IIR2_FILTER) |\
 164:Generated_Source\PSoC5/CapSense_CSD_CSHL.c ****            (CapSense_CSD_RAW_FILTER_MASK & CapSense_CSD_IIR4_FILTER) |\
 165:Generated_Source\PSoC5/CapSense_CSD_CSHL.c ****            (CapSense_CSD_RAW_FILTER_MASK & CapSense_CSD_JITTER_FILTER) |\
 166:Generated_Source\PSoC5/CapSense_CSD_CSHL.c ****            (CapSense_CSD_RAW_FILTER_MASK & CapSense_CSD_IIR8_FILTER) |\
 167:Generated_Source\PSoC5/CapSense_CSD_CSHL.c ****            (CapSense_CSD_RAW_FILTER_MASK & CapSense_CSD_IIR16_FILTER))
 168:Generated_Source\PSoC5/CapSense_CSD_CSHL.c ****             
 169:Generated_Source\PSoC5/CapSense_CSD_CSHL.c ****         CapSense_CSD_rawFilterData1[sensor] = CapSense_CSD_sensorRaw[sensor];
 170:Generated_Source\PSoC5/CapSense_CSD_CSHL.c ****     
 171:Generated_Source\PSoC5/CapSense_CSD_CSHL.c ****     #else
 172:Generated_Source\PSoC5/CapSense_CSD_CSHL.c ****         /* No Raw filters */
 173:Generated_Source\PSoC5/CapSense_CSD_CSHL.c ****     #endif  /* ((CapSense_CSD_RAW_FILTER_MASK & CapSense_CSD_MEDIAN_FILTER) | \
 174:Generated_Source\PSoC5/CapSense_CSD_CSHL.c ****             *   (CapSense_CSD_RAW_FILTER_MASK & CapSense_CSD_AVERAGING_FILTER))
 175:Generated_Source\PSoC5/CapSense_CSD_CSHL.c ****             */
 176:Generated_Source\PSoC5/CapSense_CSD_CSHL.c ****     
 177:Generated_Source\PSoC5/CapSense_CSD_CSHL.c ****     #if (CapSense_CSD_TOTAL_GENERICS_COUNT)
 178:Generated_Source\PSoC5/CapSense_CSD_CSHL.c ****         /* Exclude generic widget */
 179:Generated_Source\PSoC5/CapSense_CSD_CSHL.c ****         }
 180:Generated_Source\PSoC5/CapSense_CSD_CSHL.c ****     #endif  /* CapSense_CSD_TOTAL_GENERICS_COUNT */
 181:Generated_Source\PSoC5/CapSense_CSD_CSHL.c **** }
 145              		.loc 1 181 0
 146 0048 00BF     		nop
 147 004a 1437     		adds	r7, r7, #20
 148              		.cfi_def_cfa_offset 4
 149 004c BD46     		mov	sp, r7
 150              		.cfi_def_cfa_register 13
 151              		@ sp needed
 152 004e 80BC     		pop	{r7}
 153              		.cfi_restore 7
 154              		.cfi_def_cfa_offset 0
 155 0050 7047     		bx	lr
 156              	.L5:
 157 0052 00BF     		.align	2
 158              	.L4:
 159 0054 00000000 		.word	CapSense_CSD_widgetNumber
 160 0058 00000000 		.word	CapSense_CSD_sensorRaw
 161 005c 00000000 		.word	CapSense_CSD_sensorBaseline
ARM GAS  C:\Users\HENRIC~1\AppData\Local\Temp\ccL0852m.s 			page 7


 162 0060 00000000 		.word	CapSense_CSD_sensorBaselineLow
 163 0064 00000000 		.word	CapSense_CSD_sensorSignal
 164 0068 00000000 		.word	CapSense_CSD_debounce
 165 006c 00000000 		.word	CapSense_CSD_debounceCounter
 166              		.cfi_endproc
 167              	.LFE0:
 168              		.size	CapSense_CSD_BaseInit, .-CapSense_CSD_BaseInit
 169              		.section	.text.CapSense_CSD_InitializeSensorBaseline,"ax",%progbits
 170              		.align	2
 171              		.global	CapSense_CSD_InitializeSensorBaseline
 172              		.thumb
 173              		.thumb_func
 174              		.type	CapSense_CSD_InitializeSensorBaseline, %function
 175              	CapSense_CSD_InitializeSensorBaseline:
 176              	.LFB1:
 182:Generated_Source\PSoC5/CapSense_CSD_CSHL.c **** 
 183:Generated_Source\PSoC5/CapSense_CSD_CSHL.c **** 
 184:Generated_Source\PSoC5/CapSense_CSD_CSHL.c **** /*******************************************************************************
 185:Generated_Source\PSoC5/CapSense_CSD_CSHL.c **** * Function Name: CapSense_CSD_InitializeSensorBaseline
 186:Generated_Source\PSoC5/CapSense_CSD_CSHL.c **** ********************************************************************************
 187:Generated_Source\PSoC5/CapSense_CSD_CSHL.c **** *
 188:Generated_Source\PSoC5/CapSense_CSD_CSHL.c **** * Summary:
 189:Generated_Source\PSoC5/CapSense_CSD_CSHL.c **** *  Loads the CapSense_CSD_sensorBaseline[sensor] array element with an 
 190:Generated_Source\PSoC5/CapSense_CSD_CSHL.c **** *  initial value by scanning the selected sensor (one channel design) or pair 
 191:Generated_Source\PSoC5/CapSense_CSD_CSHL.c **** *  of sensors (two channels designs). The raw count value is copied into the 
 192:Generated_Source\PSoC5/CapSense_CSD_CSHL.c **** *  baseline array for each sensor. The raw data filters are initialized if 
 193:Generated_Source\PSoC5/CapSense_CSD_CSHL.c **** *  enabled.
 194:Generated_Source\PSoC5/CapSense_CSD_CSHL.c **** *
 195:Generated_Source\PSoC5/CapSense_CSD_CSHL.c **** * Parameters:
 196:Generated_Source\PSoC5/CapSense_CSD_CSHL.c **** *  sensor:  Sensor number.
 197:Generated_Source\PSoC5/CapSense_CSD_CSHL.c **** *
 198:Generated_Source\PSoC5/CapSense_CSD_CSHL.c **** * Return:
 199:Generated_Source\PSoC5/CapSense_CSD_CSHL.c **** *  None
 200:Generated_Source\PSoC5/CapSense_CSD_CSHL.c **** *
 201:Generated_Source\PSoC5/CapSense_CSD_CSHL.c **** * Reentrant:
 202:Generated_Source\PSoC5/CapSense_CSD_CSHL.c **** *  No
 203:Generated_Source\PSoC5/CapSense_CSD_CSHL.c **** *
 204:Generated_Source\PSoC5/CapSense_CSD_CSHL.c **** *******************************************************************************/
 205:Generated_Source\PSoC5/CapSense_CSD_CSHL.c **** void CapSense_CSD_InitializeSensorBaseline(uint8 sensor)
 206:Generated_Source\PSoC5/CapSense_CSD_CSHL.c ****                           
 207:Generated_Source\PSoC5/CapSense_CSD_CSHL.c **** {
 177              		.loc 1 207 0
 178              		.cfi_startproc
 179              		@ args = 0, pretend = 0, frame = 8
 180              		@ frame_needed = 1, uses_anonymous_args = 0
 181 0000 80B5     		push	{r7, lr}
 182              		.cfi_def_cfa_offset 8
 183              		.cfi_offset 7, -8
 184              		.cfi_offset 14, -4
 185 0002 82B0     		sub	sp, sp, #8
 186              		.cfi_def_cfa_offset 16
 187 0004 00AF     		add	r7, sp, #0
 188              		.cfi_def_cfa_register 7
 189 0006 0346     		mov	r3, r0
 190 0008 FB71     		strb	r3, [r7, #7]
 208:Generated_Source\PSoC5/CapSense_CSD_CSHL.c ****     /* Scan sensor */
 209:Generated_Source\PSoC5/CapSense_CSD_CSHL.c ****     CapSense_CSD_ScanSensor(sensor);
ARM GAS  C:\Users\HENRIC~1\AppData\Local\Temp\ccL0852m.s 			page 8


 191              		.loc 1 209 0
 192 000a FB79     		ldrb	r3, [r7, #7]	@ zero_extendqisi2
 193 000c 1846     		mov	r0, r3
 194 000e FFF7FEFF 		bl	CapSense_CSD_ScanSensor
 210:Generated_Source\PSoC5/CapSense_CSD_CSHL.c ****     while(CapSense_CSD_IsBusy() != 0u)
 195              		.loc 1 210 0
 196 0012 00BF     		nop
 197              	.L7:
 198              		.loc 1 210 0 is_stmt 0 discriminator 1
 199 0014 FFF7FEFF 		bl	CapSense_CSD_IsBusy
 200 0018 0346     		mov	r3, r0
 201 001a 002B     		cmp	r3, #0
 202 001c FAD1     		bne	.L7
 211:Generated_Source\PSoC5/CapSense_CSD_CSHL.c ****     {
 212:Generated_Source\PSoC5/CapSense_CSD_CSHL.c ****         /* Wait while busy */
 213:Generated_Source\PSoC5/CapSense_CSD_CSHL.c ****     }
 214:Generated_Source\PSoC5/CapSense_CSD_CSHL.c ****     
 215:Generated_Source\PSoC5/CapSense_CSD_CSHL.c ****     #if (CapSense_CSD_DESIGN_TYPE == CapSense_CSD_ONE_CHANNEL_DESIGN)
 216:Generated_Source\PSoC5/CapSense_CSD_CSHL.c ****         /* Initialize Baseline, Signal and debounce counters */       
 217:Generated_Source\PSoC5/CapSense_CSD_CSHL.c ****         CapSense_CSD_BaseInit(sensor);
 203              		.loc 1 217 0 is_stmt 1
 204 001e FB79     		ldrb	r3, [r7, #7]	@ zero_extendqisi2
 205 0020 1846     		mov	r0, r3
 206 0022 FFF7FEFF 		bl	CapSense_CSD_BaseInit
 218:Generated_Source\PSoC5/CapSense_CSD_CSHL.c ****         
 219:Generated_Source\PSoC5/CapSense_CSD_CSHL.c ****     #else
 220:Generated_Source\PSoC5/CapSense_CSD_CSHL.c ****     
 221:Generated_Source\PSoC5/CapSense_CSD_CSHL.c ****         if(sensor < CapSense_CSD_TOTAL_SENSOR_COUNT__CH0)
 222:Generated_Source\PSoC5/CapSense_CSD_CSHL.c ****         {
 223:Generated_Source\PSoC5/CapSense_CSD_CSHL.c ****             /* Initialize Baseline, Signal and debounce counters */ 
 224:Generated_Source\PSoC5/CapSense_CSD_CSHL.c ****             CapSense_CSD_BaseInit(sensor);
 225:Generated_Source\PSoC5/CapSense_CSD_CSHL.c ****         }
 226:Generated_Source\PSoC5/CapSense_CSD_CSHL.c ****         
 227:Generated_Source\PSoC5/CapSense_CSD_CSHL.c ****         if(sensor < CapSense_CSD_TOTAL_SENSOR_COUNT__CH1)
 228:Generated_Source\PSoC5/CapSense_CSD_CSHL.c ****         {
 229:Generated_Source\PSoC5/CapSense_CSD_CSHL.c ****             /* Initialize Baseline, Signal and debounce counters */
 230:Generated_Source\PSoC5/CapSense_CSD_CSHL.c ****             CapSense_CSD_BaseInit(sensor + CapSense_CSD_TOTAL_SENSOR_COUNT__CH0);
 231:Generated_Source\PSoC5/CapSense_CSD_CSHL.c ****         }
 232:Generated_Source\PSoC5/CapSense_CSD_CSHL.c ****     
 233:Generated_Source\PSoC5/CapSense_CSD_CSHL.c ****     #endif  /* (CapSense_CSD_DESIGN_TYPE == CapSense_CSD_ONE_CHANNEL_DESIGN) */
 234:Generated_Source\PSoC5/CapSense_CSD_CSHL.c **** }
 207              		.loc 1 234 0
 208 0026 00BF     		nop
 209 0028 0837     		adds	r7, r7, #8
 210              		.cfi_def_cfa_offset 8
 211 002a BD46     		mov	sp, r7
 212              		.cfi_def_cfa_register 13
 213              		@ sp needed
 214 002c 80BD     		pop	{r7, pc}
 215              		.cfi_endproc
 216              	.LFE1:
 217              		.size	CapSense_CSD_InitializeSensorBaseline, .-CapSense_CSD_InitializeSensorBaseline
 218 002e 00BF     		.section	.text.CapSense_CSD_InitializeAllBaselines,"ax",%progbits
 219              		.align	2
 220              		.global	CapSense_CSD_InitializeAllBaselines
 221              		.thumb
 222              		.thumb_func
ARM GAS  C:\Users\HENRIC~1\AppData\Local\Temp\ccL0852m.s 			page 9


 223              		.type	CapSense_CSD_InitializeAllBaselines, %function
 224              	CapSense_CSD_InitializeAllBaselines:
 225              	.LFB2:
 235:Generated_Source\PSoC5/CapSense_CSD_CSHL.c **** 
 236:Generated_Source\PSoC5/CapSense_CSD_CSHL.c **** 
 237:Generated_Source\PSoC5/CapSense_CSD_CSHL.c **** /*******************************************************************************
 238:Generated_Source\PSoC5/CapSense_CSD_CSHL.c **** * Function Name: CapSense_CSD_InitializeAllBaselines
 239:Generated_Source\PSoC5/CapSense_CSD_CSHL.c **** ********************************************************************************
 240:Generated_Source\PSoC5/CapSense_CSD_CSHL.c **** *
 241:Generated_Source\PSoC5/CapSense_CSD_CSHL.c **** * Summary:
 242:Generated_Source\PSoC5/CapSense_CSD_CSHL.c **** *  Uses the CapSense_CSD_InitializeSensorBaseline function to loads the 
 243:Generated_Source\PSoC5/CapSense_CSD_CSHL.c **** *  CapSense_CSD_sensorBaseline[] array with an initial values by scanning 
 244:Generated_Source\PSoC5/CapSense_CSD_CSHL.c **** *  all sensors. The raw count values are copied into the baseline array for 
 245:Generated_Source\PSoC5/CapSense_CSD_CSHL.c **** *  all sensors. The raw data filters are initialized if enabled.
 246:Generated_Source\PSoC5/CapSense_CSD_CSHL.c **** *
 247:Generated_Source\PSoC5/CapSense_CSD_CSHL.c **** * Parameters:
 248:Generated_Source\PSoC5/CapSense_CSD_CSHL.c **** *  None
 249:Generated_Source\PSoC5/CapSense_CSD_CSHL.c **** *
 250:Generated_Source\PSoC5/CapSense_CSD_CSHL.c **** * Return:
 251:Generated_Source\PSoC5/CapSense_CSD_CSHL.c **** *  None
 252:Generated_Source\PSoC5/CapSense_CSD_CSHL.c **** *
 253:Generated_Source\PSoC5/CapSense_CSD_CSHL.c **** * Reentrant:
 254:Generated_Source\PSoC5/CapSense_CSD_CSHL.c **** *  No
 255:Generated_Source\PSoC5/CapSense_CSD_CSHL.c **** *
 256:Generated_Source\PSoC5/CapSense_CSD_CSHL.c **** *******************************************************************************/
 257:Generated_Source\PSoC5/CapSense_CSD_CSHL.c **** void CapSense_CSD_InitializeAllBaselines(void)
 258:Generated_Source\PSoC5/CapSense_CSD_CSHL.c ****                           
 259:Generated_Source\PSoC5/CapSense_CSD_CSHL.c **** {
 226              		.loc 1 259 0
 227              		.cfi_startproc
 228              		@ args = 0, pretend = 0, frame = 8
 229              		@ frame_needed = 1, uses_anonymous_args = 0
 230 0000 80B5     		push	{r7, lr}
 231              		.cfi_def_cfa_offset 8
 232              		.cfi_offset 7, -8
 233              		.cfi_offset 14, -4
 234 0002 82B0     		sub	sp, sp, #8
 235              		.cfi_def_cfa_offset 16
 236 0004 00AF     		add	r7, sp, #0
 237              		.cfi_def_cfa_register 7
 260:Generated_Source\PSoC5/CapSense_CSD_CSHL.c ****     uint8 i;
 261:Generated_Source\PSoC5/CapSense_CSD_CSHL.c ****     
 262:Generated_Source\PSoC5/CapSense_CSD_CSHL.c ****     /* The baseline initialize by sensor of sensor pair */
 263:Generated_Source\PSoC5/CapSense_CSD_CSHL.c ****     for(i = 0u; i < CapSense_CSD_TOTAL_SCANSLOT_COUNT; i++)
 238              		.loc 1 263 0
 239 0006 0023     		movs	r3, #0
 240 0008 FB71     		strb	r3, [r7, #7]
 241 000a 06E0     		b	.L9
 242              	.L10:
 264:Generated_Source\PSoC5/CapSense_CSD_CSHL.c ****     {
 265:Generated_Source\PSoC5/CapSense_CSD_CSHL.c ****         CapSense_CSD_InitializeSensorBaseline(i);
 243              		.loc 1 265 0 discriminator 3
 244 000c FB79     		ldrb	r3, [r7, #7]	@ zero_extendqisi2
 245 000e 1846     		mov	r0, r3
 246 0010 FFF7FEFF 		bl	CapSense_CSD_InitializeSensorBaseline
 263:Generated_Source\PSoC5/CapSense_CSD_CSHL.c ****     {
 247              		.loc 1 263 0 discriminator 3
ARM GAS  C:\Users\HENRIC~1\AppData\Local\Temp\ccL0852m.s 			page 10


 248 0014 FB79     		ldrb	r3, [r7, #7]	@ zero_extendqisi2
 249 0016 0133     		adds	r3, r3, #1
 250 0018 FB71     		strb	r3, [r7, #7]
 251              	.L9:
 263:Generated_Source\PSoC5/CapSense_CSD_CSHL.c ****     {
 252              		.loc 1 263 0 is_stmt 0 discriminator 1
 253 001a FB79     		ldrb	r3, [r7, #7]	@ zero_extendqisi2
 254 001c 062B     		cmp	r3, #6
 255 001e F5D9     		bls	.L10
 266:Generated_Source\PSoC5/CapSense_CSD_CSHL.c ****     }
 267:Generated_Source\PSoC5/CapSense_CSD_CSHL.c **** }
 256              		.loc 1 267 0 is_stmt 1
 257 0020 00BF     		nop
 258 0022 0837     		adds	r7, r7, #8
 259              		.cfi_def_cfa_offset 8
 260 0024 BD46     		mov	sp, r7
 261              		.cfi_def_cfa_register 13
 262              		@ sp needed
 263 0026 80BD     		pop	{r7, pc}
 264              		.cfi_endproc
 265              	.LFE2:
 266              		.size	CapSense_CSD_InitializeAllBaselines, .-CapSense_CSD_InitializeAllBaselines
 267              		.section	.text.CapSense_CSD_InitializeEnabledBaselines,"ax",%progbits
 268              		.align	2
 269              		.global	CapSense_CSD_InitializeEnabledBaselines
 270              		.thumb
 271              		.thumb_func
 272              		.type	CapSense_CSD_InitializeEnabledBaselines, %function
 273              	CapSense_CSD_InitializeEnabledBaselines:
 274              	.LFB3:
 268:Generated_Source\PSoC5/CapSense_CSD_CSHL.c **** 
 269:Generated_Source\PSoC5/CapSense_CSD_CSHL.c **** 
 270:Generated_Source\PSoC5/CapSense_CSD_CSHL.c **** /*******************************************************************************
 271:Generated_Source\PSoC5/CapSense_CSD_CSHL.c **** * Function Name: CapSense_CSD_InitializeEnabledBaselines
 272:Generated_Source\PSoC5/CapSense_CSD_CSHL.c **** ********************************************************************************
 273:Generated_Source\PSoC5/CapSense_CSD_CSHL.c **** *
 274:Generated_Source\PSoC5/CapSense_CSD_CSHL.c **** * Summary:
 275:Generated_Source\PSoC5/CapSense_CSD_CSHL.c **** *  Scans all enabled widgets and the raw count values are copied into the 
 276:Generated_Source\PSoC5/CapSense_CSD_CSHL.c **** *  baseline array for all sensors enabled in scanning process. Baselines 
 277:Generated_Source\PSoC5/CapSense_CSD_CSHL.c **** *  initialize with zero values for sensors disabled from scanning process. 
 278:Generated_Source\PSoC5/CapSense_CSD_CSHL.c **** *  The raw data filters are initialized if enabled.
 279:Generated_Source\PSoC5/CapSense_CSD_CSHL.c **** *
 280:Generated_Source\PSoC5/CapSense_CSD_CSHL.c **** * Parameters:
 281:Generated_Source\PSoC5/CapSense_CSD_CSHL.c **** *  None
 282:Generated_Source\PSoC5/CapSense_CSD_CSHL.c **** *
 283:Generated_Source\PSoC5/CapSense_CSD_CSHL.c **** * Return:
 284:Generated_Source\PSoC5/CapSense_CSD_CSHL.c **** *  None
 285:Generated_Source\PSoC5/CapSense_CSD_CSHL.c **** *
 286:Generated_Source\PSoC5/CapSense_CSD_CSHL.c **** * Reentrant:
 287:Generated_Source\PSoC5/CapSense_CSD_CSHL.c **** *  No
 288:Generated_Source\PSoC5/CapSense_CSD_CSHL.c **** *
 289:Generated_Source\PSoC5/CapSense_CSD_CSHL.c **** *******************************************************************************/
 290:Generated_Source\PSoC5/CapSense_CSD_CSHL.c **** void CapSense_CSD_InitializeEnabledBaselines(void)
 291:Generated_Source\PSoC5/CapSense_CSD_CSHL.c ****                              
 292:Generated_Source\PSoC5/CapSense_CSD_CSHL.c **** {
 275              		.loc 1 292 0
 276              		.cfi_startproc
ARM GAS  C:\Users\HENRIC~1\AppData\Local\Temp\ccL0852m.s 			page 11


 277              		@ args = 0, pretend = 0, frame = 8
 278              		@ frame_needed = 1, uses_anonymous_args = 0
 279 0000 80B5     		push	{r7, lr}
 280              		.cfi_def_cfa_offset 8
 281              		.cfi_offset 7, -8
 282              		.cfi_offset 14, -4
 283 0002 82B0     		sub	sp, sp, #8
 284              		.cfi_def_cfa_offset 16
 285 0004 00AF     		add	r7, sp, #0
 286              		.cfi_def_cfa_register 7
 293:Generated_Source\PSoC5/CapSense_CSD_CSHL.c ****     uint8 i;
 294:Generated_Source\PSoC5/CapSense_CSD_CSHL.c ****     uint8 pos;
 295:Generated_Source\PSoC5/CapSense_CSD_CSHL.c ****     uint8 enMask;
 296:Generated_Source\PSoC5/CapSense_CSD_CSHL.c ****     
 297:Generated_Source\PSoC5/CapSense_CSD_CSHL.c ****     CapSense_CSD_ScanEnabledWidgets();
 287              		.loc 1 297 0
 288 0006 FFF7FEFF 		bl	CapSense_CSD_ScanEnabledWidgets
 298:Generated_Source\PSoC5/CapSense_CSD_CSHL.c ****     while(CapSense_CSD_IsBusy() != 0u)
 289              		.loc 1 298 0
 290 000a 00BF     		nop
 291              	.L12:
 292              		.loc 1 298 0 is_stmt 0 discriminator 1
 293 000c FFF7FEFF 		bl	CapSense_CSD_IsBusy
 294 0010 0346     		mov	r3, r0
 295 0012 002B     		cmp	r3, #0
 296 0014 FAD1     		bne	.L12
 299:Generated_Source\PSoC5/CapSense_CSD_CSHL.c ****     {
 300:Generated_Source\PSoC5/CapSense_CSD_CSHL.c ****         /* Wait while busy */
 301:Generated_Source\PSoC5/CapSense_CSD_CSHL.c ****     }
 302:Generated_Source\PSoC5/CapSense_CSD_CSHL.c ****     
 303:Generated_Source\PSoC5/CapSense_CSD_CSHL.c ****     for(i = 0u; i < CapSense_CSD_TOTAL_SENSOR_COUNT; i++)
 297              		.loc 1 303 0 is_stmt 1
 298 0016 0023     		movs	r3, #0
 299 0018 FB71     		strb	r3, [r7, #7]
 300 001a 1DE0     		b	.L13
 301              	.L15:
 304:Generated_Source\PSoC5/CapSense_CSD_CSHL.c ****     {
 305:Generated_Source\PSoC5/CapSense_CSD_CSHL.c ****         pos = (i >> 3u);
 302              		.loc 1 305 0
 303 001c FB79     		ldrb	r3, [r7, #7]	@ zero_extendqisi2
 304 001e DB08     		lsrs	r3, r3, #3
 305 0020 BB71     		strb	r3, [r7, #6]
 306:Generated_Source\PSoC5/CapSense_CSD_CSHL.c ****         enMask = 0x01u << (i & 0x07u);
 306              		.loc 1 306 0
 307 0022 FB79     		ldrb	r3, [r7, #7]	@ zero_extendqisi2
 308 0024 03F00703 		and	r3, r3, #7
 309 0028 0122     		movs	r2, #1
 310 002a 02FA03F3 		lsl	r3, r2, r3
 311 002e 7B71     		strb	r3, [r7, #5]
 307:Generated_Source\PSoC5/CapSense_CSD_CSHL.c ****         
 308:Generated_Source\PSoC5/CapSense_CSD_CSHL.c ****         /* Clear raw data if sensor is disabled from scanning process */
 309:Generated_Source\PSoC5/CapSense_CSD_CSHL.c ****         if((CapSense_CSD_sensorEnableMask[pos] & enMask) == 0u)
 312              		.loc 1 309 0
 313 0030 BB79     		ldrb	r3, [r7, #6]	@ zero_extendqisi2
 314 0032 0D4A     		ldr	r2, .L16
 315 0034 D25C     		ldrb	r2, [r2, r3]	@ zero_extendqisi2
 316 0036 7B79     		ldrb	r3, [r7, #5]
ARM GAS  C:\Users\HENRIC~1\AppData\Local\Temp\ccL0852m.s 			page 12


 317 0038 1340     		ands	r3, r3, r2
 318 003a DBB2     		uxtb	r3, r3
 319 003c 002B     		cmp	r3, #0
 320 003e 04D1     		bne	.L14
 310:Generated_Source\PSoC5/CapSense_CSD_CSHL.c ****         {
 311:Generated_Source\PSoC5/CapSense_CSD_CSHL.c ****             CapSense_CSD_sensorRaw[i] = 0u;
 321              		.loc 1 311 0
 322 0040 FB79     		ldrb	r3, [r7, #7]	@ zero_extendqisi2
 323 0042 0A4A     		ldr	r2, .L16+4
 324 0044 0021     		movs	r1, #0
 325 0046 22F81310 		strh	r1, [r2, r3, lsl #1]	@ movhi
 326              	.L14:
 312:Generated_Source\PSoC5/CapSense_CSD_CSHL.c ****         }
 313:Generated_Source\PSoC5/CapSense_CSD_CSHL.c ****         
 314:Generated_Source\PSoC5/CapSense_CSD_CSHL.c ****         /* Initialize baselines */
 315:Generated_Source\PSoC5/CapSense_CSD_CSHL.c ****         CapSense_CSD_BaseInit(i);
 327              		.loc 1 315 0 discriminator 2
 328 004a FB79     		ldrb	r3, [r7, #7]	@ zero_extendqisi2
 329 004c 1846     		mov	r0, r3
 330 004e FFF7FEFF 		bl	CapSense_CSD_BaseInit
 303:Generated_Source\PSoC5/CapSense_CSD_CSHL.c ****     {
 331              		.loc 1 303 0 discriminator 2
 332 0052 FB79     		ldrb	r3, [r7, #7]	@ zero_extendqisi2
 333 0054 0133     		adds	r3, r3, #1
 334 0056 FB71     		strb	r3, [r7, #7]
 335              	.L13:
 303:Generated_Source\PSoC5/CapSense_CSD_CSHL.c ****     {
 336              		.loc 1 303 0 is_stmt 0 discriminator 1
 337 0058 FB79     		ldrb	r3, [r7, #7]	@ zero_extendqisi2
 338 005a 062B     		cmp	r3, #6
 339 005c DED9     		bls	.L15
 316:Generated_Source\PSoC5/CapSense_CSD_CSHL.c ****     }
 317:Generated_Source\PSoC5/CapSense_CSD_CSHL.c **** }  
 340              		.loc 1 317 0 is_stmt 1
 341 005e 00BF     		nop
 342 0060 0837     		adds	r7, r7, #8
 343              		.cfi_def_cfa_offset 8
 344 0062 BD46     		mov	sp, r7
 345              		.cfi_def_cfa_register 13
 346              		@ sp needed
 347 0064 80BD     		pop	{r7, pc}
 348              	.L17:
 349 0066 00BF     		.align	2
 350              	.L16:
 351 0068 00000000 		.word	CapSense_CSD_sensorEnableMask
 352 006c 00000000 		.word	CapSense_CSD_sensorRaw
 353              		.cfi_endproc
 354              	.LFE3:
 355              		.size	CapSense_CSD_InitializeEnabledBaselines, .-CapSense_CSD_InitializeEnabledBaselines
 356              		.section	.text.CapSense_CSD_UpdateSensorBaseline,"ax",%progbits
 357              		.align	2
 358              		.global	CapSense_CSD_UpdateSensorBaseline
 359              		.thumb
 360              		.thumb_func
 361              		.type	CapSense_CSD_UpdateSensorBaseline, %function
 362              	CapSense_CSD_UpdateSensorBaseline:
 363              	.LFB4:
ARM GAS  C:\Users\HENRIC~1\AppData\Local\Temp\ccL0852m.s 			page 13


 318:Generated_Source\PSoC5/CapSense_CSD_CSHL.c **** 
 319:Generated_Source\PSoC5/CapSense_CSD_CSHL.c **** 
 320:Generated_Source\PSoC5/CapSense_CSD_CSHL.c **** /*******************************************************************************
 321:Generated_Source\PSoC5/CapSense_CSD_CSHL.c **** * Function Name: CapSense_CSD_UpdateSensorBaseline
 322:Generated_Source\PSoC5/CapSense_CSD_CSHL.c **** ********************************************************************************
 323:Generated_Source\PSoC5/CapSense_CSD_CSHL.c **** *
 324:Generated_Source\PSoC5/CapSense_CSD_CSHL.c **** * Summary:
 325:Generated_Source\PSoC5/CapSense_CSD_CSHL.c **** *  Updates the CapSense_CSD_sensorBaseline[sensor] array element using the 
 326:Generated_Source\PSoC5/CapSense_CSD_CSHL.c **** *  LP filter with k = 256. The signal calculates the difference of count by 
 327:Generated_Source\PSoC5/CapSense_CSD_CSHL.c **** *  subtracting the previous baseline from the current raw count value and stores
 328:Generated_Source\PSoC5/CapSense_CSD_CSHL.c **** *  it in CapSense_CSD_SensorSignal[sensor]. 
 329:Generated_Source\PSoC5/CapSense_CSD_CSHL.c **** *  If auto reset option is enabled the baseline updated regards noise threshold. 
 330:Generated_Source\PSoC5/CapSense_CSD_CSHL.c **** *  If auto reset option is disabled the baseline stops updating if signal is 
 331:Generated_Source\PSoC5/CapSense_CSD_CSHL.c **** *  greater that zero and baseline loads with raw count value if signal is less 
 332:Generated_Source\PSoC5/CapSense_CSD_CSHL.c **** *  that noise threshold.
 333:Generated_Source\PSoC5/CapSense_CSD_CSHL.c **** *  Raw data filters are applied to the values if enabled before baseline 
 334:Generated_Source\PSoC5/CapSense_CSD_CSHL.c **** *  calculation.
 335:Generated_Source\PSoC5/CapSense_CSD_CSHL.c **** *
 336:Generated_Source\PSoC5/CapSense_CSD_CSHL.c **** * Parameters:
 337:Generated_Source\PSoC5/CapSense_CSD_CSHL.c **** *  sensor:  Sensor number.
 338:Generated_Source\PSoC5/CapSense_CSD_CSHL.c **** *
 339:Generated_Source\PSoC5/CapSense_CSD_CSHL.c **** * Return:
 340:Generated_Source\PSoC5/CapSense_CSD_CSHL.c **** *  None
 341:Generated_Source\PSoC5/CapSense_CSD_CSHL.c **** *
 342:Generated_Source\PSoC5/CapSense_CSD_CSHL.c **** * Global Variables:
 343:Generated_Source\PSoC5/CapSense_CSD_CSHL.c **** *  CapSense_CSD_sensorBaseline[]    - used to store baseline value.
 344:Generated_Source\PSoC5/CapSense_CSD_CSHL.c **** *  CapSense_CSD_sensorBaselineLow[] - used to store fraction byte of 
 345:Generated_Source\PSoC5/CapSense_CSD_CSHL.c **** *  baseline value.
 346:Generated_Source\PSoC5/CapSense_CSD_CSHL.c **** *  CapSense_CSD_sensorSignal[]      - used to store diffence between 
 347:Generated_Source\PSoC5/CapSense_CSD_CSHL.c **** *  current value of raw data and previous value of baseline.
 348:Generated_Source\PSoC5/CapSense_CSD_CSHL.c **** *  CapSense_CSD_rawFilterData1[]    - used to store previous sample of 
 349:Generated_Source\PSoC5/CapSense_CSD_CSHL.c **** *  any enabled raw data filter.
 350:Generated_Source\PSoC5/CapSense_CSD_CSHL.c **** *  CapSense_CSD_rawFilterData2[]    - used to store before previous sample
 351:Generated_Source\PSoC5/CapSense_CSD_CSHL.c **** *  of enabled raw data filter. Only required for median or average filters.
 352:Generated_Source\PSoC5/CapSense_CSD_CSHL.c **** *
 353:Generated_Source\PSoC5/CapSense_CSD_CSHL.c **** * Reentrant:
 354:Generated_Source\PSoC5/CapSense_CSD_CSHL.c **** *  No
 355:Generated_Source\PSoC5/CapSense_CSD_CSHL.c **** *
 356:Generated_Source\PSoC5/CapSense_CSD_CSHL.c **** *******************************************************************************/
 357:Generated_Source\PSoC5/CapSense_CSD_CSHL.c ****  void CapSense_CSD_UpdateSensorBaseline(uint8 sensor)
 358:Generated_Source\PSoC5/CapSense_CSD_CSHL.c ****                                  
 359:Generated_Source\PSoC5/CapSense_CSD_CSHL.c **** {
 364              		.loc 1 359 0
 365              		.cfi_startproc
 366              		@ args = 0, pretend = 0, frame = 24
 367              		@ frame_needed = 1, uses_anonymous_args = 0
 368 0000 80B5     		push	{r7, lr}
 369              		.cfi_def_cfa_offset 8
 370              		.cfi_offset 7, -8
 371              		.cfi_offset 14, -4
 372 0002 86B0     		sub	sp, sp, #24
 373              		.cfi_def_cfa_offset 32
 374 0004 00AF     		add	r7, sp, #0
 375              		.cfi_def_cfa_register 7
 376 0006 0346     		mov	r3, r0
 377 0008 FB71     		strb	r3, [r7, #7]
 360:Generated_Source\PSoC5/CapSense_CSD_CSHL.c ****     uint32 calc;
ARM GAS  C:\Users\HENRIC~1\AppData\Local\Temp\ccL0852m.s 			page 14


 361:Generated_Source\PSoC5/CapSense_CSD_CSHL.c ****     uint16 tempRaw;
 362:Generated_Source\PSoC5/CapSense_CSD_CSHL.c ****     uint16 filteredRawData;
 363:Generated_Source\PSoC5/CapSense_CSD_CSHL.c ****     uint8 widget = CapSense_CSD_widgetNumber[sensor];
 378              		.loc 1 363 0
 379 000a FB79     		ldrb	r3, [r7, #7]	@ zero_extendqisi2
 380 000c 454A     		ldr	r2, .L28
 381 000e D35C     		ldrb	r3, [r2, r3]
 382 0010 7B75     		strb	r3, [r7, #21]
 364:Generated_Source\PSoC5/CapSense_CSD_CSHL.c ****     uint16 noiseThreshold = CapSense_CSD_noiseThreshold[widget];
 383              		.loc 1 364 0
 384 0012 7B7D     		ldrb	r3, [r7, #21]	@ zero_extendqisi2
 385 0014 444A     		ldr	r2, .L28+4
 386 0016 32F81330 		ldrh	r3, [r2, r3, lsl #1]	@ movhi
 387 001a 7B82     		strh	r3, [r7, #18]	@ movhi
 365:Generated_Source\PSoC5/CapSense_CSD_CSHL.c ****     
 366:Generated_Source\PSoC5/CapSense_CSD_CSHL.c ****     #if (CapSense_CSD_TOTAL_GENERICS_COUNT)
 367:Generated_Source\PSoC5/CapSense_CSD_CSHL.c ****         /* Exclude generic widget */
 368:Generated_Source\PSoC5/CapSense_CSD_CSHL.c ****         if(widget < CapSense_CSD_END_OF_WIDGETS_INDEX)
 369:Generated_Source\PSoC5/CapSense_CSD_CSHL.c ****         {
 370:Generated_Source\PSoC5/CapSense_CSD_CSHL.c ****     #endif  /* CapSense_CSD_TOTAL_GENERICS_COUNT */
 371:Generated_Source\PSoC5/CapSense_CSD_CSHL.c ****     
 372:Generated_Source\PSoC5/CapSense_CSD_CSHL.c ****     filteredRawData = CapSense_CSD_sensorRaw[sensor];
 388              		.loc 1 372 0
 389 001c FB79     		ldrb	r3, [r7, #7]	@ zero_extendqisi2
 390 001e 434A     		ldr	r2, .L28+8
 391 0020 32F81330 		ldrh	r3, [r2, r3, lsl #1]	@ movhi
 392 0024 3B82     		strh	r3, [r7, #16]	@ movhi
 373:Generated_Source\PSoC5/CapSense_CSD_CSHL.c ****     
 374:Generated_Source\PSoC5/CapSense_CSD_CSHL.c ****     #if (CapSense_CSD_RAW_FILTER_MASK & CapSense_CSD_MEDIAN_FILTER)
 375:Generated_Source\PSoC5/CapSense_CSD_CSHL.c ****         tempRaw = filteredRawData;
 376:Generated_Source\PSoC5/CapSense_CSD_CSHL.c ****         filteredRawData = CapSense_CSD_MedianFilter(filteredRawData, CapSense_CSD_rawFilterData1[se
 377:Generated_Source\PSoC5/CapSense_CSD_CSHL.c ****                                                         CapSense_CSD_rawFilterData2[sensor]);
 378:Generated_Source\PSoC5/CapSense_CSD_CSHL.c ****         CapSense_CSD_rawFilterData2[sensor] = CapSense_CSD_rawFilterData1[sensor];
 379:Generated_Source\PSoC5/CapSense_CSD_CSHL.c ****         CapSense_CSD_rawFilterData1[sensor] = tempRaw;
 380:Generated_Source\PSoC5/CapSense_CSD_CSHL.c ****         
 381:Generated_Source\PSoC5/CapSense_CSD_CSHL.c ****     #elif (CapSense_CSD_RAW_FILTER_MASK & CapSense_CSD_AVERAGING_FILTER)
 382:Generated_Source\PSoC5/CapSense_CSD_CSHL.c ****         tempRaw = filteredRawData;
 383:Generated_Source\PSoC5/CapSense_CSD_CSHL.c ****         filteredRawData = CapSense_CSD_AveragingFilter(filteredRawData, CapSense_CSD_rawFilterData1
 384:Generated_Source\PSoC5/CapSense_CSD_CSHL.c ****                                                            CapSense_CSD_rawFilterData2[sensor]);
 385:Generated_Source\PSoC5/CapSense_CSD_CSHL.c ****         CapSense_CSD_rawFilterData2[sensor] = CapSense_CSD_rawFilterData1[sensor];
 386:Generated_Source\PSoC5/CapSense_CSD_CSHL.c ****         CapSense_CSD_rawFilterData1[sensor] = tempRaw;
 387:Generated_Source\PSoC5/CapSense_CSD_CSHL.c ****         
 388:Generated_Source\PSoC5/CapSense_CSD_CSHL.c ****     #elif (CapSense_CSD_RAW_FILTER_MASK & CapSense_CSD_IIR2_FILTER)
 389:Generated_Source\PSoC5/CapSense_CSD_CSHL.c ****         filteredRawData = CapSense_CSD_IIR2Filter(filteredRawData, CapSense_CSD_rawFilterData1[sens
 390:Generated_Source\PSoC5/CapSense_CSD_CSHL.c ****         CapSense_CSD_rawFilterData1[sensor] = filteredRawData;
 391:Generated_Source\PSoC5/CapSense_CSD_CSHL.c ****         
 392:Generated_Source\PSoC5/CapSense_CSD_CSHL.c ****     #elif (CapSense_CSD_RAW_FILTER_MASK & CapSense_CSD_IIR4_FILTER)
 393:Generated_Source\PSoC5/CapSense_CSD_CSHL.c ****         filteredRawData = CapSense_CSD_IIR4Filter(filteredRawData, CapSense_CSD_rawFilterData1[sens
 394:Generated_Source\PSoC5/CapSense_CSD_CSHL.c ****         CapSense_CSD_rawFilterData1[sensor] = filteredRawData;
 395:Generated_Source\PSoC5/CapSense_CSD_CSHL.c ****             
 396:Generated_Source\PSoC5/CapSense_CSD_CSHL.c ****     #elif (CapSense_CSD_RAW_FILTER_MASK & CapSense_CSD_JITTER_FILTER)
 397:Generated_Source\PSoC5/CapSense_CSD_CSHL.c ****         filteredRawData = CapSense_CSD_JitterFilter(filteredRawData, CapSense_CSD_rawFilterData1[se
 398:Generated_Source\PSoC5/CapSense_CSD_CSHL.c ****         CapSense_CSD_rawFilterData1[sensor] = filteredRawData;
 399:Generated_Source\PSoC5/CapSense_CSD_CSHL.c ****         
 400:Generated_Source\PSoC5/CapSense_CSD_CSHL.c ****     #elif (CapSense_CSD_RAW_FILTER_MASK & CapSense_CSD_IIR8_FILTER)
 401:Generated_Source\PSoC5/CapSense_CSD_CSHL.c ****         filteredRawData = CapSense_CSD_IIR8Filter(filteredRawData, CapSense_CSD_rawFilterData1[sens
 402:Generated_Source\PSoC5/CapSense_CSD_CSHL.c ****         CapSense_CSD_rawFilterData1[sensor] = filteredRawData;
ARM GAS  C:\Users\HENRIC~1\AppData\Local\Temp\ccL0852m.s 			page 15


 403:Generated_Source\PSoC5/CapSense_CSD_CSHL.c ****         
 404:Generated_Source\PSoC5/CapSense_CSD_CSHL.c ****     #elif (CapSense_CSD_RAW_FILTER_MASK & CapSense_CSD_IIR16_FILTER)
 405:Generated_Source\PSoC5/CapSense_CSD_CSHL.c ****         filteredRawData = CapSense_CSD_IIR16Filter(filteredRawData, CapSense_CSD_rawFilterData1[sen
 406:Generated_Source\PSoC5/CapSense_CSD_CSHL.c ****         CapSense_CSD_rawFilterData1[sensor] = filteredRawData;
 407:Generated_Source\PSoC5/CapSense_CSD_CSHL.c ****         
 408:Generated_Source\PSoC5/CapSense_CSD_CSHL.c ****     #else
 409:Generated_Source\PSoC5/CapSense_CSD_CSHL.c ****         /* No Raw filters */
 410:Generated_Source\PSoC5/CapSense_CSD_CSHL.c ****     #endif  /* (CapSense_CSD_RAW_FILTER_MASK & CapSense_CSD_MEDIAN_FILTER) */
 411:Generated_Source\PSoC5/CapSense_CSD_CSHL.c ****     
 412:Generated_Source\PSoC5/CapSense_CSD_CSHL.c ****     #if (CapSense_CSD_TUNING_METHOD == CapSense_CSD_AUTO_TUNING)
 413:Generated_Source\PSoC5/CapSense_CSD_CSHL.c ****         CapSense_CSD_CalculateThresholds(sensor);
 414:Generated_Source\PSoC5/CapSense_CSD_CSHL.c ****     #endif /* (CapSense_CSD_TUNING_METHOD == CapSense_CSD_AUTO_TUNING) */
 415:Generated_Source\PSoC5/CapSense_CSD_CSHL.c **** 
 416:Generated_Source\PSoC5/CapSense_CSD_CSHL.c **** 
 417:Generated_Source\PSoC5/CapSense_CSD_CSHL.c ****     /* Baseline calculation */
 418:Generated_Source\PSoC5/CapSense_CSD_CSHL.c ****     /* Calculate difference RawData[cur] - Baseline[prev] */
 419:Generated_Source\PSoC5/CapSense_CSD_CSHL.c ****     if(filteredRawData >= CapSense_CSD_sensorBaseline[sensor])
 393              		.loc 1 419 0
 394 0026 FB79     		ldrb	r3, [r7, #7]	@ zero_extendqisi2
 395 0028 414A     		ldr	r2, .L28+12
 396 002a 32F81330 		ldrh	r3, [r2, r3, lsl #1]
 397 002e 3A8A     		ldrh	r2, [r7, #16]
 398 0030 9A42     		cmp	r2, r3
 399 0032 09D3     		bcc	.L19
 420:Generated_Source\PSoC5/CapSense_CSD_CSHL.c ****     {
 421:Generated_Source\PSoC5/CapSense_CSD_CSHL.c ****         tempRaw = filteredRawData - CapSense_CSD_sensorBaseline[sensor];
 400              		.loc 1 421 0
 401 0034 FB79     		ldrb	r3, [r7, #7]	@ zero_extendqisi2
 402 0036 3E4A     		ldr	r2, .L28+12
 403 0038 32F81330 		ldrh	r3, [r2, r3, lsl #1]
 404 003c 3A8A     		ldrh	r2, [r7, #16]	@ movhi
 405 003e D31A     		subs	r3, r2, r3
 406 0040 FB82     		strh	r3, [r7, #22]	@ movhi
 422:Generated_Source\PSoC5/CapSense_CSD_CSHL.c ****         widget = 1u;    /* Positive difference - Calculate the Signal */
 407              		.loc 1 422 0
 408 0042 0123     		movs	r3, #1
 409 0044 7B75     		strb	r3, [r7, #21]
 410 0046 08E0     		b	.L20
 411              	.L19:
 423:Generated_Source\PSoC5/CapSense_CSD_CSHL.c ****     }
 424:Generated_Source\PSoC5/CapSense_CSD_CSHL.c ****     else
 425:Generated_Source\PSoC5/CapSense_CSD_CSHL.c ****     {
 426:Generated_Source\PSoC5/CapSense_CSD_CSHL.c ****         tempRaw = CapSense_CSD_sensorBaseline[sensor] - filteredRawData;
 412              		.loc 1 426 0
 413 0048 FB79     		ldrb	r3, [r7, #7]	@ zero_extendqisi2
 414 004a 394A     		ldr	r2, .L28+12
 415 004c 32F81320 		ldrh	r2, [r2, r3, lsl #1]
 416 0050 3B8A     		ldrh	r3, [r7, #16]	@ movhi
 417 0052 D31A     		subs	r3, r2, r3
 418 0054 FB82     		strh	r3, [r7, #22]	@ movhi
 427:Generated_Source\PSoC5/CapSense_CSD_CSHL.c ****         widget = 0u;    /* Negative difference - Do NOT calculate the Signal */
 419              		.loc 1 427 0
 420 0056 0023     		movs	r3, #0
 421 0058 7B75     		strb	r3, [r7, #21]
 422              	.L20:
 428:Generated_Source\PSoC5/CapSense_CSD_CSHL.c ****     }
 429:Generated_Source\PSoC5/CapSense_CSD_CSHL.c **** 
ARM GAS  C:\Users\HENRIC~1\AppData\Local\Temp\ccL0852m.s 			page 16


 430:Generated_Source\PSoC5/CapSense_CSD_CSHL.c ****     if((widget == 0u) && (tempRaw > (uint16) CapSense_CSD_NEGATIVE_NOISE_THRESHOLD))
 423              		.loc 1 430 0
 424 005a 7B7D     		ldrb	r3, [r7, #21]	@ zero_extendqisi2
 425 005c 002B     		cmp	r3, #0
 426 005e 18D1     		bne	.L21
 427              		.loc 1 430 0 is_stmt 0 discriminator 1
 428 0060 FB8A     		ldrh	r3, [r7, #22]
 429 0062 142B     		cmp	r3, #20
 430 0064 15D9     		bls	.L21
 431:Generated_Source\PSoC5/CapSense_CSD_CSHL.c ****     {
 432:Generated_Source\PSoC5/CapSense_CSD_CSHL.c ****         if(CapSense_CSD_lowBaselineResetCnt[sensor] >= CapSense_CSD_LOW_BASELINE_RESET)
 431              		.loc 1 432 0 is_stmt 1
 432 0066 FB79     		ldrb	r3, [r7, #7]	@ zero_extendqisi2
 433 0068 324A     		ldr	r2, .L28+16
 434 006a D35C     		ldrb	r3, [r2, r3]	@ zero_extendqisi2
 435 006c 042B     		cmp	r3, #4
 436 006e 08D9     		bls	.L22
 433:Generated_Source\PSoC5/CapSense_CSD_CSHL.c ****         {
 434:Generated_Source\PSoC5/CapSense_CSD_CSHL.c ****             CapSense_CSD_BaseInit(sensor);
 437              		.loc 1 434 0
 438 0070 FB79     		ldrb	r3, [r7, #7]	@ zero_extendqisi2
 439 0072 1846     		mov	r0, r3
 440 0074 FFF7FEFF 		bl	CapSense_CSD_BaseInit
 435:Generated_Source\PSoC5/CapSense_CSD_CSHL.c ****             CapSense_CSD_lowBaselineResetCnt[sensor] = 0u;
 441              		.loc 1 435 0
 442 0078 FB79     		ldrb	r3, [r7, #7]	@ zero_extendqisi2
 443 007a 2E4A     		ldr	r2, .L28+16
 444 007c 0021     		movs	r1, #0
 445 007e D154     		strb	r1, [r2, r3]
 432:Generated_Source\PSoC5/CapSense_CSD_CSHL.c ****         {
 446              		.loc 1 432 0
 447 0080 3AE0     		b	.L24
 448              	.L22:
 436:Generated_Source\PSoC5/CapSense_CSD_CSHL.c ****         }
 437:Generated_Source\PSoC5/CapSense_CSD_CSHL.c ****         else
 438:Generated_Source\PSoC5/CapSense_CSD_CSHL.c ****         {
 439:Generated_Source\PSoC5/CapSense_CSD_CSHL.c ****             CapSense_CSD_lowBaselineResetCnt[sensor]++;
 449              		.loc 1 439 0
 450 0082 FB79     		ldrb	r3, [r7, #7]	@ zero_extendqisi2
 451 0084 2B4A     		ldr	r2, .L28+16
 452 0086 D25C     		ldrb	r2, [r2, r3]	@ zero_extendqisi2
 453 0088 0132     		adds	r2, r2, #1
 454 008a D1B2     		uxtb	r1, r2
 455 008c 294A     		ldr	r2, .L28+16
 456 008e D154     		strb	r1, [r2, r3]
 432:Generated_Source\PSoC5/CapSense_CSD_CSHL.c ****         {
 457              		.loc 1 432 0
 458 0090 32E0     		b	.L24
 459              	.L21:
 440:Generated_Source\PSoC5/CapSense_CSD_CSHL.c ****         }
 441:Generated_Source\PSoC5/CapSense_CSD_CSHL.c ****     }
 442:Generated_Source\PSoC5/CapSense_CSD_CSHL.c ****     else
 443:Generated_Source\PSoC5/CapSense_CSD_CSHL.c ****     {
 444:Generated_Source\PSoC5/CapSense_CSD_CSHL.c ****         #if (CapSense_CSD_AUTO_RESET == CapSense_CSD_AUTO_RESET_DISABLE)
 445:Generated_Source\PSoC5/CapSense_CSD_CSHL.c ****             /* Update Baseline if lower that noiseThreshold */
 446:Generated_Source\PSoC5/CapSense_CSD_CSHL.c ****             if ( (tempRaw <= (uint16) noiseThreshold) || 
 460              		.loc 1 446 0
ARM GAS  C:\Users\HENRIC~1\AppData\Local\Temp\ccL0852m.s 			page 17


 461 0092 FA8A     		ldrh	r2, [r7, #22]
 462 0094 7B8A     		ldrh	r3, [r7, #18]
 463 0096 9A42     		cmp	r2, r3
 464 0098 05D9     		bls	.L25
 465              		.loc 1 446 0 is_stmt 0 discriminator 1
 466 009a FB8A     		ldrh	r3, [r7, #22]
 467 009c 132B     		cmp	r3, #19
 468 009e 2BD8     		bhi	.L24
 447:Generated_Source\PSoC5/CapSense_CSD_CSHL.c ****                  ((tempRaw < (uint16) CapSense_CSD_NEGATIVE_NOISE_THRESHOLD)
 448:Generated_Source\PSoC5/CapSense_CSD_CSHL.c ****                    && (widget == 0u)))
 469              		.loc 1 448 0 is_stmt 1
 470 00a0 7B7D     		ldrb	r3, [r7, #21]	@ zero_extendqisi2
 471 00a2 002B     		cmp	r3, #0
 472 00a4 28D1     		bne	.L24
 473              	.L25:
 449:Generated_Source\PSoC5/CapSense_CSD_CSHL.c ****             {
 450:Generated_Source\PSoC5/CapSense_CSD_CSHL.c ****         #endif /* (CapSense_CSD_AUTO_RESET == CapSense_CSD_AUTO_RESET_DISABLE) */
 451:Generated_Source\PSoC5/CapSense_CSD_CSHL.c ****                 /* Make full Baseline 23 bits */
 452:Generated_Source\PSoC5/CapSense_CSD_CSHL.c ****                 calc = (uint32) CapSense_CSD_sensorBaseline[sensor] << 8u;
 474              		.loc 1 452 0
 475 00a6 FB79     		ldrb	r3, [r7, #7]	@ zero_extendqisi2
 476 00a8 214A     		ldr	r2, .L28+12
 477 00aa 32F81330 		ldrh	r3, [r2, r3, lsl #1]
 478 00ae 1B02     		lsls	r3, r3, #8
 479 00b0 FB60     		str	r3, [r7, #12]
 453:Generated_Source\PSoC5/CapSense_CSD_CSHL.c ****                 calc |= (uint32) CapSense_CSD_sensorBaselineLow[sensor];
 480              		.loc 1 453 0
 481 00b2 FB79     		ldrb	r3, [r7, #7]	@ zero_extendqisi2
 482 00b4 204A     		ldr	r2, .L28+20
 483 00b6 D35C     		ldrb	r3, [r2, r3]	@ zero_extendqisi2
 484 00b8 1A46     		mov	r2, r3
 485 00ba FB68     		ldr	r3, [r7, #12]
 486 00bc 1343     		orrs	r3, r3, r2
 487 00be FB60     		str	r3, [r7, #12]
 454:Generated_Source\PSoC5/CapSense_CSD_CSHL.c **** 
 455:Generated_Source\PSoC5/CapSense_CSD_CSHL.c ****                 /* Add Raw Data to Baseline */
 456:Generated_Source\PSoC5/CapSense_CSD_CSHL.c ****                 calc += filteredRawData;
 488              		.loc 1 456 0
 489 00c0 3B8A     		ldrh	r3, [r7, #16]
 490 00c2 FA68     		ldr	r2, [r7, #12]
 491 00c4 1344     		add	r3, r3, r2
 492 00c6 FB60     		str	r3, [r7, #12]
 457:Generated_Source\PSoC5/CapSense_CSD_CSHL.c **** 
 458:Generated_Source\PSoC5/CapSense_CSD_CSHL.c ****                 /* Sub the high Baseline */
 459:Generated_Source\PSoC5/CapSense_CSD_CSHL.c ****                 calc -= CapSense_CSD_sensorBaseline[sensor];
 493              		.loc 1 459 0
 494 00c8 FB79     		ldrb	r3, [r7, #7]	@ zero_extendqisi2
 495 00ca 194A     		ldr	r2, .L28+12
 496 00cc 32F81330 		ldrh	r3, [r2, r3, lsl #1]
 497 00d0 1A46     		mov	r2, r3
 498 00d2 FB68     		ldr	r3, [r7, #12]
 499 00d4 9B1A     		subs	r3, r3, r2
 500 00d6 FB60     		str	r3, [r7, #12]
 460:Generated_Source\PSoC5/CapSense_CSD_CSHL.c **** 
 461:Generated_Source\PSoC5/CapSense_CSD_CSHL.c ****                 /* Put Baseline and BaselineLow */
 462:Generated_Source\PSoC5/CapSense_CSD_CSHL.c ****                 CapSense_CSD_sensorBaseline[sensor] = ((uint16) (calc >> 8u));
 501              		.loc 1 462 0
ARM GAS  C:\Users\HENRIC~1\AppData\Local\Temp\ccL0852m.s 			page 18


 502 00d8 FB79     		ldrb	r3, [r7, #7]	@ zero_extendqisi2
 503 00da FA68     		ldr	r2, [r7, #12]
 504 00dc 120A     		lsrs	r2, r2, #8
 505 00de 91B2     		uxth	r1, r2
 506 00e0 134A     		ldr	r2, .L28+12
 507 00e2 22F81310 		strh	r1, [r2, r3, lsl #1]	@ movhi
 463:Generated_Source\PSoC5/CapSense_CSD_CSHL.c ****                 CapSense_CSD_sensorBaselineLow[sensor] = ((uint8) calc);
 508              		.loc 1 463 0
 509 00e6 FB79     		ldrb	r3, [r7, #7]	@ zero_extendqisi2
 510 00e8 FA68     		ldr	r2, [r7, #12]
 511 00ea D1B2     		uxtb	r1, r2
 512 00ec 124A     		ldr	r2, .L28+20
 513 00ee D154     		strb	r1, [r2, r3]
 464:Generated_Source\PSoC5/CapSense_CSD_CSHL.c **** 
 465:Generated_Source\PSoC5/CapSense_CSD_CSHL.c ****                 CapSense_CSD_lowBaselineResetCnt[sensor] = 0u;
 514              		.loc 1 465 0
 515 00f0 FB79     		ldrb	r3, [r7, #7]	@ zero_extendqisi2
 516 00f2 104A     		ldr	r2, .L28+16
 517 00f4 0021     		movs	r1, #0
 518 00f6 D154     		strb	r1, [r2, r3]
 519              	.L24:
 466:Generated_Source\PSoC5/CapSense_CSD_CSHL.c ****         #if (CapSense_CSD_AUTO_RESET == CapSense_CSD_AUTO_RESET_DISABLE)
 467:Generated_Source\PSoC5/CapSense_CSD_CSHL.c ****             }
 468:Generated_Source\PSoC5/CapSense_CSD_CSHL.c ****         #endif /* (CapSense_CSD_AUTO_RESET == CapSense_CSD_AUTO_RESET_DISABLE) */
 469:Generated_Source\PSoC5/CapSense_CSD_CSHL.c ****     }
 470:Generated_Source\PSoC5/CapSense_CSD_CSHL.c **** 
 471:Generated_Source\PSoC5/CapSense_CSD_CSHL.c ****     /* Calculate Signal if possitive difference > noiseThreshold */
 472:Generated_Source\PSoC5/CapSense_CSD_CSHL.c ****     if((tempRaw > (uint16) noiseThreshold) && (widget != 0u))
 520              		.loc 1 472 0
 521 00f8 FA8A     		ldrh	r2, [r7, #22]
 522 00fa 7B8A     		ldrh	r3, [r7, #18]
 523 00fc 9A42     		cmp	r2, r3
 524 00fe 08D9     		bls	.L26
 525              		.loc 1 472 0 is_stmt 0 discriminator 1
 526 0100 7B7D     		ldrb	r3, [r7, #21]	@ zero_extendqisi2
 527 0102 002B     		cmp	r3, #0
 528 0104 05D0     		beq	.L26
 473:Generated_Source\PSoC5/CapSense_CSD_CSHL.c ****     {
 474:Generated_Source\PSoC5/CapSense_CSD_CSHL.c ****         #if (CapSense_CSD_SIGNAL_SIZE == CapSense_CSD_SIGNAL_SIZE_UINT8)
 475:Generated_Source\PSoC5/CapSense_CSD_CSHL.c ****             /* Over flow defence for uint8 */
 476:Generated_Source\PSoC5/CapSense_CSD_CSHL.c ****             if (tempRaw > 0xFFu)
 477:Generated_Source\PSoC5/CapSense_CSD_CSHL.c ****             {
 478:Generated_Source\PSoC5/CapSense_CSD_CSHL.c ****                 CapSense_CSD_sensorSignal[sensor] = 0xFFu;
 479:Generated_Source\PSoC5/CapSense_CSD_CSHL.c ****             }    
 480:Generated_Source\PSoC5/CapSense_CSD_CSHL.c ****             else 
 481:Generated_Source\PSoC5/CapSense_CSD_CSHL.c ****             {
 482:Generated_Source\PSoC5/CapSense_CSD_CSHL.c ****                 CapSense_CSD_sensorSignal[sensor] = ((uint8) tempRaw);
 483:Generated_Source\PSoC5/CapSense_CSD_CSHL.c ****             }
 484:Generated_Source\PSoC5/CapSense_CSD_CSHL.c ****         #else
 485:Generated_Source\PSoC5/CapSense_CSD_CSHL.c ****             CapSense_CSD_sensorSignal[sensor] = ((uint16) tempRaw);
 529              		.loc 1 485 0 is_stmt 1
 530 0106 FB79     		ldrb	r3, [r7, #7]	@ zero_extendqisi2
 531 0108 0C49     		ldr	r1, .L28+24
 532 010a FA8A     		ldrh	r2, [r7, #22]	@ movhi
 533 010c 21F81320 		strh	r2, [r1, r3, lsl #1]	@ movhi
 534 0110 04E0     		b	.L27
 535              	.L26:
ARM GAS  C:\Users\HENRIC~1\AppData\Local\Temp\ccL0852m.s 			page 19


 486:Generated_Source\PSoC5/CapSense_CSD_CSHL.c ****         #endif  /* (CapSense_CSD_SIGNAL_SIZE == CapSense_CSD_SIGNAL_SIZE_UINT8) */
 487:Generated_Source\PSoC5/CapSense_CSD_CSHL.c ****     }
 488:Generated_Source\PSoC5/CapSense_CSD_CSHL.c ****     else
 489:Generated_Source\PSoC5/CapSense_CSD_CSHL.c ****     {
 490:Generated_Source\PSoC5/CapSense_CSD_CSHL.c ****         /* Signal is zero */
 491:Generated_Source\PSoC5/CapSense_CSD_CSHL.c ****         CapSense_CSD_sensorSignal[sensor] = 0u;
 536              		.loc 1 491 0
 537 0112 FB79     		ldrb	r3, [r7, #7]	@ zero_extendqisi2
 538 0114 094A     		ldr	r2, .L28+24
 539 0116 0021     		movs	r1, #0
 540 0118 22F81310 		strh	r1, [r2, r3, lsl #1]	@ movhi
 541              	.L27:
 492:Generated_Source\PSoC5/CapSense_CSD_CSHL.c ****     }
 493:Generated_Source\PSoC5/CapSense_CSD_CSHL.c **** 
 494:Generated_Source\PSoC5/CapSense_CSD_CSHL.c ****     #if (CapSense_CSD_TOTAL_GENERICS_COUNT)
 495:Generated_Source\PSoC5/CapSense_CSD_CSHL.c ****         /* Exclude generic widget */
 496:Generated_Source\PSoC5/CapSense_CSD_CSHL.c ****         }
 497:Generated_Source\PSoC5/CapSense_CSD_CSHL.c ****     #endif  /* CapSense_CSD_TOTAL_GENERICS_COUNT */
 498:Generated_Source\PSoC5/CapSense_CSD_CSHL.c **** }
 542              		.loc 1 498 0
 543 011c 00BF     		nop
 544 011e 1837     		adds	r7, r7, #24
 545              		.cfi_def_cfa_offset 8
 546 0120 BD46     		mov	sp, r7
 547              		.cfi_def_cfa_register 13
 548              		@ sp needed
 549 0122 80BD     		pop	{r7, pc}
 550              	.L29:
 551              		.align	2
 552              	.L28:
 553 0124 00000000 		.word	CapSense_CSD_widgetNumber
 554 0128 00000000 		.word	CapSense_CSD_noiseThreshold
 555 012c 00000000 		.word	CapSense_CSD_sensorRaw
 556 0130 00000000 		.word	CapSense_CSD_sensorBaseline
 557 0134 00000000 		.word	CapSense_CSD_lowBaselineResetCnt
 558 0138 00000000 		.word	CapSense_CSD_sensorBaselineLow
 559 013c 00000000 		.word	CapSense_CSD_sensorSignal
 560              		.cfi_endproc
 561              	.LFE4:
 562              		.size	CapSense_CSD_UpdateSensorBaseline, .-CapSense_CSD_UpdateSensorBaseline
 563              		.section	.text.CapSense_CSD_UpdateEnabledBaselines,"ax",%progbits
 564              		.align	2
 565              		.global	CapSense_CSD_UpdateEnabledBaselines
 566              		.thumb
 567              		.thumb_func
 568              		.type	CapSense_CSD_UpdateEnabledBaselines, %function
 569              	CapSense_CSD_UpdateEnabledBaselines:
 570              	.LFB5:
 499:Generated_Source\PSoC5/CapSense_CSD_CSHL.c **** 
 500:Generated_Source\PSoC5/CapSense_CSD_CSHL.c **** 
 501:Generated_Source\PSoC5/CapSense_CSD_CSHL.c **** /*******************************************************************************
 502:Generated_Source\PSoC5/CapSense_CSD_CSHL.c **** * Function Name: CapSense_CSD_UpdateEnabledBaselines
 503:Generated_Source\PSoC5/CapSense_CSD_CSHL.c **** ********************************************************************************
 504:Generated_Source\PSoC5/CapSense_CSD_CSHL.c **** *
 505:Generated_Source\PSoC5/CapSense_CSD_CSHL.c **** * Summary:
 506:Generated_Source\PSoC5/CapSense_CSD_CSHL.c **** *  Checks CapSense_CSD_sensorEnableMask[] array and calls the 
 507:Generated_Source\PSoC5/CapSense_CSD_CSHL.c **** *  CapSense_CSD_UpdateSensorBaseline function to update the baselines 
ARM GAS  C:\Users\HENRIC~1\AppData\Local\Temp\ccL0852m.s 			page 20


 508:Generated_Source\PSoC5/CapSense_CSD_CSHL.c **** *  for enabled sensors.
 509:Generated_Source\PSoC5/CapSense_CSD_CSHL.c **** *
 510:Generated_Source\PSoC5/CapSense_CSD_CSHL.c **** * Parameters:
 511:Generated_Source\PSoC5/CapSense_CSD_CSHL.c **** *  None
 512:Generated_Source\PSoC5/CapSense_CSD_CSHL.c **** *
 513:Generated_Source\PSoC5/CapSense_CSD_CSHL.c **** * Return:
 514:Generated_Source\PSoC5/CapSense_CSD_CSHL.c **** *  None
 515:Generated_Source\PSoC5/CapSense_CSD_CSHL.c **** *
 516:Generated_Source\PSoC5/CapSense_CSD_CSHL.c **** * Global Variables:
 517:Generated_Source\PSoC5/CapSense_CSD_CSHL.c **** *  CapSense_CSD_sensorEnableMask[] - used to store the sensor scanning 
 518:Generated_Source\PSoC5/CapSense_CSD_CSHL.c **** *  state.
 519:Generated_Source\PSoC5/CapSense_CSD_CSHL.c **** *  CapSense_CSD_sensorEnableMask[0] contains the masked bits for sensors 
 520:Generated_Source\PSoC5/CapSense_CSD_CSHL.c **** *   0 through 7 (sensor 0 is bit 0, sensor 1 is bit 1).
 521:Generated_Source\PSoC5/CapSense_CSD_CSHL.c **** *  CapSense_CSD_sensorEnableMask[1] contains the masked bits for 
 522:Generated_Source\PSoC5/CapSense_CSD_CSHL.c **** *  sensors 8 through 15 (if needed), and so on.
 523:Generated_Source\PSoC5/CapSense_CSD_CSHL.c **** *  0 - sensor doesn't scan by CapSense_CSD_ScanEnabledWidgets().
 524:Generated_Source\PSoC5/CapSense_CSD_CSHL.c **** *  1 - sensor scans by CapSense_CSD_ScanEnabledWidgets().
 525:Generated_Source\PSoC5/CapSense_CSD_CSHL.c **** *
 526:Generated_Source\PSoC5/CapSense_CSD_CSHL.c **** * Reentrant:
 527:Generated_Source\PSoC5/CapSense_CSD_CSHL.c **** *  No
 528:Generated_Source\PSoC5/CapSense_CSD_CSHL.c **** *
 529:Generated_Source\PSoC5/CapSense_CSD_CSHL.c **** *******************************************************************************/
 530:Generated_Source\PSoC5/CapSense_CSD_CSHL.c ****  void CapSense_CSD_UpdateEnabledBaselines(void)
 531:Generated_Source\PSoC5/CapSense_CSD_CSHL.c ****                                  
 532:Generated_Source\PSoC5/CapSense_CSD_CSHL.c **** {
 571              		.loc 1 532 0
 572              		.cfi_startproc
 573              		@ args = 0, pretend = 0, frame = 8
 574              		@ frame_needed = 1, uses_anonymous_args = 0
 575 0000 80B5     		push	{r7, lr}
 576              		.cfi_def_cfa_offset 8
 577              		.cfi_offset 7, -8
 578              		.cfi_offset 14, -4
 579 0002 82B0     		sub	sp, sp, #8
 580              		.cfi_def_cfa_offset 16
 581 0004 00AF     		add	r7, sp, #0
 582              		.cfi_def_cfa_register 7
 533:Generated_Source\PSoC5/CapSense_CSD_CSHL.c ****     uint8 i;
 534:Generated_Source\PSoC5/CapSense_CSD_CSHL.c ****     uint8 pos;
 535:Generated_Source\PSoC5/CapSense_CSD_CSHL.c ****     uint8 enMask;
 536:Generated_Source\PSoC5/CapSense_CSD_CSHL.c ****     
 537:Generated_Source\PSoC5/CapSense_CSD_CSHL.c ****     for(i = 0u; i < CapSense_CSD_TOTAL_SENSOR_COUNT; i++)
 583              		.loc 1 537 0
 584 0006 0023     		movs	r3, #0
 585 0008 FB71     		strb	r3, [r7, #7]
 586 000a 18E0     		b	.L31
 587              	.L33:
 538:Generated_Source\PSoC5/CapSense_CSD_CSHL.c ****     {
 539:Generated_Source\PSoC5/CapSense_CSD_CSHL.c ****         pos = (i >> 3u);
 588              		.loc 1 539 0
 589 000c FB79     		ldrb	r3, [r7, #7]	@ zero_extendqisi2
 590 000e DB08     		lsrs	r3, r3, #3
 591 0010 BB71     		strb	r3, [r7, #6]
 540:Generated_Source\PSoC5/CapSense_CSD_CSHL.c ****         enMask = (uint8)(0x01u << (i & 0x07u));
 592              		.loc 1 540 0
 593 0012 FB79     		ldrb	r3, [r7, #7]	@ zero_extendqisi2
 594 0014 03F00703 		and	r3, r3, #7
ARM GAS  C:\Users\HENRIC~1\AppData\Local\Temp\ccL0852m.s 			page 21


 595 0018 0122     		movs	r2, #1
 596 001a 02FA03F3 		lsl	r3, r2, r3
 597 001e 7B71     		strb	r3, [r7, #5]
 541:Generated_Source\PSoC5/CapSense_CSD_CSHL.c ****         if((CapSense_CSD_sensorEnableMask[pos] & enMask) != 0u)
 598              		.loc 1 541 0
 599 0020 BB79     		ldrb	r3, [r7, #6]	@ zero_extendqisi2
 600 0022 0A4A     		ldr	r2, .L34
 601 0024 D25C     		ldrb	r2, [r2, r3]	@ zero_extendqisi2
 602 0026 7B79     		ldrb	r3, [r7, #5]
 603 0028 1340     		ands	r3, r3, r2
 604 002a DBB2     		uxtb	r3, r3
 605 002c 002B     		cmp	r3, #0
 606 002e 03D0     		beq	.L32
 542:Generated_Source\PSoC5/CapSense_CSD_CSHL.c ****         {
 543:Generated_Source\PSoC5/CapSense_CSD_CSHL.c ****             CapSense_CSD_UpdateSensorBaseline(i);
 607              		.loc 1 543 0
 608 0030 FB79     		ldrb	r3, [r7, #7]	@ zero_extendqisi2
 609 0032 1846     		mov	r0, r3
 610 0034 FFF7FEFF 		bl	CapSense_CSD_UpdateSensorBaseline
 611              	.L32:
 537:Generated_Source\PSoC5/CapSense_CSD_CSHL.c ****     {
 612              		.loc 1 537 0 discriminator 2
 613 0038 FB79     		ldrb	r3, [r7, #7]	@ zero_extendqisi2
 614 003a 0133     		adds	r3, r3, #1
 615 003c FB71     		strb	r3, [r7, #7]
 616              	.L31:
 537:Generated_Source\PSoC5/CapSense_CSD_CSHL.c ****     {
 617              		.loc 1 537 0 is_stmt 0 discriminator 1
 618 003e FB79     		ldrb	r3, [r7, #7]	@ zero_extendqisi2
 619 0040 062B     		cmp	r3, #6
 620 0042 E3D9     		bls	.L33
 544:Generated_Source\PSoC5/CapSense_CSD_CSHL.c ****         }
 545:Generated_Source\PSoC5/CapSense_CSD_CSHL.c ****     }
 546:Generated_Source\PSoC5/CapSense_CSD_CSHL.c **** }
 621              		.loc 1 546 0 is_stmt 1
 622 0044 00BF     		nop
 623 0046 0837     		adds	r7, r7, #8
 624              		.cfi_def_cfa_offset 8
 625 0048 BD46     		mov	sp, r7
 626              		.cfi_def_cfa_register 13
 627              		@ sp needed
 628 004a 80BD     		pop	{r7, pc}
 629              	.L35:
 630              		.align	2
 631              	.L34:
 632 004c 00000000 		.word	CapSense_CSD_sensorEnableMask
 633              		.cfi_endproc
 634              	.LFE5:
 635              		.size	CapSense_CSD_UpdateEnabledBaselines, .-CapSense_CSD_UpdateEnabledBaselines
 636              		.section	.text.CapSense_CSD_CheckIsSensorActive,"ax",%progbits
 637              		.align	2
 638              		.global	CapSense_CSD_CheckIsSensorActive
 639              		.thumb
 640              		.thumb_func
 641              		.type	CapSense_CSD_CheckIsSensorActive, %function
 642              	CapSense_CSD_CheckIsSensorActive:
 643              	.LFB6:
ARM GAS  C:\Users\HENRIC~1\AppData\Local\Temp\ccL0852m.s 			page 22


 547:Generated_Source\PSoC5/CapSense_CSD_CSHL.c **** 
 548:Generated_Source\PSoC5/CapSense_CSD_CSHL.c **** 
 549:Generated_Source\PSoC5/CapSense_CSD_CSHL.c **** /*******************************************************************************
 550:Generated_Source\PSoC5/CapSense_CSD_CSHL.c **** * Function Name: CapSense_CSD_CheckIsSensorActive
 551:Generated_Source\PSoC5/CapSense_CSD_CSHL.c **** ********************************************************************************
 552:Generated_Source\PSoC5/CapSense_CSD_CSHL.c **** *
 553:Generated_Source\PSoC5/CapSense_CSD_CSHL.c **** * Summary:
 554:Generated_Source\PSoC5/CapSense_CSD_CSHL.c **** *  Compares the CapSense_CSD_SensorSignal[sensor] array element to finger
 555:Generated_Source\PSoC5/CapSense_CSD_CSHL.c **** *  threshold of widget it belongs to. The hysteresis and debounce are taken into 
 556:Generated_Source\PSoC5/CapSense_CSD_CSHL.c **** *  account. The hysteresis is added or subtracted from the finger threshold 
 557:Generated_Source\PSoC5/CapSense_CSD_CSHL.c **** *  based on whether the sensor is currently active. 
 558:Generated_Source\PSoC5/CapSense_CSD_CSHL.c **** *  If the sensor is active, the threshold is lowered by the hysteresis amount.
 559:Generated_Source\PSoC5/CapSense_CSD_CSHL.c **** *  If the sensor is inactive, the threshold is raised by the hysteresis amount.
 560:Generated_Source\PSoC5/CapSense_CSD_CSHL.c **** *  The debounce counter added to the sensor active transition.
 561:Generated_Source\PSoC5/CapSense_CSD_CSHL.c **** *  This function updates CapSense_CSD_SensorOnMask[] array element.
 562:Generated_Source\PSoC5/CapSense_CSD_CSHL.c **** *
 563:Generated_Source\PSoC5/CapSense_CSD_CSHL.c **** * Parameters:
 564:Generated_Source\PSoC5/CapSense_CSD_CSHL.c **** *  sensor:  Sensor number.
 565:Generated_Source\PSoC5/CapSense_CSD_CSHL.c **** *
 566:Generated_Source\PSoC5/CapSense_CSD_CSHL.c **** * Return:
 567:Generated_Source\PSoC5/CapSense_CSD_CSHL.c **** *  Returns sensor state 1 if active, 0 if not active.
 568:Generated_Source\PSoC5/CapSense_CSD_CSHL.c **** *
 569:Generated_Source\PSoC5/CapSense_CSD_CSHL.c **** * Global Variables:
 570:Generated_Source\PSoC5/CapSense_CSD_CSHL.c **** *  CapSense_CSD_sensorSignal[]      - used to store diffence between 
 571:Generated_Source\PSoC5/CapSense_CSD_CSHL.c **** *  current value of raw data and previous value of baseline.
 572:Generated_Source\PSoC5/CapSense_CSD_CSHL.c **** *  CapSense_CSD_debounceCounter[]   - used to store current debounce 
 573:Generated_Source\PSoC5/CapSense_CSD_CSHL.c **** *  counter of sensor. Widget which has this parameter are buttons, matrix 
 574:Generated_Source\PSoC5/CapSense_CSD_CSHL.c **** *  buttons, proximity, guard. All other widgets haven't debounce parameter
 575:Generated_Source\PSoC5/CapSense_CSD_CSHL.c **** *  and use the last element of this array with value 0 (it means no debounce).
 576:Generated_Source\PSoC5/CapSense_CSD_CSHL.c **** *  CapSense_CSD_sensorOnMask[] - used to store sensors on/off state.
 577:Generated_Source\PSoC5/CapSense_CSD_CSHL.c **** *  CapSense_CSD_sensorOnMask[0] contains the masked bits for sensors 
 578:Generated_Source\PSoC5/CapSense_CSD_CSHL.c **** *   0 through 7 (sensor 0 is bit 0, sensor 1 is bit 1).
 579:Generated_Source\PSoC5/CapSense_CSD_CSHL.c **** *  CapSense_CSD_sensorEnableMask[1] contains the masked bits for 
 580:Generated_Source\PSoC5/CapSense_CSD_CSHL.c **** *  sensors 8 through 15 (if needed), and so on.
 581:Generated_Source\PSoC5/CapSense_CSD_CSHL.c **** *  0 - sensor is inactive.
 582:Generated_Source\PSoC5/CapSense_CSD_CSHL.c **** *  1 - sensor is active.
 583:Generated_Source\PSoC5/CapSense_CSD_CSHL.c **** *
 584:Generated_Source\PSoC5/CapSense_CSD_CSHL.c **** * Reentrant:
 585:Generated_Source\PSoC5/CapSense_CSD_CSHL.c **** *  No
 586:Generated_Source\PSoC5/CapSense_CSD_CSHL.c **** *
 587:Generated_Source\PSoC5/CapSense_CSD_CSHL.c **** *******************************************************************************/
 588:Generated_Source\PSoC5/CapSense_CSD_CSHL.c **** uint8 CapSense_CSD_CheckIsSensorActive(uint8 sensor)
 589:Generated_Source\PSoC5/CapSense_CSD_CSHL.c ****                                   
 590:Generated_Source\PSoC5/CapSense_CSD_CSHL.c **** {
 644              		.loc 1 590 0
 645              		.cfi_startproc
 646              		@ args = 0, pretend = 0, frame = 24
 647              		@ frame_needed = 1, uses_anonymous_args = 0
 648              		@ link register save eliminated.
 649 0000 80B4     		push	{r7}
 650              		.cfi_def_cfa_offset 4
 651              		.cfi_offset 7, -4
 652 0002 87B0     		sub	sp, sp, #28
 653              		.cfi_def_cfa_offset 32
 654 0004 00AF     		add	r7, sp, #0
 655              		.cfi_def_cfa_register 7
 656 0006 0346     		mov	r3, r0
ARM GAS  C:\Users\HENRIC~1\AppData\Local\Temp\ccL0852m.s 			page 23


 657 0008 FB71     		strb	r3, [r7, #7]
 591:Generated_Source\PSoC5/CapSense_CSD_CSHL.c ****     uint8 debounceIndex;
 592:Generated_Source\PSoC5/CapSense_CSD_CSHL.c ****     /* Get On/Off mask */
 593:Generated_Source\PSoC5/CapSense_CSD_CSHL.c ****     uint8 pos = (sensor >> 3u);
 658              		.loc 1 593 0
 659 000a FB79     		ldrb	r3, [r7, #7]	@ zero_extendqisi2
 660 000c DB08     		lsrs	r3, r3, #3
 661 000e BB75     		strb	r3, [r7, #22]
 594:Generated_Source\PSoC5/CapSense_CSD_CSHL.c ****     uint8 onMask = 0x01u << (sensor & 0x07u);
 662              		.loc 1 594 0
 663 0010 FB79     		ldrb	r3, [r7, #7]	@ zero_extendqisi2
 664 0012 03F00703 		and	r3, r3, #7
 665 0016 0122     		movs	r2, #1
 666 0018 02FA03F3 		lsl	r3, r2, r3
 667 001c 7B75     		strb	r3, [r7, #21]
 595:Generated_Source\PSoC5/CapSense_CSD_CSHL.c ****     /* Prepare to find debounce counter index */
 596:Generated_Source\PSoC5/CapSense_CSD_CSHL.c ****     uint8 widget = CapSense_CSD_widgetNumber[sensor];
 668              		.loc 1 596 0
 669 001e FB79     		ldrb	r3, [r7, #7]	@ zero_extendqisi2
 670 0020 394A     		ldr	r2, .L47
 671 0022 D35C     		ldrb	r3, [r2, r3]
 672 0024 3B75     		strb	r3, [r7, #20]
 597:Generated_Source\PSoC5/CapSense_CSD_CSHL.c ****     uint16 fingerThreshold = CapSense_CSD_fingerThreshold[widget];
 673              		.loc 1 597 0
 674 0026 3B7D     		ldrb	r3, [r7, #20]	@ zero_extendqisi2
 675 0028 384A     		ldr	r2, .L47+4
 676 002a 32F81330 		ldrh	r3, [r2, r3, lsl #1]	@ movhi
 677 002e 7B82     		strh	r3, [r7, #18]	@ movhi
 598:Generated_Source\PSoC5/CapSense_CSD_CSHL.c ****     uint16 hysteresis = CapSense_CSD_hysteresis[widget];
 678              		.loc 1 598 0
 679 0030 3B7D     		ldrb	r3, [r7, #20]	@ zero_extendqisi2
 680 0032 374A     		ldr	r2, .L47+8
 681 0034 32F81330 		ldrh	r3, [r2, r3, lsl #1]	@ movhi
 682 0038 3B82     		strh	r3, [r7, #16]	@ movhi
 599:Generated_Source\PSoC5/CapSense_CSD_CSHL.c ****     uint8 debounce = CapSense_CSD_debounce[widget];
 683              		.loc 1 599 0
 684 003a 3B7D     		ldrb	r3, [r7, #20]	@ zero_extendqisi2
 685 003c 354A     		ldr	r2, .L47+12
 686 003e D35C     		ldrb	r3, [r2, r3]
 687 0040 FB73     		strb	r3, [r7, #15]
 600:Generated_Source\PSoC5/CapSense_CSD_CSHL.c ****     
 601:Generated_Source\PSoC5/CapSense_CSD_CSHL.c ****     if (widget < CapSense_CSD_TOTAL_CENTROIDS_COUNT)
 688              		.loc 1 601 0
 689 0042 3B7D     		ldrb	r3, [r7, #20]	@ zero_extendqisi2
 690 0044 002B     		cmp	r3, #0
 691 0046 06D1     		bne	.L37
 602:Generated_Source\PSoC5/CapSense_CSD_CSHL.c ****     {
 603:Generated_Source\PSoC5/CapSense_CSD_CSHL.c ****         debounceIndex = CapSense_CSD_UNUSED_DEBOUNCE_COUNTER_INDEX;
 692              		.loc 1 603 0
 693 0048 0223     		movs	r3, #2
 694 004a FB75     		strb	r3, [r7, #23]
 604:Generated_Source\PSoC5/CapSense_CSD_CSHL.c ****         CapSense_CSD_debounceCounter[debounceIndex] = 1u;
 695              		.loc 1 604 0
 696 004c FB7D     		ldrb	r3, [r7, #23]	@ zero_extendqisi2
 697 004e 324A     		ldr	r2, .L47+16
 698 0050 0121     		movs	r1, #1
 699 0052 D154     		strb	r1, [r2, r3]
ARM GAS  C:\Users\HENRIC~1\AppData\Local\Temp\ccL0852m.s 			page 24


 700 0054 02E0     		b	.L38
 701              	.L37:
 605:Generated_Source\PSoC5/CapSense_CSD_CSHL.c ****     }
 606:Generated_Source\PSoC5/CapSense_CSD_CSHL.c ****     else
 607:Generated_Source\PSoC5/CapSense_CSD_CSHL.c ****     {
 608:Generated_Source\PSoC5/CapSense_CSD_CSHL.c ****         debounceIndex = widget - (CapSense_CSD_END_OF_TOUCH_PAD_INDEX + 1);
 702              		.loc 1 608 0
 703 0056 3B7D     		ldrb	r3, [r7, #20]
 704 0058 013B     		subs	r3, r3, #1
 705 005a FB75     		strb	r3, [r7, #23]
 706              	.L38:
 609:Generated_Source\PSoC5/CapSense_CSD_CSHL.c ****     }
 610:Generated_Source\PSoC5/CapSense_CSD_CSHL.c **** 
 611:Generated_Source\PSoC5/CapSense_CSD_CSHL.c ****     
 612:Generated_Source\PSoC5/CapSense_CSD_CSHL.c ****     /* Was on */
 613:Generated_Source\PSoC5/CapSense_CSD_CSHL.c ****     if (0u != (CapSense_CSD_sensorOnMask[pos] & onMask))
 707              		.loc 1 613 0
 708 005c BB7D     		ldrb	r3, [r7, #22]	@ zero_extendqisi2
 709 005e 2F4A     		ldr	r2, .L47+20
 710 0060 D25C     		ldrb	r2, [r2, r3]	@ zero_extendqisi2
 711 0062 7B7D     		ldrb	r3, [r7, #21]
 712 0064 1340     		ands	r3, r3, r2
 713 0066 DBB2     		uxtb	r3, r3
 714 0068 002B     		cmp	r3, #0
 715 006a 19D0     		beq	.L39
 614:Generated_Source\PSoC5/CapSense_CSD_CSHL.c ****     {
 615:Generated_Source\PSoC5/CapSense_CSD_CSHL.c ****         /* Hysteresis minus */
 616:Generated_Source\PSoC5/CapSense_CSD_CSHL.c ****         if (CapSense_CSD_sensorSignal[sensor] < (fingerThreshold - hysteresis))
 716              		.loc 1 616 0
 717 006c FB79     		ldrb	r3, [r7, #7]	@ zero_extendqisi2
 718 006e 2C4A     		ldr	r2, .L47+24
 719 0070 32F81330 		ldrh	r3, [r2, r3, lsl #1]
 720 0074 1946     		mov	r1, r3
 721 0076 7A8A     		ldrh	r2, [r7, #18]
 722 0078 3B8A     		ldrh	r3, [r7, #16]
 723 007a D31A     		subs	r3, r2, r3
 724 007c 9942     		cmp	r1, r3
 725 007e 33DA     		bge	.L41
 617:Generated_Source\PSoC5/CapSense_CSD_CSHL.c ****         {
 618:Generated_Source\PSoC5/CapSense_CSD_CSHL.c ****             CapSense_CSD_sensorOnMask[pos] &= (uint8)~onMask;
 726              		.loc 1 618 0
 727 0080 BB7D     		ldrb	r3, [r7, #22]	@ zero_extendqisi2
 728 0082 BA7D     		ldrb	r2, [r7, #22]	@ zero_extendqisi2
 729 0084 2549     		ldr	r1, .L47+20
 730 0086 895C     		ldrb	r1, [r1, r2]	@ zero_extendqisi2
 731 0088 7A7D     		ldrb	r2, [r7, #21]
 732 008a D243     		mvns	r2, r2
 733 008c D2B2     		uxtb	r2, r2
 734 008e 0A40     		ands	r2, r2, r1
 735 0090 D1B2     		uxtb	r1, r2
 736 0092 224A     		ldr	r2, .L47+20
 737 0094 D154     		strb	r1, [r2, r3]
 619:Generated_Source\PSoC5/CapSense_CSD_CSHL.c ****             CapSense_CSD_debounceCounter[debounceIndex] = debounce; 
 738              		.loc 1 619 0
 739 0096 FB7D     		ldrb	r3, [r7, #23]	@ zero_extendqisi2
 740 0098 1F49     		ldr	r1, .L47+16
 741 009a FA7B     		ldrb	r2, [r7, #15]
ARM GAS  C:\Users\HENRIC~1\AppData\Local\Temp\ccL0852m.s 			page 25


 742 009c CA54     		strb	r2, [r1, r3]
 743 009e 23E0     		b	.L41
 744              	.L39:
 620:Generated_Source\PSoC5/CapSense_CSD_CSHL.c ****         }
 621:Generated_Source\PSoC5/CapSense_CSD_CSHL.c ****     }
 622:Generated_Source\PSoC5/CapSense_CSD_CSHL.c ****     else    /* Was off */
 623:Generated_Source\PSoC5/CapSense_CSD_CSHL.c ****     {
 624:Generated_Source\PSoC5/CapSense_CSD_CSHL.c ****         /* Hysteresis plus */
 625:Generated_Source\PSoC5/CapSense_CSD_CSHL.c ****         if (CapSense_CSD_sensorSignal[sensor] > (fingerThreshold + hysteresis))
 745              		.loc 1 625 0
 746 00a0 FB79     		ldrb	r3, [r7, #7]	@ zero_extendqisi2
 747 00a2 1F4A     		ldr	r2, .L47+24
 748 00a4 32F81330 		ldrh	r3, [r2, r3, lsl #1]
 749 00a8 1946     		mov	r1, r3
 750 00aa 7A8A     		ldrh	r2, [r7, #18]
 751 00ac 3B8A     		ldrh	r3, [r7, #16]
 752 00ae 1344     		add	r3, r3, r2
 753 00b0 9942     		cmp	r1, r3
 754 00b2 15DD     		ble	.L42
 626:Generated_Source\PSoC5/CapSense_CSD_CSHL.c ****         {
 627:Generated_Source\PSoC5/CapSense_CSD_CSHL.c ****             /* Sensor active, decrement debounce counter */
 628:Generated_Source\PSoC5/CapSense_CSD_CSHL.c ****             if (CapSense_CSD_debounceCounter[debounceIndex] <= 1u)
 755              		.loc 1 628 0
 756 00b4 FB7D     		ldrb	r3, [r7, #23]	@ zero_extendqisi2
 757 00b6 184A     		ldr	r2, .L47+16
 758 00b8 D35C     		ldrb	r3, [r2, r3]	@ zero_extendqisi2
 759 00ba 012B     		cmp	r3, #1
 760 00bc 08D8     		bhi	.L43
 629:Generated_Source\PSoC5/CapSense_CSD_CSHL.c ****             {
 630:Generated_Source\PSoC5/CapSense_CSD_CSHL.c ****                 CapSense_CSD_sensorOnMask[pos] |= onMask; 
 761              		.loc 1 630 0
 762 00be BB7D     		ldrb	r3, [r7, #22]	@ zero_extendqisi2
 763 00c0 BA7D     		ldrb	r2, [r7, #22]	@ zero_extendqisi2
 764 00c2 1649     		ldr	r1, .L47+20
 765 00c4 895C     		ldrb	r1, [r1, r2]	@ zero_extendqisi2
 766 00c6 7A7D     		ldrb	r2, [r7, #21]
 767 00c8 0A43     		orrs	r2, r2, r1
 768 00ca D1B2     		uxtb	r1, r2
 769 00cc 134A     		ldr	r2, .L47+20
 770 00ce D154     		strb	r1, [r2, r3]
 771              	.L43:
 631:Generated_Source\PSoC5/CapSense_CSD_CSHL.c ****             }
 632:Generated_Source\PSoC5/CapSense_CSD_CSHL.c ****             CapSense_CSD_debounceCounter[debounceIndex]--;
 772              		.loc 1 632 0
 773 00d0 FB7D     		ldrb	r3, [r7, #23]	@ zero_extendqisi2
 774 00d2 114A     		ldr	r2, .L47+16
 775 00d4 D25C     		ldrb	r2, [r2, r3]	@ zero_extendqisi2
 776 00d6 013A     		subs	r2, r2, #1
 777 00d8 D1B2     		uxtb	r1, r2
 778 00da 0F4A     		ldr	r2, .L47+16
 779 00dc D154     		strb	r1, [r2, r3]
 780 00de 03E0     		b	.L41
 781              	.L42:
 633:Generated_Source\PSoC5/CapSense_CSD_CSHL.c ****         }
 634:Generated_Source\PSoC5/CapSense_CSD_CSHL.c ****         else
 635:Generated_Source\PSoC5/CapSense_CSD_CSHL.c ****         {
 636:Generated_Source\PSoC5/CapSense_CSD_CSHL.c ****             /* Sensor inactive - reset Debounce counter */
ARM GAS  C:\Users\HENRIC~1\AppData\Local\Temp\ccL0852m.s 			page 26


 637:Generated_Source\PSoC5/CapSense_CSD_CSHL.c ****             CapSense_CSD_debounceCounter[debounceIndex] = debounce;
 782              		.loc 1 637 0
 783 00e0 FB7D     		ldrb	r3, [r7, #23]	@ zero_extendqisi2
 784 00e2 0D49     		ldr	r1, .L47+16
 785 00e4 FA7B     		ldrb	r2, [r7, #15]
 786 00e6 CA54     		strb	r2, [r1, r3]
 787              	.L41:
 638:Generated_Source\PSoC5/CapSense_CSD_CSHL.c ****         }
 639:Generated_Source\PSoC5/CapSense_CSD_CSHL.c ****     }
 640:Generated_Source\PSoC5/CapSense_CSD_CSHL.c ****     
 641:Generated_Source\PSoC5/CapSense_CSD_CSHL.c ****     return (((CapSense_CSD_sensorOnMask[pos] & onMask) != 0u) ? 1u : 0u);
 788              		.loc 1 641 0
 789 00e8 BB7D     		ldrb	r3, [r7, #22]	@ zero_extendqisi2
 790 00ea 0C4A     		ldr	r2, .L47+20
 791 00ec D25C     		ldrb	r2, [r2, r3]	@ zero_extendqisi2
 792 00ee 7B7D     		ldrb	r3, [r7, #21]
 793 00f0 1340     		ands	r3, r3, r2
 794 00f2 DBB2     		uxtb	r3, r3
 795 00f4 002B     		cmp	r3, #0
 796 00f6 01D0     		beq	.L44
 797              		.loc 1 641 0 is_stmt 0 discriminator 1
 798 00f8 0123     		movs	r3, #1
 799 00fa 00E0     		b	.L45
 800              	.L44:
 801              		.loc 1 641 0 discriminator 2
 802 00fc 0023     		movs	r3, #0
 803              	.L45:
 642:Generated_Source\PSoC5/CapSense_CSD_CSHL.c **** }
 804              		.loc 1 642 0 is_stmt 1 discriminator 4
 805 00fe 1846     		mov	r0, r3
 806 0100 1C37     		adds	r7, r7, #28
 807              		.cfi_def_cfa_offset 4
 808 0102 BD46     		mov	sp, r7
 809              		.cfi_def_cfa_register 13
 810              		@ sp needed
 811 0104 80BC     		pop	{r7}
 812              		.cfi_restore 7
 813              		.cfi_def_cfa_offset 0
 814 0106 7047     		bx	lr
 815              	.L48:
 816              		.align	2
 817              	.L47:
 818 0108 00000000 		.word	CapSense_CSD_widgetNumber
 819 010c 00000000 		.word	CapSense_CSD_fingerThreshold
 820 0110 00000000 		.word	CapSense_CSD_hysteresis
 821 0114 00000000 		.word	CapSense_CSD_debounce
 822 0118 00000000 		.word	CapSense_CSD_debounceCounter
 823 011c 00000000 		.word	CapSense_CSD_sensorOnMask
 824 0120 00000000 		.word	CapSense_CSD_sensorSignal
 825              		.cfi_endproc
 826              	.LFE6:
 827              		.size	CapSense_CSD_CheckIsSensorActive, .-CapSense_CSD_CheckIsSensorActive
 828              		.section	.text.CapSense_CSD_CheckIsWidgetActive,"ax",%progbits
 829              		.align	2
 830              		.global	CapSense_CSD_CheckIsWidgetActive
 831              		.thumb
 832              		.thumb_func
ARM GAS  C:\Users\HENRIC~1\AppData\Local\Temp\ccL0852m.s 			page 27


 833              		.type	CapSense_CSD_CheckIsWidgetActive, %function
 834              	CapSense_CSD_CheckIsWidgetActive:
 835              	.LFB7:
 643:Generated_Source\PSoC5/CapSense_CSD_CSHL.c **** 
 644:Generated_Source\PSoC5/CapSense_CSD_CSHL.c **** 
 645:Generated_Source\PSoC5/CapSense_CSD_CSHL.c **** /*******************************************************************************
 646:Generated_Source\PSoC5/CapSense_CSD_CSHL.c **** * Function Name: CapSense_CSD_CheckIsWidgetActive
 647:Generated_Source\PSoC5/CapSense_CSD_CSHL.c **** ********************************************************************************
 648:Generated_Source\PSoC5/CapSense_CSD_CSHL.c **** *
 649:Generated_Source\PSoC5/CapSense_CSD_CSHL.c **** * Summary:
 650:Generated_Source\PSoC5/CapSense_CSD_CSHL.c **** *  Use function CapSense_CSD_CheckIsSensorActive() to update 
 651:Generated_Source\PSoC5/CapSense_CSD_CSHL.c **** *  CapSense_CSD_sensorOnMask[] for all sensors within the widget.
 652:Generated_Source\PSoC5/CapSense_CSD_CSHL.c **** *  If one of sensors within widget is active the function return that widget is 
 653:Generated_Source\PSoC5/CapSense_CSD_CSHL.c **** *  active.
 654:Generated_Source\PSoC5/CapSense_CSD_CSHL.c **** *  The touch pad and matrix buttons widgets need to have active sensor within 
 655:Generated_Source\PSoC5/CapSense_CSD_CSHL.c **** *  col and row to return widget active status.
 656:Generated_Source\PSoC5/CapSense_CSD_CSHL.c **** *
 657:Generated_Source\PSoC5/CapSense_CSD_CSHL.c **** * Parameters:
 658:Generated_Source\PSoC5/CapSense_CSD_CSHL.c **** *  widget:  widget number.
 659:Generated_Source\PSoC5/CapSense_CSD_CSHL.c **** *
 660:Generated_Source\PSoC5/CapSense_CSD_CSHL.c **** * Return:
 661:Generated_Source\PSoC5/CapSense_CSD_CSHL.c **** *  Returns widget sensor state 1 if one or more sensors within widget is/are 
 662:Generated_Source\PSoC5/CapSense_CSD_CSHL.c **** *  active, 0 if all sensors within widget are inactive.
 663:Generated_Source\PSoC5/CapSense_CSD_CSHL.c **** *
 664:Generated_Source\PSoC5/CapSense_CSD_CSHL.c **** * Reentrant:
 665:Generated_Source\PSoC5/CapSense_CSD_CSHL.c **** *  No
 666:Generated_Source\PSoC5/CapSense_CSD_CSHL.c **** *
 667:Generated_Source\PSoC5/CapSense_CSD_CSHL.c **** *******************************************************************************/
 668:Generated_Source\PSoC5/CapSense_CSD_CSHL.c **** uint8 CapSense_CSD_CheckIsWidgetActive(uint8 widget)
 669:Generated_Source\PSoC5/CapSense_CSD_CSHL.c ****                                  
 670:Generated_Source\PSoC5/CapSense_CSD_CSHL.c **** {
 836              		.loc 1 670 0
 837              		.cfi_startproc
 838              		@ args = 0, pretend = 0, frame = 16
 839              		@ frame_needed = 1, uses_anonymous_args = 0
 840 0000 80B5     		push	{r7, lr}
 841              		.cfi_def_cfa_offset 8
 842              		.cfi_offset 7, -8
 843              		.cfi_offset 14, -4
 844 0002 84B0     		sub	sp, sp, #16
 845              		.cfi_def_cfa_offset 24
 846 0004 00AF     		add	r7, sp, #0
 847              		.cfi_def_cfa_register 7
 848 0006 0346     		mov	r3, r0
 849 0008 FB71     		strb	r3, [r7, #7]
 671:Generated_Source\PSoC5/CapSense_CSD_CSHL.c ****     uint8 rawIndex = CapSense_CSD_rawDataIndex[widget];
 850              		.loc 1 671 0
 851 000a FB79     		ldrb	r3, [r7, #7]	@ zero_extendqisi2
 852 000c 0F4A     		ldr	r2, .L53
 853 000e D35C     		ldrb	r3, [r2, r3]
 854 0010 FB73     		strb	r3, [r7, #15]
 672:Generated_Source\PSoC5/CapSense_CSD_CSHL.c ****     uint8 numberOfSensors = CapSense_CSD_numberOfSensors[widget] + rawIndex;
 855              		.loc 1 672 0
 856 0012 FB79     		ldrb	r3, [r7, #7]	@ zero_extendqisi2
 857 0014 0E4A     		ldr	r2, .L53+4
 858 0016 D25C     		ldrb	r2, [r2, r3]	@ zero_extendqisi2
 859 0018 FB7B     		ldrb	r3, [r7, #15]
ARM GAS  C:\Users\HENRIC~1\AppData\Local\Temp\ccL0852m.s 			page 28


 860 001a 1344     		add	r3, r3, r2
 861 001c 7B73     		strb	r3, [r7, #13]
 673:Generated_Source\PSoC5/CapSense_CSD_CSHL.c ****     uint8 state = 0u;
 862              		.loc 1 673 0
 863 001e 0023     		movs	r3, #0
 864 0020 BB73     		strb	r3, [r7, #14]
 865              	.L51:
 674:Generated_Source\PSoC5/CapSense_CSD_CSHL.c **** 
 675:Generated_Source\PSoC5/CapSense_CSD_CSHL.c ****     /* Check all sensors of the widget */
 676:Generated_Source\PSoC5/CapSense_CSD_CSHL.c ****     do
 677:Generated_Source\PSoC5/CapSense_CSD_CSHL.c ****     {
 678:Generated_Source\PSoC5/CapSense_CSD_CSHL.c ****         if(CapSense_CSD_CheckIsSensorActive(rawIndex) != 0u)
 866              		.loc 1 678 0
 867 0022 FB7B     		ldrb	r3, [r7, #15]	@ zero_extendqisi2
 868 0024 1846     		mov	r0, r3
 869 0026 FFF7FEFF 		bl	CapSense_CSD_CheckIsSensorActive
 870 002a 0346     		mov	r3, r0
 871 002c 002B     		cmp	r3, #0
 872 002e 01D0     		beq	.L50
 679:Generated_Source\PSoC5/CapSense_CSD_CSHL.c ****         {
 680:Generated_Source\PSoC5/CapSense_CSD_CSHL.c ****             state = CapSense_CSD_SENSOR_1_IS_ACTIVE;
 873              		.loc 1 680 0
 874 0030 0123     		movs	r3, #1
 875 0032 BB73     		strb	r3, [r7, #14]
 876              	.L50:
 681:Generated_Source\PSoC5/CapSense_CSD_CSHL.c ****         }
 682:Generated_Source\PSoC5/CapSense_CSD_CSHL.c ****         rawIndex++;
 877              		.loc 1 682 0
 878 0034 FB7B     		ldrb	r3, [r7, #15]	@ zero_extendqisi2
 879 0036 0133     		adds	r3, r3, #1
 880 0038 FB73     		strb	r3, [r7, #15]
 683:Generated_Source\PSoC5/CapSense_CSD_CSHL.c ****     }
 684:Generated_Source\PSoC5/CapSense_CSD_CSHL.c ****     while(rawIndex < numberOfSensors);
 881              		.loc 1 684 0
 882 003a FA7B     		ldrb	r2, [r7, #15]	@ zero_extendqisi2
 883 003c 7B7B     		ldrb	r3, [r7, #13]	@ zero_extendqisi2
 884 003e 9A42     		cmp	r2, r3
 885 0040 EFD3     		bcc	.L51
 685:Generated_Source\PSoC5/CapSense_CSD_CSHL.c ****     
 686:Generated_Source\PSoC5/CapSense_CSD_CSHL.c **** 
 687:Generated_Source\PSoC5/CapSense_CSD_CSHL.c ****     
 688:Generated_Source\PSoC5/CapSense_CSD_CSHL.c ****     return (state);
 886              		.loc 1 688 0
 887 0042 BB7B     		ldrb	r3, [r7, #14]	@ zero_extendqisi2
 689:Generated_Source\PSoC5/CapSense_CSD_CSHL.c **** }
 888              		.loc 1 689 0
 889 0044 1846     		mov	r0, r3
 890 0046 1037     		adds	r7, r7, #16
 891              		.cfi_def_cfa_offset 8
 892 0048 BD46     		mov	sp, r7
 893              		.cfi_def_cfa_register 13
 894              		@ sp needed
 895 004a 80BD     		pop	{r7, pc}
 896              	.L54:
 897              		.align	2
 898              	.L53:
 899 004c 00000000 		.word	CapSense_CSD_rawDataIndex
ARM GAS  C:\Users\HENRIC~1\AppData\Local\Temp\ccL0852m.s 			page 29


 900 0050 00000000 		.word	CapSense_CSD_numberOfSensors
 901              		.cfi_endproc
 902              	.LFE7:
 903              		.size	CapSense_CSD_CheckIsWidgetActive, .-CapSense_CSD_CheckIsWidgetActive
 904              		.section	.text.CapSense_CSD_CheckIsAnyWidgetActive,"ax",%progbits
 905              		.align	2
 906              		.global	CapSense_CSD_CheckIsAnyWidgetActive
 907              		.thumb
 908              		.thumb_func
 909              		.type	CapSense_CSD_CheckIsAnyWidgetActive, %function
 910              	CapSense_CSD_CheckIsAnyWidgetActive:
 911              	.LFB8:
 690:Generated_Source\PSoC5/CapSense_CSD_CSHL.c **** 
 691:Generated_Source\PSoC5/CapSense_CSD_CSHL.c **** 
 692:Generated_Source\PSoC5/CapSense_CSD_CSHL.c **** /*******************************************************************************
 693:Generated_Source\PSoC5/CapSense_CSD_CSHL.c **** * Function Name: CapSense_CSD_CheckIsAnyWidgetActive
 694:Generated_Source\PSoC5/CapSense_CSD_CSHL.c **** ********************************************************************************
 695:Generated_Source\PSoC5/CapSense_CSD_CSHL.c **** *
 696:Generated_Source\PSoC5/CapSense_CSD_CSHL.c **** * Summary:
 697:Generated_Source\PSoC5/CapSense_CSD_CSHL.c **** *  Compares all sensors of the CapSense_CSD_signal[] array to their finger 
 698:Generated_Source\PSoC5/CapSense_CSD_CSHL.c **** *  threshold. Calls CapSense_CSD_CheckIsWidgetActive() for each widget so 
 699:Generated_Source\PSoC5/CapSense_CSD_CSHL.c **** *  the CapSense_CSD_SensorOnMask[] array is up to date after calling this 
 700:Generated_Source\PSoC5/CapSense_CSD_CSHL.c **** *  function.
 701:Generated_Source\PSoC5/CapSense_CSD_CSHL.c **** *
 702:Generated_Source\PSoC5/CapSense_CSD_CSHL.c **** * Parameters:
 703:Generated_Source\PSoC5/CapSense_CSD_CSHL.c **** *  widget:  widget number.
 704:Generated_Source\PSoC5/CapSense_CSD_CSHL.c **** *
 705:Generated_Source\PSoC5/CapSense_CSD_CSHL.c **** * Return:
 706:Generated_Source\PSoC5/CapSense_CSD_CSHL.c **** *  Returns 1 if any widget is active, 0 none of widgets are active.
 707:Generated_Source\PSoC5/CapSense_CSD_CSHL.c **** *
 708:Generated_Source\PSoC5/CapSense_CSD_CSHL.c **** * Reentrant:
 709:Generated_Source\PSoC5/CapSense_CSD_CSHL.c **** *  No
 710:Generated_Source\PSoC5/CapSense_CSD_CSHL.c **** *
 711:Generated_Source\PSoC5/CapSense_CSD_CSHL.c **** *******************************************************************************/
 712:Generated_Source\PSoC5/CapSense_CSD_CSHL.c **** uint8 CapSense_CSD_CheckIsAnyWidgetActive(void)
 713:Generated_Source\PSoC5/CapSense_CSD_CSHL.c ****                                  
 714:Generated_Source\PSoC5/CapSense_CSD_CSHL.c **** {
 912              		.loc 1 714 0
 913              		.cfi_startproc
 914              		@ args = 0, pretend = 0, frame = 8
 915              		@ frame_needed = 1, uses_anonymous_args = 0
 916 0000 80B5     		push	{r7, lr}
 917              		.cfi_def_cfa_offset 8
 918              		.cfi_offset 7, -8
 919              		.cfi_offset 14, -4
 920 0002 82B0     		sub	sp, sp, #8
 921              		.cfi_def_cfa_offset 16
 922 0004 00AF     		add	r7, sp, #0
 923              		.cfi_def_cfa_register 7
 715:Generated_Source\PSoC5/CapSense_CSD_CSHL.c ****     uint8 i;
 716:Generated_Source\PSoC5/CapSense_CSD_CSHL.c ****     uint8 state = 0u;
 924              		.loc 1 716 0
 925 0006 0023     		movs	r3, #0
 926 0008 BB71     		strb	r3, [r7, #6]
 717:Generated_Source\PSoC5/CapSense_CSD_CSHL.c ****     
 718:Generated_Source\PSoC5/CapSense_CSD_CSHL.c ****     for(i = 0u; i < CapSense_CSD_TOTAL_WIDGET_COUNT; i++)
 927              		.loc 1 718 0
ARM GAS  C:\Users\HENRIC~1\AppData\Local\Temp\ccL0852m.s 			page 30


 928 000a 0023     		movs	r3, #0
 929 000c FB71     		strb	r3, [r7, #7]
 930 000e 0BE0     		b	.L56
 931              	.L58:
 719:Generated_Source\PSoC5/CapSense_CSD_CSHL.c ****     {
 720:Generated_Source\PSoC5/CapSense_CSD_CSHL.c ****         if (CapSense_CSD_CheckIsWidgetActive(i) != 0u)
 932              		.loc 1 720 0
 933 0010 FB79     		ldrb	r3, [r7, #7]	@ zero_extendqisi2
 934 0012 1846     		mov	r0, r3
 935 0014 FFF7FEFF 		bl	CapSense_CSD_CheckIsWidgetActive
 936 0018 0346     		mov	r3, r0
 937 001a 002B     		cmp	r3, #0
 938 001c 01D0     		beq	.L57
 721:Generated_Source\PSoC5/CapSense_CSD_CSHL.c ****         {
 722:Generated_Source\PSoC5/CapSense_CSD_CSHL.c ****             state = CapSense_CSD_WIDGET_IS_ACTIVE;
 939              		.loc 1 722 0
 940 001e 0123     		movs	r3, #1
 941 0020 BB71     		strb	r3, [r7, #6]
 942              	.L57:
 718:Generated_Source\PSoC5/CapSense_CSD_CSHL.c ****     {
 943              		.loc 1 718 0 discriminator 2
 944 0022 FB79     		ldrb	r3, [r7, #7]	@ zero_extendqisi2
 945 0024 0133     		adds	r3, r3, #1
 946 0026 FB71     		strb	r3, [r7, #7]
 947              	.L56:
 718:Generated_Source\PSoC5/CapSense_CSD_CSHL.c ****     {
 948              		.loc 1 718 0 is_stmt 0 discriminator 1
 949 0028 FB79     		ldrb	r3, [r7, #7]	@ zero_extendqisi2
 950 002a 022B     		cmp	r3, #2
 951 002c F0D9     		bls	.L58
 723:Generated_Source\PSoC5/CapSense_CSD_CSHL.c ****         }
 724:Generated_Source\PSoC5/CapSense_CSD_CSHL.c ****     }
 725:Generated_Source\PSoC5/CapSense_CSD_CSHL.c ****     
 726:Generated_Source\PSoC5/CapSense_CSD_CSHL.c **** 
 727:Generated_Source\PSoC5/CapSense_CSD_CSHL.c ****     return (state);
 952              		.loc 1 727 0 is_stmt 1
 953 002e BB79     		ldrb	r3, [r7, #6]	@ zero_extendqisi2
 728:Generated_Source\PSoC5/CapSense_CSD_CSHL.c **** }
 954              		.loc 1 728 0
 955 0030 1846     		mov	r0, r3
 956 0032 0837     		adds	r7, r7, #8
 957              		.cfi_def_cfa_offset 8
 958 0034 BD46     		mov	sp, r7
 959              		.cfi_def_cfa_register 13
 960              		@ sp needed
 961 0036 80BD     		pop	{r7, pc}
 962              		.cfi_endproc
 963              	.LFE8:
 964              		.size	CapSense_CSD_CheckIsAnyWidgetActive, .-CapSense_CSD_CheckIsAnyWidgetActive
 965              		.section	.text.CapSense_CSD_EnableWidget,"ax",%progbits
 966              		.align	2
 967              		.global	CapSense_CSD_EnableWidget
 968              		.thumb
 969              		.thumb_func
 970              		.type	CapSense_CSD_EnableWidget, %function
 971              	CapSense_CSD_EnableWidget:
 972              	.LFB9:
ARM GAS  C:\Users\HENRIC~1\AppData\Local\Temp\ccL0852m.s 			page 31


 729:Generated_Source\PSoC5/CapSense_CSD_CSHL.c **** 
 730:Generated_Source\PSoC5/CapSense_CSD_CSHL.c **** 
 731:Generated_Source\PSoC5/CapSense_CSD_CSHL.c **** /*******************************************************************************
 732:Generated_Source\PSoC5/CapSense_CSD_CSHL.c **** * Function Name: CapSense_CSD_EnableWidget
 733:Generated_Source\PSoC5/CapSense_CSD_CSHL.c **** ********************************************************************************
 734:Generated_Source\PSoC5/CapSense_CSD_CSHL.c **** *
 735:Generated_Source\PSoC5/CapSense_CSD_CSHL.c **** * Summary:
 736:Generated_Source\PSoC5/CapSense_CSD_CSHL.c **** *  Enable all widget elements (sensors) to scanning process.
 737:Generated_Source\PSoC5/CapSense_CSD_CSHL.c **** *
 738:Generated_Source\PSoC5/CapSense_CSD_CSHL.c **** * Parameters:
 739:Generated_Source\PSoC5/CapSense_CSD_CSHL.c **** *  widget:  widget number.
 740:Generated_Source\PSoC5/CapSense_CSD_CSHL.c **** *
 741:Generated_Source\PSoC5/CapSense_CSD_CSHL.c **** * Return:
 742:Generated_Source\PSoC5/CapSense_CSD_CSHL.c **** *  None
 743:Generated_Source\PSoC5/CapSense_CSD_CSHL.c **** *
 744:Generated_Source\PSoC5/CapSense_CSD_CSHL.c **** * Global Variables:
 745:Generated_Source\PSoC5/CapSense_CSD_CSHL.c **** *  CapSense_CSD_sensorEnableMask[] - used to store the sensor scanning 
 746:Generated_Source\PSoC5/CapSense_CSD_CSHL.c **** *  state.
 747:Generated_Source\PSoC5/CapSense_CSD_CSHL.c **** *  CapSense_CSD_sensorEnableMask[0] contains the masked bits for sensors 
 748:Generated_Source\PSoC5/CapSense_CSD_CSHL.c **** *  0 through 7 (sensor 0 is bit 0, sensor 1 is bit 1).
 749:Generated_Source\PSoC5/CapSense_CSD_CSHL.c **** *  CapSense_CSD_sensorEnableMask[1] contains the masked bits for 
 750:Generated_Source\PSoC5/CapSense_CSD_CSHL.c **** *  sensors 8 through 15 (if needed), and so on.
 751:Generated_Source\PSoC5/CapSense_CSD_CSHL.c **** *  0 - sensor doesn't scan by CapSense_CSD_ScanEnabledWidgets().
 752:Generated_Source\PSoC5/CapSense_CSD_CSHL.c **** *  1 - sensor scans by CapSense_CSD_ScanEnabledWidgets().
 753:Generated_Source\PSoC5/CapSense_CSD_CSHL.c **** *
 754:Generated_Source\PSoC5/CapSense_CSD_CSHL.c **** * Reentrant:
 755:Generated_Source\PSoC5/CapSense_CSD_CSHL.c **** *  No
 756:Generated_Source\PSoC5/CapSense_CSD_CSHL.c **** *
 757:Generated_Source\PSoC5/CapSense_CSD_CSHL.c **** *******************************************************************************/
 758:Generated_Source\PSoC5/CapSense_CSD_CSHL.c **** void CapSense_CSD_EnableWidget(uint8 widget)
 759:Generated_Source\PSoC5/CapSense_CSD_CSHL.c ****                                    
 760:Generated_Source\PSoC5/CapSense_CSD_CSHL.c **** {
 973              		.loc 1 760 0
 974              		.cfi_startproc
 975              		@ args = 0, pretend = 0, frame = 16
 976              		@ frame_needed = 1, uses_anonymous_args = 0
 977              		@ link register save eliminated.
 978 0000 80B4     		push	{r7}
 979              		.cfi_def_cfa_offset 4
 980              		.cfi_offset 7, -4
 981 0002 85B0     		sub	sp, sp, #20
 982              		.cfi_def_cfa_offset 24
 983 0004 00AF     		add	r7, sp, #0
 984              		.cfi_def_cfa_register 7
 985 0006 0346     		mov	r3, r0
 986 0008 FB71     		strb	r3, [r7, #7]
 761:Generated_Source\PSoC5/CapSense_CSD_CSHL.c ****     uint8 pos;
 762:Generated_Source\PSoC5/CapSense_CSD_CSHL.c ****     uint8 enMask;
 763:Generated_Source\PSoC5/CapSense_CSD_CSHL.c ****     uint8 rawIndex = CapSense_CSD_rawDataIndex[widget];
 987              		.loc 1 763 0
 988 000a FB79     		ldrb	r3, [r7, #7]	@ zero_extendqisi2
 989 000c 134A     		ldr	r2, .L62
 990 000e D35C     		ldrb	r3, [r2, r3]
 991 0010 FB73     		strb	r3, [r7, #15]
 764:Generated_Source\PSoC5/CapSense_CSD_CSHL.c ****     uint8 numberOfSensors = CapSense_CSD_numberOfSensors[widget] + rawIndex;
 992              		.loc 1 764 0
 993 0012 FB79     		ldrb	r3, [r7, #7]	@ zero_extendqisi2
ARM GAS  C:\Users\HENRIC~1\AppData\Local\Temp\ccL0852m.s 			page 32


 994 0014 124A     		ldr	r2, .L62+4
 995 0016 D25C     		ldrb	r2, [r2, r3]	@ zero_extendqisi2
 996 0018 FB7B     		ldrb	r3, [r7, #15]
 997 001a 1344     		add	r3, r3, r2
 998 001c BB73     		strb	r3, [r7, #14]
 999              	.L61:
 765:Generated_Source\PSoC5/CapSense_CSD_CSHL.c ****     
 766:Generated_Source\PSoC5/CapSense_CSD_CSHL.c ****     /* Enable all sensors of the widget */
 767:Generated_Source\PSoC5/CapSense_CSD_CSHL.c ****     do
 768:Generated_Source\PSoC5/CapSense_CSD_CSHL.c ****     {
 769:Generated_Source\PSoC5/CapSense_CSD_CSHL.c ****         pos = (rawIndex >> 3u);
 1000              		.loc 1 769 0 discriminator 1
 1001 001e FB7B     		ldrb	r3, [r7, #15]	@ zero_extendqisi2
 1002 0020 DB08     		lsrs	r3, r3, #3
 1003 0022 7B73     		strb	r3, [r7, #13]
 770:Generated_Source\PSoC5/CapSense_CSD_CSHL.c ****         enMask = 0x01u << (rawIndex & 0x07u);
 1004              		.loc 1 770 0 discriminator 1
 1005 0024 FB7B     		ldrb	r3, [r7, #15]	@ zero_extendqisi2
 1006 0026 03F00703 		and	r3, r3, #7
 1007 002a 0122     		movs	r2, #1
 1008 002c 02FA03F3 		lsl	r3, r2, r3
 1009 0030 3B73     		strb	r3, [r7, #12]
 771:Generated_Source\PSoC5/CapSense_CSD_CSHL.c ****         
 772:Generated_Source\PSoC5/CapSense_CSD_CSHL.c ****         CapSense_CSD_sensorEnableMask[pos] |= enMask;
 1010              		.loc 1 772 0 discriminator 1
 1011 0032 7B7B     		ldrb	r3, [r7, #13]	@ zero_extendqisi2
 1012 0034 7A7B     		ldrb	r2, [r7, #13]	@ zero_extendqisi2
 1013 0036 0B49     		ldr	r1, .L62+8
 1014 0038 895C     		ldrb	r1, [r1, r2]	@ zero_extendqisi2
 1015 003a 3A7B     		ldrb	r2, [r7, #12]
 1016 003c 0A43     		orrs	r2, r2, r1
 1017 003e D1B2     		uxtb	r1, r2
 1018 0040 084A     		ldr	r2, .L62+8
 1019 0042 D154     		strb	r1, [r2, r3]
 773:Generated_Source\PSoC5/CapSense_CSD_CSHL.c ****         rawIndex++;
 1020              		.loc 1 773 0 discriminator 1
 1021 0044 FB7B     		ldrb	r3, [r7, #15]	@ zero_extendqisi2
 1022 0046 0133     		adds	r3, r3, #1
 1023 0048 FB73     		strb	r3, [r7, #15]
 774:Generated_Source\PSoC5/CapSense_CSD_CSHL.c ****     }
 775:Generated_Source\PSoC5/CapSense_CSD_CSHL.c ****     while(rawIndex < numberOfSensors);
 1024              		.loc 1 775 0 discriminator 1
 1025 004a FA7B     		ldrb	r2, [r7, #15]	@ zero_extendqisi2
 1026 004c BB7B     		ldrb	r3, [r7, #14]	@ zero_extendqisi2
 1027 004e 9A42     		cmp	r2, r3
 1028 0050 E5D3     		bcc	.L61
 776:Generated_Source\PSoC5/CapSense_CSD_CSHL.c ****     
 777:Generated_Source\PSoC5/CapSense_CSD_CSHL.c **** 
 778:Generated_Source\PSoC5/CapSense_CSD_CSHL.c **** }
 1029              		.loc 1 778 0
 1030 0052 00BF     		nop
 1031 0054 1437     		adds	r7, r7, #20
 1032              		.cfi_def_cfa_offset 4
 1033 0056 BD46     		mov	sp, r7
 1034              		.cfi_def_cfa_register 13
 1035              		@ sp needed
 1036 0058 80BC     		pop	{r7}
ARM GAS  C:\Users\HENRIC~1\AppData\Local\Temp\ccL0852m.s 			page 33


 1037              		.cfi_restore 7
 1038              		.cfi_def_cfa_offset 0
 1039 005a 7047     		bx	lr
 1040              	.L63:
 1041              		.align	2
 1042              	.L62:
 1043 005c 00000000 		.word	CapSense_CSD_rawDataIndex
 1044 0060 00000000 		.word	CapSense_CSD_numberOfSensors
 1045 0064 00000000 		.word	CapSense_CSD_sensorEnableMask
 1046              		.cfi_endproc
 1047              	.LFE9:
 1048              		.size	CapSense_CSD_EnableWidget, .-CapSense_CSD_EnableWidget
 1049              		.section	.text.CapSense_CSD_DisableWidget,"ax",%progbits
 1050              		.align	2
 1051              		.global	CapSense_CSD_DisableWidget
 1052              		.thumb
 1053              		.thumb_func
 1054              		.type	CapSense_CSD_DisableWidget, %function
 1055              	CapSense_CSD_DisableWidget:
 1056              	.LFB10:
 779:Generated_Source\PSoC5/CapSense_CSD_CSHL.c **** 
 780:Generated_Source\PSoC5/CapSense_CSD_CSHL.c **** 
 781:Generated_Source\PSoC5/CapSense_CSD_CSHL.c **** /*******************************************************************************
 782:Generated_Source\PSoC5/CapSense_CSD_CSHL.c **** * Function Name: CapSense_CSD_DisableWidget
 783:Generated_Source\PSoC5/CapSense_CSD_CSHL.c **** ********************************************************************************
 784:Generated_Source\PSoC5/CapSense_CSD_CSHL.c **** *
 785:Generated_Source\PSoC5/CapSense_CSD_CSHL.c **** * Summary:
 786:Generated_Source\PSoC5/CapSense_CSD_CSHL.c **** *  Disable all widget elements (sensors) from scanning process.
 787:Generated_Source\PSoC5/CapSense_CSD_CSHL.c **** *
 788:Generated_Source\PSoC5/CapSense_CSD_CSHL.c **** * Parameters:
 789:Generated_Source\PSoC5/CapSense_CSD_CSHL.c **** *  widget:  widget number.
 790:Generated_Source\PSoC5/CapSense_CSD_CSHL.c **** *
 791:Generated_Source\PSoC5/CapSense_CSD_CSHL.c **** * Return:
 792:Generated_Source\PSoC5/CapSense_CSD_CSHL.c **** *  None
 793:Generated_Source\PSoC5/CapSense_CSD_CSHL.c **** *
 794:Generated_Source\PSoC5/CapSense_CSD_CSHL.c **** * Global Variables:
 795:Generated_Source\PSoC5/CapSense_CSD_CSHL.c **** *  CapSense_CSD_sensorEnableMask[] - used to store the sensor scanning 
 796:Generated_Source\PSoC5/CapSense_CSD_CSHL.c **** *  state.
 797:Generated_Source\PSoC5/CapSense_CSD_CSHL.c **** *  CapSense_CSD_sensorEnableMask[0] contains the masked bits for sensors 
 798:Generated_Source\PSoC5/CapSense_CSD_CSHL.c **** *  0 through 7 (sensor 0 is bit 0, sensor 1 is bit 1).
 799:Generated_Source\PSoC5/CapSense_CSD_CSHL.c **** *  CapSense_CSD_sensorEnableMask[1] contains the masked bits for 
 800:Generated_Source\PSoC5/CapSense_CSD_CSHL.c **** *  sensors 8 through 15 (if needed), and so on.
 801:Generated_Source\PSoC5/CapSense_CSD_CSHL.c **** *  0 - sensor doesn't scan by CapSense_CSD_ScanEnabledWidgets().
 802:Generated_Source\PSoC5/CapSense_CSD_CSHL.c **** *  1 - sensor scans by CapSense_CSD_ScanEnabledWidgets().
 803:Generated_Source\PSoC5/CapSense_CSD_CSHL.c **** *
 804:Generated_Source\PSoC5/CapSense_CSD_CSHL.c **** * Reentrant:
 805:Generated_Source\PSoC5/CapSense_CSD_CSHL.c **** *  No
 806:Generated_Source\PSoC5/CapSense_CSD_CSHL.c **** *
 807:Generated_Source\PSoC5/CapSense_CSD_CSHL.c **** *******************************************************************************/
 808:Generated_Source\PSoC5/CapSense_CSD_CSHL.c **** void CapSense_CSD_DisableWidget(uint8 widget)
 809:Generated_Source\PSoC5/CapSense_CSD_CSHL.c ****                                     
 810:Generated_Source\PSoC5/CapSense_CSD_CSHL.c **** {
 1057              		.loc 1 810 0
 1058              		.cfi_startproc
 1059              		@ args = 0, pretend = 0, frame = 16
 1060              		@ frame_needed = 1, uses_anonymous_args = 0
 1061              		@ link register save eliminated.
ARM GAS  C:\Users\HENRIC~1\AppData\Local\Temp\ccL0852m.s 			page 34


 1062 0000 80B4     		push	{r7}
 1063              		.cfi_def_cfa_offset 4
 1064              		.cfi_offset 7, -4
 1065 0002 85B0     		sub	sp, sp, #20
 1066              		.cfi_def_cfa_offset 24
 1067 0004 00AF     		add	r7, sp, #0
 1068              		.cfi_def_cfa_register 7
 1069 0006 0346     		mov	r3, r0
 1070 0008 FB71     		strb	r3, [r7, #7]
 811:Generated_Source\PSoC5/CapSense_CSD_CSHL.c ****     uint8 pos;
 812:Generated_Source\PSoC5/CapSense_CSD_CSHL.c ****     uint8 enMask;
 813:Generated_Source\PSoC5/CapSense_CSD_CSHL.c ****     uint8 rawIndex = CapSense_CSD_rawDataIndex[widget];
 1071              		.loc 1 813 0
 1072 000a FB79     		ldrb	r3, [r7, #7]	@ zero_extendqisi2
 1073 000c 144A     		ldr	r2, .L66
 1074 000e D35C     		ldrb	r3, [r2, r3]
 1075 0010 FB73     		strb	r3, [r7, #15]
 814:Generated_Source\PSoC5/CapSense_CSD_CSHL.c ****     uint8 numberOfSensors = CapSense_CSD_numberOfSensors[widget] + rawIndex;
 1076              		.loc 1 814 0
 1077 0012 FB79     		ldrb	r3, [r7, #7]	@ zero_extendqisi2
 1078 0014 134A     		ldr	r2, .L66+4
 1079 0016 D25C     		ldrb	r2, [r2, r3]	@ zero_extendqisi2
 1080 0018 FB7B     		ldrb	r3, [r7, #15]
 1081 001a 1344     		add	r3, r3, r2
 1082 001c BB73     		strb	r3, [r7, #14]
 1083              	.L65:
 815:Generated_Source\PSoC5/CapSense_CSD_CSHL.c ****    
 816:Generated_Source\PSoC5/CapSense_CSD_CSHL.c ****     /* Disable all sensors of the widget */
 817:Generated_Source\PSoC5/CapSense_CSD_CSHL.c ****     do
 818:Generated_Source\PSoC5/CapSense_CSD_CSHL.c ****     {
 819:Generated_Source\PSoC5/CapSense_CSD_CSHL.c ****         pos = (rawIndex >> 3u);
 1084              		.loc 1 819 0 discriminator 1
 1085 001e FB7B     		ldrb	r3, [r7, #15]	@ zero_extendqisi2
 1086 0020 DB08     		lsrs	r3, r3, #3
 1087 0022 7B73     		strb	r3, [r7, #13]
 820:Generated_Source\PSoC5/CapSense_CSD_CSHL.c ****         enMask = 0x01u << (rawIndex & 0x07u);
 1088              		.loc 1 820 0 discriminator 1
 1089 0024 FB7B     		ldrb	r3, [r7, #15]	@ zero_extendqisi2
 1090 0026 03F00703 		and	r3, r3, #7
 1091 002a 0122     		movs	r2, #1
 1092 002c 02FA03F3 		lsl	r3, r2, r3
 1093 0030 3B73     		strb	r3, [r7, #12]
 821:Generated_Source\PSoC5/CapSense_CSD_CSHL.c ****         
 822:Generated_Source\PSoC5/CapSense_CSD_CSHL.c ****         CapSense_CSD_sensorEnableMask[pos] &= (uint8)~enMask;
 1094              		.loc 1 822 0 discriminator 1
 1095 0032 7B7B     		ldrb	r3, [r7, #13]	@ zero_extendqisi2
 1096 0034 7A7B     		ldrb	r2, [r7, #13]	@ zero_extendqisi2
 1097 0036 0C49     		ldr	r1, .L66+8
 1098 0038 895C     		ldrb	r1, [r1, r2]	@ zero_extendqisi2
 1099 003a 3A7B     		ldrb	r2, [r7, #12]
 1100 003c D243     		mvns	r2, r2
 1101 003e D2B2     		uxtb	r2, r2
 1102 0040 0A40     		ands	r2, r2, r1
 1103 0042 D1B2     		uxtb	r1, r2
 1104 0044 084A     		ldr	r2, .L66+8
 1105 0046 D154     		strb	r1, [r2, r3]
 823:Generated_Source\PSoC5/CapSense_CSD_CSHL.c ****         rawIndex++;
ARM GAS  C:\Users\HENRIC~1\AppData\Local\Temp\ccL0852m.s 			page 35


 1106              		.loc 1 823 0 discriminator 1
 1107 0048 FB7B     		ldrb	r3, [r7, #15]	@ zero_extendqisi2
 1108 004a 0133     		adds	r3, r3, #1
 1109 004c FB73     		strb	r3, [r7, #15]
 824:Generated_Source\PSoC5/CapSense_CSD_CSHL.c ****     }
 825:Generated_Source\PSoC5/CapSense_CSD_CSHL.c ****     while(rawIndex < numberOfSensors);
 1110              		.loc 1 825 0 discriminator 1
 1111 004e FA7B     		ldrb	r2, [r7, #15]	@ zero_extendqisi2
 1112 0050 BB7B     		ldrb	r3, [r7, #14]	@ zero_extendqisi2
 1113 0052 9A42     		cmp	r2, r3
 1114 0054 E3D3     		bcc	.L65
 826:Generated_Source\PSoC5/CapSense_CSD_CSHL.c ****     
 827:Generated_Source\PSoC5/CapSense_CSD_CSHL.c **** 
 828:Generated_Source\PSoC5/CapSense_CSD_CSHL.c **** }
 1115              		.loc 1 828 0
 1116 0056 00BF     		nop
 1117 0058 1437     		adds	r7, r7, #20
 1118              		.cfi_def_cfa_offset 4
 1119 005a BD46     		mov	sp, r7
 1120              		.cfi_def_cfa_register 13
 1121              		@ sp needed
 1122 005c 80BC     		pop	{r7}
 1123              		.cfi_restore 7
 1124              		.cfi_def_cfa_offset 0
 1125 005e 7047     		bx	lr
 1126              	.L67:
 1127              		.align	2
 1128              	.L66:
 1129 0060 00000000 		.word	CapSense_CSD_rawDataIndex
 1130 0064 00000000 		.word	CapSense_CSD_numberOfSensors
 1131 0068 00000000 		.word	CapSense_CSD_sensorEnableMask
 1132              		.cfi_endproc
 1133              	.LFE10:
 1134              		.size	CapSense_CSD_DisableWidget, .-CapSense_CSD_DisableWidget
 1135              		.section	.text.CapSense_CSD_FindMaximum,"ax",%progbits
 1136              		.align	2
 1137              		.global	CapSense_CSD_FindMaximum
 1138              		.thumb
 1139              		.thumb_func
 1140              		.type	CapSense_CSD_FindMaximum, %function
 1141              	CapSense_CSD_FindMaximum:
 1142              	.LFB11:
 829:Generated_Source\PSoC5/CapSense_CSD_CSHL.c **** #if(CapSense_CSD_TOTAL_CENTROIDS_COUNT)
 830:Generated_Source\PSoC5/CapSense_CSD_CSHL.c ****     /*******************************************************************************
 831:Generated_Source\PSoC5/CapSense_CSD_CSHL.c ****     * Function Name: CapSense_CSD_FindMaximum
 832:Generated_Source\PSoC5/CapSense_CSD_CSHL.c ****     ********************************************************************************
 833:Generated_Source\PSoC5/CapSense_CSD_CSHL.c ****     *
 834:Generated_Source\PSoC5/CapSense_CSD_CSHL.c ****     * Summary:
 835:Generated_Source\PSoC5/CapSense_CSD_CSHL.c ****     *  Finds index of maximum element within defined centroid. Checks 
 836:Generated_Source\PSoC5/CapSense_CSD_CSHL.c ****     *  CapSense_CSD_SensorSignal[] within defined cenrtoid and 
 837:Generated_Source\PSoC5/CapSense_CSD_CSHL.c ****     *  returns index of maximum element. The values below finger threshold are 
 838:Generated_Source\PSoC5/CapSense_CSD_CSHL.c ****     *  ignored.
 839:Generated_Source\PSoC5/CapSense_CSD_CSHL.c ****     *  The centrod defines by offset of first element and number of elements - count.
 840:Generated_Source\PSoC5/CapSense_CSD_CSHL.c ****     *  The diplexed centroid requires at least consecutive two elements above
 841:Generated_Source\PSoC5/CapSense_CSD_CSHL.c ****     *  FingerThreshold to find index of maximum element.
 842:Generated_Source\PSoC5/CapSense_CSD_CSHL.c ****     * 
 843:Generated_Source\PSoC5/CapSense_CSD_CSHL.c ****     * Parameters:
ARM GAS  C:\Users\HENRIC~1\AppData\Local\Temp\ccL0852m.s 			page 36


 844:Generated_Source\PSoC5/CapSense_CSD_CSHL.c ****     *  offset:  Start index of cetroid in CapSense_CSD_sensorSignal[] array.
 845:Generated_Source\PSoC5/CapSense_CSD_CSHL.c ****     *  count:   number of elements within centroid.
 846:Generated_Source\PSoC5/CapSense_CSD_CSHL.c ****     *  fingerThreshold:  Finger threshould.
 847:Generated_Source\PSoC5/CapSense_CSD_CSHL.c ****     *  diplex:   pointer to diplex table.
 848:Generated_Source\PSoC5/CapSense_CSD_CSHL.c ****     * 
 849:Generated_Source\PSoC5/CapSense_CSD_CSHL.c ****     * Return:
 850:Generated_Source\PSoC5/CapSense_CSD_CSHL.c ****     *  Returns index of maximum element within defined centroid.
 851:Generated_Source\PSoC5/CapSense_CSD_CSHL.c ****     *  If index of maximum element doesn't find the 0xFF returns.
 852:Generated_Source\PSoC5/CapSense_CSD_CSHL.c ****     * 
 853:Generated_Source\PSoC5/CapSense_CSD_CSHL.c ****     *******************************************************************************/
 854:Generated_Source\PSoC5/CapSense_CSD_CSHL.c ****     #if (CapSense_CSD_IS_DIPLEX_SLIDER)
 855:Generated_Source\PSoC5/CapSense_CSD_CSHL.c ****         uint8 CapSense_CSD_FindMaximum(uint8 offset, uint8 count, uint16 fingerThreshold, const uin
 856:Generated_Source\PSoC5/CapSense_CSD_CSHL.c **** 	                                       
 857:Generated_Source\PSoC5/CapSense_CSD_CSHL.c ****     #else 
 858:Generated_Source\PSoC5/CapSense_CSD_CSHL.c ****         uint8 CapSense_CSD_FindMaximum(uint8 offset, uint8 count, uint16 fingerThreshold)
 859:Generated_Source\PSoC5/CapSense_CSD_CSHL.c **** 	                                       
 860:Generated_Source\PSoC5/CapSense_CSD_CSHL.c ****     #endif /* (CapSense_CSD_IS_DIPLEX_SLIDER) */
 861:Generated_Source\PSoC5/CapSense_CSD_CSHL.c ****     {
 1143              		.loc 1 861 0
 1144              		.cfi_startproc
 1145              		@ args = 0, pretend = 0, frame = 16
 1146              		@ frame_needed = 1, uses_anonymous_args = 0
 1147              		@ link register save eliminated.
 1148 0000 80B4     		push	{r7}
 1149              		.cfi_def_cfa_offset 4
 1150              		.cfi_offset 7, -4
 1151 0002 85B0     		sub	sp, sp, #20
 1152              		.cfi_def_cfa_offset 24
 1153 0004 00AF     		add	r7, sp, #0
 1154              		.cfi_def_cfa_register 7
 1155 0006 0346     		mov	r3, r0
 1156 0008 FB71     		strb	r3, [r7, #7]
 1157 000a 0B46     		mov	r3, r1
 1158 000c BB71     		strb	r3, [r7, #6]
 1159 000e 1346     		mov	r3, r2	@ movhi
 1160 0010 BB80     		strh	r3, [r7, #4]	@ movhi
 862:Generated_Source\PSoC5/CapSense_CSD_CSHL.c ****         uint8 i;
 863:Generated_Source\PSoC5/CapSense_CSD_CSHL.c ****         #if (CapSense_CSD_IS_DIPLEX_SLIDER)        
 864:Generated_Source\PSoC5/CapSense_CSD_CSHL.c ****             uint8 curPos = 0u;
 865:Generated_Source\PSoC5/CapSense_CSD_CSHL.c ****             /* No centroid at the Start */
 866:Generated_Source\PSoC5/CapSense_CSD_CSHL.c ****             uint8 curCntrdSize = 0u;
 867:Generated_Source\PSoC5/CapSense_CSD_CSHL.c ****             uint8 curCtrdStartPos = 0xFFu;
 868:Generated_Source\PSoC5/CapSense_CSD_CSHL.c ****             /* The biggset centroid is zero */
 869:Generated_Source\PSoC5/CapSense_CSD_CSHL.c ****             uint8 biggestCtrdSize = 0u;
 870:Generated_Source\PSoC5/CapSense_CSD_CSHL.c ****             uint8 biggestCtrdStartPos = 0u;
 871:Generated_Source\PSoC5/CapSense_CSD_CSHL.c ****         #endif /* (CapSense_CSD_IS_DIPLEX_SLIDER) */
 872:Generated_Source\PSoC5/CapSense_CSD_CSHL.c ****         uint8 maximum = 0xFFu;
 1161              		.loc 1 872 0
 1162 0012 FF23     		movs	r3, #255
 1163 0014 BB73     		strb	r3, [r7, #14]
 873:Generated_Source\PSoC5/CapSense_CSD_CSHL.c ****         uint16 temp = 0u;
 1164              		.loc 1 873 0
 1165 0016 0023     		movs	r3, #0
 1166 0018 BB81     		strh	r3, [r7, #12]	@ movhi
 874:Generated_Source\PSoC5/CapSense_CSD_CSHL.c ****         uint16 *startOfSlider = &CapSense_CSD_sensorSignal[offset]; 
 1167              		.loc 1 874 0
 1168 001a FB79     		ldrb	r3, [r7, #7]	@ zero_extendqisi2
ARM GAS  C:\Users\HENRIC~1\AppData\Local\Temp\ccL0852m.s 			page 37


 1169 001c 5B00     		lsls	r3, r3, #1
 1170 001e 154A     		ldr	r2, .L73
 1171 0020 1344     		add	r3, r3, r2
 1172 0022 BB60     		str	r3, [r7, #8]
 875:Generated_Source\PSoC5/CapSense_CSD_CSHL.c **** 
 876:Generated_Source\PSoC5/CapSense_CSD_CSHL.c ****         #if (CapSense_CSD_IS_DIPLEX_SLIDER)        
 877:Generated_Source\PSoC5/CapSense_CSD_CSHL.c ****             if(diplex != 0u)
 878:Generated_Source\PSoC5/CapSense_CSD_CSHL.c ****             {
 879:Generated_Source\PSoC5/CapSense_CSD_CSHL.c ****                 /* Initialize */
 880:Generated_Source\PSoC5/CapSense_CSD_CSHL.c ****                 i = 0u;
 881:Generated_Source\PSoC5/CapSense_CSD_CSHL.c ****                 
 882:Generated_Source\PSoC5/CapSense_CSD_CSHL.c ****                 /* Make slider x2 as Diplexed */
 883:Generated_Source\PSoC5/CapSense_CSD_CSHL.c ****                 count <<= 1u;
 884:Generated_Source\PSoC5/CapSense_CSD_CSHL.c ****                 while(1u)
 885:Generated_Source\PSoC5/CapSense_CSD_CSHL.c ****                 { 
 886:Generated_Source\PSoC5/CapSense_CSD_CSHL.c ****                     if (startOfSlider[curPos] > 0u)    /* Looking for centroids */
 887:Generated_Source\PSoC5/CapSense_CSD_CSHL.c ****                     {
 888:Generated_Source\PSoC5/CapSense_CSD_CSHL.c ****                         if (curCtrdStartPos == 0xFFu)
 889:Generated_Source\PSoC5/CapSense_CSD_CSHL.c ****                         {
 890:Generated_Source\PSoC5/CapSense_CSD_CSHL.c ****                             /* Start of centroid */
 891:Generated_Source\PSoC5/CapSense_CSD_CSHL.c ****                             curCtrdStartPos = i;
 892:Generated_Source\PSoC5/CapSense_CSD_CSHL.c ****                             curCntrdSize++;
 893:Generated_Source\PSoC5/CapSense_CSD_CSHL.c ****                         }
 894:Generated_Source\PSoC5/CapSense_CSD_CSHL.c ****                         else
 895:Generated_Source\PSoC5/CapSense_CSD_CSHL.c ****                         {
 896:Generated_Source\PSoC5/CapSense_CSD_CSHL.c ****                             curCntrdSize++;
 897:Generated_Source\PSoC5/CapSense_CSD_CSHL.c ****                         }
 898:Generated_Source\PSoC5/CapSense_CSD_CSHL.c ****                     }
 899:Generated_Source\PSoC5/CapSense_CSD_CSHL.c ****                     else   /* Select the bigest and indicate zero start */
 900:Generated_Source\PSoC5/CapSense_CSD_CSHL.c ****                     {          
 901:Generated_Source\PSoC5/CapSense_CSD_CSHL.c ****                         if(curCntrdSize > 0u)
 902:Generated_Source\PSoC5/CapSense_CSD_CSHL.c ****                         {
 903:Generated_Source\PSoC5/CapSense_CSD_CSHL.c ****                             /* We are in the end of current */
 904:Generated_Source\PSoC5/CapSense_CSD_CSHL.c ****                             if(curCntrdSize > biggestCtrdSize)
 905:Generated_Source\PSoC5/CapSense_CSD_CSHL.c ****                             {
 906:Generated_Source\PSoC5/CapSense_CSD_CSHL.c ****                                 biggestCtrdSize = curCntrdSize;
 907:Generated_Source\PSoC5/CapSense_CSD_CSHL.c ****                                 biggestCtrdStartPos = curCtrdStartPos;
 908:Generated_Source\PSoC5/CapSense_CSD_CSHL.c ****                             }
 909:Generated_Source\PSoC5/CapSense_CSD_CSHL.c ****                             
 910:Generated_Source\PSoC5/CapSense_CSD_CSHL.c ****                             curCntrdSize = 0u;
 911:Generated_Source\PSoC5/CapSense_CSD_CSHL.c ****                             curCtrdStartPos = 0xFFu;
 912:Generated_Source\PSoC5/CapSense_CSD_CSHL.c ****                         }
 913:Generated_Source\PSoC5/CapSense_CSD_CSHL.c ****                     }
 914:Generated_Source\PSoC5/CapSense_CSD_CSHL.c ****                     
 915:Generated_Source\PSoC5/CapSense_CSD_CSHL.c ****                     i++; 
 916:Generated_Source\PSoC5/CapSense_CSD_CSHL.c ****                     curPos = diplex[i];
 917:Generated_Source\PSoC5/CapSense_CSD_CSHL.c ****                     if(i == count)
 918:Generated_Source\PSoC5/CapSense_CSD_CSHL.c ****                     {
 919:Generated_Source\PSoC5/CapSense_CSD_CSHL.c ****                         break;
 920:Generated_Source\PSoC5/CapSense_CSD_CSHL.c ****                     }            
 921:Generated_Source\PSoC5/CapSense_CSD_CSHL.c ****                 }
 922:Generated_Source\PSoC5/CapSense_CSD_CSHL.c ****                     
 923:Generated_Source\PSoC5/CapSense_CSD_CSHL.c ****                     /* Find the biggest centroid if two are the same size, last one wins
 924:Generated_Source\PSoC5/CapSense_CSD_CSHL.c ****                        We are in the end of current */
 925:Generated_Source\PSoC5/CapSense_CSD_CSHL.c ****                 if (curCntrdSize >= biggestCtrdSize) 
 926:Generated_Source\PSoC5/CapSense_CSD_CSHL.c ****                 {
 927:Generated_Source\PSoC5/CapSense_CSD_CSHL.c ****                     biggestCtrdSize = curCntrdSize;
ARM GAS  C:\Users\HENRIC~1\AppData\Local\Temp\ccL0852m.s 			page 38


 928:Generated_Source\PSoC5/CapSense_CSD_CSHL.c ****                     biggestCtrdStartPos = curCtrdStartPos;
 929:Generated_Source\PSoC5/CapSense_CSD_CSHL.c ****                 }
 930:Generated_Source\PSoC5/CapSense_CSD_CSHL.c ****             }
 931:Generated_Source\PSoC5/CapSense_CSD_CSHL.c ****             else
 932:Generated_Source\PSoC5/CapSense_CSD_CSHL.c ****             {
 933:Generated_Source\PSoC5/CapSense_CSD_CSHL.c ****                 /* Without diplexing */ 
 934:Generated_Source\PSoC5/CapSense_CSD_CSHL.c ****                 biggestCtrdSize = count;
 935:Generated_Source\PSoC5/CapSense_CSD_CSHL.c ****             }
 936:Generated_Source\PSoC5/CapSense_CSD_CSHL.c ****                         
 937:Generated_Source\PSoC5/CapSense_CSD_CSHL.c **** 
 938:Generated_Source\PSoC5/CapSense_CSD_CSHL.c ****             /* Check centroid size */
 939:Generated_Source\PSoC5/CapSense_CSD_CSHL.c ****             #if (CapSense_CSD_IS_NON_DIPLEX_SLIDER)
 940:Generated_Source\PSoC5/CapSense_CSD_CSHL.c ****                 if((biggestCtrdSize >= 2u) || ((biggestCtrdSize == 1u) && (diplex == 0u)))
 941:Generated_Source\PSoC5/CapSense_CSD_CSHL.c ****             #else                    
 942:Generated_Source\PSoC5/CapSense_CSD_CSHL.c ****                 if(biggestCtrdSize >= 2u)
 943:Generated_Source\PSoC5/CapSense_CSD_CSHL.c ****             #endif /* (CapSense_CSD_IS_NON_DIPLEX_SLIDER) */
 944:Generated_Source\PSoC5/CapSense_CSD_CSHL.c ****                 {
 945:Generated_Source\PSoC5/CapSense_CSD_CSHL.c ****                     for (i = biggestCtrdStartPos; i < (biggestCtrdStartPos + biggestCtrdSize); i++)
 946:Generated_Source\PSoC5/CapSense_CSD_CSHL.c ****                     {
 947:Generated_Source\PSoC5/CapSense_CSD_CSHL.c ****                         #if (CapSense_CSD_IS_DIPLEX_SLIDER && CapSense_CSD_IS_NON_DIPLEX_SLIDER)
 948:Generated_Source\PSoC5/CapSense_CSD_CSHL.c ****                             if (diplex == 0u)
 949:Generated_Source\PSoC5/CapSense_CSD_CSHL.c ****                             {
 950:Generated_Source\PSoC5/CapSense_CSD_CSHL.c ****                                 curPos = i;
 951:Generated_Source\PSoC5/CapSense_CSD_CSHL.c ****                             }
 952:Generated_Source\PSoC5/CapSense_CSD_CSHL.c ****                             else
 953:Generated_Source\PSoC5/CapSense_CSD_CSHL.c ****                             {
 954:Generated_Source\PSoC5/CapSense_CSD_CSHL.c ****                                 curPos = diplex[i];
 955:Generated_Source\PSoC5/CapSense_CSD_CSHL.c ****                             }                    
 956:Generated_Source\PSoC5/CapSense_CSD_CSHL.c ****                         #elif (CapSense_CSD_IS_DIPLEX_SLIDER)                    
 957:Generated_Source\PSoC5/CapSense_CSD_CSHL.c ****                             curPos = diplex[i];                    
 958:Generated_Source\PSoC5/CapSense_CSD_CSHL.c ****                         #endif /* (CapSense_CSD_IS_DIPLEX_SLIDER && CapSense_CSD_IS_NON_DIPLEX_SLID
 959:Generated_Source\PSoC5/CapSense_CSD_CSHL.c ****                         /* Looking for the grater element within centroid */
 960:Generated_Source\PSoC5/CapSense_CSD_CSHL.c ****                         if(startOfSlider[curPos] > fingerThreshold)
 961:Generated_Source\PSoC5/CapSense_CSD_CSHL.c ****                         {
 962:Generated_Source\PSoC5/CapSense_CSD_CSHL.c ****                             if(startOfSlider[curPos] > temp)
 963:Generated_Source\PSoC5/CapSense_CSD_CSHL.c ****                             {
 964:Generated_Source\PSoC5/CapSense_CSD_CSHL.c ****                                 maximum = i;
 965:Generated_Source\PSoC5/CapSense_CSD_CSHL.c ****                                 temp = startOfSlider[curPos];
 966:Generated_Source\PSoC5/CapSense_CSD_CSHL.c ****                             }
 967:Generated_Source\PSoC5/CapSense_CSD_CSHL.c ****                         }
 968:Generated_Source\PSoC5/CapSense_CSD_CSHL.c ****                     }
 969:Generated_Source\PSoC5/CapSense_CSD_CSHL.c ****                 } 
 970:Generated_Source\PSoC5/CapSense_CSD_CSHL.c ****         #else
 971:Generated_Source\PSoC5/CapSense_CSD_CSHL.c ****             for (i = 0u; i < count; i++)
 1173              		.loc 1 971 0
 1174 0024 0023     		movs	r3, #0
 1175 0026 FB73     		strb	r3, [r7, #15]
 1176 0028 1AE0     		b	.L69
 1177              	.L71:
 972:Generated_Source\PSoC5/CapSense_CSD_CSHL.c ****             {                      
 973:Generated_Source\PSoC5/CapSense_CSD_CSHL.c ****                 /* Looking for the grater element within centroid */
 974:Generated_Source\PSoC5/CapSense_CSD_CSHL.c ****                 if(startOfSlider[i] > fingerThreshold)
 1178              		.loc 1 974 0
 1179 002a FB7B     		ldrb	r3, [r7, #15]	@ zero_extendqisi2
 1180 002c 5B00     		lsls	r3, r3, #1
 1181 002e BA68     		ldr	r2, [r7, #8]
 1182 0030 1344     		add	r3, r3, r2
ARM GAS  C:\Users\HENRIC~1\AppData\Local\Temp\ccL0852m.s 			page 39


 1183 0032 1B88     		ldrh	r3, [r3]
 1184 0034 BA88     		ldrh	r2, [r7, #4]
 1185 0036 9A42     		cmp	r2, r3
 1186 0038 0FD2     		bcs	.L70
 975:Generated_Source\PSoC5/CapSense_CSD_CSHL.c ****                 {
 976:Generated_Source\PSoC5/CapSense_CSD_CSHL.c ****                     if(startOfSlider[i] > temp)
 1187              		.loc 1 976 0
 1188 003a FB7B     		ldrb	r3, [r7, #15]	@ zero_extendqisi2
 1189 003c 5B00     		lsls	r3, r3, #1
 1190 003e BA68     		ldr	r2, [r7, #8]
 1191 0040 1344     		add	r3, r3, r2
 1192 0042 1B88     		ldrh	r3, [r3]
 1193 0044 BA89     		ldrh	r2, [r7, #12]
 1194 0046 9A42     		cmp	r2, r3
 1195 0048 07D2     		bcs	.L70
 977:Generated_Source\PSoC5/CapSense_CSD_CSHL.c ****                     {
 978:Generated_Source\PSoC5/CapSense_CSD_CSHL.c ****                         maximum = i;
 1196              		.loc 1 978 0
 1197 004a FB7B     		ldrb	r3, [r7, #15]
 1198 004c BB73     		strb	r3, [r7, #14]
 979:Generated_Source\PSoC5/CapSense_CSD_CSHL.c ****                         temp = startOfSlider[i];
 1199              		.loc 1 979 0
 1200 004e FB7B     		ldrb	r3, [r7, #15]	@ zero_extendqisi2
 1201 0050 5B00     		lsls	r3, r3, #1
 1202 0052 BA68     		ldr	r2, [r7, #8]
 1203 0054 1344     		add	r3, r3, r2
 1204 0056 1B88     		ldrh	r3, [r3]	@ movhi
 1205 0058 BB81     		strh	r3, [r7, #12]	@ movhi
 1206              	.L70:
 971:Generated_Source\PSoC5/CapSense_CSD_CSHL.c ****             {                      
 1207              		.loc 1 971 0 discriminator 2
 1208 005a FB7B     		ldrb	r3, [r7, #15]	@ zero_extendqisi2
 1209 005c 0133     		adds	r3, r3, #1
 1210 005e FB73     		strb	r3, [r7, #15]
 1211              	.L69:
 971:Generated_Source\PSoC5/CapSense_CSD_CSHL.c ****             {                      
 1212              		.loc 1 971 0 is_stmt 0 discriminator 1
 1213 0060 FA7B     		ldrb	r2, [r7, #15]	@ zero_extendqisi2
 1214 0062 BB79     		ldrb	r3, [r7, #6]	@ zero_extendqisi2
 1215 0064 9A42     		cmp	r2, r3
 1216 0066 E0D3     		bcc	.L71
 980:Generated_Source\PSoC5/CapSense_CSD_CSHL.c ****                     }
 981:Generated_Source\PSoC5/CapSense_CSD_CSHL.c ****                 }
 982:Generated_Source\PSoC5/CapSense_CSD_CSHL.c ****             }    
 983:Generated_Source\PSoC5/CapSense_CSD_CSHL.c ****         #endif /* (CapSense_CSD_IS_DIPLEX_SLIDER) */
 984:Generated_Source\PSoC5/CapSense_CSD_CSHL.c ****         return (maximum);
 1217              		.loc 1 984 0 is_stmt 1
 1218 0068 BB7B     		ldrb	r3, [r7, #14]	@ zero_extendqisi2
 985:Generated_Source\PSoC5/CapSense_CSD_CSHL.c ****     }
 1219              		.loc 1 985 0
 1220 006a 1846     		mov	r0, r3
 1221 006c 1437     		adds	r7, r7, #20
 1222              		.cfi_def_cfa_offset 4
 1223 006e BD46     		mov	sp, r7
 1224              		.cfi_def_cfa_register 13
 1225              		@ sp needed
 1226 0070 80BC     		pop	{r7}
ARM GAS  C:\Users\HENRIC~1\AppData\Local\Temp\ccL0852m.s 			page 40


 1227              		.cfi_restore 7
 1228              		.cfi_def_cfa_offset 0
 1229 0072 7047     		bx	lr
 1230              	.L74:
 1231              		.align	2
 1232              	.L73:
 1233 0074 00000000 		.word	CapSense_CSD_sensorSignal
 1234              		.cfi_endproc
 1235              	.LFE11:
 1236              		.size	CapSense_CSD_FindMaximum, .-CapSense_CSD_FindMaximum
 1237              		.section	.text.CapSense_CSD_CalcCentroid,"ax",%progbits
 1238              		.align	2
 1239              		.global	CapSense_CSD_CalcCentroid
 1240              		.thumb
 1241              		.thumb_func
 1242              		.type	CapSense_CSD_CalcCentroid, %function
 1243              	CapSense_CSD_CalcCentroid:
 1244              	.LFB12:
 986:Generated_Source\PSoC5/CapSense_CSD_CSHL.c ****     
 987:Generated_Source\PSoC5/CapSense_CSD_CSHL.c ****     
 988:Generated_Source\PSoC5/CapSense_CSD_CSHL.c ****     /*******************************************************************************
 989:Generated_Source\PSoC5/CapSense_CSD_CSHL.c ****     * Function Name: CapSense_CSD_CalcCentroid
 990:Generated_Source\PSoC5/CapSense_CSD_CSHL.c ****     ********************************************************************************
 991:Generated_Source\PSoC5/CapSense_CSD_CSHL.c ****     *
 992:Generated_Source\PSoC5/CapSense_CSD_CSHL.c ****     * Summary:
 993:Generated_Source\PSoC5/CapSense_CSD_CSHL.c ****     *  Returns position value calculated accoring index of maximum element and API
 994:Generated_Source\PSoC5/CapSense_CSD_CSHL.c ****     *  resolution.
 995:Generated_Source\PSoC5/CapSense_CSD_CSHL.c ****     *
 996:Generated_Source\PSoC5/CapSense_CSD_CSHL.c ****     * Parameters:
 997:Generated_Source\PSoC5/CapSense_CSD_CSHL.c ****     *  type:  widget type.
 998:Generated_Source\PSoC5/CapSense_CSD_CSHL.c ****     *  diplex:  pointer to diplex table.
 999:Generated_Source\PSoC5/CapSense_CSD_CSHL.c ****     *  maximum:  Index of maximum element within centroid.
1000:Generated_Source\PSoC5/CapSense_CSD_CSHL.c ****     *  offset:   Start index of cetroid in CapSense_CSD_SensorSignal[] array.
1001:Generated_Source\PSoC5/CapSense_CSD_CSHL.c ****     *  count:    Number of elements within centroid.
1002:Generated_Source\PSoC5/CapSense_CSD_CSHL.c ****     *  resolution:  multiplicator calculated according to centroid type and
1003:Generated_Source\PSoC5/CapSense_CSD_CSHL.c ****     *  API resolution.
1004:Generated_Source\PSoC5/CapSense_CSD_CSHL.c ****     *  noiseThreshold:  Noise threshould.
1005:Generated_Source\PSoC5/CapSense_CSD_CSHL.c ****     * 
1006:Generated_Source\PSoC5/CapSense_CSD_CSHL.c ****     * Return:
1007:Generated_Source\PSoC5/CapSense_CSD_CSHL.c ****     *  Returns position value of the slider.
1008:Generated_Source\PSoC5/CapSense_CSD_CSHL.c ****     * 
1009:Generated_Source\PSoC5/CapSense_CSD_CSHL.c ****     *
1010:Generated_Source\PSoC5/CapSense_CSD_CSHL.c ****     * Reentrant:
1011:Generated_Source\PSoC5/CapSense_CSD_CSHL.c ****     *  No.
1012:Generated_Source\PSoC5/CapSense_CSD_CSHL.c ****     *
1013:Generated_Source\PSoC5/CapSense_CSD_CSHL.c ****     *******************************************************************************/
1014:Generated_Source\PSoC5/CapSense_CSD_CSHL.c ****     uint8 CapSense_CSD_CalcCentroid(uint8 maximum, uint8 offset, 
1015:Generated_Source\PSoC5/CapSense_CSD_CSHL.c ****                                         uint8 count, uint16 resolution, uint16 noiseThreshold)
1016:Generated_Source\PSoC5/CapSense_CSD_CSHL.c **** 	                                    
1017:Generated_Source\PSoC5/CapSense_CSD_CSHL.c ****     {
 1245              		.loc 1 1017 0
 1246              		.cfi_startproc
 1247              		@ args = 4, pretend = 0, frame = 32
 1248              		@ frame_needed = 1, uses_anonymous_args = 0
 1249              		@ link register save eliminated.
 1250 0000 90B4     		push	{r4, r7}
 1251              		.cfi_def_cfa_offset 8
ARM GAS  C:\Users\HENRIC~1\AppData\Local\Temp\ccL0852m.s 			page 41


 1252              		.cfi_offset 4, -8
 1253              		.cfi_offset 7, -4
 1254 0002 88B0     		sub	sp, sp, #32
 1255              		.cfi_def_cfa_offset 40
 1256 0004 00AF     		add	r7, sp, #0
 1257              		.cfi_def_cfa_register 7
 1258 0006 0446     		mov	r4, r0
 1259 0008 0846     		mov	r0, r1
 1260 000a 1146     		mov	r1, r2
 1261 000c 1A46     		mov	r2, r3
 1262 000e 2346     		mov	r3, r4
 1263 0010 FB71     		strb	r3, [r7, #7]
 1264 0012 0346     		mov	r3, r0
 1265 0014 BB71     		strb	r3, [r7, #6]
 1266 0016 0B46     		mov	r3, r1
 1267 0018 7B71     		strb	r3, [r7, #5]
 1268 001a 1346     		mov	r3, r2	@ movhi
 1269 001c 7B80     		strh	r3, [r7, #2]	@ movhi
1018:Generated_Source\PSoC5/CapSense_CSD_CSHL.c ****         #if ((CapSense_CSD_TOTAL_LINEAR_SLIDERS_COUNT > 0u) || (CapSense_CSD_TOTAL_TOUCH_PADS_COUNT
1019:Generated_Source\PSoC5/CapSense_CSD_CSHL.c ****             uint8 posPrev = 0u;
 1270              		.loc 1 1019 0
 1271 001e 0023     		movs	r3, #0
 1272 0020 FB77     		strb	r3, [r7, #31]
1020:Generated_Source\PSoC5/CapSense_CSD_CSHL.c ****             uint8 posNext = 0u;
 1273              		.loc 1 1020 0
 1274 0022 0023     		movs	r3, #0
 1275 0024 BB77     		strb	r3, [r7, #30]
1021:Generated_Source\PSoC5/CapSense_CSD_CSHL.c ****         #endif /* ((CapSense_CSD_TOTAL_LINEAR_SLIDERS_COUNT>0u) || (CapSense_CSD_TOTAL_TOUCH_PADS_C
1022:Generated_Source\PSoC5/CapSense_CSD_CSHL.c ****                
1023:Generated_Source\PSoC5/CapSense_CSD_CSHL.c ****         #if (CapSense_CSD_IS_DIPLEX_SLIDER)                
1024:Generated_Source\PSoC5/CapSense_CSD_CSHL.c ****             uint8 pos;
1025:Generated_Source\PSoC5/CapSense_CSD_CSHL.c ****         #endif /* (CapSense_CSD_IS_DIPLEX_SLIDER) */
1026:Generated_Source\PSoC5/CapSense_CSD_CSHL.c ****         
1027:Generated_Source\PSoC5/CapSense_CSD_CSHL.c ****         /* Helps while centroid calulation */
1028:Generated_Source\PSoC5/CapSense_CSD_CSHL.c ****         static uint16 CapSense_CSD_centroid[3u];
1029:Generated_Source\PSoC5/CapSense_CSD_CSHL.c **** 
1030:Generated_Source\PSoC5/CapSense_CSD_CSHL.c ****         uint8 position;
1031:Generated_Source\PSoC5/CapSense_CSD_CSHL.c ****         uint32 numerator;
1032:Generated_Source\PSoC5/CapSense_CSD_CSHL.c ****         int32 denominator;
1033:Generated_Source\PSoC5/CapSense_CSD_CSHL.c ****         uint16 *startOfSlider = &CapSense_CSD_sensorSignal[offset];
 1276              		.loc 1 1033 0
 1277 0026 BB79     		ldrb	r3, [r7, #6]	@ zero_extendqisi2
 1278 0028 5B00     		lsls	r3, r3, #1
 1279 002a 494A     		ldr	r2, .L85
 1280 002c 1344     		add	r3, r3, r2
 1281 002e BB61     		str	r3, [r7, #24]
1034:Generated_Source\PSoC5/CapSense_CSD_CSHL.c ****                     
1035:Generated_Source\PSoC5/CapSense_CSD_CSHL.c ****         #if (CapSense_CSD_ADD_SLIDER_TYPE)
1036:Generated_Source\PSoC5/CapSense_CSD_CSHL.c ****             if(type == CapSense_CSD_TYPE_RADIAL_SLIDER)
1037:Generated_Source\PSoC5/CapSense_CSD_CSHL.c ****             {
1038:Generated_Source\PSoC5/CapSense_CSD_CSHL.c ****         #endif /* (CapSense_CSD_ADD_SLIDER_TYPE) */
1039:Generated_Source\PSoC5/CapSense_CSD_CSHL.c **** 
1040:Generated_Source\PSoC5/CapSense_CSD_CSHL.c ****             #if (CapSense_CSD_TOTAL_RADIAL_SLIDERS_COUNT > 0u)                
1041:Generated_Source\PSoC5/CapSense_CSD_CSHL.c ****                 /* Copy Signal for found centriod */
1042:Generated_Source\PSoC5/CapSense_CSD_CSHL.c ****                 CapSense_CSD_centroid[CapSense_CSD_POS] = startOfSlider[maximum];
1043:Generated_Source\PSoC5/CapSense_CSD_CSHL.c ****                  
1044:Generated_Source\PSoC5/CapSense_CSD_CSHL.c ****                 /* Check borders for ROTARY Slider */
ARM GAS  C:\Users\HENRIC~1\AppData\Local\Temp\ccL0852m.s 			page 42


1045:Generated_Source\PSoC5/CapSense_CSD_CSHL.c ****                 if (maximum == 0u)                   /* Start of centroid */
1046:Generated_Source\PSoC5/CapSense_CSD_CSHL.c ****                 { 
1047:Generated_Source\PSoC5/CapSense_CSD_CSHL.c ****                     CapSense_CSD_centroid[CapSense_CSD_POS_PREV] = startOfSlider[count - 1u];
1048:Generated_Source\PSoC5/CapSense_CSD_CSHL.c ****                     CapSense_CSD_centroid[CapSense_CSD_POS_NEXT] = startOfSlider[1u];
1049:Generated_Source\PSoC5/CapSense_CSD_CSHL.c ****                 }
1050:Generated_Source\PSoC5/CapSense_CSD_CSHL.c ****                 else if (maximum == (count - 1u))    /* End of centroid */
1051:Generated_Source\PSoC5/CapSense_CSD_CSHL.c ****                 {
1052:Generated_Source\PSoC5/CapSense_CSD_CSHL.c ****                     CapSense_CSD_centroid[CapSense_CSD_POS_PREV] = startOfSlider[maximum - 1u];
1053:Generated_Source\PSoC5/CapSense_CSD_CSHL.c ****                     CapSense_CSD_centroid[CapSense_CSD_POS_NEXT] = startOfSlider[0u];
1054:Generated_Source\PSoC5/CapSense_CSD_CSHL.c ****                 }
1055:Generated_Source\PSoC5/CapSense_CSD_CSHL.c ****                 else                                /* Not first Not last */
1056:Generated_Source\PSoC5/CapSense_CSD_CSHL.c ****                 {
1057:Generated_Source\PSoC5/CapSense_CSD_CSHL.c ****                     CapSense_CSD_centroid[CapSense_CSD_POS_PREV] = startOfSlider[maximum - 1u];
1058:Generated_Source\PSoC5/CapSense_CSD_CSHL.c ****                     CapSense_CSD_centroid[CapSense_CSD_POS_NEXT] = startOfSlider[maximum + 1u];
1059:Generated_Source\PSoC5/CapSense_CSD_CSHL.c ****                 }
1060:Generated_Source\PSoC5/CapSense_CSD_CSHL.c ****             #endif /* (CapSense_CSD_TOTAL_RADIAL_SLIDERS_COUNT > 0u) */
1061:Generated_Source\PSoC5/CapSense_CSD_CSHL.c **** 
1062:Generated_Source\PSoC5/CapSense_CSD_CSHL.c ****         #if (CapSense_CSD_ADD_SLIDER_TYPE)
1063:Generated_Source\PSoC5/CapSense_CSD_CSHL.c ****             }
1064:Generated_Source\PSoC5/CapSense_CSD_CSHL.c ****             else
1065:Generated_Source\PSoC5/CapSense_CSD_CSHL.c ****             {
1066:Generated_Source\PSoC5/CapSense_CSD_CSHL.c ****         #endif /* (CapSense_CSD_ADD_SLIDER_TYPE) */
1067:Generated_Source\PSoC5/CapSense_CSD_CSHL.c **** 
1068:Generated_Source\PSoC5/CapSense_CSD_CSHL.c ****             #if ((CapSense_CSD_TOTAL_LINEAR_SLIDERS_COUNT > 0u) || (CapSense_CSD_TOTAL_TOUCH_PADS_C
1069:Generated_Source\PSoC5/CapSense_CSD_CSHL.c ****                 #if (CapSense_CSD_IS_DIPLEX_SLIDER && CapSense_CSD_IS_NON_DIPLEX_SLIDER)           
1070:Generated_Source\PSoC5/CapSense_CSD_CSHL.c ****                     /* Calculate next and previous near to maximum */
1071:Generated_Source\PSoC5/CapSense_CSD_CSHL.c ****                     if(diplex == 0u)
1072:Generated_Source\PSoC5/CapSense_CSD_CSHL.c ****                     {
1073:Generated_Source\PSoC5/CapSense_CSD_CSHL.c ****                         pos     = maximum;
1074:Generated_Source\PSoC5/CapSense_CSD_CSHL.c ****                         posPrev = maximum - 1u;
1075:Generated_Source\PSoC5/CapSense_CSD_CSHL.c ****                         posNext = maximum + 1u; 
1076:Generated_Source\PSoC5/CapSense_CSD_CSHL.c ****                     }
1077:Generated_Source\PSoC5/CapSense_CSD_CSHL.c ****                     else
1078:Generated_Source\PSoC5/CapSense_CSD_CSHL.c ****                     {
1079:Generated_Source\PSoC5/CapSense_CSD_CSHL.c ****                         pos     = diplex[maximum];
1080:Generated_Source\PSoC5/CapSense_CSD_CSHL.c ****                         posPrev = diplex[maximum - 1u];
1081:Generated_Source\PSoC5/CapSense_CSD_CSHL.c ****                         posNext = diplex[maximum + 1u];
1082:Generated_Source\PSoC5/CapSense_CSD_CSHL.c ****                         count <<= 1u;
1083:Generated_Source\PSoC5/CapSense_CSD_CSHL.c ****                     }                    
1084:Generated_Source\PSoC5/CapSense_CSD_CSHL.c ****                 #elif (CapSense_CSD_IS_DIPLEX_SLIDER)
1085:Generated_Source\PSoC5/CapSense_CSD_CSHL.c ****                     /* Calculate next and previous near to maximum */
1086:Generated_Source\PSoC5/CapSense_CSD_CSHL.c ****                     pos     = diplex[maximum];
1087:Generated_Source\PSoC5/CapSense_CSD_CSHL.c ****                     posPrev = diplex[maximum - 1u];
1088:Generated_Source\PSoC5/CapSense_CSD_CSHL.c ****                     posNext = diplex[maximum + 1u];
1089:Generated_Source\PSoC5/CapSense_CSD_CSHL.c ****                     count <<= 1u;                    
1090:Generated_Source\PSoC5/CapSense_CSD_CSHL.c ****                 #else                    
1091:Generated_Source\PSoC5/CapSense_CSD_CSHL.c ****                     /* Calculate next and previous near to maximum */
1092:Generated_Source\PSoC5/CapSense_CSD_CSHL.c ****                     if (maximum >= 1u)
 1282              		.loc 1 1092 0
 1283 0030 FB79     		ldrb	r3, [r7, #7]	@ zero_extendqisi2
 1284 0032 002B     		cmp	r3, #0
 1285 0034 02D0     		beq	.L76
1093:Generated_Source\PSoC5/CapSense_CSD_CSHL.c ****                     {
1094:Generated_Source\PSoC5/CapSense_CSD_CSHL.c ****                         posPrev = maximum - 1u;
 1286              		.loc 1 1094 0
 1287 0036 FB79     		ldrb	r3, [r7, #7]
 1288 0038 013B     		subs	r3, r3, #1
ARM GAS  C:\Users\HENRIC~1\AppData\Local\Temp\ccL0852m.s 			page 43


 1289 003a FB77     		strb	r3, [r7, #31]
 1290              	.L76:
1095:Generated_Source\PSoC5/CapSense_CSD_CSHL.c ****                     }
1096:Generated_Source\PSoC5/CapSense_CSD_CSHL.c ****                     posNext = maximum + 1u; 
 1291              		.loc 1 1096 0
 1292 003c FB79     		ldrb	r3, [r7, #7]
 1293 003e 0133     		adds	r3, r3, #1
 1294 0040 BB77     		strb	r3, [r7, #30]
1097:Generated_Source\PSoC5/CapSense_CSD_CSHL.c ****                 #endif /* (CapSense_CSD_IS_DIPLEX_SLIDER && CapSense_CSD_IS_NON_DIPLEX_SLIDER) */
1098:Generated_Source\PSoC5/CapSense_CSD_CSHL.c ****                         
1099:Generated_Source\PSoC5/CapSense_CSD_CSHL.c ****                 /* Copy Signal for found centriod */
1100:Generated_Source\PSoC5/CapSense_CSD_CSHL.c ****                 #if (CapSense_CSD_IS_DIPLEX_SLIDER)
1101:Generated_Source\PSoC5/CapSense_CSD_CSHL.c ****                     CapSense_CSD_centroid[CapSense_CSD_POS] = startOfSlider[pos];
1102:Generated_Source\PSoC5/CapSense_CSD_CSHL.c ****                 #else
1103:Generated_Source\PSoC5/CapSense_CSD_CSHL.c ****                     CapSense_CSD_centroid[CapSense_CSD_POS] = startOfSlider[maximum];
 1295              		.loc 1 1103 0
 1296 0042 FB79     		ldrb	r3, [r7, #7]	@ zero_extendqisi2
 1297 0044 5B00     		lsls	r3, r3, #1
 1298 0046 BA69     		ldr	r2, [r7, #24]
 1299 0048 1344     		add	r3, r3, r2
 1300 004a 1A88     		ldrh	r2, [r3]
 1301 004c 414B     		ldr	r3, .L85+4
 1302 004e 5A80     		strh	r2, [r3, #2]	@ movhi
1104:Generated_Source\PSoC5/CapSense_CSD_CSHL.c ****                 #endif /* (CapSense_CSD_IS_DIPLEX_SLIDER) */
1105:Generated_Source\PSoC5/CapSense_CSD_CSHL.c ****                     
1106:Generated_Source\PSoC5/CapSense_CSD_CSHL.c ****                 /* Check borders for LINEAR Slider */
1107:Generated_Source\PSoC5/CapSense_CSD_CSHL.c ****                 if (maximum == 0u)                   /* Start of centroid */
 1303              		.loc 1 1107 0
 1304 0050 FB79     		ldrb	r3, [r7, #7]	@ zero_extendqisi2
 1305 0052 002B     		cmp	r3, #0
 1306 0054 0AD1     		bne	.L77
1108:Generated_Source\PSoC5/CapSense_CSD_CSHL.c ****                 { 
1109:Generated_Source\PSoC5/CapSense_CSD_CSHL.c ****                     CapSense_CSD_centroid[CapSense_CSD_POS_PREV] = 0u;
 1307              		.loc 1 1109 0
 1308 0056 3F4B     		ldr	r3, .L85+4
 1309 0058 0022     		movs	r2, #0
 1310 005a 1A80     		strh	r2, [r3]	@ movhi
1110:Generated_Source\PSoC5/CapSense_CSD_CSHL.c ****                     CapSense_CSD_centroid[CapSense_CSD_POS_NEXT] = startOfSlider[posNext];
 1311              		.loc 1 1110 0
 1312 005c BB7F     		ldrb	r3, [r7, #30]	@ zero_extendqisi2
 1313 005e 5B00     		lsls	r3, r3, #1
 1314 0060 BA69     		ldr	r2, [r7, #24]
 1315 0062 1344     		add	r3, r3, r2
 1316 0064 1A88     		ldrh	r2, [r3]
 1317 0066 3B4B     		ldr	r3, .L85+4
 1318 0068 9A80     		strh	r2, [r3, #4]	@ movhi
 1319 006a 1DE0     		b	.L78
 1320              	.L77:
1111:Generated_Source\PSoC5/CapSense_CSD_CSHL.c ****                 }
1112:Generated_Source\PSoC5/CapSense_CSD_CSHL.c ****                 else if (maximum == ((count) - 1u)) /* End of centroid */
 1321              		.loc 1 1112 0
 1322 006c FA79     		ldrb	r2, [r7, #7]	@ zero_extendqisi2
 1323 006e 7B79     		ldrb	r3, [r7, #5]	@ zero_extendqisi2
 1324 0070 013B     		subs	r3, r3, #1
 1325 0072 9A42     		cmp	r2, r3
 1326 0074 0AD1     		bne	.L79
1113:Generated_Source\PSoC5/CapSense_CSD_CSHL.c ****                 {
ARM GAS  C:\Users\HENRIC~1\AppData\Local\Temp\ccL0852m.s 			page 44


1114:Generated_Source\PSoC5/CapSense_CSD_CSHL.c ****                     CapSense_CSD_centroid[CapSense_CSD_POS_PREV] = startOfSlider[posPrev];
 1327              		.loc 1 1114 0
 1328 0076 FB7F     		ldrb	r3, [r7, #31]	@ zero_extendqisi2
 1329 0078 5B00     		lsls	r3, r3, #1
 1330 007a BA69     		ldr	r2, [r7, #24]
 1331 007c 1344     		add	r3, r3, r2
 1332 007e 1A88     		ldrh	r2, [r3]
 1333 0080 344B     		ldr	r3, .L85+4
 1334 0082 1A80     		strh	r2, [r3]	@ movhi
1115:Generated_Source\PSoC5/CapSense_CSD_CSHL.c ****                     CapSense_CSD_centroid[CapSense_CSD_POS_NEXT] = 0u;
 1335              		.loc 1 1115 0
 1336 0084 334B     		ldr	r3, .L85+4
 1337 0086 0022     		movs	r2, #0
 1338 0088 9A80     		strh	r2, [r3, #4]	@ movhi
 1339 008a 0DE0     		b	.L78
 1340              	.L79:
1116:Generated_Source\PSoC5/CapSense_CSD_CSHL.c ****                 }
1117:Generated_Source\PSoC5/CapSense_CSD_CSHL.c ****                 else                                /* Not first Not last */
1118:Generated_Source\PSoC5/CapSense_CSD_CSHL.c ****                 {
1119:Generated_Source\PSoC5/CapSense_CSD_CSHL.c ****                     CapSense_CSD_centroid[CapSense_CSD_POS_PREV] = startOfSlider[posPrev];
 1341              		.loc 1 1119 0
 1342 008c FB7F     		ldrb	r3, [r7, #31]	@ zero_extendqisi2
 1343 008e 5B00     		lsls	r3, r3, #1
 1344 0090 BA69     		ldr	r2, [r7, #24]
 1345 0092 1344     		add	r3, r3, r2
 1346 0094 1A88     		ldrh	r2, [r3]
 1347 0096 2F4B     		ldr	r3, .L85+4
 1348 0098 1A80     		strh	r2, [r3]	@ movhi
1120:Generated_Source\PSoC5/CapSense_CSD_CSHL.c ****                     CapSense_CSD_centroid[CapSense_CSD_POS_NEXT] = startOfSlider[posNext];
 1349              		.loc 1 1120 0
 1350 009a BB7F     		ldrb	r3, [r7, #30]	@ zero_extendqisi2
 1351 009c 5B00     		lsls	r3, r3, #1
 1352 009e BA69     		ldr	r2, [r7, #24]
 1353 00a0 1344     		add	r3, r3, r2
 1354 00a2 1A88     		ldrh	r2, [r3]
 1355 00a4 2B4B     		ldr	r3, .L85+4
 1356 00a6 9A80     		strh	r2, [r3, #4]	@ movhi
 1357              	.L78:
1121:Generated_Source\PSoC5/CapSense_CSD_CSHL.c ****                 }
1122:Generated_Source\PSoC5/CapSense_CSD_CSHL.c ****             #endif /* ((CapSense_CSD_TOTAL_LINEAR_SLIDERS_COUNT>0u)||(CapSense_CSD_TOTAL_TOUCH_PADS
1123:Generated_Source\PSoC5/CapSense_CSD_CSHL.c **** 
1124:Generated_Source\PSoC5/CapSense_CSD_CSHL.c ****         #if (CapSense_CSD_ADD_SLIDER_TYPE)
1125:Generated_Source\PSoC5/CapSense_CSD_CSHL.c ****             }
1126:Generated_Source\PSoC5/CapSense_CSD_CSHL.c ****         #endif /* (CapSense_CSD_ADD_SLIDER_TYPE) */
1127:Generated_Source\PSoC5/CapSense_CSD_CSHL.c ****     
1128:Generated_Source\PSoC5/CapSense_CSD_CSHL.c ****         /* Subtract noiseThreshold */
1129:Generated_Source\PSoC5/CapSense_CSD_CSHL.c ****         if(CapSense_CSD_centroid[CapSense_CSD_POS_PREV] > noiseThreshold)
 1358              		.loc 1 1129 0
 1359 00a8 2A4B     		ldr	r3, .L85+4
 1360 00aa 1B88     		ldrh	r3, [r3]
 1361 00ac 3A8D     		ldrh	r2, [r7, #40]
 1362 00ae 9A42     		cmp	r2, r3
 1363 00b0 07D2     		bcs	.L80
1130:Generated_Source\PSoC5/CapSense_CSD_CSHL.c ****         {
1131:Generated_Source\PSoC5/CapSense_CSD_CSHL.c ****             CapSense_CSD_centroid[CapSense_CSD_POS_PREV] -= noiseThreshold;
 1364              		.loc 1 1131 0
 1365 00b2 284B     		ldr	r3, .L85+4
ARM GAS  C:\Users\HENRIC~1\AppData\Local\Temp\ccL0852m.s 			page 45


 1366 00b4 1A88     		ldrh	r2, [r3]
 1367 00b6 3B8D     		ldrh	r3, [r7, #40]	@ movhi
 1368 00b8 D31A     		subs	r3, r2, r3
 1369 00ba 9AB2     		uxth	r2, r3
 1370 00bc 254B     		ldr	r3, .L85+4
 1371 00be 1A80     		strh	r2, [r3]	@ movhi
 1372 00c0 02E0     		b	.L81
 1373              	.L80:
1132:Generated_Source\PSoC5/CapSense_CSD_CSHL.c ****         }
1133:Generated_Source\PSoC5/CapSense_CSD_CSHL.c ****         else
1134:Generated_Source\PSoC5/CapSense_CSD_CSHL.c ****         {
1135:Generated_Source\PSoC5/CapSense_CSD_CSHL.c ****             CapSense_CSD_centroid[CapSense_CSD_POS_PREV] = 0u;
 1374              		.loc 1 1135 0
 1375 00c2 244B     		ldr	r3, .L85+4
 1376 00c4 0022     		movs	r2, #0
 1377 00c6 1A80     		strh	r2, [r3]	@ movhi
 1378              	.L81:
1136:Generated_Source\PSoC5/CapSense_CSD_CSHL.c ****         }
1137:Generated_Source\PSoC5/CapSense_CSD_CSHL.c ****         
1138:Generated_Source\PSoC5/CapSense_CSD_CSHL.c ****         /* Maximum always grater than fingerThreshold, so grate than noiseThreshold */
1139:Generated_Source\PSoC5/CapSense_CSD_CSHL.c ****         CapSense_CSD_centroid[CapSense_CSD_POS] -= noiseThreshold;
 1379              		.loc 1 1139 0
 1380 00c8 224B     		ldr	r3, .L85+4
 1381 00ca 5A88     		ldrh	r2, [r3, #2]
 1382 00cc 3B8D     		ldrh	r3, [r7, #40]	@ movhi
 1383 00ce D31A     		subs	r3, r2, r3
 1384 00d0 9AB2     		uxth	r2, r3
 1385 00d2 204B     		ldr	r3, .L85+4
 1386 00d4 5A80     		strh	r2, [r3, #2]	@ movhi
1140:Generated_Source\PSoC5/CapSense_CSD_CSHL.c ****         
1141:Generated_Source\PSoC5/CapSense_CSD_CSHL.c ****         /* Subtract noiseThreshold */
1142:Generated_Source\PSoC5/CapSense_CSD_CSHL.c ****         if(CapSense_CSD_centroid[CapSense_CSD_POS_NEXT] > noiseThreshold)
 1387              		.loc 1 1142 0
 1388 00d6 1F4B     		ldr	r3, .L85+4
 1389 00d8 9B88     		ldrh	r3, [r3, #4]
 1390 00da 3A8D     		ldrh	r2, [r7, #40]
 1391 00dc 9A42     		cmp	r2, r3
 1392 00de 07D2     		bcs	.L82
1143:Generated_Source\PSoC5/CapSense_CSD_CSHL.c ****         {
1144:Generated_Source\PSoC5/CapSense_CSD_CSHL.c ****             CapSense_CSD_centroid[CapSense_CSD_POS_NEXT] -= noiseThreshold;
 1393              		.loc 1 1144 0
 1394 00e0 1C4B     		ldr	r3, .L85+4
 1395 00e2 9A88     		ldrh	r2, [r3, #4]
 1396 00e4 3B8D     		ldrh	r3, [r7, #40]	@ movhi
 1397 00e6 D31A     		subs	r3, r2, r3
 1398 00e8 9AB2     		uxth	r2, r3
 1399 00ea 1A4B     		ldr	r3, .L85+4
 1400 00ec 9A80     		strh	r2, [r3, #4]	@ movhi
 1401 00ee 02E0     		b	.L83
 1402              	.L82:
1145:Generated_Source\PSoC5/CapSense_CSD_CSHL.c ****         }
1146:Generated_Source\PSoC5/CapSense_CSD_CSHL.c ****         else
1147:Generated_Source\PSoC5/CapSense_CSD_CSHL.c ****         {
1148:Generated_Source\PSoC5/CapSense_CSD_CSHL.c ****             CapSense_CSD_centroid[CapSense_CSD_POS_NEXT] = 0u;
 1403              		.loc 1 1148 0
 1404 00f0 184B     		ldr	r3, .L85+4
 1405 00f2 0022     		movs	r2, #0
ARM GAS  C:\Users\HENRIC~1\AppData\Local\Temp\ccL0852m.s 			page 46


 1406 00f4 9A80     		strh	r2, [r3, #4]	@ movhi
 1407              	.L83:
1149:Generated_Source\PSoC5/CapSense_CSD_CSHL.c ****         }
1150:Generated_Source\PSoC5/CapSense_CSD_CSHL.c ****         
1151:Generated_Source\PSoC5/CapSense_CSD_CSHL.c ****         
1152:Generated_Source\PSoC5/CapSense_CSD_CSHL.c ****         /* Si+1 - Si-1 */
1153:Generated_Source\PSoC5/CapSense_CSD_CSHL.c ****         numerator = (uint32) CapSense_CSD_centroid[CapSense_CSD_POS_NEXT] -
 1408              		.loc 1 1153 0
 1409 00f6 174B     		ldr	r3, .L85+4
 1410 00f8 9B88     		ldrh	r3, [r3, #4]
 1411 00fa 1A46     		mov	r2, r3
1154:Generated_Source\PSoC5/CapSense_CSD_CSHL.c ****                     (uint32) CapSense_CSD_centroid[CapSense_CSD_POS_PREV];
 1412              		.loc 1 1154 0
 1413 00fc 154B     		ldr	r3, .L85+4
 1414 00fe 1B88     		ldrh	r3, [r3]
1153:Generated_Source\PSoC5/CapSense_CSD_CSHL.c ****                     (uint32) CapSense_CSD_centroid[CapSense_CSD_POS_PREV];
 1415              		.loc 1 1153 0
 1416 0100 D31A     		subs	r3, r2, r3
 1417 0102 7B61     		str	r3, [r7, #20]
1155:Generated_Source\PSoC5/CapSense_CSD_CSHL.c **** 
1156:Generated_Source\PSoC5/CapSense_CSD_CSHL.c ****         /* Si+1 + Si + Si-1 */
1157:Generated_Source\PSoC5/CapSense_CSD_CSHL.c ****         denominator = (int32) CapSense_CSD_centroid[CapSense_CSD_POS_PREV] + 
 1418              		.loc 1 1157 0
 1419 0104 134B     		ldr	r3, .L85+4
 1420 0106 1B88     		ldrh	r3, [r3]
 1421 0108 1A46     		mov	r2, r3
1158:Generated_Source\PSoC5/CapSense_CSD_CSHL.c ****                       (int32) CapSense_CSD_centroid[CapSense_CSD_POS] + 
 1422              		.loc 1 1158 0
 1423 010a 124B     		ldr	r3, .L85+4
 1424 010c 5B88     		ldrh	r3, [r3, #2]
1157:Generated_Source\PSoC5/CapSense_CSD_CSHL.c ****                       (int32) CapSense_CSD_centroid[CapSense_CSD_POS] + 
 1425              		.loc 1 1157 0
 1426 010e 1344     		add	r3, r3, r2
1159:Generated_Source\PSoC5/CapSense_CSD_CSHL.c ****                       (int32) CapSense_CSD_centroid[CapSense_CSD_POS_NEXT];
 1427              		.loc 1 1159 0
 1428 0110 104A     		ldr	r2, .L85+4
 1429 0112 9288     		ldrh	r2, [r2, #4]
1157:Generated_Source\PSoC5/CapSense_CSD_CSHL.c ****                       (int32) CapSense_CSD_centroid[CapSense_CSD_POS] + 
 1430              		.loc 1 1157 0
 1431 0114 1344     		add	r3, r3, r2
 1432 0116 3B61     		str	r3, [r7, #16]
1160:Generated_Source\PSoC5/CapSense_CSD_CSHL.c ****         
1161:Generated_Source\PSoC5/CapSense_CSD_CSHL.c ****         /* (numerator/denominator) + maximum */
1162:Generated_Source\PSoC5/CapSense_CSD_CSHL.c ****         denominator = (((int32)(uint32)((uint32)numerator << 8u)/denominator) + (int32)(uint32)((ui
 1433              		.loc 1 1162 0
 1434 0118 7B69     		ldr	r3, [r7, #20]
 1435 011a 1B02     		lsls	r3, r3, #8
 1436 011c 1A46     		mov	r2, r3
 1437 011e 3B69     		ldr	r3, [r7, #16]
 1438 0120 92FBF3F3 		sdiv	r3, r2, r3
 1439 0124 FA79     		ldrb	r2, [r7, #7]	@ zero_extendqisi2
 1440 0126 1202     		lsls	r2, r2, #8
 1441 0128 1344     		add	r3, r3, r2
 1442 012a 3B61     		str	r3, [r7, #16]
1163:Generated_Source\PSoC5/CapSense_CSD_CSHL.c **** 
1164:Generated_Source\PSoC5/CapSense_CSD_CSHL.c ****         #if(CapSense_CSD_TOTAL_RADIAL_SLIDERS_COUNT > 0u)
1165:Generated_Source\PSoC5/CapSense_CSD_CSHL.c ****             /* Only required for RADIAL Slider */
ARM GAS  C:\Users\HENRIC~1\AppData\Local\Temp\ccL0852m.s 			page 47


1166:Generated_Source\PSoC5/CapSense_CSD_CSHL.c ****             if(denominator < 0)
1167:Generated_Source\PSoC5/CapSense_CSD_CSHL.c ****             {
1168:Generated_Source\PSoC5/CapSense_CSD_CSHL.c ****                 denominator += (int32)((uint16)((uint16) count << 8u));
1169:Generated_Source\PSoC5/CapSense_CSD_CSHL.c ****             }
1170:Generated_Source\PSoC5/CapSense_CSD_CSHL.c ****         #endif /* (CapSense_CSD_TOTAL_RADIAL_SLIDERS_COUNT > 0u) */
1171:Generated_Source\PSoC5/CapSense_CSD_CSHL.c **** 
1172:Generated_Source\PSoC5/CapSense_CSD_CSHL.c ****         denominator *= (int16)resolution;
 1443              		.loc 1 1172 0
 1444 012c B7F90230 		ldrsh	r3, [r7, #2]
 1445 0130 1A46     		mov	r2, r3
 1446 0132 3B69     		ldr	r3, [r7, #16]
 1447 0134 02FB03F3 		mul	r3, r2, r3
 1448 0138 3B61     		str	r3, [r7, #16]
1173:Generated_Source\PSoC5/CapSense_CSD_CSHL.c **** 
1174:Generated_Source\PSoC5/CapSense_CSD_CSHL.c ****         /* Round the relust and put it to uint8 */
1175:Generated_Source\PSoC5/CapSense_CSD_CSHL.c ****         position = ((uint8) HI16((uint32)denominator + CapSense_CSD_CENTROID_ROUND_VALUE));
 1449              		.loc 1 1175 0
 1450 013a 3B69     		ldr	r3, [r7, #16]
 1451 013c 03F5FE43 		add	r3, r3, #32512
 1452 0140 1B0C     		lsrs	r3, r3, #16
 1453 0142 FB73     		strb	r3, [r7, #15]
1176:Generated_Source\PSoC5/CapSense_CSD_CSHL.c **** 
1177:Generated_Source\PSoC5/CapSense_CSD_CSHL.c ****         return (position);
 1454              		.loc 1 1177 0
 1455 0144 FB7B     		ldrb	r3, [r7, #15]	@ zero_extendqisi2
1178:Generated_Source\PSoC5/CapSense_CSD_CSHL.c ****     }    
 1456              		.loc 1 1178 0
 1457 0146 1846     		mov	r0, r3
 1458 0148 2037     		adds	r7, r7, #32
 1459              		.cfi_def_cfa_offset 8
 1460 014a BD46     		mov	sp, r7
 1461              		.cfi_def_cfa_register 13
 1462              		@ sp needed
 1463 014c 90BC     		pop	{r4, r7}
 1464              		.cfi_restore 7
 1465              		.cfi_restore 4
 1466              		.cfi_def_cfa_offset 0
 1467 014e 7047     		bx	lr
 1468              	.L86:
 1469              		.align	2
 1470              	.L85:
 1471 0150 00000000 		.word	CapSense_CSD_sensorSignal
 1472 0154 04000000 		.word	CapSense_CSD_centroid.5249
 1473              		.cfi_endproc
 1474              	.LFE12:
 1475              		.size	CapSense_CSD_CalcCentroid, .-CapSense_CSD_CalcCentroid
 1476              		.section	.text.CapSense_CSD_GetCentroidPos,"ax",%progbits
 1477              		.align	2
 1478              		.global	CapSense_CSD_GetCentroidPos
 1479              		.thumb
 1480              		.thumb_func
 1481              		.type	CapSense_CSD_GetCentroidPos, %function
 1482              	CapSense_CSD_GetCentroidPos:
 1483              	.LFB13:
1179:Generated_Source\PSoC5/CapSense_CSD_CSHL.c **** #endif /* (CapSense_CSD_TOTAL_CENTROIDS_COUNT) */
1180:Generated_Source\PSoC5/CapSense_CSD_CSHL.c **** 
1181:Generated_Source\PSoC5/CapSense_CSD_CSHL.c **** 
ARM GAS  C:\Users\HENRIC~1\AppData\Local\Temp\ccL0852m.s 			page 48


1182:Generated_Source\PSoC5/CapSense_CSD_CSHL.c **** #if(CapSense_CSD_TOTAL_LINEAR_SLIDERS_COUNT > 0u)
1183:Generated_Source\PSoC5/CapSense_CSD_CSHL.c ****     /*******************************************************************************
1184:Generated_Source\PSoC5/CapSense_CSD_CSHL.c ****     * Function Name: CapSense_CSD_GetCentroidPos
1185:Generated_Source\PSoC5/CapSense_CSD_CSHL.c ****     ********************************************************************************
1186:Generated_Source\PSoC5/CapSense_CSD_CSHL.c ****     *
1187:Generated_Source\PSoC5/CapSense_CSD_CSHL.c ****     * Summary:
1188:Generated_Source\PSoC5/CapSense_CSD_CSHL.c ****     *  Checks the CapSense_CSD_Signal[ ] array for a centroid within
1189:Generated_Source\PSoC5/CapSense_CSD_CSHL.c ****     *  slider specified range. The centroid position is calculated to the resolution
1190:Generated_Source\PSoC5/CapSense_CSD_CSHL.c ****     *  specified in the CapSense customizer. The position filters are applied to the
1191:Generated_Source\PSoC5/CapSense_CSD_CSHL.c ****     *  result if enabled.
1192:Generated_Source\PSoC5/CapSense_CSD_CSHL.c ****     *
1193:Generated_Source\PSoC5/CapSense_CSD_CSHL.c ****     * Parameters:
1194:Generated_Source\PSoC5/CapSense_CSD_CSHL.c ****     *  widget:  Widget number.
1195:Generated_Source\PSoC5/CapSense_CSD_CSHL.c ****     *  For every linear slider widget there are defines in this format:
1196:Generated_Source\PSoC5/CapSense_CSD_CSHL.c ****     *  #define CapSense_CSD_LS__"widget_name"            5
1197:Generated_Source\PSoC5/CapSense_CSD_CSHL.c ****     * 
1198:Generated_Source\PSoC5/CapSense_CSD_CSHL.c ****     * Return:
1199:Generated_Source\PSoC5/CapSense_CSD_CSHL.c ****     *  Returns position value of the linear slider.
1200:Generated_Source\PSoC5/CapSense_CSD_CSHL.c ****     *
1201:Generated_Source\PSoC5/CapSense_CSD_CSHL.c ****     * Side Effects:
1202:Generated_Source\PSoC5/CapSense_CSD_CSHL.c ****     *  If any sensor within the slider widget is active, the function returns values
1203:Generated_Source\PSoC5/CapSense_CSD_CSHL.c ****     *  from zero to the API resolution value set in the CapSense customizer. If no
1204:Generated_Source\PSoC5/CapSense_CSD_CSHL.c ****     *  sensors are active, the function returns 0xFFFF. If an error occurs during
1205:Generated_Source\PSoC5/CapSense_CSD_CSHL.c ****     *  execution of the centroid/diplexing algorithm, the function returns 0xFFFF.
1206:Generated_Source\PSoC5/CapSense_CSD_CSHL.c ****     *  There are no checks of widget type argument provided to this function.
1207:Generated_Source\PSoC5/CapSense_CSD_CSHL.c ****     *  The unproper widget type provided will cause unexpected position calculations.
1208:Generated_Source\PSoC5/CapSense_CSD_CSHL.c ****     *
1209:Generated_Source\PSoC5/CapSense_CSD_CSHL.c ****     * Note:
1210:Generated_Source\PSoC5/CapSense_CSD_CSHL.c ****     *  If noise counts on the slider segments are greater than the noise
1211:Generated_Source\PSoC5/CapSense_CSD_CSHL.c ****     *  threshold, this subroutine may generate a false centroid result. The noise
1212:Generated_Source\PSoC5/CapSense_CSD_CSHL.c ****     *  threshold should be set carefully (high enough above the noise level) so
1213:Generated_Source\PSoC5/CapSense_CSD_CSHL.c ****     *  that noise will not generate a false centroid.
1214:Generated_Source\PSoC5/CapSense_CSD_CSHL.c ****     *
1215:Generated_Source\PSoC5/CapSense_CSD_CSHL.c ****     * Reentrant:
1216:Generated_Source\PSoC5/CapSense_CSD_CSHL.c ****     *  No.
1217:Generated_Source\PSoC5/CapSense_CSD_CSHL.c ****     *
1218:Generated_Source\PSoC5/CapSense_CSD_CSHL.c ****     *******************************************************************************/
1219:Generated_Source\PSoC5/CapSense_CSD_CSHL.c ****     uint16 CapSense_CSD_GetCentroidPos(uint8 widget) 
1220:Generated_Source\PSoC5/CapSense_CSD_CSHL.c ****     {
 1484              		.loc 1 1220 0
 1485              		.cfi_startproc
 1486              		@ args = 0, pretend = 0, frame = 16
 1487              		@ frame_needed = 1, uses_anonymous_args = 0
 1488 0000 90B5     		push	{r4, r7, lr}
 1489              		.cfi_def_cfa_offset 12
 1490              		.cfi_offset 4, -12
 1491              		.cfi_offset 7, -8
 1492              		.cfi_offset 14, -4
 1493 0002 87B0     		sub	sp, sp, #28
 1494              		.cfi_def_cfa_offset 40
 1495 0004 02AF     		add	r7, sp, #8
 1496              		.cfi_def_cfa 7, 32
 1497 0006 0346     		mov	r3, r0
 1498 0008 FB71     		strb	r3, [r7, #7]
1221:Generated_Source\PSoC5/CapSense_CSD_CSHL.c ****         #if (CapSense_CSD_IS_DIPLEX_SLIDER)
1222:Generated_Source\PSoC5/CapSense_CSD_CSHL.c ****             const uint8 CYCODE *diplex;
1223:Generated_Source\PSoC5/CapSense_CSD_CSHL.c ****         #endif /* (CapSense_CSD_IS_DIPLEX_SLIDER) */
ARM GAS  C:\Users\HENRIC~1\AppData\Local\Temp\ccL0852m.s 			page 49


1224:Generated_Source\PSoC5/CapSense_CSD_CSHL.c ****                 
1225:Generated_Source\PSoC5/CapSense_CSD_CSHL.c ****         #if (0u != CapSense_CSD_LINEAR_SLIDERS_POS_FILTERS_MASK)
1226:Generated_Source\PSoC5/CapSense_CSD_CSHL.c ****             uint8 posIndex;
1227:Generated_Source\PSoC5/CapSense_CSD_CSHL.c ****             uint8 firstTimeIndex = CapSense_CSD_posFiltersData[widget];
1228:Generated_Source\PSoC5/CapSense_CSD_CSHL.c ****             uint8 posFiltersMask = CapSense_CSD_posFiltersMask[widget];  
1229:Generated_Source\PSoC5/CapSense_CSD_CSHL.c ****         #endif /* (0u != CapSense_CSD_LINEAR_SLIDERS_POS_FILTERS_MASK) */
1230:Generated_Source\PSoC5/CapSense_CSD_CSHL.c **** 
1231:Generated_Source\PSoC5/CapSense_CSD_CSHL.c ****         #if ((0u != (CapSense_CSD_MEDIAN_FILTER & CapSense_CSD_LINEAR_SLIDERS_POS_FILTERS_MASK)) ||
1232:Generated_Source\PSoC5/CapSense_CSD_CSHL.c ****              (0u != (CapSense_CSD_AVERAGING_FILTER & CapSense_CSD_LINEAR_SLIDERS_POS_FILTERS_MASK))
1233:Generated_Source\PSoC5/CapSense_CSD_CSHL.c ****             uint8 tempPos;
1234:Generated_Source\PSoC5/CapSense_CSD_CSHL.c ****         #endif /* ((0u != (CapSense_CSD_MEDIAN_FILTER & CapSense_CSD_LINEAR_SLIDERS_POS_FILTERS_MAS
1235:Generated_Source\PSoC5/CapSense_CSD_CSHL.c ****                *   (0u != (CapSense_CSD_AVERAGING_FILTER & CapSense_CSD_LINEAR_SLIDERS_POS_FILTERS_
1236:Generated_Source\PSoC5/CapSense_CSD_CSHL.c ****                */
1237:Generated_Source\PSoC5/CapSense_CSD_CSHL.c **** 
1238:Generated_Source\PSoC5/CapSense_CSD_CSHL.c ****         uint8 maximum;
1239:Generated_Source\PSoC5/CapSense_CSD_CSHL.c ****         uint16 position;
1240:Generated_Source\PSoC5/CapSense_CSD_CSHL.c ****         uint8 offset = CapSense_CSD_rawDataIndex[widget];
 1499              		.loc 1 1240 0
 1500 000a FB79     		ldrb	r3, [r7, #7]	@ zero_extendqisi2
 1501 000c 164A     		ldr	r2, .L91
 1502 000e D35C     		ldrb	r3, [r2, r3]
 1503 0010 7B73     		strb	r3, [r7, #13]
1241:Generated_Source\PSoC5/CapSense_CSD_CSHL.c ****         uint8 count = CapSense_CSD_numberOfSensors[widget];
 1504              		.loc 1 1241 0
 1505 0012 FB79     		ldrb	r3, [r7, #7]	@ zero_extendqisi2
 1506 0014 154A     		ldr	r2, .L91+4
 1507 0016 D35C     		ldrb	r3, [r2, r3]
 1508 0018 3B73     		strb	r3, [r7, #12]
1242:Generated_Source\PSoC5/CapSense_CSD_CSHL.c ****                         
1243:Generated_Source\PSoC5/CapSense_CSD_CSHL.c ****         #if (CapSense_CSD_IS_DIPLEX_SLIDER)
1244:Generated_Source\PSoC5/CapSense_CSD_CSHL.c ****             if(widget < CapSense_CSD_TOTAL_DIPLEXED_SLIDERS_COUNT)
1245:Generated_Source\PSoC5/CapSense_CSD_CSHL.c ****             {
1246:Generated_Source\PSoC5/CapSense_CSD_CSHL.c ****                 maximum = CapSense_CSD_diplexTable[widget];
1247:Generated_Source\PSoC5/CapSense_CSD_CSHL.c ****                 diplex = &CapSense_CSD_diplexTable[maximum];
1248:Generated_Source\PSoC5/CapSense_CSD_CSHL.c ****             }
1249:Generated_Source\PSoC5/CapSense_CSD_CSHL.c ****             else
1250:Generated_Source\PSoC5/CapSense_CSD_CSHL.c ****             {
1251:Generated_Source\PSoC5/CapSense_CSD_CSHL.c ****                 diplex = 0u;
1252:Generated_Source\PSoC5/CapSense_CSD_CSHL.c ****             }
1253:Generated_Source\PSoC5/CapSense_CSD_CSHL.c ****         #endif /* (CapSense_CSD_IS_DIPLEX_SLIDER) */
1254:Generated_Source\PSoC5/CapSense_CSD_CSHL.c **** 
1255:Generated_Source\PSoC5/CapSense_CSD_CSHL.c ****         /* Find Maximum within centroid */      
1256:Generated_Source\PSoC5/CapSense_CSD_CSHL.c ****         #if (CapSense_CSD_IS_DIPLEX_SLIDER)        
1257:Generated_Source\PSoC5/CapSense_CSD_CSHL.c ****             maximum = CapSense_CSD_FindMaximum(offset, count, CapSense_CSD_fingerThreshold[widget],
1258:Generated_Source\PSoC5/CapSense_CSD_CSHL.c ****         #else
1259:Generated_Source\PSoC5/CapSense_CSD_CSHL.c ****             maximum = CapSense_CSD_FindMaximum(offset, count, CapSense_CSD_fingerThreshold[widget])
 1509              		.loc 1 1259 0
 1510 001a FB79     		ldrb	r3, [r7, #7]	@ zero_extendqisi2
 1511 001c 144A     		ldr	r2, .L91+8
 1512 001e 32F81320 		ldrh	r2, [r2, r3, lsl #1]
 1513 0022 397B     		ldrb	r1, [r7, #12]	@ zero_extendqisi2
 1514 0024 7B7B     		ldrb	r3, [r7, #13]	@ zero_extendqisi2
 1515 0026 1846     		mov	r0, r3
 1516 0028 FFF7FEFF 		bl	CapSense_CSD_FindMaximum
 1517 002c 0346     		mov	r3, r0
 1518 002e FB72     		strb	r3, [r7, #11]
1260:Generated_Source\PSoC5/CapSense_CSD_CSHL.c ****         #endif /* (CapSense_CSD_IS_DIPLEX_SLIDER) */
ARM GAS  C:\Users\HENRIC~1\AppData\Local\Temp\ccL0852m.s 			page 50


1261:Generated_Source\PSoC5/CapSense_CSD_CSHL.c **** 
1262:Generated_Source\PSoC5/CapSense_CSD_CSHL.c ****         if (maximum != 0xFFu)
 1519              		.loc 1 1262 0
 1520 0030 FB7A     		ldrb	r3, [r7, #11]	@ zero_extendqisi2
 1521 0032 FF2B     		cmp	r3, #255
 1522 0034 0FD0     		beq	.L88
1263:Generated_Source\PSoC5/CapSense_CSD_CSHL.c ****         {
1264:Generated_Source\PSoC5/CapSense_CSD_CSHL.c ****             /* Calculate centroid */
1265:Generated_Source\PSoC5/CapSense_CSD_CSHL.c ****             position = (uint16) CapSense_CSD_CalcCentroid(maximum, 
 1523              		.loc 1 1265 0
 1524 0036 4FF4C854 		mov	r4, #6400
 1525 003a FB79     		ldrb	r3, [r7, #7]	@ zero_extendqisi2
 1526 003c 0D4A     		ldr	r2, .L91+12
 1527 003e 32F81330 		ldrh	r3, [r2, r3, lsl #1]
 1528 0042 3A7B     		ldrb	r2, [r7, #12]	@ zero_extendqisi2
 1529 0044 797B     		ldrb	r1, [r7, #13]	@ zero_extendqisi2
 1530 0046 F87A     		ldrb	r0, [r7, #11]	@ zero_extendqisi2
 1531 0048 0093     		str	r3, [sp]
 1532 004a 2346     		mov	r3, r4
 1533 004c FFF7FEFF 		bl	CapSense_CSD_CalcCentroid
 1534 0050 0346     		mov	r3, r0
 1535 0052 FB81     		strh	r3, [r7, #14]	@ movhi
 1536 0054 02E0     		b	.L89
 1537              	.L88:
1266:Generated_Source\PSoC5/CapSense_CSD_CSHL.c ****                          offset, count, CapSense_CSD_centroidMult[widget], CapSense_CSD_noiseThresh
1267:Generated_Source\PSoC5/CapSense_CSD_CSHL.c **** 
1268:Generated_Source\PSoC5/CapSense_CSD_CSHL.c ****             #if (0u != CapSense_CSD_LINEAR_SLIDERS_POS_FILTERS_MASK)
1269:Generated_Source\PSoC5/CapSense_CSD_CSHL.c ****                 /* Check if this linear slider has enabled filters */
1270:Generated_Source\PSoC5/CapSense_CSD_CSHL.c ****                 if (0u != (posFiltersMask & CapSense_CSD_ANY_POS_FILTER))
1271:Generated_Source\PSoC5/CapSense_CSD_CSHL.c ****                 {
1272:Generated_Source\PSoC5/CapSense_CSD_CSHL.c ****                     /* Caluclate position to store filters data */
1273:Generated_Source\PSoC5/CapSense_CSD_CSHL.c ****                     posIndex  = firstTimeIndex + 1u;
1274:Generated_Source\PSoC5/CapSense_CSD_CSHL.c ****                     
1275:Generated_Source\PSoC5/CapSense_CSD_CSHL.c ****                     if (0u == CapSense_CSD_posFiltersData[firstTimeIndex])
1276:Generated_Source\PSoC5/CapSense_CSD_CSHL.c ****                     {
1277:Generated_Source\PSoC5/CapSense_CSD_CSHL.c ****                         /* Init filters */
1278:Generated_Source\PSoC5/CapSense_CSD_CSHL.c ****                         CapSense_CSD_posFiltersData[posIndex] = (uint8) position;
1279:Generated_Source\PSoC5/CapSense_CSD_CSHL.c ****                         #if ((0u != (CapSense_CSD_MEDIAN_FILTER & \
1280:Generated_Source\PSoC5/CapSense_CSD_CSHL.c ****                                      CapSense_CSD_LINEAR_SLIDERS_POS_FILTERS_MASK)) || \
1281:Generated_Source\PSoC5/CapSense_CSD_CSHL.c ****                              (0u != (CapSense_CSD_AVERAGING_FILTER & \
1282:Generated_Source\PSoC5/CapSense_CSD_CSHL.c ****                                      CapSense_CSD_LINEAR_SLIDERS_POS_FILTERS_MASK)))
1283:Generated_Source\PSoC5/CapSense_CSD_CSHL.c **** 
1284:Generated_Source\PSoC5/CapSense_CSD_CSHL.c ****                             if ( (0u != (posFiltersMask & CapSense_CSD_MEDIAN_FILTER)) || 
1285:Generated_Source\PSoC5/CapSense_CSD_CSHL.c ****                                  (0u != (posFiltersMask & CapSense_CSD_AVERAGING_FILTER)) )
1286:Generated_Source\PSoC5/CapSense_CSD_CSHL.c ****                             {
1287:Generated_Source\PSoC5/CapSense_CSD_CSHL.c ****                                 CapSense_CSD_posFiltersData[posIndex + 1u] = (uint8) position;
1288:Generated_Source\PSoC5/CapSense_CSD_CSHL.c ****                             }
1289:Generated_Source\PSoC5/CapSense_CSD_CSHL.c ****                         #endif /* ((0u != (CapSense_CSD_MEDIAN_FILTER & \
1290:Generated_Source\PSoC5/CapSense_CSD_CSHL.c ****                                *           CapSense_CSD_LINEAR_SLIDERS_POS_FILTERS_MASK)) || \
1291:Generated_Source\PSoC5/CapSense_CSD_CSHL.c ****                                *   (0u != (CapSense_CSD_AVERAGING_FILTER & \
1292:Generated_Source\PSoC5/CapSense_CSD_CSHL.c ****                                *           CapSense_CSD_LINEAR_SLIDERS_POS_FILTERS_MASK)))
1293:Generated_Source\PSoC5/CapSense_CSD_CSHL.c ****                                */
1294:Generated_Source\PSoC5/CapSense_CSD_CSHL.c ****                         
1295:Generated_Source\PSoC5/CapSense_CSD_CSHL.c ****                         CapSense_CSD_posFiltersData[firstTimeIndex] = 1u;
1296:Generated_Source\PSoC5/CapSense_CSD_CSHL.c ****                     }
1297:Generated_Source\PSoC5/CapSense_CSD_CSHL.c ****                     else
1298:Generated_Source\PSoC5/CapSense_CSD_CSHL.c ****                     {
ARM GAS  C:\Users\HENRIC~1\AppData\Local\Temp\ccL0852m.s 			page 51


1299:Generated_Source\PSoC5/CapSense_CSD_CSHL.c ****                         /* Do filtering */
1300:Generated_Source\PSoC5/CapSense_CSD_CSHL.c ****                         #if (0u != (CapSense_CSD_MEDIAN_FILTER & CapSense_CSD_LINEAR_SLIDERS_POS_FI
1301:Generated_Source\PSoC5/CapSense_CSD_CSHL.c ****                             if (0u != (posFiltersMask & CapSense_CSD_MEDIAN_FILTER))
1302:Generated_Source\PSoC5/CapSense_CSD_CSHL.c ****                             {
1303:Generated_Source\PSoC5/CapSense_CSD_CSHL.c ****                                 tempPos = (uint8) position;
1304:Generated_Source\PSoC5/CapSense_CSD_CSHL.c ****                                 position = CapSense_CSD_MedianFilter(position,
1305:Generated_Source\PSoC5/CapSense_CSD_CSHL.c ****                                                                 (uint16)CapSense_CSD_posFiltersData
1306:Generated_Source\PSoC5/CapSense_CSD_CSHL.c ****                                                                 (uint16)CapSense_CSD_posFiltersData
1307:Generated_Source\PSoC5/CapSense_CSD_CSHL.c ****                                 CapSense_CSD_posFiltersData[posIndex + 1u] =
1308:Generated_Source\PSoC5/CapSense_CSD_CSHL.c ****                                                                              CapSense_CSD_posFilter
1309:Generated_Source\PSoC5/CapSense_CSD_CSHL.c ****                                 CapSense_CSD_posFiltersData[posIndex] = tempPos;
1310:Generated_Source\PSoC5/CapSense_CSD_CSHL.c ****                             }
1311:Generated_Source\PSoC5/CapSense_CSD_CSHL.c ****                         #endif /*(0u != (CapSense_CSD_MEDIAN_FILTER &
1312:Generated_Source\PSoC5/CapSense_CSD_CSHL.c ****                                *         CapSense_CSD_LINEAR_SLIDERS_POS_FILTERS_MASK))
1313:Generated_Source\PSoC5/CapSense_CSD_CSHL.c ****                                */
1314:Generated_Source\PSoC5/CapSense_CSD_CSHL.c **** 
1315:Generated_Source\PSoC5/CapSense_CSD_CSHL.c ****                         #if(0u!=(CapSense_CSD_AVERAGING_FILTER & CapSense_CSD_LINEAR_SLIDERS_POS_FI
1316:Generated_Source\PSoC5/CapSense_CSD_CSHL.c ****                             if (0u != (posFiltersMask & CapSense_CSD_AVERAGING_FILTER)) 
1317:Generated_Source\PSoC5/CapSense_CSD_CSHL.c ****                             {
1318:Generated_Source\PSoC5/CapSense_CSD_CSHL.c ****                                 tempPos = (uint8) position;
1319:Generated_Source\PSoC5/CapSense_CSD_CSHL.c ****                                 position = CapSense_CSD_AveragingFilter(position,
1320:Generated_Source\PSoC5/CapSense_CSD_CSHL.c ****                                                                 (uint16)CapSense_CSD_posFiltersData
1321:Generated_Source\PSoC5/CapSense_CSD_CSHL.c ****                                                                 (uint16)CapSense_CSD_posFiltersData
1322:Generated_Source\PSoC5/CapSense_CSD_CSHL.c ****                                 CapSense_CSD_posFiltersData[posIndex+1u]=CapSense_CSD_posFiltersDat
1323:Generated_Source\PSoC5/CapSense_CSD_CSHL.c ****                                 CapSense_CSD_posFiltersData[posIndex] = tempPos;
1324:Generated_Source\PSoC5/CapSense_CSD_CSHL.c ****                             }
1325:Generated_Source\PSoC5/CapSense_CSD_CSHL.c ****                         #endif /* (0u != (CapSense_CSD_AVERAGING_FILTER & \
1326:Generated_Source\PSoC5/CapSense_CSD_CSHL.c ****                                *           CapSense_CSD_LINEAR_SLIDERS_POS_FILTERS_MASK))
1327:Generated_Source\PSoC5/CapSense_CSD_CSHL.c ****                                */
1328:Generated_Source\PSoC5/CapSense_CSD_CSHL.c **** 
1329:Generated_Source\PSoC5/CapSense_CSD_CSHL.c ****                         #if (0u != (CapSense_CSD_IIR2_FILTER & CapSense_CSD_LINEAR_SLIDERS_POS_FILT
1330:Generated_Source\PSoC5/CapSense_CSD_CSHL.c ****                             if (0u != (posFiltersMask & CapSense_CSD_IIR2_FILTER)) 
1331:Generated_Source\PSoC5/CapSense_CSD_CSHL.c ****                             {
1332:Generated_Source\PSoC5/CapSense_CSD_CSHL.c ****                                 position = CapSense_CSD_IIR2Filter(position,
1333:Generated_Source\PSoC5/CapSense_CSD_CSHL.c ****                                                                     (uint16)CapSense_CSD_posFilters
1334:Generated_Source\PSoC5/CapSense_CSD_CSHL.c ****                                 CapSense_CSD_posFiltersData[posIndex] = (uint8) position;
1335:Generated_Source\PSoC5/CapSense_CSD_CSHL.c ****                             }
1336:Generated_Source\PSoC5/CapSense_CSD_CSHL.c ****                         #endif /* (0u != (CapSense_CSD_IIR2_FILTER & \
1337:Generated_Source\PSoC5/CapSense_CSD_CSHL.c ****                                *          CapSense_CSD_LINEAR_SLIDERS_POS_FILTERS_MASK))
1338:Generated_Source\PSoC5/CapSense_CSD_CSHL.c ****                                */
1339:Generated_Source\PSoC5/CapSense_CSD_CSHL.c **** 
1340:Generated_Source\PSoC5/CapSense_CSD_CSHL.c ****                         #if (0u != (CapSense_CSD_IIR4_FILTER & CapSense_CSD_LINEAR_SLIDERS_POS_FILT
1341:Generated_Source\PSoC5/CapSense_CSD_CSHL.c ****                             if (0u != (posFiltersMask & CapSense_CSD_IIR4_FILTER))
1342:Generated_Source\PSoC5/CapSense_CSD_CSHL.c ****                             {
1343:Generated_Source\PSoC5/CapSense_CSD_CSHL.c ****                                 position = CapSense_CSD_IIR4Filter(position,
1344:Generated_Source\PSoC5/CapSense_CSD_CSHL.c ****                                                                     (uint16)CapSense_CSD_posFilters
1345:Generated_Source\PSoC5/CapSense_CSD_CSHL.c ****                                 CapSense_CSD_posFiltersData[posIndex] = (uint8) position;
1346:Generated_Source\PSoC5/CapSense_CSD_CSHL.c ****                             }                                
1347:Generated_Source\PSoC5/CapSense_CSD_CSHL.c ****                         #endif /* (0u != (CapSense_CSD_IIR4_FILTER & \
1348:Generated_Source\PSoC5/CapSense_CSD_CSHL.c ****                                *          CapSense_CSD_LINEAR_SLIDERS_POS_FILTERS_MASK))
1349:Generated_Source\PSoC5/CapSense_CSD_CSHL.c ****                                */
1350:Generated_Source\PSoC5/CapSense_CSD_CSHL.c **** 
1351:Generated_Source\PSoC5/CapSense_CSD_CSHL.c ****                         #if (0u != (CapSense_CSD_JITTER_FILTER & CapSense_CSD_LINEAR_SLIDERS_POS_FI
1352:Generated_Source\PSoC5/CapSense_CSD_CSHL.c ****                             if (0u != (posFiltersMask & CapSense_CSD_JITTER_FILTER))
1353:Generated_Source\PSoC5/CapSense_CSD_CSHL.c ****                             {
1354:Generated_Source\PSoC5/CapSense_CSD_CSHL.c ****                                 position = CapSense_CSD_JitterFilter(position,
1355:Generated_Source\PSoC5/CapSense_CSD_CSHL.c ****                                                                     (uint16)CapSense_CSD_posFilters
ARM GAS  C:\Users\HENRIC~1\AppData\Local\Temp\ccL0852m.s 			page 52


1356:Generated_Source\PSoC5/CapSense_CSD_CSHL.c ****                                 CapSense_CSD_posFiltersData[posIndex] = (uint8) position;
1357:Generated_Source\PSoC5/CapSense_CSD_CSHL.c ****                             }
1358:Generated_Source\PSoC5/CapSense_CSD_CSHL.c ****                         #endif /* (0u != (CapSense_CSD_JITTER_FILTER & \
1359:Generated_Source\PSoC5/CapSense_CSD_CSHL.c ****                                *           CapSense_CSD_LINEAR_SLIDERS_POS_FILTERS_MASK))
1360:Generated_Source\PSoC5/CapSense_CSD_CSHL.c ****                                */
1361:Generated_Source\PSoC5/CapSense_CSD_CSHL.c ****                     }
1362:Generated_Source\PSoC5/CapSense_CSD_CSHL.c ****                 }
1363:Generated_Source\PSoC5/CapSense_CSD_CSHL.c ****             #endif /* (0u != CapSense_CSD_LINEAR_SLIDERS_POS_FILTERS_MASK) */
1364:Generated_Source\PSoC5/CapSense_CSD_CSHL.c **** 
1365:Generated_Source\PSoC5/CapSense_CSD_CSHL.c ****         }
1366:Generated_Source\PSoC5/CapSense_CSD_CSHL.c ****         else
1367:Generated_Source\PSoC5/CapSense_CSD_CSHL.c ****         {
1368:Generated_Source\PSoC5/CapSense_CSD_CSHL.c ****             /* The maximum wasn't found */
1369:Generated_Source\PSoC5/CapSense_CSD_CSHL.c ****             position = 0xFFFFu;
 1538              		.loc 1 1369 0
 1539 0056 4FF6FF73 		movw	r3, #65535
 1540 005a FB81     		strh	r3, [r7, #14]	@ movhi
 1541              	.L89:
1370:Generated_Source\PSoC5/CapSense_CSD_CSHL.c **** 
1371:Generated_Source\PSoC5/CapSense_CSD_CSHL.c ****             #if(0u != CapSense_CSD_LINEAR_SLIDERS_POS_FILTERS_MASK)
1372:Generated_Source\PSoC5/CapSense_CSD_CSHL.c ****                 /* Reset the filters */
1373:Generated_Source\PSoC5/CapSense_CSD_CSHL.c ****                 if(0u != (posFiltersMask & CapSense_CSD_ANY_POS_FILTER))
1374:Generated_Source\PSoC5/CapSense_CSD_CSHL.c ****                 {
1375:Generated_Source\PSoC5/CapSense_CSD_CSHL.c ****                     CapSense_CSD_posFiltersData[firstTimeIndex] = 0u;
1376:Generated_Source\PSoC5/CapSense_CSD_CSHL.c ****                 }
1377:Generated_Source\PSoC5/CapSense_CSD_CSHL.c ****             #endif /* (0u != CapSense_CSD_LINEAR_SLIDERS_POS_FILTERS_MASK) */
1378:Generated_Source\PSoC5/CapSense_CSD_CSHL.c ****         }
1379:Generated_Source\PSoC5/CapSense_CSD_CSHL.c **** 
1380:Generated_Source\PSoC5/CapSense_CSD_CSHL.c ****         
1381:Generated_Source\PSoC5/CapSense_CSD_CSHL.c ****         return (position);
 1542              		.loc 1 1381 0
 1543 005c FB89     		ldrh	r3, [r7, #14]
1382:Generated_Source\PSoC5/CapSense_CSD_CSHL.c ****     }
 1544              		.loc 1 1382 0
 1545 005e 1846     		mov	r0, r3
 1546 0060 1437     		adds	r7, r7, #20
 1547              		.cfi_def_cfa_offset 12
 1548 0062 BD46     		mov	sp, r7
 1549              		.cfi_def_cfa_register 13
 1550              		@ sp needed
 1551 0064 90BD     		pop	{r4, r7, pc}
 1552              	.L92:
 1553 0066 00BF     		.align	2
 1554              	.L91:
 1555 0068 00000000 		.word	CapSense_CSD_rawDataIndex
 1556 006c 00000000 		.word	CapSense_CSD_numberOfSensors
 1557 0070 00000000 		.word	CapSense_CSD_fingerThreshold
 1558 0074 00000000 		.word	CapSense_CSD_noiseThreshold
 1559              		.cfi_endproc
 1560              	.LFE13:
 1561              		.size	CapSense_CSD_GetCentroidPos, .-CapSense_CSD_GetCentroidPos
 1562              		.bss
 1563 0003 00       		.align	2
 1564              	CapSense_CSD_centroid.5249:
 1565 0004 00000000 		.space	6
 1565      0000
 1566              		.text
ARM GAS  C:\Users\HENRIC~1\AppData\Local\Temp\ccL0852m.s 			page 53


 1567              	.Letext0:
 1568              		.file 2 "Generated_Source\\PSoC5\\cytypes.h"
 1569              		.file 3 "Generated_Source\\PSoC5\\CapSense_CSD.h"
 1570              		.file 4 "Generated_Source\\PSoC5\\CapSense_CSD_CSHL.h"