ARM GAS  C:\Users\HENRIC~1\AppData\Local\Temp\ccnsupLZ.s 			page 1


   1              		.syntax unified
   2              		.cpu cortex-m3
   3              		.fpu softvfp
   4              		.eabi_attribute 20, 1
   5              		.eabi_attribute 21, 1
   6              		.eabi_attribute 23, 3
   7              		.eabi_attribute 24, 1
   8              		.eabi_attribute 25, 1
   9              		.eabi_attribute 26, 1
  10              		.eabi_attribute 30, 6
  11              		.eabi_attribute 34, 1
  12              		.eabi_attribute 18, 4
  13              		.thumb
  14              		.syntax unified
  15              		.file	"LCD_BarGraph.c"
  16              		.text
  17              	.Ltext0:
  18              		.cfi_sections	.debug_frame
  19              		.global	LCD_customFonts
  20              		.section	.rodata
  21              		.align	2
  22              		.type	LCD_customFonts, %object
  23              		.size	LCD_customFonts, 64
  24              	LCD_customFonts:
  25 0000 00       		.byte	0
  26 0001 00       		.byte	0
  27 0002 00       		.byte	0
  28 0003 00       		.byte	0
  29 0004 00       		.byte	0
  30 0005 00       		.byte	0
  31 0006 00       		.byte	0
  32 0007 00       		.byte	0
  33 0008 10       		.byte	16
  34 0009 10       		.byte	16
  35 000a 10       		.byte	16
  36 000b 10       		.byte	16
  37 000c 10       		.byte	16
  38 000d 10       		.byte	16
  39 000e 10       		.byte	16
  40 000f 10       		.byte	16
  41 0010 18       		.byte	24
  42 0011 18       		.byte	24
  43 0012 18       		.byte	24
  44 0013 18       		.byte	24
  45 0014 18       		.byte	24
  46 0015 18       		.byte	24
  47 0016 18       		.byte	24
  48 0017 18       		.byte	24
  49 0018 1C       		.byte	28
  50 0019 1C       		.byte	28
  51 001a 1C       		.byte	28
  52 001b 1C       		.byte	28
  53 001c 1C       		.byte	28
  54 001d 1C       		.byte	28
  55 001e 1C       		.byte	28
  56 001f 1C       		.byte	28
  57 0020 1E       		.byte	30
ARM GAS  C:\Users\HENRIC~1\AppData\Local\Temp\ccnsupLZ.s 			page 2


  58 0021 1E       		.byte	30
  59 0022 1E       		.byte	30
  60 0023 1E       		.byte	30
  61 0024 1E       		.byte	30
  62 0025 1E       		.byte	30
  63 0026 1E       		.byte	30
  64 0027 1E       		.byte	30
  65 0028 1F       		.byte	31
  66 0029 1F       		.byte	31
  67 002a 1F       		.byte	31
  68 002b 1F       		.byte	31
  69 002c 1F       		.byte	31
  70 002d 1F       		.byte	31
  71 002e 1F       		.byte	31
  72 002f 1F       		.byte	31
  73 0030 00       		.byte	0
  74 0031 00       		.byte	0
  75 0032 00       		.byte	0
  76 0033 00       		.byte	0
  77 0034 00       		.byte	0
  78 0035 00       		.byte	0
  79 0036 00       		.byte	0
  80 0037 00       		.byte	0
  81 0038 00       		.byte	0
  82 0039 00       		.byte	0
  83 003a 00       		.byte	0
  84 003b 00       		.byte	0
  85 003c 00       		.byte	0
  86 003d 00       		.byte	0
  87 003e 00       		.byte	0
  88 003f 00       		.byte	0
  89              		.section	.text.LCD_LoadCustomFonts,"ax",%progbits
  90              		.align	2
  91              		.global	LCD_LoadCustomFonts
  92              		.thumb
  93              		.thumb_func
  94              		.type	LCD_LoadCustomFonts, %function
  95              	LCD_LoadCustomFonts:
  96              	.LFB0:
  97              		.file 1 "Generated_Source\\PSoC5\\LCD_BarGraph.c"
   1:Generated_Source\PSoC5/LCD_BarGraph.c **** /*******************************************************************************
   2:Generated_Source\PSoC5/LCD_BarGraph.c **** * File Name: LCD_BarGraph.c
   3:Generated_Source\PSoC5/LCD_BarGraph.c **** * Version 2.20
   4:Generated_Source\PSoC5/LCD_BarGraph.c **** *
   5:Generated_Source\PSoC5/LCD_BarGraph.c **** * Description:
   6:Generated_Source\PSoC5/LCD_BarGraph.c **** *  This file provides the custom character data and API for creating and using
   7:Generated_Source\PSoC5/LCD_BarGraph.c **** *  bar graphs with the Character LCD component.
   8:Generated_Source\PSoC5/LCD_BarGraph.c **** *
   9:Generated_Source\PSoC5/LCD_BarGraph.c **** * Note:
  10:Generated_Source\PSoC5/LCD_BarGraph.c **** *
  11:Generated_Source\PSoC5/LCD_BarGraph.c **** ********************************************************************************
  12:Generated_Source\PSoC5/LCD_BarGraph.c **** * Copyright 2008-2014, Cypress Semiconductor Corporation.  All rights reserved.
  13:Generated_Source\PSoC5/LCD_BarGraph.c **** * You may use this file only in accordance with the license, terms, conditions,
  14:Generated_Source\PSoC5/LCD_BarGraph.c **** * disclaimers, and limitations in the end user license agreement accompanying
  15:Generated_Source\PSoC5/LCD_BarGraph.c **** * the software package with which this file was provided.
  16:Generated_Source\PSoC5/LCD_BarGraph.c **** *******************************************************************************/
  17:Generated_Source\PSoC5/LCD_BarGraph.c **** 
ARM GAS  C:\Users\HENRIC~1\AppData\Local\Temp\ccnsupLZ.s 			page 3


  18:Generated_Source\PSoC5/LCD_BarGraph.c **** #include "LCD.h"
  19:Generated_Source\PSoC5/LCD_BarGraph.c **** 
  20:Generated_Source\PSoC5/LCD_BarGraph.c **** 
  21:Generated_Source\PSoC5/LCD_BarGraph.c **** uint8 const CYCODE LCD_customFonts[] = \
  22:Generated_Source\PSoC5/LCD_BarGraph.c **** {
  23:Generated_Source\PSoC5/LCD_BarGraph.c ****     /* Character LCD_CUSTOM_0   */
  24:Generated_Source\PSoC5/LCD_BarGraph.c ****     0x00u,    0x00u,    0x00u,    0x00u,    0x00u,    0x00u,    0x00u,    0x00u, \
  25:Generated_Source\PSoC5/LCD_BarGraph.c ****     /* Character LCD_CUSTOM_1   */
  26:Generated_Source\PSoC5/LCD_BarGraph.c ****     0x10u,    0x10u,    0x10u,    0x10u,    0x10u,    0x10u,    0x10u,    0x10u, \
  27:Generated_Source\PSoC5/LCD_BarGraph.c ****     /* Character LCD_CUSTOM_2   */
  28:Generated_Source\PSoC5/LCD_BarGraph.c ****     0x18u,    0x18u,    0x18u,    0x18u,    0x18u,    0x18u,    0x18u,    0x18u, \
  29:Generated_Source\PSoC5/LCD_BarGraph.c ****     /* Character LCD_CUSTOM_3   */
  30:Generated_Source\PSoC5/LCD_BarGraph.c ****     0x1Cu,    0x1Cu,    0x1Cu,    0x1Cu,    0x1Cu,    0x1Cu,    0x1Cu,    0x1Cu, \
  31:Generated_Source\PSoC5/LCD_BarGraph.c ****     /* Character LCD_CUSTOM_4   */
  32:Generated_Source\PSoC5/LCD_BarGraph.c ****     0x1Eu,    0x1Eu,    0x1Eu,    0x1Eu,    0x1Eu,    0x1Eu,    0x1Eu,    0x1Eu, \
  33:Generated_Source\PSoC5/LCD_BarGraph.c ****     /* Character LCD_CUSTOM_5   */
  34:Generated_Source\PSoC5/LCD_BarGraph.c ****     0x1Fu,    0x1Fu,    0x1Fu,    0x1Fu,    0x1Fu,    0x1Fu,    0x1Fu,    0x1Fu, \
  35:Generated_Source\PSoC5/LCD_BarGraph.c ****     /* Character LCD_CUSTOM_6   */
  36:Generated_Source\PSoC5/LCD_BarGraph.c ****     0x00u,    0x00u,    0x00u,    0x00u,    0x00u,    0x00u,    0x00u,    0x00u, \
  37:Generated_Source\PSoC5/LCD_BarGraph.c ****     /* Character LCD_CUSTOM_7   */
  38:Generated_Source\PSoC5/LCD_BarGraph.c ****     0x00u,    0x00u,    0x00u,    0x00u,    0x00u,    0x00u,    0x00u,    0x00u \
  39:Generated_Source\PSoC5/LCD_BarGraph.c **** };
  40:Generated_Source\PSoC5/LCD_BarGraph.c **** 
  41:Generated_Source\PSoC5/LCD_BarGraph.c **** 
  42:Generated_Source\PSoC5/LCD_BarGraph.c **** /*******************************************************************************
  43:Generated_Source\PSoC5/LCD_BarGraph.c **** * Function Name: LCD_LoadCustomFonts
  44:Generated_Source\PSoC5/LCD_BarGraph.c **** ********************************************************************************
  45:Generated_Source\PSoC5/LCD_BarGraph.c **** *
  46:Generated_Source\PSoC5/LCD_BarGraph.c **** * Summary:
  47:Generated_Source\PSoC5/LCD_BarGraph.c **** *  Loads 8 custom font characters into the LCD Module for use.  Cannot use
  48:Generated_Source\PSoC5/LCD_BarGraph.c **** *  characters from two different font sets at once, but font sets can be
  49:Generated_Source\PSoC5/LCD_BarGraph.c **** *  switched out during runtime.
  50:Generated_Source\PSoC5/LCD_BarGraph.c **** *
  51:Generated_Source\PSoC5/LCD_BarGraph.c **** * Parameters:
  52:Generated_Source\PSoC5/LCD_BarGraph.c **** *  customData:  pointer to a constant array of 64 bytes representing 8 custom
  53:Generated_Source\PSoC5/LCD_BarGraph.c **** *               font characters.
  54:Generated_Source\PSoC5/LCD_BarGraph.c **** * Return:
  55:Generated_Source\PSoC5/LCD_BarGraph.c **** *  None.
  56:Generated_Source\PSoC5/LCD_BarGraph.c **** *
  57:Generated_Source\PSoC5/LCD_BarGraph.c **** * Theory:
  58:Generated_Source\PSoC5/LCD_BarGraph.c **** *  Prior to using this function user need to import the pointer to custom
  59:Generated_Source\PSoC5/LCD_BarGraph.c **** *  font array to your project by writting the following in the source code file
  60:Generated_Source\PSoC5/LCD_BarGraph.c **** *  where custom font will be used:
  61:Generated_Source\PSoC5/LCD_BarGraph.c **** *       extern uint8 const CYCODE LCD_Char_customFonts[];
  62:Generated_Source\PSoC5/LCD_BarGraph.c **** *  This function is not automatically called by the Start() routine and must be
  63:Generated_Source\PSoC5/LCD_BarGraph.c **** *  called manually by the user.
  64:Generated_Source\PSoC5/LCD_BarGraph.c **** *******************************************************************************/
  65:Generated_Source\PSoC5/LCD_BarGraph.c **** void LCD_LoadCustomFonts(uint8 const customData[]) 
  66:Generated_Source\PSoC5/LCD_BarGraph.c **** {
  98              		.loc 1 66 0
  99              		.cfi_startproc
 100              		@ args = 0, pretend = 0, frame = 16
 101              		@ frame_needed = 1, uses_anonymous_args = 0
 102 0000 80B5     		push	{r7, lr}
 103              		.cfi_def_cfa_offset 8
 104              		.cfi_offset 7, -8
 105              		.cfi_offset 14, -4
ARM GAS  C:\Users\HENRIC~1\AppData\Local\Temp\ccnsupLZ.s 			page 4


 106 0002 84B0     		sub	sp, sp, #16
 107              		.cfi_def_cfa_offset 24
 108 0004 00AF     		add	r7, sp, #0
 109              		.cfi_def_cfa_register 7
 110 0006 7860     		str	r0, [r7, #4]
  67:Generated_Source\PSoC5/LCD_BarGraph.c ****     uint8 indexU8;
  68:Generated_Source\PSoC5/LCD_BarGraph.c **** 
  69:Generated_Source\PSoC5/LCD_BarGraph.c ****     LCD_IsReady();
 111              		.loc 1 69 0
 112 0008 FFF7FEFF 		bl	LCD_IsReady
  70:Generated_Source\PSoC5/LCD_BarGraph.c ****     /* Set starting address in the LCD Module */
  71:Generated_Source\PSoC5/LCD_BarGraph.c ****     /* Optionally: Read the current address to restore at a later time */
  72:Generated_Source\PSoC5/LCD_BarGraph.c ****     LCD_WriteControl(LCD_CGRAM_0);
 113              		.loc 1 72 0
 114 000c 4020     		movs	r0, #64
 115 000e FFF7FEFF 		bl	LCD_WriteControl
  73:Generated_Source\PSoC5/LCD_BarGraph.c **** 
  74:Generated_Source\PSoC5/LCD_BarGraph.c ****     /* Load in the 64 bytes of CustomChar Data */
  75:Generated_Source\PSoC5/LCD_BarGraph.c ****     for(indexU8 = 0u; indexU8 < LCD_CUSTOM_CHAR_SET_LEN; indexU8++)
 116              		.loc 1 75 0
 117 0012 0023     		movs	r3, #0
 118 0014 FB73     		strb	r3, [r7, #15]
 119 0016 09E0     		b	.L2
 120              	.L3:
  76:Generated_Source\PSoC5/LCD_BarGraph.c ****     {
  77:Generated_Source\PSoC5/LCD_BarGraph.c ****         /* Delay between each write */
  78:Generated_Source\PSoC5/LCD_BarGraph.c ****         LCD_WriteData(customData[indexU8]);
 121              		.loc 1 78 0 discriminator 3
 122 0018 FB7B     		ldrb	r3, [r7, #15]	@ zero_extendqisi2
 123 001a 7A68     		ldr	r2, [r7, #4]
 124 001c 1344     		add	r3, r3, r2
 125 001e 1B78     		ldrb	r3, [r3]	@ zero_extendqisi2
 126 0020 1846     		mov	r0, r3
 127 0022 FFF7FEFF 		bl	LCD_WriteData
  75:Generated_Source\PSoC5/LCD_BarGraph.c ****     {
 128              		.loc 1 75 0 discriminator 3
 129 0026 FB7B     		ldrb	r3, [r7, #15]	@ zero_extendqisi2
 130 0028 0133     		adds	r3, r3, #1
 131 002a FB73     		strb	r3, [r7, #15]
 132              	.L2:
  75:Generated_Source\PSoC5/LCD_BarGraph.c ****     {
 133              		.loc 1 75 0 is_stmt 0 discriminator 1
 134 002c FB7B     		ldrb	r3, [r7, #15]	@ zero_extendqisi2
 135 002e 3F2B     		cmp	r3, #63
 136 0030 F2D9     		bls	.L3
  79:Generated_Source\PSoC5/LCD_BarGraph.c ****     }
  80:Generated_Source\PSoC5/LCD_BarGraph.c **** 
  81:Generated_Source\PSoC5/LCD_BarGraph.c ****     LCD_IsReady();
 137              		.loc 1 81 0 is_stmt 1
 138 0032 FFF7FEFF 		bl	LCD_IsReady
  82:Generated_Source\PSoC5/LCD_BarGraph.c ****     LCD_WriteControl(LCD_DDRAM_0);
 139              		.loc 1 82 0
 140 0036 8020     		movs	r0, #128
 141 0038 FFF7FEFF 		bl	LCD_WriteControl
  83:Generated_Source\PSoC5/LCD_BarGraph.c **** }
 142              		.loc 1 83 0
 143 003c 00BF     		nop
ARM GAS  C:\Users\HENRIC~1\AppData\Local\Temp\ccnsupLZ.s 			page 5


 144 003e 1037     		adds	r7, r7, #16
 145              		.cfi_def_cfa_offset 8
 146 0040 BD46     		mov	sp, r7
 147              		.cfi_def_cfa_register 13
 148              		@ sp needed
 149 0042 80BD     		pop	{r7, pc}
 150              		.cfi_endproc
 151              	.LFE0:
 152              		.size	LCD_LoadCustomFonts, .-LCD_LoadCustomFonts
 153              		.section	.text.LCD_DrawHorizontalBG,"ax",%progbits
 154              		.align	2
 155              		.global	LCD_DrawHorizontalBG
 156              		.thumb
 157              		.thumb_func
 158              		.type	LCD_DrawHorizontalBG, %function
 159              	LCD_DrawHorizontalBG:
 160              	.LFB1:
  84:Generated_Source\PSoC5/LCD_BarGraph.c **** 
  85:Generated_Source\PSoC5/LCD_BarGraph.c **** 
  86:Generated_Source\PSoC5/LCD_BarGraph.c **** #if (LCD_CUSTOM_CHAR_SET == LCD_HORIZONTAL_BG)
  87:Generated_Source\PSoC5/LCD_BarGraph.c **** 
  88:Generated_Source\PSoC5/LCD_BarGraph.c ****     /*******************************************************************************
  89:Generated_Source\PSoC5/LCD_BarGraph.c ****     * Function Name: LCD_DrawHorizontalBG
  90:Generated_Source\PSoC5/LCD_BarGraph.c ****     ********************************************************************************
  91:Generated_Source\PSoC5/LCD_BarGraph.c ****     *
  92:Generated_Source\PSoC5/LCD_BarGraph.c ****     * Summary:
  93:Generated_Source\PSoC5/LCD_BarGraph.c ****     *  Draws the horizontal bargraph.
  94:Generated_Source\PSoC5/LCD_BarGraph.c ****     *
  95:Generated_Source\PSoC5/LCD_BarGraph.c ****     * Parameters:
  96:Generated_Source\PSoC5/LCD_BarGraph.c ****     *  row:            The row in which the bar graph starts.
  97:Generated_Source\PSoC5/LCD_BarGraph.c ****     *  column:         The column in which the bar graph starts.
  98:Generated_Source\PSoC5/LCD_BarGraph.c ****     *  maxCharacters:  The max length of the graph in whole characters.
  99:Generated_Source\PSoC5/LCD_BarGraph.c ****     *  value:          The current length or height of the graph in pixels.
 100:Generated_Source\PSoC5/LCD_BarGraph.c ****     *
 101:Generated_Source\PSoC5/LCD_BarGraph.c ****     * Return:
 102:Generated_Source\PSoC5/LCD_BarGraph.c ****     *  void.
 103:Generated_Source\PSoC5/LCD_BarGraph.c ****     *
 104:Generated_Source\PSoC5/LCD_BarGraph.c ****     *******************************************************************************/
 105:Generated_Source\PSoC5/LCD_BarGraph.c ****     void LCD_DrawHorizontalBG(uint8 row, uint8 column, uint8 maxCharacters, uint8 value) \
 106:Generated_Source\PSoC5/LCD_BarGraph.c ****                                                             
 107:Generated_Source\PSoC5/LCD_BarGraph.c ****     {
 161              		.loc 1 107 0
 162              		.cfi_startproc
 163              		@ args = 0, pretend = 0, frame = 16
 164              		@ frame_needed = 1, uses_anonymous_args = 0
 165 0000 90B5     		push	{r4, r7, lr}
 166              		.cfi_def_cfa_offset 12
 167              		.cfi_offset 4, -12
 168              		.cfi_offset 7, -8
 169              		.cfi_offset 14, -4
 170 0002 85B0     		sub	sp, sp, #20
 171              		.cfi_def_cfa_offset 32
 172 0004 00AF     		add	r7, sp, #0
 173              		.cfi_def_cfa_register 7
 174 0006 0446     		mov	r4, r0
 175 0008 0846     		mov	r0, r1
 176 000a 1146     		mov	r1, r2
ARM GAS  C:\Users\HENRIC~1\AppData\Local\Temp\ccnsupLZ.s 			page 6


 177 000c 1A46     		mov	r2, r3
 178 000e 2346     		mov	r3, r4
 179 0010 FB71     		strb	r3, [r7, #7]
 180 0012 0346     		mov	r3, r0
 181 0014 BB71     		strb	r3, [r7, #6]
 182 0016 0B46     		mov	r3, r1
 183 0018 7B71     		strb	r3, [r7, #5]
 184 001a 1346     		mov	r3, r2
 185 001c 3B71     		strb	r3, [r7, #4]
 108:Generated_Source\PSoC5/LCD_BarGraph.c ****         /* 8-bit Counter */
 109:Generated_Source\PSoC5/LCD_BarGraph.c ****         uint8 count8;
 110:Generated_Source\PSoC5/LCD_BarGraph.c ****         uint8 fullChars;
 111:Generated_Source\PSoC5/LCD_BarGraph.c ****         uint8 remainingPixels;
 112:Generated_Source\PSoC5/LCD_BarGraph.c **** 
 113:Generated_Source\PSoC5/LCD_BarGraph.c ****         /* Number of full characters to draw */
 114:Generated_Source\PSoC5/LCD_BarGraph.c ****         fullChars = value / LCD_CHARACTER_WIDTH;
 186              		.loc 1 114 0
 187 001e 3B79     		ldrb	r3, [r7, #4]	@ zero_extendqisi2
 188 0020 244A     		ldr	r2, .L12
 189 0022 A2FB0323 		umull	r2, r3, r2, r3
 190 0026 9B08     		lsrs	r3, r3, #2
 191 0028 BB73     		strb	r3, [r7, #14]
 115:Generated_Source\PSoC5/LCD_BarGraph.c **** 
 116:Generated_Source\PSoC5/LCD_BarGraph.c ****         /* Number of remaining pixels to draw */
 117:Generated_Source\PSoC5/LCD_BarGraph.c ****         remainingPixels = value % LCD_CHARACTER_WIDTH;
 192              		.loc 1 117 0
 193 002a 3A79     		ldrb	r2, [r7, #4]	@ zero_extendqisi2
 194 002c 214B     		ldr	r3, .L12
 195 002e A3FB0213 		umull	r1, r3, r3, r2
 196 0032 9908     		lsrs	r1, r3, #2
 197 0034 0B46     		mov	r3, r1
 198 0036 9B00     		lsls	r3, r3, #2
 199 0038 0B44     		add	r3, r3, r1
 200 003a D31A     		subs	r3, r2, r3
 201 003c 7B73     		strb	r3, [r7, #13]
 118:Generated_Source\PSoC5/LCD_BarGraph.c **** 
 119:Generated_Source\PSoC5/LCD_BarGraph.c ****         /* Ensure that the maximum character limit is followed. */
 120:Generated_Source\PSoC5/LCD_BarGraph.c ****         if(fullChars >= maxCharacters)
 202              		.loc 1 120 0
 203 003e BA7B     		ldrb	r2, [r7, #14]	@ zero_extendqisi2
 204 0040 7B79     		ldrb	r3, [r7, #5]	@ zero_extendqisi2
 205 0042 9A42     		cmp	r2, r3
 206 0044 01D3     		bcc	.L5
 121:Generated_Source\PSoC5/LCD_BarGraph.c ****         {
 122:Generated_Source\PSoC5/LCD_BarGraph.c ****             fullChars = maxCharacters;
 207              		.loc 1 122 0
 208 0046 7B79     		ldrb	r3, [r7, #5]
 209 0048 BB73     		strb	r3, [r7, #14]
 210              	.L5:
 123:Generated_Source\PSoC5/LCD_BarGraph.c ****         }
 124:Generated_Source\PSoC5/LCD_BarGraph.c **** 
 125:Generated_Source\PSoC5/LCD_BarGraph.c ****         /* Put Cursor at start position */
 126:Generated_Source\PSoC5/LCD_BarGraph.c ****         LCD_Position(row, column);
 211              		.loc 1 126 0
 212 004a BA79     		ldrb	r2, [r7, #6]	@ zero_extendqisi2
 213 004c FB79     		ldrb	r3, [r7, #7]	@ zero_extendqisi2
 214 004e 1146     		mov	r1, r2
ARM GAS  C:\Users\HENRIC~1\AppData\Local\Temp\ccnsupLZ.s 			page 7


 215 0050 1846     		mov	r0, r3
 216 0052 FFF7FEFF 		bl	LCD_Position
 127:Generated_Source\PSoC5/LCD_BarGraph.c **** 
 128:Generated_Source\PSoC5/LCD_BarGraph.c ****         /* Write full characters */
 129:Generated_Source\PSoC5/LCD_BarGraph.c ****         for(count8 = 0u; count8 < fullChars; count8++)
 217              		.loc 1 129 0
 218 0056 0023     		movs	r3, #0
 219 0058 FB73     		strb	r3, [r7, #15]
 220 005a 05E0     		b	.L6
 221              	.L7:
 130:Generated_Source\PSoC5/LCD_BarGraph.c ****         {
 131:Generated_Source\PSoC5/LCD_BarGraph.c ****             LCD_WriteData(LCD_CUSTOM_5);
 222              		.loc 1 131 0 discriminator 3
 223 005c 0520     		movs	r0, #5
 224 005e FFF7FEFF 		bl	LCD_WriteData
 129:Generated_Source\PSoC5/LCD_BarGraph.c ****         {
 225              		.loc 1 129 0 discriminator 3
 226 0062 FB7B     		ldrb	r3, [r7, #15]	@ zero_extendqisi2
 227 0064 0133     		adds	r3, r3, #1
 228 0066 FB73     		strb	r3, [r7, #15]
 229              	.L6:
 129:Generated_Source\PSoC5/LCD_BarGraph.c ****         {
 230              		.loc 1 129 0 is_stmt 0 discriminator 1
 231 0068 FA7B     		ldrb	r2, [r7, #15]	@ zero_extendqisi2
 232 006a BB7B     		ldrb	r3, [r7, #14]	@ zero_extendqisi2
 233 006c 9A42     		cmp	r2, r3
 234 006e F5D3     		bcc	.L7
 132:Generated_Source\PSoC5/LCD_BarGraph.c ****         }
 133:Generated_Source\PSoC5/LCD_BarGraph.c **** 
 134:Generated_Source\PSoC5/LCD_BarGraph.c ****         if(fullChars < maxCharacters)
 235              		.loc 1 134 0 is_stmt 1
 236 0070 BA7B     		ldrb	r2, [r7, #14]	@ zero_extendqisi2
 237 0072 7B79     		ldrb	r3, [r7, #5]	@ zero_extendqisi2
 238 0074 9A42     		cmp	r2, r3
 239 0076 18D2     		bcs	.L11
 135:Generated_Source\PSoC5/LCD_BarGraph.c ****         {
 136:Generated_Source\PSoC5/LCD_BarGraph.c ****             /* Write remaining pixels */
 137:Generated_Source\PSoC5/LCD_BarGraph.c ****             LCD_WriteData(remainingPixels);
 240              		.loc 1 137 0
 241 0078 7B7B     		ldrb	r3, [r7, #13]	@ zero_extendqisi2
 242 007a 1846     		mov	r0, r3
 243 007c FFF7FEFF 		bl	LCD_WriteData
 138:Generated_Source\PSoC5/LCD_BarGraph.c **** 
 139:Generated_Source\PSoC5/LCD_BarGraph.c ****             if(fullChars < (maxCharacters - 1u))
 244              		.loc 1 139 0
 245 0080 BA7B     		ldrb	r2, [r7, #14]	@ zero_extendqisi2
 246 0082 7B79     		ldrb	r3, [r7, #5]	@ zero_extendqisi2
 247 0084 013B     		subs	r3, r3, #1
 248 0086 9A42     		cmp	r2, r3
 249 0088 0FD2     		bcs	.L11
 140:Generated_Source\PSoC5/LCD_BarGraph.c ****             {
 141:Generated_Source\PSoC5/LCD_BarGraph.c ****                 /* Fill with whitespace to end of bar graph */
 142:Generated_Source\PSoC5/LCD_BarGraph.c ****                 for(count8 = 0u; count8 < (maxCharacters - fullChars - 1u); count8++)
 250              		.loc 1 142 0
 251 008a 0023     		movs	r3, #0
 252 008c FB73     		strb	r3, [r7, #15]
 253 008e 05E0     		b	.L9
ARM GAS  C:\Users\HENRIC~1\AppData\Local\Temp\ccnsupLZ.s 			page 8


 254              	.L10:
 143:Generated_Source\PSoC5/LCD_BarGraph.c ****                 {
 144:Generated_Source\PSoC5/LCD_BarGraph.c ****                     LCD_WriteData(LCD_CUSTOM_0);
 255              		.loc 1 144 0 discriminator 3
 256 0090 0020     		movs	r0, #0
 257 0092 FFF7FEFF 		bl	LCD_WriteData
 142:Generated_Source\PSoC5/LCD_BarGraph.c ****                 {
 258              		.loc 1 142 0 discriminator 3
 259 0096 FB7B     		ldrb	r3, [r7, #15]	@ zero_extendqisi2
 260 0098 0133     		adds	r3, r3, #1
 261 009a FB73     		strb	r3, [r7, #15]
 262              	.L9:
 142:Generated_Source\PSoC5/LCD_BarGraph.c ****                 {
 263              		.loc 1 142 0 is_stmt 0 discriminator 1
 264 009c FA7B     		ldrb	r2, [r7, #15]	@ zero_extendqisi2
 265 009e 7979     		ldrb	r1, [r7, #5]	@ zero_extendqisi2
 266 00a0 BB7B     		ldrb	r3, [r7, #14]	@ zero_extendqisi2
 267 00a2 CB1A     		subs	r3, r1, r3
 268 00a4 013B     		subs	r3, r3, #1
 269 00a6 9A42     		cmp	r2, r3
 270 00a8 F2D3     		bcc	.L10
 271              	.L11:
 145:Generated_Source\PSoC5/LCD_BarGraph.c ****                 }
 146:Generated_Source\PSoC5/LCD_BarGraph.c ****             }
 147:Generated_Source\PSoC5/LCD_BarGraph.c ****         }
 148:Generated_Source\PSoC5/LCD_BarGraph.c ****     }
 272              		.loc 1 148 0 is_stmt 1
 273 00aa 00BF     		nop
 274 00ac 1437     		adds	r7, r7, #20
 275              		.cfi_def_cfa_offset 12
 276 00ae BD46     		mov	sp, r7
 277              		.cfi_def_cfa_register 13
 278              		@ sp needed
 279 00b0 90BD     		pop	{r4, r7, pc}
 280              	.L13:
 281 00b2 00BF     		.align	2
 282              	.L12:
 283 00b4 CDCCCCCC 		.word	-858993459
 284              		.cfi_endproc
 285              	.LFE1:
 286              		.size	LCD_DrawHorizontalBG, .-LCD_DrawHorizontalBG
 287              		.text
 288              	.Letext0:
 289              		.file 2 "Generated_Source\\PSoC5\\cytypes.h"