
Milestone_1.elf:     file format elf32-littlenios2
Milestone_1.elf
architecture: nios2, flags 0x00000112:
EXEC_P, HAS_SYMS, D_PAGED
start address 0x000001b4

Program Header:
    LOAD off    0x00001000 vaddr 0x00000000 paddr 0x00000000 align 2**12
         filesz 0x00000020 memsz 0x00000020 flags r-x
    LOAD off    0x00001020 vaddr 0x00000020 paddr 0x00000020 align 2**12
         filesz 0x00012ae4 memsz 0x00012ae4 flags r-x
    LOAD off    0x00013b04 vaddr 0x00012b04 paddr 0x0001458c align 2**12
         filesz 0x00001a88 memsz 0x00001a88 flags rw-
    LOAD off    0x00016014 vaddr 0x00016014 paddr 0x00016014 align 2**12
         filesz 0x00000000 memsz 0x000003f8 flags rw-

Sections:
Idx Name          Size      VMA       LMA       File off  Algn
  0 .entry        00000020  00000000  00000000  00001000  2**5
                  CONTENTS, ALLOC, LOAD, READONLY, CODE
  1 .exceptions   00000194  00000020  00000020  00001020  2**2
                  CONTENTS, ALLOC, LOAD, READONLY, CODE
  2 .text         000120fc  000001b4  000001b4  000011b4  2**2
                  CONTENTS, ALLOC, LOAD, READONLY, CODE
  3 .rodata       00000854  000122b0  000122b0  000132b0  2**2
                  CONTENTS, ALLOC, LOAD, READONLY, DATA
  4 .rwdata       00001a88  00012b04  0001458c  00013b04  2**2
                  CONTENTS, ALLOC, LOAD, DATA, SMALL_DATA
  5 .bss          000003f8  00016014  00016014  00016014  2**2
                  ALLOC, SMALL_DATA
  6 .comment      00000026  00000000  00000000  0001558c  2**0
                  CONTENTS, READONLY
  7 .debug_aranges 00001058  00000000  00000000  000155b8  2**3
                  CONTENTS, READONLY, DEBUGGING
  8 .debug_pubnames 0000187e  00000000  00000000  00016610  2**0
                  CONTENTS, READONLY, DEBUGGING
  9 .debug_info   0002f520  00000000  00000000  00017e8e  2**0
                  CONTENTS, READONLY, DEBUGGING
 10 .debug_abbrev 0000a559  00000000  00000000  000473ae  2**0
                  CONTENTS, READONLY, DEBUGGING
 11 .debug_line   0001a7f4  00000000  00000000  00051907  2**0
                  CONTENTS, READONLY, DEBUGGING
 12 .debug_frame  00002018  00000000  00000000  0006c0fc  2**2
                  CONTENTS, READONLY, DEBUGGING
 13 .debug_str    00002b35  00000000  00000000  0006e114  2**0
                  CONTENTS, READONLY, DEBUGGING
 14 .debug_loc    0001218a  00000000  00000000  00070c49  2**0
                  CONTENTS, READONLY, DEBUGGING
 15 .debug_alt_sim_info 00000030  00000000  00000000  00082dd4  2**2
                  CONTENTS, READONLY, DEBUGGING
 16 .debug_ranges 00000b30  00000000  00000000  00082e08  2**3
                  CONTENTS, READONLY, DEBUGGING
 17 .thread_model 00000003  00000000  00000000  000871e2  2**0
                  CONTENTS, READONLY
 18 .cpu          00000003  00000000  00000000  000871e5  2**0
                  CONTENTS, READONLY
 19 .qsys         00000001  00000000  00000000  000871e8  2**0
                  CONTENTS, READONLY
 20 .simulation_enabled 00000001  00000000  00000000  000871e9  2**0
                  CONTENTS, READONLY
 21 .sysid_hash   00000004  00000000  00000000  000871ea  2**0
                  CONTENTS, READONLY
 22 .sysid_base   00000004  00000000  00000000  000871ee  2**0
                  CONTENTS, READONLY
 23 .sysid_time   00000004  00000000  00000000  000871f2  2**0
                  CONTENTS, READONLY
 24 .stderr_dev   0000000b  00000000  00000000  000871f6  2**0
                  CONTENTS, READONLY
 25 .stdin_dev    0000000b  00000000  00000000  00087201  2**0
                  CONTENTS, READONLY
 26 .stdout_dev   0000000b  00000000  00000000  0008720c  2**0
                  CONTENTS, READONLY
 27 .sopc_system_name 00000011  00000000  00000000  00087217  2**0
                  CONTENTS, READONLY
 28 .quartus_project_dir 00000040  00000000  00000000  00087228  2**0
                  CONTENTS, READONLY
 29 .sopcinfo     00093cf1  00000000  00000000  00087268  2**0
                  CONTENTS, READONLY
SYMBOL TABLE:
00000000 l    d  .entry	00000000 .entry
00000020 l    d  .exceptions	00000000 .exceptions
000001b4 l    d  .text	00000000 .text
000122b0 l    d  .rodata	00000000 .rodata
00012b04 l    d  .rwdata	00000000 .rwdata
00016014 l    d  .bss	00000000 .bss
00000000 l    d  .comment	00000000 .comment
00000000 l    d  .debug_aranges	00000000 .debug_aranges
00000000 l    d  .debug_pubnames	00000000 .debug_pubnames
00000000 l    d  .debug_info	00000000 .debug_info
00000000 l    d  .debug_abbrev	00000000 .debug_abbrev
00000000 l    d  .debug_line	00000000 .debug_line
00000000 l    d  .debug_frame	00000000 .debug_frame
00000000 l    d  .debug_str	00000000 .debug_str
00000000 l    d  .debug_loc	00000000 .debug_loc
00000000 l    d  .debug_alt_sim_info	00000000 .debug_alt_sim_info
00000000 l    d  .debug_ranges	00000000 .debug_ranges
000001fc l       .text	00000000 alt_after_alt_main
00000000 l    df *ABS*	00000000 alt_irq_handler.c
00000000 l    df *ABS*	00000000 main.c
00012300 l     O .rodata	0000000c RR
00012348 l     O .rodata	0000000c WR
000123ac l     O .rodata	0000000c HELP
00016048 l     O .bss	0000000c commandList
00000000 l    df *ABS*	00000000 fgets.c
00000000 l    df *ABS*	00000000 findfp.c
00000acc l     F .text	00000058 std
00000bd8 l     F .text	00000008 __fp_lock
00000be0 l     F .text	00000008 __fp_unlock
00000000 l    df *ABS*	00000000 fwalk.c
00000000 l    df *ABS*	00000000 impure.c
00012b04 l     O .rwdata	00000400 impure_data
00000000 l    df *ABS*	00000000 mallocr.c
00000000 l    df *ABS*	00000000 memchr.c
00000000 l    df *ABS*	00000000 memcpy.c
00000000 l    df *ABS*	00000000 memset.c
00000000 l    df *ABS*	00000000 printf.c
00000000 l    df *ABS*	00000000 refill.c
00001aa4 l     F .text	0000001c lflush
00000000 l    df *ABS*	00000000 sbrkr.c
00000000 l    df *ABS*	00000000 sprintf.c
00000000 l    df *ABS*	00000000 sscanf.c
00001c04 l     F .text	00000008 eofread
00000000 l    df *ABS*	00000000 stdio.c
00000000 l    df *ABS*	00000000 strcat.c
00000000 l    df *ABS*	00000000 strchr.c
00000000 l    df *ABS*	00000000 strcmp.c
00000000 l    df *ABS*	00000000 strcpy.c
00000000 l    df *ABS*	00000000 strlen.c
00000000 l    df *ABS*	00000000 vfprintf.c
00002190 l     F .text	00000058 __sprint_r
00012536 l     O .rodata	00000010 blanks.3452
00012526 l     O .rodata	00000010 zeroes.3453
00000000 l    df *ABS*	00000000 vfscanf.c
0001254e l     O .rodata	00000022 basefix.3357
00000000 l    df *ABS*	00000000 writer.c
00000000 l    df *ABS*	00000000 wsetup.c
00000000 l    df *ABS*	00000000 closer.c
00000000 l    df *ABS*	00000000 ctype_.c
00012671 l     O .rodata	00000180 _ctype_b
00000000 l    df *ABS*	00000000 dtoa.c
00005a5c l     F .text	00000218 quorem
00000000 l    df *ABS*	00000000 fclose.c
00000000 l    df *ABS*	00000000 fflush.c
00000000 l    df *ABS*	00000000 fread.c
00000000 l    df *ABS*	00000000 mallocr.c
00000000 l    df *ABS*	00000000 fvwrite.c
00000000 l    df *ABS*	00000000 int_errno.c
00000000 l    df *ABS*	00000000 iswspace.c
00000000 l    df *ABS*	00000000 locale.c
00014560 l     O .rwdata	00000004 charset
00012814 l     O .rodata	00000030 lconv
00000000 l    df *ABS*	00000000 lseekr.c
00000000 l    df *ABS*	00000000 makebuf.c
00000000 l    df *ABS*	00000000 mbrtowc.c
00000000 l    df *ABS*	00000000 mbtowc_r.c
00000000 l    df *ABS*	00000000 memmove.c
00000000 l    df *ABS*	00000000 mprec.c
0001295c l     O .rodata	0000000c p05.2458
00000000 l    df *ABS*	00000000 readr.c
00000000 l    df *ABS*	00000000 mallocr.c
00000000 l    df *ABS*	00000000 s_isinfd.c
00000000 l    df *ABS*	00000000 s_isnand.c
00000000 l    df *ABS*	00000000 sccl.c
00000000 l    df *ABS*	00000000 sf_nan.c
00000000 l    df *ABS*	00000000 strtod.c
00009d08 l     F .text	00000048 match
0001332c l     O .rwdata	00000014 fpi.1950
00012978 l     O .rodata	00000028 tinytens
00013318 l     O .rwdata	00000014 fpinan.1986
00000000 l    df *ABS*	00000000 strtol.c
00000000 l    df *ABS*	00000000 strtoll_r.c
00000000 l    df *ABS*	00000000 strtoul.c
00000000 l    df *ABS*	00000000 strtoull_r.c
00000000 l    df *ABS*	00000000 ungetc.c
00000000 l    df *ABS*	00000000 mallocr.c
00000000 l    df *ABS*	00000000 fstatr.c
00000000 l    df *ABS*	00000000 gdtoa-gethex.c
0000c1f4 l     F .text	00000024 htinit
0000c280 l     F .text	000000b0 rshift
00000000 l    df *ABS*	00000000 gdtoa-hexnan.c
0000cae8 l     F .text	0000004c L_shift
00000000 l    df *ABS*	00000000 isattyr.c
00000000 l    df *ABS*	00000000 libgcc2.c
00000000 l    df *ABS*	00000000 libgcc2.c
00000000 l    df *ABS*	00000000 libgcc2.c
00000000 l    df *ABS*	00000000 libgcc2.c
00000000 l    df *ABS*	00000000 fp-bit.c
00000000 l    df *ABS*	00000000 fp-bit.c
00000000 l    df *ABS*	00000000 fp-bit.c
00000000 l    df *ABS*	00000000 dp-bit.c
0000dc1c l     F .text	00000410 _fpadd_parts
00000000 l    df *ABS*	00000000 dp-bit.c
00000000 l    df *ABS*	00000000 dp-bit.c
00000000 l    df *ABS*	00000000 dp-bit.c
00000000 l    df *ABS*	00000000 dp-bit.c
00000000 l    df *ABS*	00000000 dp-bit.c
00000000 l    df *ABS*	00000000 dp-bit.c
00000000 l    df *ABS*	00000000 dp-bit.c
00000000 l    df *ABS*	00000000 dp-bit.c
00000000 l    df *ABS*	00000000 dp-bit.c
00000000 l    df *ABS*	00000000 dp-bit.c
00000000 l    df *ABS*	00000000 dp-bit.c
00000000 l    df *ABS*	00000000 dp-bit.c
00000000 l    df *ABS*	00000000 dp-bit.c
00000000 l    df *ABS*	00000000 lib2-divmod.c
0000ee44 l     F .text	0000007c udivmodsi4
00000000 l    df *ABS*	00000000 libgcc2.c
00000000 l    df *ABS*	00000000 libgcc2.c
00000000 l    df *ABS*	00000000 fp-bit.c
00000000 l    df *ABS*	00000000 fp-bit.c
00000000 l    df *ABS*	00000000 fp-bit.c
00000000 l    df *ABS*	00000000 dp-bit.c
00000000 l    df *ABS*	00000000 dp-bit.c
00000000 l    df *ABS*	00000000 dp-bit.c
00000000 l    df *ABS*	00000000 fp-bit.c
00000000 l    df *ABS*	00000000 alt_close.c
0000f91c l     F .text	00000060 alt_get_errno
00000000 l    df *ABS*	00000000 alt_dev.c
0000f97c l     F .text	0000002c alt_dev_null_write
00000000 l    df *ABS*	00000000 alt_errno.c
00000000 l    df *ABS*	00000000 alt_fstat.c
0000fa7c l     F .text	00000060 alt_get_errno
00000000 l    df *ABS*	00000000 alt_isatty.c
0000fb9c l     F .text	00000060 alt_get_errno
00000000 l    df *ABS*	00000000 alt_load.c
0000fc7c l     F .text	0000006c alt_load_section
00000000 l    df *ABS*	00000000 alt_lseek.c
0000fdd8 l     F .text	00000060 alt_get_errno
00000000 l    df *ABS*	00000000 alt_main.c
00000000 l    df *ABS*	00000000 alt_malloc_lock.c
00000000 l    df *ABS*	00000000 alt_read.c
00010004 l     F .text	00000060 alt_get_errno
00000000 l    df *ABS*	00000000 alt_release_fd.c
00000000 l    df *ABS*	00000000 alt_sbrk.c
0001457c l     O .rwdata	00000004 heap_end
00000000 l    df *ABS*	00000000 alt_write.c
000102a0 l     F .text	00000060 alt_get_errno
00000000 l    df *ABS*	00000000 alt_sys_init.c
000134e8 l     O .rwdata	00001060 jtag_uart_0
00010390 l     F .text	00000038 alt_dev_reg
00000000 l    df *ABS*	00000000 altera_avalon_jtag_uart_fd.c
00000000 l    df *ABS*	00000000 altera_avalon_jtag_uart_init.c
000105d0 l     F .text	00000228 altera_avalon_jtag_uart_irq
000107f8 l     F .text	000000b0 altera_avalon_jtag_uart_timeout
00000000 l    df *ABS*	00000000 altera_avalon_jtag_uart_ioctl.c
00000000 l    df *ABS*	00000000 altera_avalon_jtag_uart_read.c
00000000 l    df *ABS*	00000000 altera_avalon_jtag_uart_write.c
00000000 l    df *ABS*	00000000 altera_avalon_timer_sc.c
00010e74 l     F .text	00000070 alt_avalon_timer_sc_irq
00000000 l    df *ABS*	00000000 alt_alarm_start.c
00000000 l    df *ABS*	00000000 alt_dcache_flush_all.c
00000000 l    df *ABS*	00000000 alt_dev_llist_insert.c
000111c0 l     F .text	00000060 alt_get_errno
00000000 l    df *ABS*	00000000 alt_do_ctors.c
00000000 l    df *ABS*	00000000 alt_do_dtors.c
00000000 l    df *ABS*	00000000 alt_icache_flush_all.c
00000000 l    df *ABS*	00000000 alt_iic.c
00000000 l    df *ABS*	00000000 alt_iic_isr_register.c
00000000 l    df *ABS*	00000000 alt_io_redirect.c
000115e4 l     F .text	000000c4 alt_open_fd
00000000 l    df *ABS*	00000000 alt_irq_vars.c
00000000 l    df *ABS*	00000000 alt_open.c
00011720 l     F .text	000000dc alt_file_locked
00011984 l     F .text	00000060 alt_get_errno
00000000 l    df *ABS*	00000000 alt_tick.c
00000000 l    df *ABS*	00000000 altera_nios2_qsys_irq.c
00000000 l    df *ABS*	00000000 alt_find_dev.c
00000000 l    df *ABS*	00000000 alt_find_file.c
00000000 l    df *ABS*	00000000 alt_get_fd.c
00000000 l    df *ABS*	00000000 alt_icache_flush.c
00000000 l    df *ABS*	00000000 atexit.c
00000000 l    df *ABS*	00000000 exit.c
00000000 l    df *ABS*	00000000 memcmp.c
00000000 l    df *ABS*	00000000 __atexit.c
00000000 l    df *ABS*	00000000 __call_atexit.c
00012098 l     F .text	00000004 register_fini
00000000 l    df *ABS*	00000000 alt_exit.c
0001224c l     F .text	00000040 alt_sim_halt
0000897c g     F .text	00000094 _mprec_log10
00008a68 g     F .text	00000088 __any_on
0000cd7c g     F .text	00000070 _isatty_r
00012934 g     O .rodata	00000028 __mprec_tinytens
0000fe38 g     F .text	0000006c alt_main
00002090 g     F .text	0000008c strcpy
0001617c g     O .bss	00000100 alt_irq
00008184 g     F .text	00000078 _lseek_r
0001458c g       *ABS*	00000000 __flash_rwdata_start
0000e73c g     F .text	00000088 __eqdf2
0001640c g       *ABS*	00000000 __alt_heap_start
00001868 g     F .text	00000044 printf
00001d20 g     F .text	00000068 __sseek
00000b34 g     F .text	000000a4 __sinit
000080e4 g     F .text	00000084 _setlocale_r
00000c34 g     F .text	00000068 __sfmoreglue
0000c0b0 g     F .text	0000001c ungetc
0000fec4 g     F .text	00000020 __malloc_unlock
00009d50 g     F .text	000014e4 _strtod_r
00008490 g     F .text	000000e0 memmove
00000c24 g     F .text	00000010 _cleanup
00008af0 g     F .text	000000bc _Balloc
0000e84c g     F .text	00000088 __gtdf2
00000000  w      *UND*	00000000 __errno
00000000 g     F .entry	0000001c __reset
00000020 g       *ABS*	00000000 __flash_exceptions_start
0000c180 g     F .text	00000074 _fstat_r
00016020 g     O .bss	00000004 errno
00005738 g     F .text	00000024 __svfscanf
0000f180 g     F .text	0000002c __make_fp
00016034 g     O .bss	00000004 alt_argv
0001c548 g       *ABS*	00000000 _gp
00000aa8 g     F .text	00000024 fgets
00013368 g     O .rwdata	00000180 alt_fd_list
00011ba8 g     F .text	00000094 alt_find_dev
00001730 g     F .text	000000a0 memcpy
0000cb34 g     F .text	00000248 __hexnan
00000590 g     F .text	00000058 cmd_generateList
00000c18 g     F .text	0000000c _cleanup_r
0000ea6c g     F .text	000000f8 __floatsidf
000116a8 g     F .text	00000078 alt_io_redirect
0000e95c g     F .text	00000088 __ltdf2
000122b0 g       *ABS*	00000000 __DTOR_END__
00008410 g     F .text	00000040 mbrtowc
0000575c g     F .text	00000068 _vfscanf_r
000088cc g     F .text	000000b0 __ratio
00010a10 g     F .text	00000224 altera_avalon_jtag_uart_read
00000000  w      *UND*	00000000 malloc
000018ac g     F .text	00000034 _printf_r
00800000 g       *ABS*	00000000 __alt_mem_onchip_memory2_0
0000ef80 g     F .text	00000008 __udivsi3
0000fadc g     F .text	000000c0 isatty
00008094 g     F .text	0000002c iswspace
00012844 g     O .rodata	000000c8 __mprec_tens
000080c0 g     F .text	00000008 __locale_charset
0000ce84 g     F .text	000000a4 __fixunsdfsi
00011e14 g     F .text	00000090 alt_icache_flush
00016014 g     O .bss	00000004 __malloc_top_pad
0000bb24 g     F .text	00000024 strtoul
0001455c g     O .rwdata	00000004 __mb_cur_max
000080c8 g     F .text	0000000c _localeconv_r
0000bb48 g     F .text	000002f0 _strtoull_r
000091e8 g     F .text	0000003c __i2b
00007bf8 g     F .text	0000049c __sfvwrite_r
00001ac0 g     F .text	00000070 _sbrk_r
00009564 g     F .text	00000078 _read_r
0001330c g     O .rwdata	0000000c __lc_ctype
00014574 g     O .rwdata	00000004 alt_max_fd
0000f4c0 g     F .text	00000138 __unpack_d
00007228 g     F .text	00000110 _fclose_r
00007548 g     F .text	00000034 fflush
000008ec g     F .text	00000074 serial_readStr
00016018 g     O .bss	00000004 __malloc_max_sbrked_mem
0000e0ac g     F .text	00000074 __adddf3
0000dab4 g     F .text	00000078 __nesf2
000087ac g     F .text	00000120 __b2d
0000d504 g     F .text	000005b0 __umoddi3
0000fce8 g     F .text	000000f0 lseek
0001454c g     O .rwdata	00000004 _global_impure_ptr
000095dc g     F .text	000005f4 _realloc_r
0001640c g       *ABS*	00000000 __bss_end
000114ec g     F .text	000000f8 alt_iic_isr_register
00011a7c g     F .text	0000010c alt_tick
0001607c g     O .bss	00000100 __hexdig
0000cf28 g     F .text	000005dc __udivdi3
0001290c g     O .rodata	00000028 __mprec_bigtens
00009444 g     F .text	00000120 __s2b
0000ecb0 g     F .text	00000194 __floatunsidf
000086cc g     F .text	00000060 __mcmp
00014558 g     O .rwdata	00000004 __ctype_ptr
00000c00 g     F .text	00000018 __fp_lock_all
000114a4 g     F .text	00000048 alt_ic_irq_enabled
000119e4 g     F .text	00000098 alt_alarm_stop
0000b5b8 g     F .text	00000024 strtol
0001603c g     O .bss	00000004 alt_irq_active
000000ec g     F .exceptions	000000c8 alt_irq_handler
00013340 g     O .rwdata	00000028 alt_dev_null
0000f010 g     F .text	000000c8 __unpack_f
000110c8 g     F .text	00000044 alt_dcache_flush_all
00008598 g     F .text	00000070 __hi0bits
0000eb64 g     F .text	000000d8 __fixdfsi
0000b358 g     F .text	0000001c strtod
0001458c g       *ABS*	00000000 __ram_rwdata_end
0001456c g     O .rwdata	00000008 alt_dev_list
00010180 g     F .text	00000120 write
0000db2c g     F .text	00000078 __gtsf2
00012b04 g       *ABS*	00000000 __ram_rodata_end
0000f9a8 g     F .text	000000d4 fstat
0000e9e4 g     F .text	00000088 __ledf2
0000087c g     F .text	00000038 memmgr_writeByte
00001e64 g     F .text	00000090 strcat
00009324 g     F .text	00000120 __pow5mult
00016024 g     O .bss	00000004 __nlocale_changed
0000ef88 g     F .text	00000008 __umodsi3
0001640c g       *ABS*	00000000 end
0000f6c0 g     F .text	00000160 __pack_f
00010510 g     F .text	000000c0 altera_avalon_jtag_uart_init
000122ac g       *ABS*	00000000 __CTOR_LIST__
00800000 g       *ABS*	00000000 __alt_stack_pointer
00010ee4 g     F .text	00000090 alt_avalon_timer_sc_init
0000ef90 g     F .text	00000080 __clzsi2
00010c34 g     F .text	00000240 altera_avalon_jtag_uart_write
00000b24 g     F .text	00000004 __sfp_lock_acquire
0000164c g     F .text	000000e4 memchr
000021e8 g     F .text	00001eac ___vfprintf_internal_r
00001ba4 g     F .text	00000060 _sprintf_r
000078e4 g     F .text	00000314 _free_r
0001209c g     F .text	000001b0 __call_exitprocs
00016028 g     O .bss	00000004 __mlocale_changed
00014554 g     O .rwdata	00000004 __malloc_sbrk_base
000001b4 g     F .text	0000004c _start
00016040 g     O .bss	00000004 _alt_tick_rate
0000b5dc g     F .text	00000318 _strtoll_r
00008eb4 g     F .text	0000014c __lshift
00016044 g     O .bss	00000004 _alt_nticks
0000fee4 g     F .text	00000120 read
00010334 g     F .text	0000005c alt_sys_init
00011f64 g     F .text	00000134 __register_exitproc
000003fc g     F .text	00000194 cmd_help
00009000 g     F .text	000001e8 __multiply
000108a8 g     F .text	00000074 altera_avalon_jtag_uart_close
00012b04 g       *ABS*	00000000 __ram_rwdata_start
000122b0 g       *ABS*	00000000 __ram_rodata_start
00016054 g     O .bss	00000028 __malloc_current_mallinfo
00008bac g     F .text	0000017c __d2b
000103c8 g     F .text	00000058 altera_avalon_jtag_uart_read_fd
0000b8f4 g     F .text	00000230 _strtoul_r
00011d5c g     F .text	000000b8 alt_get_fd
000008b4 g     F .text	00000038 serial_printStr
0000f5f8 g     F .text	000000c8 __fpcmp_parts_d
000059ec g     F .text	00000070 _close_r
00011ef0 g     F .text	00000074 memcmp
00010478 g     F .text	00000048 altera_avalon_jtag_uart_close_fd
0001640c g       *ABS*	00000000 __alt_stack_base
000104c0 g     F .text	00000050 altera_avalon_jtag_uart_ioctl_fd
00001c94 g     F .text	00000084 sscanf
000058b0 g     F .text	0000013c __swsetup_r
0000e4e4 g     F .text	00000258 __divdf3
00000c9c g     F .text	000000f0 __sfp
00008a10 g     F .text	00000058 __copybits
00012f04 g     O .rwdata	00000408 __malloc_av_
00000b30 g     F .text	00000004 __sinit_lock_release
0000e120 g     F .text	000003c4 __muldf3
00001e04 g     F .text	00000060 __sread
00007778 g     F .text	00000040 fread
00011c3c g     F .text	00000120 alt_find_file
0001110c g     F .text	000000b4 alt_dev_llist_insert
0000fea4 g     F .text	00000020 __malloc_lock
000100c4 g     F .text	000000bc sbrk
0000734c g     F .text	000001fc _fflush_r
0000c0cc g     F .text	000000b4 _calloc_r
00016014 g       *ABS*	00000000 __bss_start
000017d0 g     F .text	00000098 memset
00000200 g     F .text	000000f4 main
00016038 g     O .bss	00000004 alt_envp
0001601c g     O .bss	00000004 __malloc_max_total_mem
00010420 g     F .text	00000058 altera_avalon_jtag_uart_write_fd
0000dba4 g     F .text	00000078 __ltsf2
0000757c g     F .text	000001fc _fread_r
00001d18 g     F .text	00000008 __sclose
00800000 g       *ABS*	00000000 __alt_heap_limit
00007338 g     F .text	00000014 fclose
0000b374 g     F .text	00000244 _strtol_r
0000ec3c g     F .text	00000074 __truncdfsf2
0001627c g     O .bss	00000190 _atexit0
00005c74 g     F .text	000015b4 _dtoa_r
00000f0c g     F .text	00000740 _malloc_r
00014578 g     O .rwdata	00000004 alt_errno
0000be38 g     F .text	000000dc __submore
00000e54 g     F .text	000000b8 _fwalk
00000960 g     F .text	00000148 _fgets_r
00008450 g     F .text	00000040 _mbtowc_r
0000eec0 g     F .text	00000060 __divsi3
000129bc g     O .rodata	00000014 __thenan_df
000077b8 g     F .text	0000012c _malloc_trim_r
000122b0 g       *ABS*	00000000 __CTOR_END__
00001fd4 g     F .text	000000bc strcmp
000122b0 g       *ABS*	00000000 __flash_rodata_start
000122b0 g       *ABS*	00000000 __DTOR_LIST__
0000e7c4 g     F .text	00000088 __nedf2
00010300 g     F .text	00000034 alt_irq_init
00010064 g     F .text	00000060 alt_release_fd
00001b30 g     F .text	00000074 sprintf
000129d0 g     O .rodata	00000100 __clz_tab
0001602c g     O .bss	00000004 _PathLocale
0000b234 g     F .text	00000124 strtof
00011ea4 g     F .text	00000014 atexit
00005838 g     F .text	00000078 _write_r
00008168 g     F .text	0000001c setlocale
00009d00 g     F .text	00000008 nanf
00014548 g     O .rwdata	00000004 _impure_ptr
00016030 g     O .bss	00000004 alt_argc
00008390 g     F .text	00000080 _mbrtowc_r
00011284 g     F .text	00000064 _do_dtors
000018e0 g     F .text	000001c4 __srefill_r
00000020 g       .exceptions	00000000 alt_irq_entry
0000872c g     F .text	00000080 __ulp
00009bd0 g     F .text	00000040 __isinfd
00000be8 g     F .text	00000018 __fp_unlock_all
00014564 g     O .rwdata	00000008 alt_fs_list
00000020 g       *ABS*	00000000 __ram_exceptions_start
000080d4 g     F .text	00000010 localeconv
00011318 g     F .text	00000050 alt_ic_isr_register
0000c218 g     F .text	00000068 __hexdig_init
00001c0c g     F .text	00000088 _sscanf_r
0001458c g       *ABS*	00000000 _edata
0001640c g       *ABS*	00000000 _end
000001b4 g       *ABS*	00000000 __ram_exceptions_end
000057c4 g     F .text	00000074 vfscanf
0001091c g     F .text	000000f4 altera_avalon_jtag_uart_ioctl
00011404 g     F .text	000000a0 alt_ic_irq_disable
00001d88 g     F .text	0000007c __swrite
00014550 g     O .rwdata	00000004 __malloc_trim_threshold
00011b88 g     F .text	00000020 altera_nios2_qsys_irq_init
00011eb8 g     F .text	00000038 exit
00000d8c g     F .text	000000c8 _fwalk_reent
00008d28 g     F .text	0000018c __mdiff
0000ef20 g     F .text	00000060 __modsi3
00800000 g       *ABS*	00000000 __alt_data_end
00000020 g     F .exceptions	00000000 alt_exception
000005e8 g     F .text	00000294 memmgr_printMem
00000b28 g     F .text	00000004 __sfp_lock_release
00000000 g       *ABS*	00000000 __alt_mem_sdram
00009c40 g     F .text	000000c0 __sccl
00012570 g     O .rodata	00000101 _ctype_
00000384 g     F .text	00000078 cmd_write
0000f0d8 g     F .text	000000a8 __fpcmp_parts_f
000002f4 g     F .text	00000090 cmd_read
0001228c g     F .text	00000020 _exit
00009c10 g     F .text	00000030 __isnand
00010f74 g     F .text	00000154 alt_alarm_start
0000cdec g     F .text	00000098 __muldi3
000081fc g     F .text	00000194 __smakebuf_r
0000211c g     F .text	00000074 strlen
000117fc g     F .text	00000188 open
0000e8d4 g     F .text	00000088 __gedf2
0000c330 g     F .text	000007b8 __gethex
000112e8 g     F .text	00000030 alt_icache_flush_all
00001ef4 g     F .text	000000e0 strchr
00014580 g     O .rwdata	00000004 alt_priority_mask
00011368 g     F .text	0000009c alt_ic_irq_enable
00004094 g     F .text	00000024 __vfprintf_internal
0000e02c g     F .text	00000080 __subdf3
00008608 g     F .text	000000c4 __lo0bits
000040b8 g     F .text	00001680 __svfscanf_r
00014584 g     O .rwdata	00000008 alt_alarm_list
0000bf14 g     F .text	0000019c _ungetc_r
00011220 g     F .text	00000064 _do_ctors
0000f820 g     F .text	000000fc close
0000fbfc g     F .text	00000080 alt_load
0000f1ac g     F .text	00000314 __pack_d
00000000  w      *UND*	00000000 free
00000b2c g     F .text	00000004 __sinit_lock_acquire
00009224 g     F .text	00000100 __multadd
00008570 g     F .text	00000028 _Bfree



Disassembly of section .entry:

00000000 <__reset>:
#if NIOS2_ICACHE_SIZE > 0 && defined(ALT_ALLOW_CODE_AT_RESET) && !defined(ALT_SIM_OPTIMIZE)
    /* Assume the instruction cache size is always a power of two. */
#if NIOS2_ICACHE_SIZE > 0x8000
    movhi r2, %hi(NIOS2_ICACHE_SIZE)
#else
    movui r2, NIOS2_ICACHE_SIZE
   0:	00840014 	movui	r2,4096
#endif

0:
    initi r2
   4:	1001483a 	initi	r2
    addi r2, r2, -NIOS2_ICACHE_LINE_SIZE
   8:	10bff804 	addi	r2,r2,-32
    bgt r2, zero, 0b
   c:	00bffd16 	blt	zero,r2,4 <__reset+0x4>
 * Jump to the _start entry point in the .text section if reset code
 * is allowed or if optimizing for RTL simulation.
 */
#if defined(ALT_ALLOW_CODE_AT_RESET) || defined(ALT_SIM_OPTIMIZE)
    /* Jump to the _start entry point in the .text section. */
    movhi r1, %hi(_start)
  10:	00400034 	movhi	at,0
    ori r1, r1, %lo(_start)
  14:	08406d14 	ori	at,at,436
    jmp r1
  18:	0800683a 	jmp	at
  1c:	00000000 	call	0 <__reset>

Disassembly of section .exceptions:

00000020 <alt_exception>:
         * Process an exception.  For all exceptions we must preserve all
         * caller saved registers on the stack (See the Nios2 ABI
         * documentation for details).
         */

        addi  sp, sp, -76
  20:	deffed04 	addi	sp,sp,-76

#endif

#endif

        stw   ra,  0(sp)
  24:	dfc00015 	stw	ra,0(sp)
        /*
         * Leave a gap in the stack frame at 4(sp) for the muldiv handler to
         * store zero into.
         */

        stw   r1,   8(sp)
  28:	d8400215 	stw	at,8(sp)
        stw   r2,  12(sp)
  2c:	d8800315 	stw	r2,12(sp)
        stw   r3,  16(sp)
  30:	d8c00415 	stw	r3,16(sp)
        stw   r4,  20(sp)
  34:	d9000515 	stw	r4,20(sp)
        stw   r5,  24(sp)
  38:	d9400615 	stw	r5,24(sp)
        stw   r6,  28(sp)
  3c:	d9800715 	stw	r6,28(sp)
        stw   r7,  32(sp)
  40:	d9c00815 	stw	r7,32(sp)

        rdctl r5, estatus
  44:	000b307a 	rdctl	r5,estatus

        stw   r8,  36(sp)
  48:	da000915 	stw	r8,36(sp)
        stw   r9,  40(sp)
  4c:	da400a15 	stw	r9,40(sp)
        stw   r10, 44(sp)
  50:	da800b15 	stw	r10,44(sp)
        stw   r11, 48(sp)
  54:	dac00c15 	stw	r11,48(sp)
        stw   r12, 52(sp)
  58:	db000d15 	stw	r12,52(sp)
        stw   r13, 56(sp)
  5c:	db400e15 	stw	r13,56(sp)
        stw   r14, 60(sp)
  60:	db800f15 	stw	r14,60(sp)
        stw   r15, 64(sp)
  64:	dbc01015 	stw	r15,64(sp)
        /*
         * ea-4 contains the address of the instruction being executed
         * when the exception occured. For interrupt exceptions, we will
         * will be re-issue the isntruction. Store it in 72(sp)
         */
        stw   r5,  68(sp)  /* estatus */
  68:	d9401115 	stw	r5,68(sp)
        addi  r15, ea, -4  /* instruction that caused exception */
  6c:	ebffff04 	addi	r15,ea,-4
        stw   r15,  72(sp)
  70:	dbc01215 	stw	r15,72(sp)
#else
        /*
         * Test to see if the exception was a software exception or caused 
         * by an external interrupt, and vector accordingly.
         */
        rdctl r4, ipending
  74:	0009313a 	rdctl	r4,ipending
        andi  r2, r5, 1
  78:	2880004c 	andi	r2,r5,1
        beq   r2, zero, .Lnot_irq
  7c:	10000326 	beq	r2,zero,8c <alt_exception+0x6c>
        beq   r4, zero, .Lnot_irq
  80:	20000226 	beq	r4,zero,8c <alt_exception+0x6c>
        /*
         * Now that all necessary registers have been preserved, call 
         * alt_irq_handler() to process the interrupts.
         */

        call alt_irq_handler
  84:	00000ec0 	call	ec <alt_irq_handler>

        .section .exceptions.irqreturn, "xa"

        br    .Lexception_exit
  88:	00000306 	br	98 <alt_exception+0x78>
         * upon completion, so we write ea (address of instruction *after*
         * the one where the exception occured) into 72(sp). The actual
         * instruction that caused the exception is written in r2, which these
         * handlers will utilize.
         */
        stw   ea,  72(sp)  /* Don't re-issue */
  8c:	df401215 	stw	ea,72(sp)
        ldw   r2, -4(ea)   /* Instruction that caused exception */
  90:	e8bfff17 	ldw	r2,-4(ea)
#ifdef NIOS2_HAS_DEBUG_STUB
       /*
        *  Either tell the user now (if there is a debugger attached) or go into
        *  the debug monitor which will loop until a debugger is attached.
        */
        break
  94:	003da03a 	break	0
        /* 
         * Restore the saved registers, so that all general purpose registers 
         * have been restored to their state at the time the interrupt occured.
         */

        ldw   r5,  68(sp)
  98:	d9401117 	ldw	r5,68(sp)
        ldw   ea,  72(sp)  /* This becomes the PC once eret is executed */
  9c:	df401217 	ldw	ea,72(sp)
        ldw   ra,   0(sp)
  a0:	dfc00017 	ldw	ra,0(sp)

        wrctl estatus, r5
  a4:	2801707a 	wrctl	estatus,r5

        ldw   r1,   8(sp)
  a8:	d8400217 	ldw	at,8(sp)
        ldw   r2,  12(sp)
  ac:	d8800317 	ldw	r2,12(sp)
        ldw   r3,  16(sp)
  b0:	d8c00417 	ldw	r3,16(sp)
        ldw   r4,  20(sp)
  b4:	d9000517 	ldw	r4,20(sp)
        ldw   r5,  24(sp)
  b8:	d9400617 	ldw	r5,24(sp)
        ldw   r6,  28(sp)
  bc:	d9800717 	ldw	r6,28(sp)
        ldw   r7,  32(sp)
  c0:	d9c00817 	ldw	r7,32(sp)
#ifdef ALT_STACK_CHECK
        ldw   et, %gprel(alt_exception_old_stack_limit)(gp)
#endif
#endif

        ldw   r8,  36(sp)
  c4:	da000917 	ldw	r8,36(sp)
        ldw   r9,  40(sp)
  c8:	da400a17 	ldw	r9,40(sp)
        ldw   r10, 44(sp)
  cc:	da800b17 	ldw	r10,44(sp)
        ldw   r11, 48(sp)
  d0:	dac00c17 	ldw	r11,48(sp)
        ldw   r12, 52(sp)
  d4:	db000d17 	ldw	r12,52(sp)
        ldw   r13, 56(sp)
  d8:	db400e17 	ldw	r13,56(sp)
        ldw   r14, 60(sp)
  dc:	db800f17 	ldw	r14,60(sp)
        ldw   r15, 64(sp)
  e0:	dbc01017 	ldw	r15,64(sp)
#endif

        ldw   sp,  76(sp)

#else
        addi  sp, sp, 76
  e4:	dec01304 	addi	sp,sp,76

        /*
         * Return to the interrupted instruction.
         */

        eret
  e8:	ef80083a 	eret

000000ec <alt_irq_handler>:
 * instruction is present if the macro ALT_CI_INTERRUPT_VECTOR defined.
 */

void alt_irq_handler (void) __attribute__ ((section (".exceptions")));
void alt_irq_handler (void)
{
  ec:	defff904 	addi	sp,sp,-28
  f0:	dfc00615 	stw	ra,24(sp)
  f4:	df000515 	stw	fp,20(sp)
  f8:	df000504 	addi	fp,sp,20
#ifndef NIOS2_EIC_PRESENT
static ALT_INLINE alt_u32 ALT_ALWAYS_INLINE alt_irq_pending (void)
{
  alt_u32 active;

  NIOS2_READ_IPENDING (active);
  fc:	0005313a 	rdctl	r2,ipending
 100:	e0bffc15 	stw	r2,-16(fp)

  return active;
 104:	e0bffc17 	ldw	r2,-16(fp)
   * Consider the case where the high priority interupt is asserted during
   * the interrupt entry sequence for a lower priority interrupt to see why
   * this is the case.
   */

  active = alt_irq_pending ();
 108:	e0bfff15 	stw	r2,-4(fp)

  do
  {
    i = 0;
 10c:	e03ffd15 	stw	zero,-12(fp)
    mask = 1;
 110:	00800044 	movi	r2,1
 114:	e0bffe15 	stw	r2,-8(fp)
     * called to clear the interrupt condition.
     */

    do
    {
      if (active & mask)
 118:	e0ffff17 	ldw	r3,-4(fp)
 11c:	e0bffe17 	ldw	r2,-8(fp)
 120:	1884703a 	and	r2,r3,r2
 124:	1005003a 	cmpeq	r2,r2,zero
 128:	1000161e 	bne	r2,zero,184 <alt_irq_handler+0x98>
      { 
#ifdef ALT_ENHANCED_INTERRUPT_API_PRESENT
        alt_irq[i].handler(alt_irq[i].context); 
 12c:	e0bffd17 	ldw	r2,-12(fp)
 130:	00c00074 	movhi	r3,1
 134:	18d85f04 	addi	r3,r3,24956
 138:	100490fa 	slli	r2,r2,3
 13c:	10c5883a 	add	r2,r2,r3
 140:	11400017 	ldw	r5,0(r2)
 144:	e0bffd17 	ldw	r2,-12(fp)
 148:	00c00074 	movhi	r3,1
 14c:	18d85f04 	addi	r3,r3,24956
 150:	100490fa 	slli	r2,r2,3
 154:	10c5883a 	add	r2,r2,r3
 158:	10800104 	addi	r2,r2,4
 15c:	11000017 	ldw	r4,0(r2)
 160:	283ee83a 	callr	r5
#ifndef NIOS2_EIC_PRESENT
static ALT_INLINE alt_u32 ALT_ALWAYS_INLINE alt_irq_pending (void)
{
  alt_u32 active;

  NIOS2_READ_IPENDING (active);
 164:	0005313a 	rdctl	r2,ipending
 168:	e0bffb15 	stw	r2,-20(fp)

  return active;
 16c:	e0bffb17 	ldw	r2,-20(fp)
      mask <<= 1;
      i++;

    } while (1);

    active = alt_irq_pending ();
 170:	e0bfff15 	stw	r2,-4(fp)
    
  } while (active);
 174:	e0bfff17 	ldw	r2,-4(fp)
 178:	1004c03a 	cmpne	r2,r2,zero
 17c:	103fe31e 	bne	r2,zero,10c <alt_irq_handler+0x20>
 180:	00000706 	br	1a0 <alt_irq_handler+0xb4>
#else
        alt_irq[i].handler(alt_irq[i].context, i); 
#endif
        break;
      }
      mask <<= 1;
 184:	e0bffe17 	ldw	r2,-8(fp)
 188:	1085883a 	add	r2,r2,r2
 18c:	e0bffe15 	stw	r2,-8(fp)
      i++;
 190:	e0bffd17 	ldw	r2,-12(fp)
 194:	10800044 	addi	r2,r2,1
 198:	e0bffd15 	stw	r2,-12(fp)

    } while (1);
 19c:	003fde06 	br	118 <alt_irq_handler+0x2c>
  /*
   * Notify the operating system that interrupt processing is complete.
   */ 

  ALT_OS_INT_EXIT();
}
 1a0:	e037883a 	mov	sp,fp
 1a4:	dfc00117 	ldw	ra,4(sp)
 1a8:	df000017 	ldw	fp,0(sp)
 1ac:	dec00204 	addi	sp,sp,8
 1b0:	f800283a 	ret

Disassembly of section .text:

000001b4 <_start>:

    /* Assume the data cache size is always a power of two. */
#if NIOS2_DCACHE_SIZE > 0x8000
    movhi r2, %hi(NIOS2_DCACHE_SIZE)
#else
    movui r2, NIOS2_DCACHE_SIZE
     1b4:	00820014 	movui	r2,2048
#endif

0:
    initd 0(r2)
     1b8:	10000033 	initd	0(r2)
    addi r2, r2, -NIOS2_DCACHE_LINE_SIZE
     1bc:	10bff804 	addi	r2,r2,-32
    bgt r2, zero, 0b
     1c0:	00bffd16 	blt	zero,r2,1b8 <_start+0x4>
#if (NIOS2_NUM_OF_SHADOW_REG_SETS == 0)    
    /*
     * Now that the caches are initialized, set up the stack pointer.
     * The value provided by the linker is assumed to be correctly aligned.
     */
    movhi sp, %hi(__alt_stack_pointer)
     1c4:	06c02034 	movhi	sp,128
    ori sp, sp, %lo(__alt_stack_pointer)
     1c8:	dec00014 	ori	sp,sp,0

    /* Set up the global pointer. */
    movhi gp, %hi(_gp)
     1cc:	06800074 	movhi	gp,1
    ori gp, gp, %lo(_gp)
     1d0:	d6b15214 	ori	gp,gp,50504
 */
#ifndef ALT_SIM_OPTIMIZE
    /* Log that the BSS is about to be cleared. */
    ALT_LOG_PUTS(alt_log_msg_bss)

    movhi r2, %hi(__bss_start)
     1d4:	00800074 	movhi	r2,1
    ori r2, r2, %lo(__bss_start)
     1d8:	10980514 	ori	r2,r2,24596

    movhi r3, %hi(__bss_end)
     1dc:	00c00074 	movhi	r3,1
    ori r3, r3, %lo(__bss_end)
     1e0:	18d90314 	ori	r3,r3,25612

    beq r2, r3, 1f
     1e4:	10c00326 	beq	r2,r3,1f4 <_start+0x40>

0:
    stw zero, (r2)
     1e8:	10000015 	stw	zero,0(r2)
    addi r2, r2, 4
     1ec:	10800104 	addi	r2,r2,4
    bltu r2, r3, 0b
     1f0:	10fffd36 	bltu	r2,r3,1e8 <_start+0x34>
     * section aren't defined until alt_load() has been called).
     */
    mov   et, zero
#endif

    call alt_load
     1f4:	000fbfc0 	call	fbfc <alt_load>

    /* Log that alt_main is about to be called. */
    ALT_LOG_PUTS(alt_log_msg_alt_main)

    /* Call the C entry point. It should never return. */
    call alt_main
     1f8:	000fe380 	call	fe38 <alt_main>

000001fc <alt_after_alt_main>:

    /* Wait in infinite loop in case alt_main does return. */
alt_after_alt_main:
    br alt_after_alt_main
     1fc:	003fff06 	br	1fc <alt_after_alt_main>

00000200 <main>:
/**
 * main will run the serial command line input to get information from user
 * and enact the commands.
 * @return does not actually return (infinite loop)
 */
int main(){
     200:	deffd304 	addi	sp,sp,-180
     204:	dfc02c15 	stw	ra,176(sp)
     208:	df002b15 	stw	fp,172(sp)
     20c:	df002b04 	addi	fp,sp,172
	//setup command list
	cmd_generateList();
     210:	00005900 	call	590 <cmd_generateList>
     214:	00000006 	br	218 <main+0x18>

	//run input loop from serial input to command the controller
	while(1){

		//print prompt to the user for next command
		serial_printStr("\nEnter Command:");
     218:	01000074 	movhi	r4,1
     21c:	2108ee04 	addi	r4,r4,9144
     220:	00008b40 	call	8b4 <serial_printStr>

		//block until string entered
		serial_readStr(inputStr, sizeof inputStr);
     224:	e13fd804 	addi	r4,fp,-160
     228:	01401404 	movi	r5,80
     22c:	00008ec0 	call	8ec <serial_readStr>

		//parse for command
		int matched = sscanf(inputStr,"%s",cmdStr);
     230:	e13fd804 	addi	r4,fp,-160
     234:	e1bfec04 	addi	r6,fp,-80
     238:	01400074 	movhi	r5,1
     23c:	2948f204 	addi	r5,r5,9160
     240:	0001c940 	call	1c94 <sscanf>
     244:	e0bfd715 	stw	r2,-164(fp)
		if(matched != EOF){
     248:	e0bfd717 	ldw	r2,-164(fp)
     24c:	10bfffe0 	cmpeqi	r2,r2,-1
     250:	103ff11e 	bne	r2,zero,218 <main+0x18>
			//search command list for match
			int commandFoundFlag = 0;
     254:	e03fd615 	stw	zero,-168(fp)
			int i; for(i = 0; i < NUMBER_OF_COMMANDS;++i){
     258:	e03fd515 	stw	zero,-172(fp)
     25c:	00001b06 	br	2cc <main+0xcc>
				if(strcmp(cmdStr,commandList[i]->name)==0){
     260:	e0bfd517 	ldw	r2,-172(fp)
     264:	00c00074 	movhi	r3,1
     268:	18d81204 	addi	r3,r3,24648
     26c:	1085883a 	add	r2,r2,r2
     270:	1085883a 	add	r2,r2,r2
     274:	10c5883a 	add	r2,r2,r3
     278:	10800017 	ldw	r2,0(r2)
     27c:	11400017 	ldw	r5,0(r2)
     280:	e13fec04 	addi	r4,fp,-80
     284:	0001fd40 	call	1fd4 <strcmp>
     288:	1004c03a 	cmpne	r2,r2,zero
     28c:	10000c1e 	bne	r2,zero,2c0 <main+0xc0>
					commandList[i]->cmdFnt(inputStr);
     290:	e0bfd517 	ldw	r2,-172(fp)
     294:	00c00074 	movhi	r3,1
     298:	18d81204 	addi	r3,r3,24648
     29c:	1085883a 	add	r2,r2,r2
     2a0:	1085883a 	add	r2,r2,r2
     2a4:	10c5883a 	add	r2,r2,r3
     2a8:	10800017 	ldw	r2,0(r2)
     2ac:	10800217 	ldw	r2,8(r2)
     2b0:	e13fd804 	addi	r4,fp,-160
     2b4:	103ee83a 	callr	r2
					commandFoundFlag = 1;
     2b8:	00800044 	movi	r2,1
     2bc:	e0bfd615 	stw	r2,-168(fp)
		//parse for command
		int matched = sscanf(inputStr,"%s",cmdStr);
		if(matched != EOF){
			//search command list for match
			int commandFoundFlag = 0;
			int i; for(i = 0; i < NUMBER_OF_COMMANDS;++i){
     2c0:	e0bfd517 	ldw	r2,-172(fp)
     2c4:	10800044 	addi	r2,r2,1
     2c8:	e0bfd515 	stw	r2,-172(fp)
     2cc:	e0bfd517 	ldw	r2,-172(fp)
     2d0:	108000d0 	cmplti	r2,r2,3
     2d4:	103fe21e 	bne	r2,zero,260 <main+0x60>
					commandFoundFlag = 1;
				}
			}

			//if command not found then print error message
			if(!commandFoundFlag){
     2d8:	e0bfd617 	ldw	r2,-168(fp)
     2dc:	1004c03a 	cmpne	r2,r2,zero
     2e0:	103fcd1e 	bne	r2,zero,218 <main+0x18>
				serial_printStr("Invalid Command.\n");
     2e4:	01000074 	movhi	r4,1
     2e8:	2108f304 	addi	r4,r4,9164
     2ec:	00008b40 	call	8b4 <serial_printStr>
			}
		}
	}
     2f0:	003fc906 	br	218 <main+0x18>

000002f4 <cmd_read>:

/**
 * Read Command Function
 * @param arg string to parse
 */
void cmd_read(char* arg){
     2f4:	defff804 	addi	sp,sp,-32
     2f8:	dfc00715 	stw	ra,28(sp)
     2fc:	df000615 	stw	fp,24(sp)
     300:	df000604 	addi	fp,sp,24
     304:	e13fff15 	stw	r4,-4(fp)
	char cmd[3];
	unsigned int address, count;
	int matched = sscanf(arg,"%s %x %x",cmd,&address,&count);
     308:	e1bffc04 	addi	r6,fp,-16
     30c:	e1fffd04 	addi	r7,fp,-12
     310:	e0bffe04 	addi	r2,fp,-8
     314:	d8800015 	stw	r2,0(sp)
     318:	e13fff17 	ldw	r4,-4(fp)
     31c:	01400074 	movhi	r5,1
     320:	2948f804 	addi	r5,r5,9184
     324:	0001c940 	call	1c94 <sscanf>
     328:	e0bffb15 	stw	r2,-20(fp)
	if(matched == 3){
     32c:	e0bffb17 	ldw	r2,-20(fp)
     330:	108000d8 	cmpnei	r2,r2,3
     334:	1000041e 	bne	r2,zero,348 <cmd_read+0x54>
		//Read multiple
		memmgr_printMem(address,count);
     338:	e13ffd17 	ldw	r4,-12(fp)
     33c:	e17ffe17 	ldw	r5,-8(fp)
     340:	00005e80 	call	5e8 <memmgr_printMem>
     344:	00000a06 	br	370 <cmd_read+0x7c>
	}else if(matched == 2){
     348:	e0bffb17 	ldw	r2,-20(fp)
     34c:	10800098 	cmpnei	r2,r2,2
     350:	1000041e 	bne	r2,zero,364 <cmd_read+0x70>
		//Read single
		memmgr_printMem(address,1);
     354:	e13ffd17 	ldw	r4,-12(fp)
     358:	01400044 	movi	r5,1
     35c:	00005e80 	call	5e8 <memmgr_printMem>
     360:	00000306 	br	370 <cmd_read+0x7c>
	}else{
		serial_printStr("Invalid RR Command Structure.\n");
     364:	01000074 	movhi	r4,1
     368:	2108fb04 	addi	r4,r4,9196
     36c:	00008b40 	call	8b4 <serial_printStr>
	}
}
     370:	e037883a 	mov	sp,fp
     374:	dfc00117 	ldw	ra,4(sp)
     378:	df000017 	ldw	fp,0(sp)
     37c:	dec00204 	addi	sp,sp,8
     380:	f800283a 	ret

00000384 <cmd_write>:

/**
 * Write Command Function
 * @param arg string to parse
 */
void cmd_write(char* arg){
     384:	defff804 	addi	sp,sp,-32
     388:	dfc00715 	stw	ra,28(sp)
     38c:	df000615 	stw	fp,24(sp)
     390:	df000604 	addi	fp,sp,24
     394:	e13fff15 	stw	r4,-4(fp)
	char cmd[3];
	unsigned int address, value;
	int matched = sscanf(arg,"%s %x %x",cmd,&address,&value);
     398:	e1bffc04 	addi	r6,fp,-16
     39c:	e1fffd04 	addi	r7,fp,-12
     3a0:	e0bffe04 	addi	r2,fp,-8
     3a4:	d8800015 	stw	r2,0(sp)
     3a8:	e13fff17 	ldw	r4,-4(fp)
     3ac:	01400074 	movhi	r5,1
     3b0:	2948f804 	addi	r5,r5,9184
     3b4:	0001c940 	call	1c94 <sscanf>
     3b8:	e0bffb15 	stw	r2,-20(fp)
	if(matched == 3){
     3bc:	e0bffb17 	ldw	r2,-20(fp)
     3c0:	108000d8 	cmpnei	r2,r2,3
     3c4:	1000051e 	bne	r2,zero,3dc <cmd_write+0x58>
		//Write Byte
		memmgr_writeByte(address,value);
     3c8:	e13ffd17 	ldw	r4,-12(fp)
     3cc:	e0bffe17 	ldw	r2,-8(fp)
     3d0:	11403fcc 	andi	r5,r2,255
     3d4:	000087c0 	call	87c <memmgr_writeByte>
     3d8:	00000306 	br	3e8 <cmd_write+0x64>
	}else{
		serial_printStr("Invalid WR Command Structure.\n");
     3dc:	01000074 	movhi	r4,1
     3e0:	21090304 	addi	r4,r4,9228
     3e4:	00008b40 	call	8b4 <serial_printStr>
	}
}
     3e8:	e037883a 	mov	sp,fp
     3ec:	dfc00117 	ldw	ra,4(sp)
     3f0:	df000017 	ldw	fp,0(sp)
     3f4:	dec00204 	addi	sp,sp,8
     3f8:	f800283a 	ret

000003fc <cmd_help>:

/**
 * Help Command Function
 * @param arg string to parse
 */
void cmd_help(char* arg){
     3fc:	deffe404 	addi	sp,sp,-112
     400:	dfc01b15 	stw	ra,108(sp)
     404:	df001a15 	stw	fp,104(sp)
     408:	df001a04 	addi	fp,sp,104
     40c:	e13fff15 	stw	r4,-4(fp)
	char cmd[5];
	char otherStr[80]; //large to prevent failure of size

	//parse string for HELP <command> or HELP
	int matched = sscanf(arg,"%s %s",cmd,otherStr);
     410:	e1bfe904 	addi	r6,fp,-92
     414:	e1ffea44 	addi	r7,fp,-87
     418:	e13fff17 	ldw	r4,-4(fp)
     41c:	01400074 	movhi	r5,1
     420:	29490b04 	addi	r5,r5,9260
     424:	0001c940 	call	1c94 <sscanf>
     428:	e0bfe815 	stw	r2,-96(fp)
	if(matched == 2){
     42c:	e0bfe817 	ldw	r2,-96(fp)
     430:	10800098 	cmpnei	r2,r2,2
     434:	10004d1e 	bne	r2,zero,56c <cmd_help+0x170>
		//check for all parameter
		if(strcmp(otherStr,"ALL") == 0){
     438:	e13fea44 	addi	r4,fp,-87
     43c:	01400074 	movhi	r5,1
     440:	29490d04 	addi	r5,r5,9268
     444:	0001fd40 	call	1fd4 <strcmp>
     448:	1004c03a 	cmpne	r2,r2,zero
     44c:	1000211e 	bne	r2,zero,4d4 <cmd_help+0xd8>
			int i; for(i = 0; i < NUMBER_OF_COMMANDS; ++i){
     450:	e03fe715 	stw	zero,-100(fp)
     454:	00001b06 	br	4c4 <cmd_help+0xc8>
				serial_printStr(commandList[i]->name);
     458:	e0bfe717 	ldw	r2,-100(fp)
     45c:	00c00074 	movhi	r3,1
     460:	18d81204 	addi	r3,r3,24648
     464:	1085883a 	add	r2,r2,r2
     468:	1085883a 	add	r2,r2,r2
     46c:	10c5883a 	add	r2,r2,r3
     470:	10800017 	ldw	r2,0(r2)
     474:	11000017 	ldw	r4,0(r2)
     478:	00008b40 	call	8b4 <serial_printStr>
				serial_printStr(":\n");
     47c:	01000074 	movhi	r4,1
     480:	21090e04 	addi	r4,r4,9272
     484:	00008b40 	call	8b4 <serial_printStr>
				serial_printStr(commandList[i]->helpInfo);
     488:	e0bfe717 	ldw	r2,-100(fp)
     48c:	00c00074 	movhi	r3,1
     490:	18d81204 	addi	r3,r3,24648
     494:	1085883a 	add	r2,r2,r2
     498:	1085883a 	add	r2,r2,r2
     49c:	10c5883a 	add	r2,r2,r3
     4a0:	10800017 	ldw	r2,0(r2)
     4a4:	11000117 	ldw	r4,4(r2)
     4a8:	00008b40 	call	8b4 <serial_printStr>
				serial_printStr("\n");
     4ac:	01000074 	movhi	r4,1
     4b0:	21090f04 	addi	r4,r4,9276
     4b4:	00008b40 	call	8b4 <serial_printStr>
	//parse string for HELP <command> or HELP
	int matched = sscanf(arg,"%s %s",cmd,otherStr);
	if(matched == 2){
		//check for all parameter
		if(strcmp(otherStr,"ALL") == 0){
			int i; for(i = 0; i < NUMBER_OF_COMMANDS; ++i){
     4b8:	e0bfe717 	ldw	r2,-100(fp)
     4bc:	10800044 	addi	r2,r2,1
     4c0:	e0bfe715 	stw	r2,-100(fp)
     4c4:	e0bfe717 	ldw	r2,-100(fp)
     4c8:	108000d0 	cmplti	r2,r2,3
     4cc:	103fe21e 	bne	r2,zero,458 <cmd_help+0x5c>
				serial_printStr(commandList[i]->name);
				serial_printStr(":\n");
				serial_printStr(commandList[i]->helpInfo);
				serial_printStr("\n");
			}
			return;
     4d0:	00002a06 	br	57c <cmd_help+0x180>
		}else{
			//search list of commands for helpInfo and print
			int i; for(i = 0; i < NUMBER_OF_COMMANDS; ++i){
     4d4:	e03fe615 	stw	zero,-104(fp)
     4d8:	00001906 	br	540 <cmd_help+0x144>
				if(strcmp(otherStr,commandList[i]->name)==0){
     4dc:	e0bfe617 	ldw	r2,-104(fp)
     4e0:	00c00074 	movhi	r3,1
     4e4:	18d81204 	addi	r3,r3,24648
     4e8:	1085883a 	add	r2,r2,r2
     4ec:	1085883a 	add	r2,r2,r2
     4f0:	10c5883a 	add	r2,r2,r3
     4f4:	10800017 	ldw	r2,0(r2)
     4f8:	11400017 	ldw	r5,0(r2)
     4fc:	e13fea44 	addi	r4,fp,-87
     500:	0001fd40 	call	1fd4 <strcmp>
     504:	1004c03a 	cmpne	r2,r2,zero
     508:	10000a1e 	bne	r2,zero,534 <cmd_help+0x138>
					serial_printStr(commandList[i]->helpInfo);
     50c:	e0bfe617 	ldw	r2,-104(fp)
     510:	00c00074 	movhi	r3,1
     514:	18d81204 	addi	r3,r3,24648
     518:	1085883a 	add	r2,r2,r2
     51c:	1085883a 	add	r2,r2,r2
     520:	10c5883a 	add	r2,r2,r3
     524:	10800017 	ldw	r2,0(r2)
     528:	11000117 	ldw	r4,4(r2)
     52c:	00008b40 	call	8b4 <serial_printStr>
					return; //ends early as the item was found
     530:	00001206 	br	57c <cmd_help+0x180>
				serial_printStr("\n");
			}
			return;
		}else{
			//search list of commands for helpInfo and print
			int i; for(i = 0; i < NUMBER_OF_COMMANDS; ++i){
     534:	e0bfe617 	ldw	r2,-104(fp)
     538:	10800044 	addi	r2,r2,1
     53c:	e0bfe615 	stw	r2,-104(fp)
     540:	e0bfe617 	ldw	r2,-104(fp)
     544:	108000d0 	cmplti	r2,r2,3
     548:	103fe41e 	bne	r2,zero,4dc <cmd_help+0xe0>
				}
			}
		}

		//did not find command.
		serial_printStr("Command ");
     54c:	01000074 	movhi	r4,1
     550:	21091004 	addi	r4,r4,9280
     554:	00008b40 	call	8b4 <serial_printStr>
		serial_printStr(otherStr);
     558:	e13fea44 	addi	r4,fp,-87
     55c:	00008b40 	call	8b4 <serial_printStr>
		serial_printStr(" is not valid.\n");
     560:	01000074 	movhi	r4,1
     564:	21091304 	addi	r4,r4,9292
     568:	00008b40 	call	8b4 <serial_printStr>
	}

	//print its own help info
	serial_printStr(HELP.helpInfo);
     56c:	00800074 	movhi	r2,1
     570:	1088eb04 	addi	r2,r2,9132
     574:	11000117 	ldw	r4,4(r2)
     578:	00008b40 	call	8b4 <serial_printStr>
}
     57c:	e037883a 	mov	sp,fp
     580:	dfc00117 	ldw	ra,4(sp)
     584:	df000017 	ldw	fp,0(sp)
     588:	dec00204 	addi	sp,sp,8
     58c:	f800283a 	ret

00000590 <cmd_generateList>:

/**
 * Generates the list of commands in an array of pointers so that commands
 * can be looked up based on their name when parsed.
 */
void cmd_generateList(){
     590:	deffff04 	addi	sp,sp,-4
     594:	df000015 	stw	fp,0(sp)
     598:	d839883a 	mov	fp,sp
	//setup command list
	commandList[0] = &RR;
     59c:	00c00074 	movhi	r3,1
     5a0:	18d81204 	addi	r3,r3,24648
     5a4:	00800074 	movhi	r2,1
     5a8:	1088c004 	addi	r2,r2,8960
     5ac:	18800015 	stw	r2,0(r3)
	commandList[1] = &WR;
     5b0:	00c00074 	movhi	r3,1
     5b4:	18d81204 	addi	r3,r3,24648
     5b8:	00800074 	movhi	r2,1
     5bc:	1088d204 	addi	r2,r2,9032
     5c0:	18800115 	stw	r2,4(r3)
	commandList[2] = &HELP;
     5c4:	00c00074 	movhi	r3,1
     5c8:	18d81204 	addi	r3,r3,24648
     5cc:	00800074 	movhi	r2,1
     5d0:	1088eb04 	addi	r2,r2,9132
     5d4:	18800215 	stw	r2,8(r3)
}
     5d8:	e037883a 	mov	sp,fp
     5dc:	df000017 	ldw	fp,0(sp)
     5e0:	dec00104 	addi	sp,sp,4
     5e4:	f800283a 	ret

000005e8 <memmgr_printMem>:
/**
 * Prints out memory starting at the address for the count amount of bytes
 * @param address the address of memory to start printing
 * @param count the number of bytes to read and print
 */
void memmgr_printMem(unsigned int address, unsigned int count){
     5e8:	deffdf04 	addi	sp,sp,-132
     5ec:	dfc02015 	stw	ra,128(sp)
     5f0:	df001f15 	stw	fp,124(sp)
     5f4:	dc001e15 	stw	r16,120(sp)
     5f8:	df001e04 	addi	fp,sp,120
     5fc:	e13ffe15 	stw	r4,-8(fp)
     600:	e17fff15 	stw	r5,-4(fp)

	//sanity check count for valid specification
	if(count < 1){
     604:	e0bfff17 	ldw	r2,-4(fp)
     608:	1004c03a 	cmpne	r2,r2,zero
     60c:	1000041e 	bne	r2,zero,620 <memmgr_printMem+0x38>
		serial_printStr("Error - Invalid Number of Addresses Specified.\n");
     610:	01000074 	movhi	r4,1
     614:	21091704 	addi	r4,r4,9308
     618:	00008b40 	call	8b4 <serial_printStr>
		return; //error case so leave early
     61c:	00009106 	br	864 <memmgr_printMem+0x27c>
	}else if(address + count < address){
     620:	e0fffe17 	ldw	r3,-8(fp)
     624:	e0bfff17 	ldw	r2,-4(fp)
     628:	1887883a 	add	r3,r3,r2
     62c:	e0bffe17 	ldw	r2,-8(fp)
     630:	1880032e 	bgeu	r3,r2,640 <memmgr_printMem+0x58>
		serial_printStr("Warning - Address Overflow.\n");
     634:	01000074 	movhi	r4,1
     638:	21092304 	addi	r4,r4,9356
     63c:	00008b40 	call	8b4 <serial_printStr>
	//buffer allocation
	char buffer[80];
	char temp[12];

	//print header
	memset(buffer,'\0',sizeof buffer);
     640:	e0bfe704 	addi	r2,fp,-100
     644:	1009883a 	mov	r4,r2
     648:	01801404 	movi	r6,80
     64c:	000b883a 	mov	r5,zero
     650:	00017d00 	call	17d0 <memset>
	strcat(buffer,"  Base   :");
     654:	e43fe704 	addi	r16,fp,-100
     658:	e13fe704 	addi	r4,fp,-100
     65c:	000211c0 	call	211c <strlen>
     660:	8085883a 	add	r2,r16,r2
     664:	1007883a 	mov	r3,r2
     668:	00800804 	movi	r2,32
     66c:	18800005 	stb	r2,0(r3)
     670:	00800804 	movi	r2,32
     674:	18800045 	stb	r2,1(r3)
     678:	00801084 	movi	r2,66
     67c:	18800085 	stb	r2,2(r3)
     680:	00801844 	movi	r2,97
     684:	188000c5 	stb	r2,3(r3)
     688:	00801cc4 	movi	r2,115
     68c:	18800105 	stb	r2,4(r3)
     690:	00801944 	movi	r2,101
     694:	18800145 	stb	r2,5(r3)
     698:	00800804 	movi	r2,32
     69c:	18800185 	stb	r2,6(r3)
     6a0:	00800804 	movi	r2,32
     6a4:	188001c5 	stb	r2,7(r3)
     6a8:	00800804 	movi	r2,32
     6ac:	18800205 	stb	r2,8(r3)
     6b0:	00800e84 	movi	r2,58
     6b4:	18800245 	stb	r2,9(r3)
     6b8:	18000285 	stb	zero,10(r3)
	int i; for(i = 0; i < count && i < 16; ++i){
     6bc:	e03fe615 	stw	zero,-104(fp)
     6c0:	00000e06 	br	6fc <memmgr_printMem+0x114>
		*(temp+3) = '\0';
     6c4:	e0bffb04 	addi	r2,fp,-20
     6c8:	108000c4 	addi	r2,r2,3
     6cc:	10000005 	stb	zero,0(r2)
		sprintf(temp," +%x",i);
     6d0:	e13ffb04 	addi	r4,fp,-20
     6d4:	01400074 	movhi	r5,1
     6d8:	29492b04 	addi	r5,r5,9388
     6dc:	e1bfe617 	ldw	r6,-104(fp)
     6e0:	0001b300 	call	1b30 <sprintf>
		strcat(buffer,temp);
     6e4:	e13fe704 	addi	r4,fp,-100
     6e8:	e17ffb04 	addi	r5,fp,-20
     6ec:	0001e640 	call	1e64 <strcat>
	char temp[12];

	//print header
	memset(buffer,'\0',sizeof buffer);
	strcat(buffer,"  Base   :");
	int i; for(i = 0; i < count && i < 16; ++i){
     6f0:	e0bfe617 	ldw	r2,-104(fp)
     6f4:	10800044 	addi	r2,r2,1
     6f8:	e0bfe615 	stw	r2,-104(fp)
     6fc:	e0ffe617 	ldw	r3,-104(fp)
     700:	e0bfff17 	ldw	r2,-4(fp)
     704:	1880032e 	bgeu	r3,r2,714 <memmgr_printMem+0x12c>
     708:	e0bfe617 	ldw	r2,-104(fp)
     70c:	10800410 	cmplti	r2,r2,16
     710:	103fec1e 	bne	r2,zero,6c4 <memmgr_printMem+0xdc>
		*(temp+3) = '\0';
		sprintf(temp," +%x",i);
		strcat(buffer,temp);
	}
	strcat(buffer,"\n");
     714:	e13fe704 	addi	r4,fp,-100
     718:	01400074 	movhi	r5,1
     71c:	29490f04 	addi	r5,r5,9276
     720:	0001e640 	call	1e64 <strcat>
	serial_printStr(buffer);
     724:	e13fe704 	addi	r4,fp,-100
     728:	00008b40 	call	8b4 <serial_printStr>

	//print bytes as chunks of buffer
	int j; for(j = 0; j < (count - 1) / 16 + 1; ++j){
     72c:	e03fe515 	stw	zero,-108(fp)
     730:	00004306 	br	840 <memmgr_printMem+0x258>
		memset(buffer,'\0',sizeof buffer);
     734:	e0bfe704 	addi	r2,fp,-100
     738:	1009883a 	mov	r4,r2
     73c:	01801404 	movi	r6,80
     740:	000b883a 	mov	r5,zero
     744:	00017d00 	call	17d0 <memset>

		//print address
		*(temp+10) = '\0';
     748:	e0bffb04 	addi	r2,fp,-20
     74c:	10800284 	addi	r2,r2,10
     750:	10000005 	stb	zero,0(r2)
		sprintf(temp,"%08x :",address + j*16);
     754:	e0bfe517 	ldw	r2,-108(fp)
     758:	1004913a 	slli	r2,r2,4
     75c:	1007883a 	mov	r3,r2
     760:	e0bffe17 	ldw	r2,-8(fp)
     764:	188d883a 	add	r6,r3,r2
     768:	e13ffb04 	addi	r4,fp,-20
     76c:	01400074 	movhi	r5,1
     770:	29492d04 	addi	r5,r5,9396
     774:	0001b300 	call	1b30 <sprintf>
		strcat(buffer,temp);
     778:	e13fe704 	addi	r4,fp,-100
     77c:	e17ffb04 	addi	r5,fp,-20
     780:	0001e640 	call	1e64 <strcat>

		//print row or less if count
		int a; for(a = 0; a < 16 && a < (count - j * 16); ++a){
     784:	e03fe415 	stw	zero,-112(fp)
     788:	00001a06 	br	7f4 <memmgr_printMem+0x20c>
			unsigned int addr = address + j*16+a;
     78c:	e0bfe517 	ldw	r2,-108(fp)
     790:	1004913a 	slli	r2,r2,4
     794:	1007883a 	mov	r3,r2
     798:	e0bffe17 	ldw	r2,-8(fp)
     79c:	1887883a 	add	r3,r3,r2
     7a0:	e0bfe417 	ldw	r2,-112(fp)
     7a4:	1885883a 	add	r2,r3,r2
     7a8:	e0bfe315 	stw	r2,-116(fp)
			unsigned char val = *((unsigned char*)(addr | BYPASS_CACHE_FLAG));
     7ac:	e0bfe317 	ldw	r2,-116(fp)
     7b0:	10a00034 	orhi	r2,r2,32768
     7b4:	10800003 	ldbu	r2,0(r2)
     7b8:	e0bfe205 	stb	r2,-120(fp)
			*(temp+3) = '\0';
     7bc:	e0bffb04 	addi	r2,fp,-20
     7c0:	108000c4 	addi	r2,r2,3
     7c4:	10000005 	stb	zero,0(r2)
			sprintf(temp," %02x",val);
     7c8:	e1bfe203 	ldbu	r6,-120(fp)
     7cc:	e13ffb04 	addi	r4,fp,-20
     7d0:	01400074 	movhi	r5,1
     7d4:	29492f04 	addi	r5,r5,9404
     7d8:	0001b300 	call	1b30 <sprintf>
			strcat(buffer,temp);
     7dc:	e13fe704 	addi	r4,fp,-100
     7e0:	e17ffb04 	addi	r5,fp,-20
     7e4:	0001e640 	call	1e64 <strcat>
		*(temp+10) = '\0';
		sprintf(temp,"%08x :",address + j*16);
		strcat(buffer,temp);

		//print row or less if count
		int a; for(a = 0; a < 16 && a < (count - j * 16); ++a){
     7e8:	e0bfe417 	ldw	r2,-112(fp)
     7ec:	10800044 	addi	r2,r2,1
     7f0:	e0bfe415 	stw	r2,-112(fp)
     7f4:	e0bfe417 	ldw	r2,-112(fp)
     7f8:	10800408 	cmpgei	r2,r2,16
     7fc:	1000071e 	bne	r2,zero,81c <memmgr_printMem+0x234>
     800:	e13fe417 	ldw	r4,-112(fp)
     804:	e0bfe517 	ldw	r2,-108(fp)
     808:	1004913a 	slli	r2,r2,4
     80c:	1007883a 	mov	r3,r2
     810:	e0bfff17 	ldw	r2,-4(fp)
     814:	10c5c83a 	sub	r2,r2,r3
     818:	20bfdc36 	bltu	r4,r2,78c <memmgr_printMem+0x1a4>
			sprintf(temp," %02x",val);
			strcat(buffer,temp);
		}

		//send to serial device
		strcat(buffer,"\n");
     81c:	e13fe704 	addi	r4,fp,-100
     820:	01400074 	movhi	r5,1
     824:	29490f04 	addi	r5,r5,9276
     828:	0001e640 	call	1e64 <strcat>
		serial_printStr(buffer);
     82c:	e13fe704 	addi	r4,fp,-100
     830:	00008b40 	call	8b4 <serial_printStr>
	}
	strcat(buffer,"\n");
	serial_printStr(buffer);

	//print bytes as chunks of buffer
	int j; for(j = 0; j < (count - 1) / 16 + 1; ++j){
     834:	e0bfe517 	ldw	r2,-108(fp)
     838:	10800044 	addi	r2,r2,1
     83c:	e0bfe515 	stw	r2,-108(fp)
     840:	e0ffe517 	ldw	r3,-108(fp)
     844:	e0bfff17 	ldw	r2,-4(fp)
     848:	10bfffc4 	addi	r2,r2,-1
     84c:	1004d13a 	srli	r2,r2,4
     850:	10800044 	addi	r2,r2,1
     854:	18bfb736 	bltu	r3,r2,734 <memmgr_printMem+0x14c>
		strcat(buffer,"\n");
		serial_printStr(buffer);
	}

	//send final character to clean up display
	serial_printStr("\n");
     858:	01000074 	movhi	r4,1
     85c:	21090f04 	addi	r4,r4,9276
     860:	00008b40 	call	8b4 <serial_printStr>
}
     864:	e037883a 	mov	sp,fp
     868:	dfc00217 	ldw	ra,8(sp)
     86c:	df000117 	ldw	fp,4(sp)
     870:	dc000017 	ldw	r16,0(sp)
     874:	dec00304 	addi	sp,sp,12
     878:	f800283a 	ret

0000087c <memmgr_writeByte>:
/**
 * Writes a byte of data to the address specified. Bypasses the cache.
 * @param address Address of memory to write to
 * @param value byte of information to store
 */
void memmgr_writeByte(unsigned int address, unsigned char value){
     87c:	defffd04 	addi	sp,sp,-12
     880:	df000215 	stw	fp,8(sp)
     884:	df000204 	addi	fp,sp,8
     888:	e13ffe15 	stw	r4,-8(fp)
     88c:	e17fff05 	stb	r5,-4(fp)
	//always apply the store IO version of the instruction for immediate change
	// and store in original for memory required versions
	*((volatile unsigned char*)(address | BYPASS_CACHE_FLAG)) = value;
     890:	e0bffe17 	ldw	r2,-8(fp)
     894:	10a00034 	orhi	r2,r2,32768
     898:	1007883a 	mov	r3,r2
     89c:	e0bfff03 	ldbu	r2,-4(fp)
     8a0:	18800005 	stb	r2,0(r3)
}
     8a4:	e037883a 	mov	sp,fp
     8a8:	df000017 	ldw	fp,0(sp)
     8ac:	dec00104 	addi	sp,sp,4
     8b0:	f800283a 	ret

000008b4 <serial_printStr>:
 * Temporary serial function using the jtag_uart for debugging.
 * This function signature will be migrated to the UART module
 * in a later milestone.
 * @param str passes a string through the UART
 */
void serial_printStr(char* str){
     8b4:	defffd04 	addi	sp,sp,-12
     8b8:	dfc00215 	stw	ra,8(sp)
     8bc:	df000115 	stw	fp,4(sp)
     8c0:	df000104 	addi	fp,sp,4
     8c4:	e13fff15 	stw	r4,-4(fp)
	//todo replace with UART in future lab
	printf("%s",str);
     8c8:	01000074 	movhi	r4,1
     8cc:	2108f204 	addi	r4,r4,9160
     8d0:	e17fff17 	ldw	r5,-4(fp)
     8d4:	00018680 	call	1868 <printf>
}
     8d8:	e037883a 	mov	sp,fp
     8dc:	dfc00117 	ldw	ra,4(sp)
     8e0:	df000017 	ldw	fp,0(sp)
     8e4:	dec00204 	addi	sp,sp,8
     8e8:	f800283a 	ret

000008ec <serial_readStr>:
 * @param inputStr String buffer that will be filled by the
 *        function until either a new line character is
 *        received or length is reached.
 * @param length size of the buffer.
 */
void serial_readStr(char* inputStr, unsigned int length){
     8ec:	defffb04 	addi	sp,sp,-20
     8f0:	dfc00415 	stw	ra,16(sp)
     8f4:	df000315 	stw	fp,12(sp)
     8f8:	df000304 	addi	fp,sp,12
     8fc:	e13ffe15 	stw	r4,-8(fp)
     900:	e17fff15 	stw	r5,-4(fp)
	//todo replace with UART in future lab
	if(fgets(inputStr,length, stdin) != NULL){
     904:	e17fff17 	ldw	r5,-4(fp)
     908:	00800074 	movhi	r2,1
     90c:	10915204 	addi	r2,r2,17736
     910:	10800017 	ldw	r2,0(r2)
     914:	11800117 	ldw	r6,4(r2)
     918:	e13ffe17 	ldw	r4,-8(fp)
     91c:	0000aa80 	call	aa8 <fgets>
     920:	1005003a 	cmpeq	r2,r2,zero
     924:	1000091e 	bne	r2,zero,94c <serial_readStr+0x60>
		char* newline = strchr(inputStr,'\n');
     928:	e13ffe17 	ldw	r4,-8(fp)
     92c:	01400284 	movi	r5,10
     930:	0001ef40 	call	1ef4 <strchr>
     934:	e0bffd15 	stw	r2,-12(fp)
		if(newline != NULL){
     938:	e0bffd17 	ldw	r2,-12(fp)
     93c:	1005003a 	cmpeq	r2,r2,zero
     940:	1000021e 	bne	r2,zero,94c <serial_readStr+0x60>
			*newline = '\0';
     944:	e0bffd17 	ldw	r2,-12(fp)
     948:	10000005 	stb	zero,0(r2)
		}
	}
}
     94c:	e037883a 	mov	sp,fp
     950:	dfc00117 	ldw	ra,4(sp)
     954:	df000017 	ldw	fp,0(sp)
     958:	dec00204 	addi	sp,sp,8
     95c:	f800283a 	ret

00000960 <_fgets_r>:
     960:	defff804 	addi	sp,sp,-32
     964:	00800044 	movi	r2,1
     968:	dd800615 	stw	r22,24(sp)
     96c:	dd400515 	stw	r21,20(sp)
     970:	dc400115 	stw	r17,4(sp)
     974:	dc000015 	stw	r16,0(sp)
     978:	dfc00715 	stw	ra,28(sp)
     97c:	dd000415 	stw	r20,16(sp)
     980:	dcc00315 	stw	r19,12(sp)
     984:	dc800215 	stw	r18,8(sp)
     988:	3021883a 	mov	r16,r6
     98c:	282d883a 	mov	r22,r5
     990:	3823883a 	mov	r17,r7
     994:	202b883a 	mov	r21,r4
     998:	1180410e 	bge	r2,r6,aa0 <_fgets_r+0x140>
     99c:	20000226 	beq	r4,zero,9a8 <_fgets_r+0x48>
     9a0:	20800e17 	ldw	r2,56(r4)
     9a4:	10002e26 	beq	r2,zero,a60 <_fgets_r+0x100>
     9a8:	853fffc4 	addi	r20,r16,-1
     9ac:	b027883a 	mov	r19,r22
     9b0:	88800117 	ldw	r2,4(r17)
     9b4:	a809883a 	mov	r4,r21
     9b8:	880b883a 	mov	r5,r17
     9bc:	100d883a 	mov	r6,r2
     9c0:	1000031e 	bne	r2,zero,9d0 <_fgets_r+0x70>
     9c4:	00018e00 	call	18e0 <__srefill_r>
     9c8:	1000341e 	bne	r2,zero,a9c <_fgets_r+0x13c>
     9cc:	89800117 	ldw	r6,4(r17)
     9d0:	01400284 	movi	r5,10
     9d4:	3021883a 	mov	r16,r6
     9d8:	8c800017 	ldw	r18,0(r17)
     9dc:	a180012e 	bgeu	r20,r6,9e4 <_fgets_r+0x84>
     9e0:	a021883a 	mov	r16,r20
     9e4:	9009883a 	mov	r4,r18
     9e8:	800d883a 	mov	r6,r16
     9ec:	000164c0 	call	164c <memchr>
     9f0:	1007883a 	mov	r3,r2
     9f4:	900b883a 	mov	r5,r18
     9f8:	9809883a 	mov	r4,r19
     9fc:	800d883a 	mov	r6,r16
     a00:	1000191e 	bne	r2,zero,a68 <_fgets_r+0x108>
     a04:	88800117 	ldw	r2,4(r17)
     a08:	88c00017 	ldw	r3,0(r17)
     a0c:	9c27883a 	add	r19,r19,r16
     a10:	1405c83a 	sub	r2,r2,r16
     a14:	1c07883a 	add	r3,r3,r16
     a18:	88c00015 	stw	r3,0(r17)
     a1c:	88800115 	stw	r2,4(r17)
     a20:	00017300 	call	1730 <memcpy>
     a24:	a407c83a 	sub	r3,r20,r16
     a28:	1829883a 	mov	r20,r3
     a2c:	183fe01e 	bne	r3,zero,9b0 <_fgets_r+0x50>
     a30:	98000005 	stb	zero,0(r19)
     a34:	b005883a 	mov	r2,r22
     a38:	dfc00717 	ldw	ra,28(sp)
     a3c:	dd800617 	ldw	r22,24(sp)
     a40:	dd400517 	ldw	r21,20(sp)
     a44:	dd000417 	ldw	r20,16(sp)
     a48:	dcc00317 	ldw	r19,12(sp)
     a4c:	dc800217 	ldw	r18,8(sp)
     a50:	dc400117 	ldw	r17,4(sp)
     a54:	dc000017 	ldw	r16,0(sp)
     a58:	dec00804 	addi	sp,sp,32
     a5c:	f800283a 	ret
     a60:	0000b340 	call	b34 <__sinit>
     a64:	003fd006 	br	9a8 <_fgets_r+0x48>
     a68:	88800117 	ldw	r2,4(r17)
     a6c:	18c00044 	addi	r3,r3,1
     a70:	1ca1c83a 	sub	r16,r3,r18
     a74:	1405c83a 	sub	r2,r2,r16
     a78:	800d883a 	mov	r6,r16
     a7c:	88c00015 	stw	r3,0(r17)
     a80:	88800115 	stw	r2,4(r17)
     a84:	900b883a 	mov	r5,r18
     a88:	9809883a 	mov	r4,r19
     a8c:	00017300 	call	1730 <memcpy>
     a90:	9c21883a 	add	r16,r19,r16
     a94:	80000005 	stb	zero,0(r16)
     a98:	003fe606 	br	a34 <_fgets_r+0xd4>
     a9c:	9dbfe41e 	bne	r19,r22,a30 <_fgets_r+0xd0>
     aa0:	002d883a 	mov	r22,zero
     aa4:	003fe306 	br	a34 <_fgets_r+0xd4>

00000aa8 <fgets>:
     aa8:	00800074 	movhi	r2,1
     aac:	10915204 	addi	r2,r2,17736
     ab0:	2013883a 	mov	r9,r4
     ab4:	11000017 	ldw	r4,0(r2)
     ab8:	2805883a 	mov	r2,r5
     abc:	300f883a 	mov	r7,r6
     ac0:	480b883a 	mov	r5,r9
     ac4:	100d883a 	mov	r6,r2
     ac8:	00009601 	jmpi	960 <_fgets_r>

00000acc <std>:
     acc:	00800034 	movhi	r2,0
     ad0:	10874604 	addi	r2,r2,7448
     ad4:	20800b15 	stw	r2,44(r4)
     ad8:	00800034 	movhi	r2,0
     adc:	10878104 	addi	r2,r2,7684
     ae0:	20800815 	stw	r2,32(r4)
     ae4:	00c00034 	movhi	r3,0
     ae8:	18c76204 	addi	r3,r3,7560
     aec:	00800034 	movhi	r2,0
     af0:	10874804 	addi	r2,r2,7456
     af4:	2140030d 	sth	r5,12(r4)
     af8:	2180038d 	sth	r6,14(r4)
     afc:	20c00915 	stw	r3,36(r4)
     b00:	20800a15 	stw	r2,40(r4)
     b04:	20000015 	stw	zero,0(r4)
     b08:	20000115 	stw	zero,4(r4)
     b0c:	20000215 	stw	zero,8(r4)
     b10:	20000415 	stw	zero,16(r4)
     b14:	20000515 	stw	zero,20(r4)
     b18:	20000615 	stw	zero,24(r4)
     b1c:	21000715 	stw	r4,28(r4)
     b20:	f800283a 	ret

00000b24 <__sfp_lock_acquire>:
     b24:	f800283a 	ret

00000b28 <__sfp_lock_release>:
     b28:	f800283a 	ret

00000b2c <__sinit_lock_acquire>:
     b2c:	f800283a 	ret

00000b30 <__sinit_lock_release>:
     b30:	f800283a 	ret

00000b34 <__sinit>:
     b34:	20800e17 	ldw	r2,56(r4)
     b38:	defffd04 	addi	sp,sp,-12
     b3c:	dc400115 	stw	r17,4(sp)
     b40:	dc000015 	stw	r16,0(sp)
     b44:	dfc00215 	stw	ra,8(sp)
     b48:	04400044 	movi	r17,1
     b4c:	01400104 	movi	r5,4
     b50:	000d883a 	mov	r6,zero
     b54:	2021883a 	mov	r16,r4
     b58:	2200bb04 	addi	r8,r4,748
     b5c:	200f883a 	mov	r7,r4
     b60:	10000526 	beq	r2,zero,b78 <__sinit+0x44>
     b64:	dfc00217 	ldw	ra,8(sp)
     b68:	dc400117 	ldw	r17,4(sp)
     b6c:	dc000017 	ldw	r16,0(sp)
     b70:	dec00304 	addi	sp,sp,12
     b74:	f800283a 	ret
     b78:	21000117 	ldw	r4,4(r4)
     b7c:	00800034 	movhi	r2,0
     b80:	10830604 	addi	r2,r2,3096
     b84:	00c000c4 	movi	r3,3
     b88:	80800f15 	stw	r2,60(r16)
     b8c:	80c0b915 	stw	r3,740(r16)
     b90:	8200ba15 	stw	r8,744(r16)
     b94:	84400e15 	stw	r17,56(r16)
     b98:	8000b815 	stw	zero,736(r16)
     b9c:	0000acc0 	call	acc <std>
     ba0:	81000217 	ldw	r4,8(r16)
     ba4:	880d883a 	mov	r6,r17
     ba8:	800f883a 	mov	r7,r16
     bac:	01400284 	movi	r5,10
     bb0:	0000acc0 	call	acc <std>
     bb4:	81000317 	ldw	r4,12(r16)
     bb8:	800f883a 	mov	r7,r16
     bbc:	01400484 	movi	r5,18
     bc0:	01800084 	movi	r6,2
     bc4:	dfc00217 	ldw	ra,8(sp)
     bc8:	dc400117 	ldw	r17,4(sp)
     bcc:	dc000017 	ldw	r16,0(sp)
     bd0:	dec00304 	addi	sp,sp,12
     bd4:	0000acc1 	jmpi	acc <std>

00000bd8 <__fp_lock>:
     bd8:	0005883a 	mov	r2,zero
     bdc:	f800283a 	ret

00000be0 <__fp_unlock>:
     be0:	0005883a 	mov	r2,zero
     be4:	f800283a 	ret

00000be8 <__fp_unlock_all>:
     be8:	00800074 	movhi	r2,1
     bec:	10915204 	addi	r2,r2,17736
     bf0:	11000017 	ldw	r4,0(r2)
     bf4:	01400034 	movhi	r5,0
     bf8:	2942f804 	addi	r5,r5,3040
     bfc:	0000e541 	jmpi	e54 <_fwalk>

00000c00 <__fp_lock_all>:
     c00:	00800074 	movhi	r2,1
     c04:	10915204 	addi	r2,r2,17736
     c08:	11000017 	ldw	r4,0(r2)
     c0c:	01400034 	movhi	r5,0
     c10:	2942f604 	addi	r5,r5,3032
     c14:	0000e541 	jmpi	e54 <_fwalk>

00000c18 <_cleanup_r>:
     c18:	01400034 	movhi	r5,0
     c1c:	295cce04 	addi	r5,r5,29496
     c20:	0000e541 	jmpi	e54 <_fwalk>

00000c24 <_cleanup>:
     c24:	00800074 	movhi	r2,1
     c28:	10915304 	addi	r2,r2,17740
     c2c:	11000017 	ldw	r4,0(r2)
     c30:	0000c181 	jmpi	c18 <_cleanup_r>

00000c34 <__sfmoreglue>:
     c34:	defffc04 	addi	sp,sp,-16
     c38:	dc400115 	stw	r17,4(sp)
     c3c:	2c401724 	muli	r17,r5,92
     c40:	dc800215 	stw	r18,8(sp)
     c44:	2825883a 	mov	r18,r5
     c48:	89400304 	addi	r5,r17,12
     c4c:	dc000015 	stw	r16,0(sp)
     c50:	dfc00315 	stw	ra,12(sp)
     c54:	0000f0c0 	call	f0c <_malloc_r>
     c58:	0021883a 	mov	r16,zero
     c5c:	880d883a 	mov	r6,r17
     c60:	000b883a 	mov	r5,zero
     c64:	10000626 	beq	r2,zero,c80 <__sfmoreglue+0x4c>
     c68:	11000304 	addi	r4,r2,12
     c6c:	14800115 	stw	r18,4(r2)
     c70:	10000015 	stw	zero,0(r2)
     c74:	11000215 	stw	r4,8(r2)
     c78:	1021883a 	mov	r16,r2
     c7c:	00017d00 	call	17d0 <memset>
     c80:	8005883a 	mov	r2,r16
     c84:	dfc00317 	ldw	ra,12(sp)
     c88:	dc800217 	ldw	r18,8(sp)
     c8c:	dc400117 	ldw	r17,4(sp)
     c90:	dc000017 	ldw	r16,0(sp)
     c94:	dec00404 	addi	sp,sp,16
     c98:	f800283a 	ret

00000c9c <__sfp>:
     c9c:	defffd04 	addi	sp,sp,-12
     ca0:	00800074 	movhi	r2,1
     ca4:	10915304 	addi	r2,r2,17740
     ca8:	dc000015 	stw	r16,0(sp)
     cac:	14000017 	ldw	r16,0(r2)
     cb0:	dc400115 	stw	r17,4(sp)
     cb4:	dfc00215 	stw	ra,8(sp)
     cb8:	80800e17 	ldw	r2,56(r16)
     cbc:	2023883a 	mov	r17,r4
     cc0:	10002626 	beq	r2,zero,d5c <__sfp+0xc0>
     cc4:	8400b804 	addi	r16,r16,736
     cc8:	80800117 	ldw	r2,4(r16)
     ccc:	81000217 	ldw	r4,8(r16)
     cd0:	10ffffc4 	addi	r3,r2,-1
     cd4:	18000916 	blt	r3,zero,cfc <__sfp+0x60>
     cd8:	2080030f 	ldh	r2,12(r4)
     cdc:	10000b26 	beq	r2,zero,d0c <__sfp+0x70>
     ce0:	017fffc4 	movi	r5,-1
     ce4:	00000206 	br	cf0 <__sfp+0x54>
     ce8:	2080030f 	ldh	r2,12(r4)
     cec:	10000726 	beq	r2,zero,d0c <__sfp+0x70>
     cf0:	18ffffc4 	addi	r3,r3,-1
     cf4:	21001704 	addi	r4,r4,92
     cf8:	197ffb1e 	bne	r3,r5,ce8 <__sfp+0x4c>
     cfc:	80800017 	ldw	r2,0(r16)
     d00:	10001926 	beq	r2,zero,d68 <__sfp+0xcc>
     d04:	1021883a 	mov	r16,r2
     d08:	003fef06 	br	cc8 <__sfp+0x2c>
     d0c:	00bfffc4 	movi	r2,-1
     d10:	00c00044 	movi	r3,1
     d14:	2080038d 	sth	r2,14(r4)
     d18:	20c0030d 	sth	r3,12(r4)
     d1c:	20000015 	stw	zero,0(r4)
     d20:	20000215 	stw	zero,8(r4)
     d24:	20000115 	stw	zero,4(r4)
     d28:	20000415 	stw	zero,16(r4)
     d2c:	20000515 	stw	zero,20(r4)
     d30:	20000615 	stw	zero,24(r4)
     d34:	20000c15 	stw	zero,48(r4)
     d38:	20000d15 	stw	zero,52(r4)
     d3c:	20001115 	stw	zero,68(r4)
     d40:	20001215 	stw	zero,72(r4)
     d44:	2005883a 	mov	r2,r4
     d48:	dfc00217 	ldw	ra,8(sp)
     d4c:	dc400117 	ldw	r17,4(sp)
     d50:	dc000017 	ldw	r16,0(sp)
     d54:	dec00304 	addi	sp,sp,12
     d58:	f800283a 	ret
     d5c:	8009883a 	mov	r4,r16
     d60:	0000b340 	call	b34 <__sinit>
     d64:	003fd706 	br	cc4 <__sfp+0x28>
     d68:	8809883a 	mov	r4,r17
     d6c:	01400104 	movi	r5,4
     d70:	0000c340 	call	c34 <__sfmoreglue>
     d74:	80800015 	stw	r2,0(r16)
     d78:	103fe21e 	bne	r2,zero,d04 <__sfp+0x68>
     d7c:	00800304 	movi	r2,12
     d80:	0009883a 	mov	r4,zero
     d84:	88800015 	stw	r2,0(r17)
     d88:	003fee06 	br	d44 <__sfp+0xa8>

00000d8c <_fwalk_reent>:
     d8c:	defff704 	addi	sp,sp,-36
     d90:	dcc00315 	stw	r19,12(sp)
     d94:	24c0b804 	addi	r19,r4,736
     d98:	dd800615 	stw	r22,24(sp)
     d9c:	dd400515 	stw	r21,20(sp)
     da0:	dfc00815 	stw	ra,32(sp)
     da4:	ddc00715 	stw	r23,28(sp)
     da8:	dd000415 	stw	r20,16(sp)
     dac:	dc800215 	stw	r18,8(sp)
     db0:	dc400115 	stw	r17,4(sp)
     db4:	dc000015 	stw	r16,0(sp)
     db8:	202b883a 	mov	r21,r4
     dbc:	282d883a 	mov	r22,r5
     dc0:	0000b240 	call	b24 <__sfp_lock_acquire>
     dc4:	98002126 	beq	r19,zero,e4c <_fwalk_reent+0xc0>
     dc8:	002f883a 	mov	r23,zero
     dcc:	9c800117 	ldw	r18,4(r19)
     dd0:	9c000217 	ldw	r16,8(r19)
     dd4:	90bfffc4 	addi	r2,r18,-1
     dd8:	10000d16 	blt	r2,zero,e10 <_fwalk_reent+0x84>
     ddc:	0023883a 	mov	r17,zero
     de0:	053fffc4 	movi	r20,-1
     de4:	8080030f 	ldh	r2,12(r16)
     de8:	8c400044 	addi	r17,r17,1
     dec:	10000626 	beq	r2,zero,e08 <_fwalk_reent+0x7c>
     df0:	8080038f 	ldh	r2,14(r16)
     df4:	800b883a 	mov	r5,r16
     df8:	a809883a 	mov	r4,r21
     dfc:	15000226 	beq	r2,r20,e08 <_fwalk_reent+0x7c>
     e00:	b03ee83a 	callr	r22
     e04:	b8aeb03a 	or	r23,r23,r2
     e08:	84001704 	addi	r16,r16,92
     e0c:	947ff51e 	bne	r18,r17,de4 <_fwalk_reent+0x58>
     e10:	9cc00017 	ldw	r19,0(r19)
     e14:	983fed1e 	bne	r19,zero,dcc <_fwalk_reent+0x40>
     e18:	0000b280 	call	b28 <__sfp_lock_release>
     e1c:	b805883a 	mov	r2,r23
     e20:	dfc00817 	ldw	ra,32(sp)
     e24:	ddc00717 	ldw	r23,28(sp)
     e28:	dd800617 	ldw	r22,24(sp)
     e2c:	dd400517 	ldw	r21,20(sp)
     e30:	dd000417 	ldw	r20,16(sp)
     e34:	dcc00317 	ldw	r19,12(sp)
     e38:	dc800217 	ldw	r18,8(sp)
     e3c:	dc400117 	ldw	r17,4(sp)
     e40:	dc000017 	ldw	r16,0(sp)
     e44:	dec00904 	addi	sp,sp,36
     e48:	f800283a 	ret
     e4c:	002f883a 	mov	r23,zero
     e50:	003ff106 	br	e18 <_fwalk_reent+0x8c>

00000e54 <_fwalk>:
     e54:	defff804 	addi	sp,sp,-32
     e58:	dcc00315 	stw	r19,12(sp)
     e5c:	24c0b804 	addi	r19,r4,736
     e60:	dd400515 	stw	r21,20(sp)
     e64:	dfc00715 	stw	ra,28(sp)
     e68:	dd800615 	stw	r22,24(sp)
     e6c:	dd000415 	stw	r20,16(sp)
     e70:	dc800215 	stw	r18,8(sp)
     e74:	dc400115 	stw	r17,4(sp)
     e78:	dc000015 	stw	r16,0(sp)
     e7c:	282b883a 	mov	r21,r5
     e80:	0000b240 	call	b24 <__sfp_lock_acquire>
     e84:	98001f26 	beq	r19,zero,f04 <_fwalk+0xb0>
     e88:	002d883a 	mov	r22,zero
     e8c:	9c800117 	ldw	r18,4(r19)
     e90:	9c000217 	ldw	r16,8(r19)
     e94:	90bfffc4 	addi	r2,r18,-1
     e98:	10000c16 	blt	r2,zero,ecc <_fwalk+0x78>
     e9c:	0023883a 	mov	r17,zero
     ea0:	053fffc4 	movi	r20,-1
     ea4:	8080030f 	ldh	r2,12(r16)
     ea8:	8c400044 	addi	r17,r17,1
     eac:	10000526 	beq	r2,zero,ec4 <_fwalk+0x70>
     eb0:	8080038f 	ldh	r2,14(r16)
     eb4:	8009883a 	mov	r4,r16
     eb8:	15000226 	beq	r2,r20,ec4 <_fwalk+0x70>
     ebc:	a83ee83a 	callr	r21
     ec0:	b0acb03a 	or	r22,r22,r2
     ec4:	84001704 	addi	r16,r16,92
     ec8:	947ff61e 	bne	r18,r17,ea4 <_fwalk+0x50>
     ecc:	9cc00017 	ldw	r19,0(r19)
     ed0:	983fee1e 	bne	r19,zero,e8c <_fwalk+0x38>
     ed4:	0000b280 	call	b28 <__sfp_lock_release>
     ed8:	b005883a 	mov	r2,r22
     edc:	dfc00717 	ldw	ra,28(sp)
     ee0:	dd800617 	ldw	r22,24(sp)
     ee4:	dd400517 	ldw	r21,20(sp)
     ee8:	dd000417 	ldw	r20,16(sp)
     eec:	dcc00317 	ldw	r19,12(sp)
     ef0:	dc800217 	ldw	r18,8(sp)
     ef4:	dc400117 	ldw	r17,4(sp)
     ef8:	dc000017 	ldw	r16,0(sp)
     efc:	dec00804 	addi	sp,sp,32
     f00:	f800283a 	ret
     f04:	002d883a 	mov	r22,zero
     f08:	003ff206 	br	ed4 <_fwalk+0x80>

00000f0c <_malloc_r>:
     f0c:	defff604 	addi	sp,sp,-40
     f10:	28c002c4 	addi	r3,r5,11
     f14:	00800584 	movi	r2,22
     f18:	dc800215 	stw	r18,8(sp)
     f1c:	dfc00915 	stw	ra,36(sp)
     f20:	df000815 	stw	fp,32(sp)
     f24:	ddc00715 	stw	r23,28(sp)
     f28:	dd800615 	stw	r22,24(sp)
     f2c:	dd400515 	stw	r21,20(sp)
     f30:	dd000415 	stw	r20,16(sp)
     f34:	dcc00315 	stw	r19,12(sp)
     f38:	dc400115 	stw	r17,4(sp)
     f3c:	dc000015 	stw	r16,0(sp)
     f40:	2025883a 	mov	r18,r4
     f44:	10c01236 	bltu	r2,r3,f90 <_malloc_r+0x84>
     f48:	04400404 	movi	r17,16
     f4c:	8940142e 	bgeu	r17,r5,fa0 <_malloc_r+0x94>
     f50:	00800304 	movi	r2,12
     f54:	0007883a 	mov	r3,zero
     f58:	90800015 	stw	r2,0(r18)
     f5c:	1805883a 	mov	r2,r3
     f60:	dfc00917 	ldw	ra,36(sp)
     f64:	df000817 	ldw	fp,32(sp)
     f68:	ddc00717 	ldw	r23,28(sp)
     f6c:	dd800617 	ldw	r22,24(sp)
     f70:	dd400517 	ldw	r21,20(sp)
     f74:	dd000417 	ldw	r20,16(sp)
     f78:	dcc00317 	ldw	r19,12(sp)
     f7c:	dc800217 	ldw	r18,8(sp)
     f80:	dc400117 	ldw	r17,4(sp)
     f84:	dc000017 	ldw	r16,0(sp)
     f88:	dec00a04 	addi	sp,sp,40
     f8c:	f800283a 	ret
     f90:	00bffe04 	movi	r2,-8
     f94:	18a2703a 	and	r17,r3,r2
     f98:	883fed16 	blt	r17,zero,f50 <_malloc_r+0x44>
     f9c:	897fec36 	bltu	r17,r5,f50 <_malloc_r+0x44>
     fa0:	9009883a 	mov	r4,r18
     fa4:	000fea40 	call	fea4 <__malloc_lock>
     fa8:	00807dc4 	movi	r2,503
     fac:	14402b2e 	bgeu	r2,r17,105c <_malloc_r+0x150>
     fb0:	8806d27a 	srli	r3,r17,9
     fb4:	18003f1e 	bne	r3,zero,10b4 <_malloc_r+0x1a8>
     fb8:	880cd0fa 	srli	r6,r17,3
     fbc:	300490fa 	slli	r2,r6,3
     fc0:	02c00074 	movhi	r11,1
     fc4:	5acbc104 	addi	r11,r11,12036
     fc8:	12cb883a 	add	r5,r2,r11
     fcc:	2c000317 	ldw	r16,12(r5)
     fd0:	580f883a 	mov	r7,r11
     fd4:	2c00041e 	bne	r5,r16,fe8 <_malloc_r+0xdc>
     fd8:	00000a06 	br	1004 <_malloc_r+0xf8>
     fdc:	1800860e 	bge	r3,zero,11f8 <_malloc_r+0x2ec>
     fe0:	84000317 	ldw	r16,12(r16)
     fe4:	2c000726 	beq	r5,r16,1004 <_malloc_r+0xf8>
     fe8:	80800117 	ldw	r2,4(r16)
     fec:	00ffff04 	movi	r3,-4
     ff0:	10c8703a 	and	r4,r2,r3
     ff4:	2447c83a 	sub	r3,r4,r17
     ff8:	008003c4 	movi	r2,15
     ffc:	10fff70e 	bge	r2,r3,fdc <_malloc_r+0xd0>
    1000:	31bfffc4 	addi	r6,r6,-1
    1004:	32400044 	addi	r9,r6,1
    1008:	02800074 	movhi	r10,1
    100c:	528bc304 	addi	r10,r10,12044
    1010:	54000217 	ldw	r16,8(r10)
    1014:	8280a026 	beq	r16,r10,1298 <_malloc_r+0x38c>
    1018:	80800117 	ldw	r2,4(r16)
    101c:	00ffff04 	movi	r3,-4
    1020:	10ca703a 	and	r5,r2,r3
    1024:	2c4dc83a 	sub	r6,r5,r17
    1028:	008003c4 	movi	r2,15
    102c:	11808316 	blt	r2,r6,123c <_malloc_r+0x330>
    1030:	52800315 	stw	r10,12(r10)
    1034:	52800215 	stw	r10,8(r10)
    1038:	30002916 	blt	r6,zero,10e0 <_malloc_r+0x1d4>
    103c:	8147883a 	add	r3,r16,r5
    1040:	18800117 	ldw	r2,4(r3)
    1044:	9009883a 	mov	r4,r18
    1048:	10800054 	ori	r2,r2,1
    104c:	18800115 	stw	r2,4(r3)
    1050:	000fec40 	call	fec4 <__malloc_unlock>
    1054:	80c00204 	addi	r3,r16,8
    1058:	003fc006 	br	f5c <_malloc_r+0x50>
    105c:	02c00074 	movhi	r11,1
    1060:	5acbc104 	addi	r11,r11,12036
    1064:	8ac5883a 	add	r2,r17,r11
    1068:	14000317 	ldw	r16,12(r2)
    106c:	580f883a 	mov	r7,r11
    1070:	8806d0fa 	srli	r3,r17,3
    1074:	14006c26 	beq	r2,r16,1228 <_malloc_r+0x31c>
    1078:	80c00117 	ldw	r3,4(r16)
    107c:	00bfff04 	movi	r2,-4
    1080:	81800317 	ldw	r6,12(r16)
    1084:	1886703a 	and	r3,r3,r2
    1088:	80c7883a 	add	r3,r16,r3
    108c:	18800117 	ldw	r2,4(r3)
    1090:	81400217 	ldw	r5,8(r16)
    1094:	9009883a 	mov	r4,r18
    1098:	10800054 	ori	r2,r2,1
    109c:	18800115 	stw	r2,4(r3)
    10a0:	31400215 	stw	r5,8(r6)
    10a4:	29800315 	stw	r6,12(r5)
    10a8:	000fec40 	call	fec4 <__malloc_unlock>
    10ac:	80c00204 	addi	r3,r16,8
    10b0:	003faa06 	br	f5c <_malloc_r+0x50>
    10b4:	00800104 	movi	r2,4
    10b8:	10c0052e 	bgeu	r2,r3,10d0 <_malloc_r+0x1c4>
    10bc:	00800504 	movi	r2,20
    10c0:	10c07836 	bltu	r2,r3,12a4 <_malloc_r+0x398>
    10c4:	198016c4 	addi	r6,r3,91
    10c8:	300490fa 	slli	r2,r6,3
    10cc:	003fbc06 	br	fc0 <_malloc_r+0xb4>
    10d0:	8804d1ba 	srli	r2,r17,6
    10d4:	11800e04 	addi	r6,r2,56
    10d8:	300490fa 	slli	r2,r6,3
    10dc:	003fb806 	br	fc0 <_malloc_r+0xb4>
    10e0:	00807fc4 	movi	r2,511
    10e4:	1140bb36 	bltu	r2,r5,13d4 <_malloc_r+0x4c8>
    10e8:	2806d0fa 	srli	r3,r5,3
    10ec:	573ffe04 	addi	fp,r10,-8
    10f0:	00800044 	movi	r2,1
    10f4:	180890fa 	slli	r4,r3,3
    10f8:	1807d0ba 	srai	r3,r3,2
    10fc:	e1c00117 	ldw	r7,4(fp)
    1100:	5909883a 	add	r4,r11,r4
    1104:	21400217 	ldw	r5,8(r4)
    1108:	10c4983a 	sll	r2,r2,r3
    110c:	81000315 	stw	r4,12(r16)
    1110:	81400215 	stw	r5,8(r16)
    1114:	388eb03a 	or	r7,r7,r2
    1118:	2c000315 	stw	r16,12(r5)
    111c:	24000215 	stw	r16,8(r4)
    1120:	e1c00115 	stw	r7,4(fp)
    1124:	4807883a 	mov	r3,r9
    1128:	4800cd16 	blt	r9,zero,1460 <_malloc_r+0x554>
    112c:	1807d0ba 	srai	r3,r3,2
    1130:	00800044 	movi	r2,1
    1134:	10c8983a 	sll	r4,r2,r3
    1138:	39004436 	bltu	r7,r4,124c <_malloc_r+0x340>
    113c:	21c4703a 	and	r2,r4,r7
    1140:	10000a1e 	bne	r2,zero,116c <_malloc_r+0x260>
    1144:	2109883a 	add	r4,r4,r4
    1148:	00bfff04 	movi	r2,-4
    114c:	4884703a 	and	r2,r9,r2
    1150:	3906703a 	and	r3,r7,r4
    1154:	12400104 	addi	r9,r2,4
    1158:	1800041e 	bne	r3,zero,116c <_malloc_r+0x260>
    115c:	2109883a 	add	r4,r4,r4
    1160:	3904703a 	and	r2,r7,r4
    1164:	4a400104 	addi	r9,r9,4
    1168:	103ffc26 	beq	r2,zero,115c <_malloc_r+0x250>
    116c:	480490fa 	slli	r2,r9,3
    1170:	4819883a 	mov	r12,r9
    1174:	023fff04 	movi	r8,-4
    1178:	589b883a 	add	r13,r11,r2
    117c:	6807883a 	mov	r3,r13
    1180:	014003c4 	movi	r5,15
    1184:	1c000317 	ldw	r16,12(r3)
    1188:	1c00041e 	bne	r3,r16,119c <_malloc_r+0x290>
    118c:	0000a706 	br	142c <_malloc_r+0x520>
    1190:	3000ab0e 	bge	r6,zero,1440 <_malloc_r+0x534>
    1194:	84000317 	ldw	r16,12(r16)
    1198:	1c00a426 	beq	r3,r16,142c <_malloc_r+0x520>
    119c:	80800117 	ldw	r2,4(r16)
    11a0:	1204703a 	and	r2,r2,r8
    11a4:	144dc83a 	sub	r6,r2,r17
    11a8:	29bff90e 	bge	r5,r6,1190 <_malloc_r+0x284>
    11ac:	81000317 	ldw	r4,12(r16)
    11b0:	80c00217 	ldw	r3,8(r16)
    11b4:	89400054 	ori	r5,r17,1
    11b8:	8445883a 	add	r2,r16,r17
    11bc:	20c00215 	stw	r3,8(r4)
    11c0:	19000315 	stw	r4,12(r3)
    11c4:	81400115 	stw	r5,4(r16)
    11c8:	1187883a 	add	r3,r2,r6
    11cc:	31000054 	ori	r4,r6,1
    11d0:	50800315 	stw	r2,12(r10)
    11d4:	50800215 	stw	r2,8(r10)
    11d8:	19800015 	stw	r6,0(r3)
    11dc:	11000115 	stw	r4,4(r2)
    11e0:	12800215 	stw	r10,8(r2)
    11e4:	12800315 	stw	r10,12(r2)
    11e8:	9009883a 	mov	r4,r18
    11ec:	000fec40 	call	fec4 <__malloc_unlock>
    11f0:	80c00204 	addi	r3,r16,8
    11f4:	003f5906 	br	f5c <_malloc_r+0x50>
    11f8:	8109883a 	add	r4,r16,r4
    11fc:	20800117 	ldw	r2,4(r4)
    1200:	80c00217 	ldw	r3,8(r16)
    1204:	81400317 	ldw	r5,12(r16)
    1208:	10800054 	ori	r2,r2,1
    120c:	20800115 	stw	r2,4(r4)
    1210:	28c00215 	stw	r3,8(r5)
    1214:	19400315 	stw	r5,12(r3)
    1218:	9009883a 	mov	r4,r18
    121c:	000fec40 	call	fec4 <__malloc_unlock>
    1220:	80c00204 	addi	r3,r16,8
    1224:	003f4d06 	br	f5c <_malloc_r+0x50>
    1228:	80800204 	addi	r2,r16,8
    122c:	14000317 	ldw	r16,12(r2)
    1230:	143f911e 	bne	r2,r16,1078 <_malloc_r+0x16c>
    1234:	1a400084 	addi	r9,r3,2
    1238:	003f7306 	br	1008 <_malloc_r+0xfc>
    123c:	88c00054 	ori	r3,r17,1
    1240:	8445883a 	add	r2,r16,r17
    1244:	80c00115 	stw	r3,4(r16)
    1248:	003fdf06 	br	11c8 <_malloc_r+0x2bc>
    124c:	e4000217 	ldw	r16,8(fp)
    1250:	00bfff04 	movi	r2,-4
    1254:	80c00117 	ldw	r3,4(r16)
    1258:	802d883a 	mov	r22,r16
    125c:	18aa703a 	and	r21,r3,r2
    1260:	ac401636 	bltu	r21,r17,12bc <_malloc_r+0x3b0>
    1264:	ac49c83a 	sub	r4,r21,r17
    1268:	008003c4 	movi	r2,15
    126c:	1100130e 	bge	r2,r4,12bc <_malloc_r+0x3b0>
    1270:	88800054 	ori	r2,r17,1
    1274:	8447883a 	add	r3,r16,r17
    1278:	80800115 	stw	r2,4(r16)
    127c:	20800054 	ori	r2,r4,1
    1280:	18800115 	stw	r2,4(r3)
    1284:	e0c00215 	stw	r3,8(fp)
    1288:	9009883a 	mov	r4,r18
    128c:	000fec40 	call	fec4 <__malloc_unlock>
    1290:	80c00204 	addi	r3,r16,8
    1294:	003f3106 	br	f5c <_malloc_r+0x50>
    1298:	39c00117 	ldw	r7,4(r7)
    129c:	573ffe04 	addi	fp,r10,-8
    12a0:	003fa006 	br	1124 <_malloc_r+0x218>
    12a4:	00801504 	movi	r2,84
    12a8:	10c06736 	bltu	r2,r3,1448 <_malloc_r+0x53c>
    12ac:	8804d33a 	srli	r2,r17,12
    12b0:	11801b84 	addi	r6,r2,110
    12b4:	300490fa 	slli	r2,r6,3
    12b8:	003f4106 	br	fc0 <_malloc_r+0xb4>
    12bc:	d0a6b317 	ldw	r2,-25908(gp)
    12c0:	d0e00317 	ldw	r3,-32756(gp)
    12c4:	053fffc4 	movi	r20,-1
    12c8:	10800404 	addi	r2,r2,16
    12cc:	88a7883a 	add	r19,r17,r2
    12d0:	1d000326 	beq	r3,r20,12e0 <_malloc_r+0x3d4>
    12d4:	98c3ffc4 	addi	r3,r19,4095
    12d8:	00bc0004 	movi	r2,-4096
    12dc:	18a6703a 	and	r19,r3,r2
    12e0:	9009883a 	mov	r4,r18
    12e4:	980b883a 	mov	r5,r19
    12e8:	0001ac00 	call	1ac0 <_sbrk_r>
    12ec:	1009883a 	mov	r4,r2
    12f0:	15000426 	beq	r2,r20,1304 <_malloc_r+0x3f8>
    12f4:	854b883a 	add	r5,r16,r21
    12f8:	1029883a 	mov	r20,r2
    12fc:	11405a2e 	bgeu	r2,r5,1468 <_malloc_r+0x55c>
    1300:	87000c26 	beq	r16,fp,1334 <_malloc_r+0x428>
    1304:	e4000217 	ldw	r16,8(fp)
    1308:	80c00117 	ldw	r3,4(r16)
    130c:	00bfff04 	movi	r2,-4
    1310:	1884703a 	and	r2,r3,r2
    1314:	14400336 	bltu	r2,r17,1324 <_malloc_r+0x418>
    1318:	1449c83a 	sub	r4,r2,r17
    131c:	008003c4 	movi	r2,15
    1320:	113fd316 	blt	r2,r4,1270 <_malloc_r+0x364>
    1324:	9009883a 	mov	r4,r18
    1328:	000fec40 	call	fec4 <__malloc_unlock>
    132c:	0007883a 	mov	r3,zero
    1330:	003f0a06 	br	f5c <_malloc_r+0x50>
    1334:	05c00074 	movhi	r23,1
    1338:	bdd81504 	addi	r23,r23,24660
    133c:	b8800017 	ldw	r2,0(r23)
    1340:	988d883a 	add	r6,r19,r2
    1344:	b9800015 	stw	r6,0(r23)
    1348:	d0e00317 	ldw	r3,-32756(gp)
    134c:	00bfffc4 	movi	r2,-1
    1350:	18808e26 	beq	r3,r2,158c <_malloc_r+0x680>
    1354:	2145c83a 	sub	r2,r4,r5
    1358:	3085883a 	add	r2,r6,r2
    135c:	b8800015 	stw	r2,0(r23)
    1360:	20c001cc 	andi	r3,r4,7
    1364:	18005f1e 	bne	r3,zero,14e4 <_malloc_r+0x5d8>
    1368:	000b883a 	mov	r5,zero
    136c:	a4c5883a 	add	r2,r20,r19
    1370:	1083ffcc 	andi	r2,r2,4095
    1374:	00c40004 	movi	r3,4096
    1378:	1887c83a 	sub	r3,r3,r2
    137c:	28e7883a 	add	r19,r5,r3
    1380:	9009883a 	mov	r4,r18
    1384:	980b883a 	mov	r5,r19
    1388:	0001ac00 	call	1ac0 <_sbrk_r>
    138c:	1007883a 	mov	r3,r2
    1390:	00bfffc4 	movi	r2,-1
    1394:	18807a26 	beq	r3,r2,1580 <_malloc_r+0x674>
    1398:	1d05c83a 	sub	r2,r3,r20
    139c:	9885883a 	add	r2,r19,r2
    13a0:	10c00054 	ori	r3,r2,1
    13a4:	b8800017 	ldw	r2,0(r23)
    13a8:	a021883a 	mov	r16,r20
    13ac:	a0c00115 	stw	r3,4(r20)
    13b0:	9885883a 	add	r2,r19,r2
    13b4:	b8800015 	stw	r2,0(r23)
    13b8:	e5000215 	stw	r20,8(fp)
    13bc:	b7003626 	beq	r22,fp,1498 <_malloc_r+0x58c>
    13c0:	018003c4 	movi	r6,15
    13c4:	35404b36 	bltu	r6,r21,14f4 <_malloc_r+0x5e8>
    13c8:	00800044 	movi	r2,1
    13cc:	a0800115 	stw	r2,4(r20)
    13d0:	003fcd06 	br	1308 <_malloc_r+0x3fc>
    13d4:	2808d27a 	srli	r4,r5,9
    13d8:	2000371e 	bne	r4,zero,14b8 <_malloc_r+0x5ac>
    13dc:	2808d0fa 	srli	r4,r5,3
    13e0:	200690fa 	slli	r3,r4,3
    13e4:	1ad1883a 	add	r8,r3,r11
    13e8:	41800217 	ldw	r6,8(r8)
    13ec:	41805b26 	beq	r8,r6,155c <_malloc_r+0x650>
    13f0:	30800117 	ldw	r2,4(r6)
    13f4:	00ffff04 	movi	r3,-4
    13f8:	10c4703a 	and	r2,r2,r3
    13fc:	2880022e 	bgeu	r5,r2,1408 <_malloc_r+0x4fc>
    1400:	31800217 	ldw	r6,8(r6)
    1404:	41bffa1e 	bne	r8,r6,13f0 <_malloc_r+0x4e4>
    1408:	32000317 	ldw	r8,12(r6)
    140c:	39c00117 	ldw	r7,4(r7)
    1410:	82000315 	stw	r8,12(r16)
    1414:	81800215 	stw	r6,8(r16)
    1418:	07000074 	movhi	fp,1
    141c:	e70bc104 	addi	fp,fp,12036
    1420:	34000315 	stw	r16,12(r6)
    1424:	44000215 	stw	r16,8(r8)
    1428:	003f3e06 	br	1124 <_malloc_r+0x218>
    142c:	63000044 	addi	r12,r12,1
    1430:	608000cc 	andi	r2,r12,3
    1434:	10005d26 	beq	r2,zero,15ac <_malloc_r+0x6a0>
    1438:	18c00204 	addi	r3,r3,8
    143c:	003f5106 	br	1184 <_malloc_r+0x278>
    1440:	8089883a 	add	r4,r16,r2
    1444:	003f6d06 	br	11fc <_malloc_r+0x2f0>
    1448:	00805504 	movi	r2,340
    144c:	10c02036 	bltu	r2,r3,14d0 <_malloc_r+0x5c4>
    1450:	8804d3fa 	srli	r2,r17,15
    1454:	11801dc4 	addi	r6,r2,119
    1458:	300490fa 	slli	r2,r6,3
    145c:	003ed806 	br	fc0 <_malloc_r+0xb4>
    1460:	48c000c4 	addi	r3,r9,3
    1464:	003f3106 	br	112c <_malloc_r+0x220>
    1468:	05c00074 	movhi	r23,1
    146c:	bdd81504 	addi	r23,r23,24660
    1470:	b8800017 	ldw	r2,0(r23)
    1474:	988d883a 	add	r6,r19,r2
    1478:	b9800015 	stw	r6,0(r23)
    147c:	293fb21e 	bne	r5,r4,1348 <_malloc_r+0x43c>
    1480:	2083ffcc 	andi	r2,r4,4095
    1484:	103fb01e 	bne	r2,zero,1348 <_malloc_r+0x43c>
    1488:	e4000217 	ldw	r16,8(fp)
    148c:	9d45883a 	add	r2,r19,r21
    1490:	10800054 	ori	r2,r2,1
    1494:	80800115 	stw	r2,4(r16)
    1498:	b8c00017 	ldw	r3,0(r23)
    149c:	d0a6b417 	ldw	r2,-25904(gp)
    14a0:	10c0012e 	bgeu	r2,r3,14a8 <_malloc_r+0x59c>
    14a4:	d0e6b415 	stw	r3,-25904(gp)
    14a8:	d0a6b517 	ldw	r2,-25900(gp)
    14ac:	10ff962e 	bgeu	r2,r3,1308 <_malloc_r+0x3fc>
    14b0:	d0e6b515 	stw	r3,-25900(gp)
    14b4:	003f9406 	br	1308 <_malloc_r+0x3fc>
    14b8:	00800104 	movi	r2,4
    14bc:	11001e36 	bltu	r2,r4,1538 <_malloc_r+0x62c>
    14c0:	2804d1ba 	srli	r2,r5,6
    14c4:	11000e04 	addi	r4,r2,56
    14c8:	200690fa 	slli	r3,r4,3
    14cc:	003fc506 	br	13e4 <_malloc_r+0x4d8>
    14d0:	00815504 	movi	r2,1364
    14d4:	10c01d2e 	bgeu	r2,r3,154c <_malloc_r+0x640>
    14d8:	01801f84 	movi	r6,126
    14dc:	0080fc04 	movi	r2,1008
    14e0:	003eb706 	br	fc0 <_malloc_r+0xb4>
    14e4:	00800204 	movi	r2,8
    14e8:	10cbc83a 	sub	r5,r2,r3
    14ec:	2169883a 	add	r20,r4,r5
    14f0:	003f9e06 	br	136c <_malloc_r+0x460>
    14f4:	00bffe04 	movi	r2,-8
    14f8:	a93ffd04 	addi	r4,r21,-12
    14fc:	2088703a 	and	r4,r4,r2
    1500:	b10b883a 	add	r5,r22,r4
    1504:	00c00144 	movi	r3,5
    1508:	28c00215 	stw	r3,8(r5)
    150c:	28c00115 	stw	r3,4(r5)
    1510:	b0800117 	ldw	r2,4(r22)
    1514:	1080004c 	andi	r2,r2,1
    1518:	2084b03a 	or	r2,r4,r2
    151c:	b0800115 	stw	r2,4(r22)
    1520:	313fdd2e 	bgeu	r6,r4,1498 <_malloc_r+0x58c>
    1524:	b1400204 	addi	r5,r22,8
    1528:	9009883a 	mov	r4,r18
    152c:	00078e40 	call	78e4 <_free_r>
    1530:	e4000217 	ldw	r16,8(fp)
    1534:	003fd806 	br	1498 <_malloc_r+0x58c>
    1538:	00800504 	movi	r2,20
    153c:	11001536 	bltu	r2,r4,1594 <_malloc_r+0x688>
    1540:	210016c4 	addi	r4,r4,91
    1544:	200690fa 	slli	r3,r4,3
    1548:	003fa606 	br	13e4 <_malloc_r+0x4d8>
    154c:	8804d4ba 	srli	r2,r17,18
    1550:	11801f04 	addi	r6,r2,124
    1554:	300490fa 	slli	r2,r6,3
    1558:	003e9906 	br	fc0 <_malloc_r+0xb4>
    155c:	2009d0ba 	srai	r4,r4,2
    1560:	01400074 	movhi	r5,1
    1564:	294bc104 	addi	r5,r5,12036
    1568:	00c00044 	movi	r3,1
    156c:	28800117 	ldw	r2,4(r5)
    1570:	1906983a 	sll	r3,r3,r4
    1574:	10c4b03a 	or	r2,r2,r3
    1578:	28800115 	stw	r2,4(r5)
    157c:	003fa306 	br	140c <_malloc_r+0x500>
    1580:	0027883a 	mov	r19,zero
    1584:	00c00044 	movi	r3,1
    1588:	003f8606 	br	13a4 <_malloc_r+0x498>
    158c:	d1200315 	stw	r4,-32756(gp)
    1590:	003f7306 	br	1360 <_malloc_r+0x454>
    1594:	00801504 	movi	r2,84
    1598:	11001936 	bltu	r2,r4,1600 <_malloc_r+0x6f4>
    159c:	2804d33a 	srli	r2,r5,12
    15a0:	11001b84 	addi	r4,r2,110
    15a4:	200690fa 	slli	r3,r4,3
    15a8:	003f8e06 	br	13e4 <_malloc_r+0x4d8>
    15ac:	480b883a 	mov	r5,r9
    15b0:	6807883a 	mov	r3,r13
    15b4:	288000cc 	andi	r2,r5,3
    15b8:	18fffe04 	addi	r3,r3,-8
    15bc:	297fffc4 	addi	r5,r5,-1
    15c0:	10001526 	beq	r2,zero,1618 <_malloc_r+0x70c>
    15c4:	18800217 	ldw	r2,8(r3)
    15c8:	10fffa26 	beq	r2,r3,15b4 <_malloc_r+0x6a8>
    15cc:	2109883a 	add	r4,r4,r4
    15d0:	393f1e36 	bltu	r7,r4,124c <_malloc_r+0x340>
    15d4:	203f1d26 	beq	r4,zero,124c <_malloc_r+0x340>
    15d8:	21c4703a 	and	r2,r4,r7
    15dc:	10000226 	beq	r2,zero,15e8 <_malloc_r+0x6dc>
    15e0:	6013883a 	mov	r9,r12
    15e4:	003ee106 	br	116c <_malloc_r+0x260>
    15e8:	2109883a 	add	r4,r4,r4
    15ec:	3904703a 	and	r2,r7,r4
    15f0:	63000104 	addi	r12,r12,4
    15f4:	103ffc26 	beq	r2,zero,15e8 <_malloc_r+0x6dc>
    15f8:	6013883a 	mov	r9,r12
    15fc:	003edb06 	br	116c <_malloc_r+0x260>
    1600:	00805504 	movi	r2,340
    1604:	11000836 	bltu	r2,r4,1628 <_malloc_r+0x71c>
    1608:	2804d3fa 	srli	r2,r5,15
    160c:	11001dc4 	addi	r4,r2,119
    1610:	200690fa 	slli	r3,r4,3
    1614:	003f7306 	br	13e4 <_malloc_r+0x4d8>
    1618:	0104303a 	nor	r2,zero,r4
    161c:	388e703a 	and	r7,r7,r2
    1620:	e1c00115 	stw	r7,4(fp)
    1624:	003fe906 	br	15cc <_malloc_r+0x6c0>
    1628:	00815504 	movi	r2,1364
    162c:	1100032e 	bgeu	r2,r4,163c <_malloc_r+0x730>
    1630:	01001f84 	movi	r4,126
    1634:	00c0fc04 	movi	r3,1008
    1638:	003f6a06 	br	13e4 <_malloc_r+0x4d8>
    163c:	2804d4ba 	srli	r2,r5,18
    1640:	11001f04 	addi	r4,r2,124
    1644:	200690fa 	slli	r3,r4,3
    1648:	003f6606 	br	13e4 <_malloc_r+0x4d8>

0000164c <memchr>:
    164c:	008000c4 	movi	r2,3
    1650:	29403fcc 	andi	r5,r5,255
    1654:	2007883a 	mov	r3,r4
    1658:	1180022e 	bgeu	r2,r6,1664 <memchr+0x18>
    165c:	2084703a 	and	r2,r4,r2
    1660:	10000b26 	beq	r2,zero,1690 <memchr+0x44>
    1664:	313fffc4 	addi	r4,r6,-1
    1668:	3000051e 	bne	r6,zero,1680 <memchr+0x34>
    166c:	00002c06 	br	1720 <memchr+0xd4>
    1670:	213fffc4 	addi	r4,r4,-1
    1674:	00bfffc4 	movi	r2,-1
    1678:	18c00044 	addi	r3,r3,1
    167c:	20802826 	beq	r4,r2,1720 <memchr+0xd4>
    1680:	18800003 	ldbu	r2,0(r3)
    1684:	28bffa1e 	bne	r5,r2,1670 <memchr+0x24>
    1688:	1805883a 	mov	r2,r3
    168c:	f800283a 	ret
    1690:	0011883a 	mov	r8,zero
    1694:	0007883a 	mov	r3,zero
    1698:	01c00104 	movi	r7,4
    169c:	4004923a 	slli	r2,r8,8
    16a0:	18c00044 	addi	r3,r3,1
    16a4:	1151883a 	add	r8,r2,r5
    16a8:	19fffc1e 	bne	r3,r7,169c <memchr+0x50>
    16ac:	02bfbff4 	movhi	r10,65279
    16b0:	52bfbfc4 	addi	r10,r10,-257
    16b4:	02602074 	movhi	r9,32897
    16b8:	4a602004 	addi	r9,r9,-32640
    16bc:	02c000c4 	movi	r11,3
    16c0:	20800017 	ldw	r2,0(r4)
    16c4:	31bfff04 	addi	r6,r6,-4
    16c8:	200f883a 	mov	r7,r4
    16cc:	1204f03a 	xor	r2,r2,r8
    16d0:	1287883a 	add	r3,r2,r10
    16d4:	1a46703a 	and	r3,r3,r9
    16d8:	0084303a 	nor	r2,zero,r2
    16dc:	10c4703a 	and	r2,r2,r3
    16e0:	10000b26 	beq	r2,zero,1710 <memchr+0xc4>
    16e4:	20800003 	ldbu	r2,0(r4)
    16e8:	28800f26 	beq	r5,r2,1728 <memchr+0xdc>
    16ec:	20800043 	ldbu	r2,1(r4)
    16f0:	21c00044 	addi	r7,r4,1
    16f4:	28800c26 	beq	r5,r2,1728 <memchr+0xdc>
    16f8:	20800083 	ldbu	r2,2(r4)
    16fc:	21c00084 	addi	r7,r4,2
    1700:	28800926 	beq	r5,r2,1728 <memchr+0xdc>
    1704:	208000c3 	ldbu	r2,3(r4)
    1708:	21c000c4 	addi	r7,r4,3
    170c:	28800626 	beq	r5,r2,1728 <memchr+0xdc>
    1710:	21000104 	addi	r4,r4,4
    1714:	59bfea36 	bltu	r11,r6,16c0 <memchr+0x74>
    1718:	2007883a 	mov	r3,r4
    171c:	003fd106 	br	1664 <memchr+0x18>
    1720:	0005883a 	mov	r2,zero
    1724:	f800283a 	ret
    1728:	3805883a 	mov	r2,r7
    172c:	f800283a 	ret

00001730 <memcpy>:
    1730:	01c003c4 	movi	r7,15
    1734:	2007883a 	mov	r3,r4
    1738:	3980032e 	bgeu	r7,r6,1748 <memcpy+0x18>
    173c:	2904b03a 	or	r2,r5,r4
    1740:	108000cc 	andi	r2,r2,3
    1744:	10000926 	beq	r2,zero,176c <memcpy+0x3c>
    1748:	30000626 	beq	r6,zero,1764 <memcpy+0x34>
    174c:	30cd883a 	add	r6,r6,r3
    1750:	28800003 	ldbu	r2,0(r5)
    1754:	29400044 	addi	r5,r5,1
    1758:	18800005 	stb	r2,0(r3)
    175c:	18c00044 	addi	r3,r3,1
    1760:	30fffb1e 	bne	r6,r3,1750 <memcpy+0x20>
    1764:	2005883a 	mov	r2,r4
    1768:	f800283a 	ret
    176c:	3811883a 	mov	r8,r7
    1770:	200f883a 	mov	r7,r4
    1774:	28c00017 	ldw	r3,0(r5)
    1778:	31bffc04 	addi	r6,r6,-16
    177c:	38c00015 	stw	r3,0(r7)
    1780:	28800117 	ldw	r2,4(r5)
    1784:	38800115 	stw	r2,4(r7)
    1788:	28c00217 	ldw	r3,8(r5)
    178c:	38c00215 	stw	r3,8(r7)
    1790:	28800317 	ldw	r2,12(r5)
    1794:	29400404 	addi	r5,r5,16
    1798:	38800315 	stw	r2,12(r7)
    179c:	39c00404 	addi	r7,r7,16
    17a0:	41bff436 	bltu	r8,r6,1774 <memcpy+0x44>
    17a4:	008000c4 	movi	r2,3
    17a8:	1180072e 	bgeu	r2,r6,17c8 <memcpy+0x98>
    17ac:	1007883a 	mov	r3,r2
    17b0:	28800017 	ldw	r2,0(r5)
    17b4:	31bfff04 	addi	r6,r6,-4
    17b8:	29400104 	addi	r5,r5,4
    17bc:	38800015 	stw	r2,0(r7)
    17c0:	39c00104 	addi	r7,r7,4
    17c4:	19bffa36 	bltu	r3,r6,17b0 <memcpy+0x80>
    17c8:	3807883a 	mov	r3,r7
    17cc:	003fde06 	br	1748 <memcpy+0x18>

000017d0 <memset>:
    17d0:	008000c4 	movi	r2,3
    17d4:	29403fcc 	andi	r5,r5,255
    17d8:	2007883a 	mov	r3,r4
    17dc:	1180022e 	bgeu	r2,r6,17e8 <memset+0x18>
    17e0:	2084703a 	and	r2,r4,r2
    17e4:	10000826 	beq	r2,zero,1808 <memset+0x38>
    17e8:	30000526 	beq	r6,zero,1800 <memset+0x30>
    17ec:	2805883a 	mov	r2,r5
    17f0:	30cd883a 	add	r6,r6,r3
    17f4:	18800005 	stb	r2,0(r3)
    17f8:	18c00044 	addi	r3,r3,1
    17fc:	19bffd1e 	bne	r3,r6,17f4 <memset+0x24>
    1800:	2005883a 	mov	r2,r4
    1804:	f800283a 	ret
    1808:	2804923a 	slli	r2,r5,8
    180c:	020003c4 	movi	r8,15
    1810:	200f883a 	mov	r7,r4
    1814:	2884b03a 	or	r2,r5,r2
    1818:	1006943a 	slli	r3,r2,16
    181c:	10c6b03a 	or	r3,r2,r3
    1820:	41800a2e 	bgeu	r8,r6,184c <memset+0x7c>
    1824:	4005883a 	mov	r2,r8
    1828:	31bffc04 	addi	r6,r6,-16
    182c:	38c00015 	stw	r3,0(r7)
    1830:	38c00115 	stw	r3,4(r7)
    1834:	38c00215 	stw	r3,8(r7)
    1838:	38c00315 	stw	r3,12(r7)
    183c:	39c00404 	addi	r7,r7,16
    1840:	11bff936 	bltu	r2,r6,1828 <memset+0x58>
    1844:	008000c4 	movi	r2,3
    1848:	1180052e 	bgeu	r2,r6,1860 <memset+0x90>
    184c:	31bfff04 	addi	r6,r6,-4
    1850:	008000c4 	movi	r2,3
    1854:	38c00015 	stw	r3,0(r7)
    1858:	39c00104 	addi	r7,r7,4
    185c:	11bffb36 	bltu	r2,r6,184c <memset+0x7c>
    1860:	3807883a 	mov	r3,r7
    1864:	003fe006 	br	17e8 <memset+0x18>

00001868 <printf>:
    1868:	defffb04 	addi	sp,sp,-20
    186c:	dfc00115 	stw	ra,4(sp)
    1870:	d9400215 	stw	r5,8(sp)
    1874:	d9800315 	stw	r6,12(sp)
    1878:	d9c00415 	stw	r7,16(sp)
    187c:	00800074 	movhi	r2,1
    1880:	10915204 	addi	r2,r2,17736
    1884:	10c00017 	ldw	r3,0(r2)
    1888:	200b883a 	mov	r5,r4
    188c:	d8800204 	addi	r2,sp,8
    1890:	19000217 	ldw	r4,8(r3)
    1894:	100d883a 	mov	r6,r2
    1898:	d8800015 	stw	r2,0(sp)
    189c:	00040940 	call	4094 <__vfprintf_internal>
    18a0:	dfc00117 	ldw	ra,4(sp)
    18a4:	dec00504 	addi	sp,sp,20
    18a8:	f800283a 	ret

000018ac <_printf_r>:
    18ac:	defffc04 	addi	sp,sp,-16
    18b0:	dfc00115 	stw	ra,4(sp)
    18b4:	d9800215 	stw	r6,8(sp)
    18b8:	d9c00315 	stw	r7,12(sp)
    18bc:	280d883a 	mov	r6,r5
    18c0:	21400217 	ldw	r5,8(r4)
    18c4:	d8c00204 	addi	r3,sp,8
    18c8:	180f883a 	mov	r7,r3
    18cc:	d8c00015 	stw	r3,0(sp)
    18d0:	00021e80 	call	21e8 <___vfprintf_internal_r>
    18d4:	dfc00117 	ldw	ra,4(sp)
    18d8:	dec00404 	addi	sp,sp,16
    18dc:	f800283a 	ret

000018e0 <__srefill_r>:
    18e0:	defffd04 	addi	sp,sp,-12
    18e4:	dc400115 	stw	r17,4(sp)
    18e8:	dc000015 	stw	r16,0(sp)
    18ec:	dfc00215 	stw	ra,8(sp)
    18f0:	2023883a 	mov	r17,r4
    18f4:	2821883a 	mov	r16,r5
    18f8:	20000226 	beq	r4,zero,1904 <__srefill_r+0x24>
    18fc:	20800e17 	ldw	r2,56(r4)
    1900:	10004126 	beq	r2,zero,1a08 <__srefill_r+0x128>
    1904:	80c0030b 	ldhu	r3,12(r16)
    1908:	80000115 	stw	zero,4(r16)
    190c:	1880080c 	andi	r2,r3,32
    1910:	1000361e 	bne	r2,zero,19ec <__srefill_r+0x10c>
    1914:	1880010c 	andi	r2,r3,4
    1918:	1000211e 	bne	r2,zero,19a0 <__srefill_r+0xc0>
    191c:	1880040c 	andi	r2,r3,16
    1920:	10005026 	beq	r2,zero,1a64 <__srefill_r+0x184>
    1924:	1880020c 	andi	r2,r3,8
    1928:	1000541e 	bne	r2,zero,1a7c <__srefill_r+0x19c>
    192c:	8080030b 	ldhu	r2,12(r16)
    1930:	10800114 	ori	r2,r2,4
    1934:	8080030d 	sth	r2,12(r16)
    1938:	80800417 	ldw	r2,16(r16)
    193c:	10004526 	beq	r2,zero,1a54 <__srefill_r+0x174>
    1940:	8080030b 	ldhu	r2,12(r16)
    1944:	108000cc 	andi	r2,r2,3
    1948:	1000361e 	bne	r2,zero,1a24 <__srefill_r+0x144>
    194c:	81800417 	ldw	r6,16(r16)
    1950:	80c00817 	ldw	r3,32(r16)
    1954:	81400717 	ldw	r5,28(r16)
    1958:	81c00517 	ldw	r7,20(r16)
    195c:	8809883a 	mov	r4,r17
    1960:	81800015 	stw	r6,0(r16)
    1964:	183ee83a 	callr	r3
    1968:	80c0030b 	ldhu	r3,12(r16)
    196c:	1009883a 	mov	r4,r2
    1970:	80800115 	stw	r2,4(r16)
    1974:	00b7ffc4 	movi	r2,-8193
    1978:	1884703a 	and	r2,r3,r2
    197c:	8080030d 	sth	r2,12(r16)
    1980:	0100230e 	bge	zero,r4,1a10 <__srefill_r+0x130>
    1984:	0009883a 	mov	r4,zero
    1988:	2005883a 	mov	r2,r4
    198c:	dfc00217 	ldw	ra,8(sp)
    1990:	dc400117 	ldw	r17,4(sp)
    1994:	dc000017 	ldw	r16,0(sp)
    1998:	dec00304 	addi	sp,sp,12
    199c:	f800283a 	ret
    19a0:	81400c17 	ldw	r5,48(r16)
    19a4:	283fe426 	beq	r5,zero,1938 <__srefill_r+0x58>
    19a8:	80801004 	addi	r2,r16,64
    19ac:	28800226 	beq	r5,r2,19b8 <__srefill_r+0xd8>
    19b0:	8809883a 	mov	r4,r17
    19b4:	00078e40 	call	78e4 <_free_r>
    19b8:	80800f17 	ldw	r2,60(r16)
    19bc:	80000c15 	stw	zero,48(r16)
    19c0:	80800115 	stw	r2,4(r16)
    19c4:	103fdc26 	beq	r2,zero,1938 <__srefill_r+0x58>
    19c8:	80800e17 	ldw	r2,56(r16)
    19cc:	0009883a 	mov	r4,zero
    19d0:	80800015 	stw	r2,0(r16)
    19d4:	2005883a 	mov	r2,r4
    19d8:	dfc00217 	ldw	ra,8(sp)
    19dc:	dc400117 	ldw	r17,4(sp)
    19e0:	dc000017 	ldw	r16,0(sp)
    19e4:	dec00304 	addi	sp,sp,12
    19e8:	f800283a 	ret
    19ec:	013fffc4 	movi	r4,-1
    19f0:	2005883a 	mov	r2,r4
    19f4:	dfc00217 	ldw	ra,8(sp)
    19f8:	dc400117 	ldw	r17,4(sp)
    19fc:	dc000017 	ldw	r16,0(sp)
    1a00:	dec00304 	addi	sp,sp,12
    1a04:	f800283a 	ret
    1a08:	0000b340 	call	b34 <__sinit>
    1a0c:	003fbd06 	br	1904 <__srefill_r+0x24>
    1a10:	20000b1e 	bne	r4,zero,1a40 <__srefill_r+0x160>
    1a14:	10800814 	ori	r2,r2,32
    1a18:	013fffc4 	movi	r4,-1
    1a1c:	8080030d 	sth	r2,12(r16)
    1a20:	003fd906 	br	1988 <__srefill_r+0xa8>
    1a24:	00800074 	movhi	r2,1
    1a28:	10915304 	addi	r2,r2,17740
    1a2c:	11000017 	ldw	r4,0(r2)
    1a30:	01400034 	movhi	r5,0
    1a34:	2946a904 	addi	r5,r5,6820
    1a38:	0000e540 	call	e54 <_fwalk>
    1a3c:	003fc306 	br	194c <__srefill_r+0x6c>
    1a40:	10801014 	ori	r2,r2,64
    1a44:	013fffc4 	movi	r4,-1
    1a48:	8080030d 	sth	r2,12(r16)
    1a4c:	80000115 	stw	zero,4(r16)
    1a50:	003fcd06 	br	1988 <__srefill_r+0xa8>
    1a54:	8809883a 	mov	r4,r17
    1a58:	800b883a 	mov	r5,r16
    1a5c:	00081fc0 	call	81fc <__smakebuf_r>
    1a60:	003fb706 	br	1940 <__srefill_r+0x60>
    1a64:	18c01014 	ori	r3,r3,64
    1a68:	00800244 	movi	r2,9
    1a6c:	013fffc4 	movi	r4,-1
    1a70:	88800015 	stw	r2,0(r17)
    1a74:	80c0030d 	sth	r3,12(r16)
    1a78:	003fc306 	br	1988 <__srefill_r+0xa8>
    1a7c:	8809883a 	mov	r4,r17
    1a80:	800b883a 	mov	r5,r16
    1a84:	000734c0 	call	734c <_fflush_r>
    1a88:	103fd81e 	bne	r2,zero,19ec <__srefill_r+0x10c>
    1a8c:	8080030b 	ldhu	r2,12(r16)
    1a90:	80000215 	stw	zero,8(r16)
    1a94:	80000615 	stw	zero,24(r16)
    1a98:	10bffdcc 	andi	r2,r2,65527
    1a9c:	8080030d 	sth	r2,12(r16)
    1aa0:	003fa206 	br	192c <__srefill_r+0x4c>

00001aa4 <lflush>:
    1aa4:	20c0030b 	ldhu	r3,12(r4)
    1aa8:	01400244 	movi	r5,9
    1aac:	0005883a 	mov	r2,zero
    1ab0:	18c0024c 	andi	r3,r3,9
    1ab4:	19400126 	beq	r3,r5,1abc <lflush+0x18>
    1ab8:	f800283a 	ret
    1abc:	00075481 	jmpi	7548 <fflush>

00001ac0 <_sbrk_r>:
    1ac0:	defffd04 	addi	sp,sp,-12
    1ac4:	dc000015 	stw	r16,0(sp)
    1ac8:	04000074 	movhi	r16,1
    1acc:	84180804 	addi	r16,r16,24608
    1ad0:	dc400115 	stw	r17,4(sp)
    1ad4:	80000015 	stw	zero,0(r16)
    1ad8:	2023883a 	mov	r17,r4
    1adc:	2809883a 	mov	r4,r5
    1ae0:	dfc00215 	stw	ra,8(sp)
    1ae4:	00100c40 	call	100c4 <sbrk>
    1ae8:	1007883a 	mov	r3,r2
    1aec:	00bfffc4 	movi	r2,-1
    1af0:	18800626 	beq	r3,r2,1b0c <_sbrk_r+0x4c>
    1af4:	1805883a 	mov	r2,r3
    1af8:	dfc00217 	ldw	ra,8(sp)
    1afc:	dc400117 	ldw	r17,4(sp)
    1b00:	dc000017 	ldw	r16,0(sp)
    1b04:	dec00304 	addi	sp,sp,12
    1b08:	f800283a 	ret
    1b0c:	80800017 	ldw	r2,0(r16)
    1b10:	103ff826 	beq	r2,zero,1af4 <_sbrk_r+0x34>
    1b14:	88800015 	stw	r2,0(r17)
    1b18:	1805883a 	mov	r2,r3
    1b1c:	dfc00217 	ldw	ra,8(sp)
    1b20:	dc400117 	ldw	r17,4(sp)
    1b24:	dc000017 	ldw	r16,0(sp)
    1b28:	dec00304 	addi	sp,sp,12
    1b2c:	f800283a 	ret

00001b30 <sprintf>:
    1b30:	deffe504 	addi	sp,sp,-108
    1b34:	2013883a 	mov	r9,r4
    1b38:	dfc01815 	stw	ra,96(sp)
    1b3c:	d9801915 	stw	r6,100(sp)
    1b40:	d9c01a15 	stw	r7,104(sp)
    1b44:	d8801904 	addi	r2,sp,100
    1b48:	d8800015 	stw	r2,0(sp)
    1b4c:	00800074 	movhi	r2,1
    1b50:	10915204 	addi	r2,r2,17736
    1b54:	11000017 	ldw	r4,0(r2)
    1b58:	d9c00017 	ldw	r7,0(sp)
    1b5c:	00808204 	movi	r2,520
    1b60:	00e00034 	movhi	r3,32768
    1b64:	18ffffc4 	addi	r3,r3,-1
    1b68:	280d883a 	mov	r6,r5
    1b6c:	d880040d 	sth	r2,16(sp)
    1b70:	d9400104 	addi	r5,sp,4
    1b74:	00bfffc4 	movi	r2,-1
    1b78:	d8c00615 	stw	r3,24(sp)
    1b7c:	d8c00315 	stw	r3,12(sp)
    1b80:	da400515 	stw	r9,20(sp)
    1b84:	d880048d 	sth	r2,18(sp)
    1b88:	da400115 	stw	r9,4(sp)
    1b8c:	00021e80 	call	21e8 <___vfprintf_internal_r>
    1b90:	d8c00117 	ldw	r3,4(sp)
    1b94:	18000005 	stb	zero,0(r3)
    1b98:	dfc01817 	ldw	ra,96(sp)
    1b9c:	dec01b04 	addi	sp,sp,108
    1ba0:	f800283a 	ret

00001ba4 <_sprintf_r>:
    1ba4:	deffe604 	addi	sp,sp,-104
    1ba8:	2813883a 	mov	r9,r5
    1bac:	dfc01815 	stw	ra,96(sp)
    1bb0:	d9c01915 	stw	r7,100(sp)
    1bb4:	d8801904 	addi	r2,sp,100
    1bb8:	d8800015 	stw	r2,0(sp)
    1bbc:	100f883a 	mov	r7,r2
    1bc0:	00808204 	movi	r2,520
    1bc4:	00e00034 	movhi	r3,32768
    1bc8:	18ffffc4 	addi	r3,r3,-1
    1bcc:	d880040d 	sth	r2,16(sp)
    1bd0:	d9400104 	addi	r5,sp,4
    1bd4:	00bfffc4 	movi	r2,-1
    1bd8:	d8c00615 	stw	r3,24(sp)
    1bdc:	d8c00315 	stw	r3,12(sp)
    1be0:	da400515 	stw	r9,20(sp)
    1be4:	d880048d 	sth	r2,18(sp)
    1be8:	da400115 	stw	r9,4(sp)
    1bec:	00021e80 	call	21e8 <___vfprintf_internal_r>
    1bf0:	d8c00117 	ldw	r3,4(sp)
    1bf4:	18000005 	stb	zero,0(r3)
    1bf8:	dfc01817 	ldw	ra,96(sp)
    1bfc:	dec01a04 	addi	sp,sp,104
    1c00:	f800283a 	ret

00001c04 <eofread>:
    1c04:	0005883a 	mov	r2,zero
    1c08:	f800283a 	ret

00001c0c <_sscanf_r>:
    1c0c:	deffe404 	addi	sp,sp,-112
    1c10:	dcc01915 	stw	r19,100(sp)
    1c14:	2027883a 	mov	r19,r4
    1c18:	dfc01a15 	stw	ra,104(sp)
    1c1c:	dc401815 	stw	r17,96(sp)
    1c20:	d9c01b15 	stw	r7,108(sp)
    1c24:	00808104 	movi	r2,516
    1c28:	2809883a 	mov	r4,r5
    1c2c:	3023883a 	mov	r17,r6
    1c30:	d9400115 	stw	r5,4(sp)
    1c34:	d9400515 	stw	r5,20(sp)
    1c38:	d880040d 	sth	r2,16(sp)
    1c3c:	000211c0 	call	211c <strlen>
    1c40:	d8c01b04 	addi	r3,sp,108
    1c44:	d8c00015 	stw	r3,0(sp)
    1c48:	180f883a 	mov	r7,r3
    1c4c:	023fffc4 	movi	r8,-1
    1c50:	00c00034 	movhi	r3,0
    1c54:	18c70104 	addi	r3,r3,7172
    1c58:	9809883a 	mov	r4,r19
    1c5c:	880d883a 	mov	r6,r17
    1c60:	d9400104 	addi	r5,sp,4
    1c64:	d8800615 	stw	r2,24(sp)
    1c68:	d8c00915 	stw	r3,36(sp)
    1c6c:	da00048d 	sth	r8,18(sp)
    1c70:	d8800215 	stw	r2,8(sp)
    1c74:	d8000d15 	stw	zero,52(sp)
    1c78:	d8001215 	stw	zero,72(sp)
    1c7c:	00040b80 	call	40b8 <__svfscanf_r>
    1c80:	dfc01a17 	ldw	ra,104(sp)
    1c84:	dcc01917 	ldw	r19,100(sp)
    1c88:	dc401817 	ldw	r17,96(sp)
    1c8c:	dec01c04 	addi	sp,sp,112
    1c90:	f800283a 	ret

00001c94 <sscanf>:
    1c94:	deffe404 	addi	sp,sp,-112
    1c98:	dfc01915 	stw	ra,100(sp)
    1c9c:	dc401815 	stw	r17,96(sp)
    1ca0:	d9801a15 	stw	r6,104(sp)
    1ca4:	d9c01b15 	stw	r7,108(sp)
    1ca8:	00808104 	movi	r2,516
    1cac:	2823883a 	mov	r17,r5
    1cb0:	d9000515 	stw	r4,20(sp)
    1cb4:	d9000115 	stw	r4,4(sp)
    1cb8:	d880040d 	sth	r2,16(sp)
    1cbc:	000211c0 	call	211c <strlen>
    1cc0:	d8c01a04 	addi	r3,sp,104
    1cc4:	d8c00015 	stw	r3,0(sp)
    1cc8:	00c00074 	movhi	r3,1
    1ccc:	18d15204 	addi	r3,r3,17736
    1cd0:	19000017 	ldw	r4,0(r3)
    1cd4:	d9c00017 	ldw	r7,0(sp)
    1cd8:	00c00034 	movhi	r3,0
    1cdc:	18c70104 	addi	r3,r3,7172
    1ce0:	023fffc4 	movi	r8,-1
    1ce4:	880d883a 	mov	r6,r17
    1ce8:	d9400104 	addi	r5,sp,4
    1cec:	d8800615 	stw	r2,24(sp)
    1cf0:	d8c00915 	stw	r3,36(sp)
    1cf4:	da00048d 	sth	r8,18(sp)
    1cf8:	d8800215 	stw	r2,8(sp)
    1cfc:	d8000d15 	stw	zero,52(sp)
    1d00:	d8001215 	stw	zero,72(sp)
    1d04:	00040b80 	call	40b8 <__svfscanf_r>
    1d08:	dfc01917 	ldw	ra,100(sp)
    1d0c:	dc401817 	ldw	r17,96(sp)
    1d10:	dec01c04 	addi	sp,sp,112
    1d14:	f800283a 	ret

00001d18 <__sclose>:
    1d18:	2940038f 	ldh	r5,14(r5)
    1d1c:	00059ec1 	jmpi	59ec <_close_r>

00001d20 <__sseek>:
    1d20:	defffe04 	addi	sp,sp,-8
    1d24:	dc000015 	stw	r16,0(sp)
    1d28:	2821883a 	mov	r16,r5
    1d2c:	2940038f 	ldh	r5,14(r5)
    1d30:	dfc00115 	stw	ra,4(sp)
    1d34:	00081840 	call	8184 <_lseek_r>
    1d38:	1007883a 	mov	r3,r2
    1d3c:	00bfffc4 	movi	r2,-1
    1d40:	18800926 	beq	r3,r2,1d68 <__sseek+0x48>
    1d44:	8080030b 	ldhu	r2,12(r16)
    1d48:	80c01415 	stw	r3,80(r16)
    1d4c:	10840014 	ori	r2,r2,4096
    1d50:	8080030d 	sth	r2,12(r16)
    1d54:	1805883a 	mov	r2,r3
    1d58:	dfc00117 	ldw	ra,4(sp)
    1d5c:	dc000017 	ldw	r16,0(sp)
    1d60:	dec00204 	addi	sp,sp,8
    1d64:	f800283a 	ret
    1d68:	8080030b 	ldhu	r2,12(r16)
    1d6c:	10bbffcc 	andi	r2,r2,61439
    1d70:	8080030d 	sth	r2,12(r16)
    1d74:	1805883a 	mov	r2,r3
    1d78:	dfc00117 	ldw	ra,4(sp)
    1d7c:	dc000017 	ldw	r16,0(sp)
    1d80:	dec00204 	addi	sp,sp,8
    1d84:	f800283a 	ret

00001d88 <__swrite>:
    1d88:	2880030b 	ldhu	r2,12(r5)
    1d8c:	defffb04 	addi	sp,sp,-20
    1d90:	dcc00315 	stw	r19,12(sp)
    1d94:	1080400c 	andi	r2,r2,256
    1d98:	dc800215 	stw	r18,8(sp)
    1d9c:	dc400115 	stw	r17,4(sp)
    1da0:	dc000015 	stw	r16,0(sp)
    1da4:	3027883a 	mov	r19,r6
    1da8:	3825883a 	mov	r18,r7
    1dac:	dfc00415 	stw	ra,16(sp)
    1db0:	2821883a 	mov	r16,r5
    1db4:	000d883a 	mov	r6,zero
    1db8:	01c00084 	movi	r7,2
    1dbc:	2023883a 	mov	r17,r4
    1dc0:	10000226 	beq	r2,zero,1dcc <__swrite+0x44>
    1dc4:	2940038f 	ldh	r5,14(r5)
    1dc8:	00081840 	call	8184 <_lseek_r>
    1dcc:	8080030b 	ldhu	r2,12(r16)
    1dd0:	8140038f 	ldh	r5,14(r16)
    1dd4:	8809883a 	mov	r4,r17
    1dd8:	10bbffcc 	andi	r2,r2,61439
    1ddc:	980d883a 	mov	r6,r19
    1de0:	900f883a 	mov	r7,r18
    1de4:	8080030d 	sth	r2,12(r16)
    1de8:	dfc00417 	ldw	ra,16(sp)
    1dec:	dcc00317 	ldw	r19,12(sp)
    1df0:	dc800217 	ldw	r18,8(sp)
    1df4:	dc400117 	ldw	r17,4(sp)
    1df8:	dc000017 	ldw	r16,0(sp)
    1dfc:	dec00504 	addi	sp,sp,20
    1e00:	00058381 	jmpi	5838 <_write_r>

00001e04 <__sread>:
    1e04:	defffe04 	addi	sp,sp,-8
    1e08:	dc000015 	stw	r16,0(sp)
    1e0c:	2821883a 	mov	r16,r5
    1e10:	2940038f 	ldh	r5,14(r5)
    1e14:	dfc00115 	stw	ra,4(sp)
    1e18:	00095640 	call	9564 <_read_r>
    1e1c:	1007883a 	mov	r3,r2
    1e20:	10000816 	blt	r2,zero,1e44 <__sread+0x40>
    1e24:	80801417 	ldw	r2,80(r16)
    1e28:	10c5883a 	add	r2,r2,r3
    1e2c:	80801415 	stw	r2,80(r16)
    1e30:	1805883a 	mov	r2,r3
    1e34:	dfc00117 	ldw	ra,4(sp)
    1e38:	dc000017 	ldw	r16,0(sp)
    1e3c:	dec00204 	addi	sp,sp,8
    1e40:	f800283a 	ret
    1e44:	8080030b 	ldhu	r2,12(r16)
    1e48:	10bbffcc 	andi	r2,r2,61439
    1e4c:	8080030d 	sth	r2,12(r16)
    1e50:	1805883a 	mov	r2,r3
    1e54:	dfc00117 	ldw	ra,4(sp)
    1e58:	dc000017 	ldw	r16,0(sp)
    1e5c:	dec00204 	addi	sp,sp,8
    1e60:	f800283a 	ret

00001e64 <strcat>:
    1e64:	defffe04 	addi	sp,sp,-8
    1e68:	208000cc 	andi	r2,r4,3
    1e6c:	dc000015 	stw	r16,0(sp)
    1e70:	dfc00115 	stw	ra,4(sp)
    1e74:	2021883a 	mov	r16,r4
    1e78:	1000161e 	bne	r2,zero,1ed4 <strcat+0x70>
    1e7c:	20c00017 	ldw	r3,0(r4)
    1e80:	01bfbff4 	movhi	r6,65279
    1e84:	31bfbfc4 	addi	r6,r6,-257
    1e88:	02202074 	movhi	r8,32897
    1e8c:	42202004 	addi	r8,r8,-32640
    1e90:	1985883a 	add	r2,r3,r6
    1e94:	1204703a 	and	r2,r2,r8
    1e98:	00c6303a 	nor	r3,zero,r3
    1e9c:	1886703a 	and	r3,r3,r2
    1ea0:	18000c1e 	bne	r3,zero,1ed4 <strcat+0x70>
    1ea4:	300f883a 	mov	r7,r6
    1ea8:	400d883a 	mov	r6,r8
    1eac:	21000104 	addi	r4,r4,4
    1eb0:	20800017 	ldw	r2,0(r4)
    1eb4:	11c7883a 	add	r3,r2,r7
    1eb8:	1986703a 	and	r3,r3,r6
    1ebc:	0084303a 	nor	r2,zero,r2
    1ec0:	10c4703a 	and	r2,r2,r3
    1ec4:	103ff926 	beq	r2,zero,1eac <strcat+0x48>
    1ec8:	20800007 	ldb	r2,0(r4)
    1ecc:	10000326 	beq	r2,zero,1edc <strcat+0x78>
    1ed0:	21000044 	addi	r4,r4,1
    1ed4:	20800007 	ldb	r2,0(r4)
    1ed8:	103ffd1e 	bne	r2,zero,1ed0 <strcat+0x6c>
    1edc:	00020900 	call	2090 <strcpy>
    1ee0:	8005883a 	mov	r2,r16
    1ee4:	dfc00117 	ldw	ra,4(sp)
    1ee8:	dc000017 	ldw	r16,0(sp)
    1eec:	dec00204 	addi	sp,sp,8
    1ef0:	f800283a 	ret

00001ef4 <strchr>:
    1ef4:	208000cc 	andi	r2,r4,3
    1ef8:	2007883a 	mov	r3,r4
    1efc:	1000311e 	bne	r2,zero,1fc4 <strchr+0xd0>
    1f00:	29c03fcc 	andi	r7,r5,255
    1f04:	0015883a 	mov	r10,zero
    1f08:	0007883a 	mov	r3,zero
    1f0c:	01400104 	movi	r5,4
    1f10:	5004923a 	slli	r2,r10,8
    1f14:	18c00044 	addi	r3,r3,1
    1f18:	3894b03a 	or	r10,r7,r2
    1f1c:	197ffc1e 	bne	r3,r5,1f10 <strchr+0x1c>
    1f20:	200d883a 	mov	r6,r4
    1f24:	21000017 	ldw	r4,0(r4)
    1f28:	017fbff4 	movhi	r5,65279
    1f2c:	297fbfc4 	addi	r5,r5,-257
    1f30:	02202074 	movhi	r8,32897
    1f34:	42202004 	addi	r8,r8,-32640
    1f38:	2145883a 	add	r2,r4,r5
    1f3c:	1204703a 	and	r2,r2,r8
    1f40:	0106303a 	nor	r3,zero,r4
    1f44:	10c4703a 	and	r2,r2,r3
    1f48:	1000151e 	bne	r2,zero,1fa0 <strchr+0xac>
    1f4c:	2284f03a 	xor	r2,r4,r10
    1f50:	1147883a 	add	r3,r2,r5
    1f54:	1a06703a 	and	r3,r3,r8
    1f58:	0084303a 	nor	r2,zero,r2
    1f5c:	10c4703a 	and	r2,r2,r3
    1f60:	10000f1e 	bne	r2,zero,1fa0 <strchr+0xac>
    1f64:	2813883a 	mov	r9,r5
    1f68:	00000106 	br	1f70 <strchr+0x7c>
    1f6c:	18000c1e 	bne	r3,zero,1fa0 <strchr+0xac>
    1f70:	31800104 	addi	r6,r6,4
    1f74:	30800017 	ldw	r2,0(r6)
    1f78:	1286f03a 	xor	r3,r2,r10
    1f7c:	124b883a 	add	r5,r2,r9
    1f80:	1a49883a 	add	r4,r3,r9
    1f84:	2a0a703a 	and	r5,r5,r8
    1f88:	0084303a 	nor	r2,zero,r2
    1f8c:	2208703a 	and	r4,r4,r8
    1f90:	00c6303a 	nor	r3,zero,r3
    1f94:	1144703a 	and	r2,r2,r5
    1f98:	1906703a 	and	r3,r3,r4
    1f9c:	103ff326 	beq	r2,zero,1f6c <strchr+0x78>
    1fa0:	3007883a 	mov	r3,r6
    1fa4:	00000206 	br	1fb0 <strchr+0xbc>
    1fa8:	38800426 	beq	r7,r2,1fbc <strchr+0xc8>
    1fac:	18c00044 	addi	r3,r3,1
    1fb0:	18800003 	ldbu	r2,0(r3)
    1fb4:	103ffc1e 	bne	r2,zero,1fa8 <strchr+0xb4>
    1fb8:	3800041e 	bne	r7,zero,1fcc <strchr+0xd8>
    1fbc:	1805883a 	mov	r2,r3
    1fc0:	f800283a 	ret
    1fc4:	29c03fcc 	andi	r7,r5,255
    1fc8:	003ff906 	br	1fb0 <strchr+0xbc>
    1fcc:	0005883a 	mov	r2,zero
    1fd0:	f800283a 	ret

00001fd4 <strcmp>:
    1fd4:	2144b03a 	or	r2,r4,r5
    1fd8:	108000cc 	andi	r2,r2,3
    1fdc:	10001d1e 	bne	r2,zero,2054 <strcmp+0x80>
    1fe0:	200f883a 	mov	r7,r4
    1fe4:	28800017 	ldw	r2,0(r5)
    1fe8:	21000017 	ldw	r4,0(r4)
    1fec:	280d883a 	mov	r6,r5
    1ff0:	2080161e 	bne	r4,r2,204c <strcmp+0x78>
    1ff4:	023fbff4 	movhi	r8,65279
    1ff8:	423fbfc4 	addi	r8,r8,-257
    1ffc:	2207883a 	add	r3,r4,r8
    2000:	01602074 	movhi	r5,32897
    2004:	29602004 	addi	r5,r5,-32640
    2008:	1946703a 	and	r3,r3,r5
    200c:	0104303a 	nor	r2,zero,r4
    2010:	10c4703a 	and	r2,r2,r3
    2014:	10001c1e 	bne	r2,zero,2088 <strcmp+0xb4>
    2018:	4013883a 	mov	r9,r8
    201c:	2811883a 	mov	r8,r5
    2020:	00000106 	br	2028 <strcmp+0x54>
    2024:	1800181e 	bne	r3,zero,2088 <strcmp+0xb4>
    2028:	39c00104 	addi	r7,r7,4
    202c:	39000017 	ldw	r4,0(r7)
    2030:	31800104 	addi	r6,r6,4
    2034:	31400017 	ldw	r5,0(r6)
    2038:	2245883a 	add	r2,r4,r9
    203c:	1204703a 	and	r2,r2,r8
    2040:	0106303a 	nor	r3,zero,r4
    2044:	1886703a 	and	r3,r3,r2
    2048:	217ff626 	beq	r4,r5,2024 <strcmp+0x50>
    204c:	3809883a 	mov	r4,r7
    2050:	300b883a 	mov	r5,r6
    2054:	20c00007 	ldb	r3,0(r4)
    2058:	1800051e 	bne	r3,zero,2070 <strcmp+0x9c>
    205c:	00000606 	br	2078 <strcmp+0xa4>
    2060:	21000044 	addi	r4,r4,1
    2064:	20c00007 	ldb	r3,0(r4)
    2068:	29400044 	addi	r5,r5,1
    206c:	18000226 	beq	r3,zero,2078 <strcmp+0xa4>
    2070:	28800007 	ldb	r2,0(r5)
    2074:	18bffa26 	beq	r3,r2,2060 <strcmp+0x8c>
    2078:	20c00003 	ldbu	r3,0(r4)
    207c:	28800003 	ldbu	r2,0(r5)
    2080:	1885c83a 	sub	r2,r3,r2
    2084:	f800283a 	ret
    2088:	0005883a 	mov	r2,zero
    208c:	f800283a 	ret

00002090 <strcpy>:
    2090:	2904b03a 	or	r2,r5,r4
    2094:	108000cc 	andi	r2,r2,3
    2098:	10000826 	beq	r2,zero,20bc <strcpy+0x2c>
    209c:	2007883a 	mov	r3,r4
    20a0:	28800003 	ldbu	r2,0(r5)
    20a4:	29400044 	addi	r5,r5,1
    20a8:	18800005 	stb	r2,0(r3)
    20ac:	18c00044 	addi	r3,r3,1
    20b0:	103ffb1e 	bne	r2,zero,20a0 <strcpy+0x10>
    20b4:	2005883a 	mov	r2,r4
    20b8:	f800283a 	ret
    20bc:	29800017 	ldw	r6,0(r5)
    20c0:	023fbff4 	movhi	r8,65279
    20c4:	423fbfc4 	addi	r8,r8,-257
    20c8:	02a02074 	movhi	r10,32897
    20cc:	52a02004 	addi	r10,r10,-32640
    20d0:	3205883a 	add	r2,r6,r8
    20d4:	0186303a 	nor	r3,zero,r6
    20d8:	10c4703a 	and	r2,r2,r3
    20dc:	1284703a 	and	r2,r2,r10
    20e0:	200f883a 	mov	r7,r4
    20e4:	10000b1e 	bne	r2,zero,2114 <strcpy+0x84>
    20e8:	4013883a 	mov	r9,r8
    20ec:	5011883a 	mov	r8,r10
    20f0:	39800015 	stw	r6,0(r7)
    20f4:	29400104 	addi	r5,r5,4
    20f8:	29800017 	ldw	r6,0(r5)
    20fc:	39c00104 	addi	r7,r7,4
    2100:	3245883a 	add	r2,r6,r9
    2104:	0186303a 	nor	r3,zero,r6
    2108:	10c4703a 	and	r2,r2,r3
    210c:	1204703a 	and	r2,r2,r8
    2110:	103ff726 	beq	r2,zero,20f0 <strcpy+0x60>
    2114:	3807883a 	mov	r3,r7
    2118:	003fe106 	br	20a0 <strcpy+0x10>

0000211c <strlen>:
    211c:	208000cc 	andi	r2,r4,3
    2120:	2011883a 	mov	r8,r4
    2124:	1000161e 	bne	r2,zero,2180 <strlen+0x64>
    2128:	20c00017 	ldw	r3,0(r4)
    212c:	017fbff4 	movhi	r5,65279
    2130:	297fbfc4 	addi	r5,r5,-257
    2134:	01e02074 	movhi	r7,32897
    2138:	39e02004 	addi	r7,r7,-32640
    213c:	1945883a 	add	r2,r3,r5
    2140:	11c4703a 	and	r2,r2,r7
    2144:	00c6303a 	nor	r3,zero,r3
    2148:	1886703a 	and	r3,r3,r2
    214c:	18000c1e 	bne	r3,zero,2180 <strlen+0x64>
    2150:	280d883a 	mov	r6,r5
    2154:	380b883a 	mov	r5,r7
    2158:	21000104 	addi	r4,r4,4
    215c:	20800017 	ldw	r2,0(r4)
    2160:	1187883a 	add	r3,r2,r6
    2164:	1946703a 	and	r3,r3,r5
    2168:	0084303a 	nor	r2,zero,r2
    216c:	10c4703a 	and	r2,r2,r3
    2170:	103ff926 	beq	r2,zero,2158 <strlen+0x3c>
    2174:	20800007 	ldb	r2,0(r4)
    2178:	10000326 	beq	r2,zero,2188 <strlen+0x6c>
    217c:	21000044 	addi	r4,r4,1
    2180:	20800007 	ldb	r2,0(r4)
    2184:	103ffd1e 	bne	r2,zero,217c <strlen+0x60>
    2188:	2205c83a 	sub	r2,r4,r8
    218c:	f800283a 	ret

00002190 <__sprint_r>:
    2190:	30800217 	ldw	r2,8(r6)
    2194:	defffe04 	addi	sp,sp,-8
    2198:	dc000015 	stw	r16,0(sp)
    219c:	dfc00115 	stw	ra,4(sp)
    21a0:	3021883a 	mov	r16,r6
    21a4:	0007883a 	mov	r3,zero
    21a8:	1000061e 	bne	r2,zero,21c4 <__sprint_r+0x34>
    21ac:	1805883a 	mov	r2,r3
    21b0:	30000115 	stw	zero,4(r6)
    21b4:	dfc00117 	ldw	ra,4(sp)
    21b8:	dc000017 	ldw	r16,0(sp)
    21bc:	dec00204 	addi	sp,sp,8
    21c0:	f800283a 	ret
    21c4:	0007bf80 	call	7bf8 <__sfvwrite_r>
    21c8:	1007883a 	mov	r3,r2
    21cc:	1805883a 	mov	r2,r3
    21d0:	80000115 	stw	zero,4(r16)
    21d4:	80000215 	stw	zero,8(r16)
    21d8:	dfc00117 	ldw	ra,4(sp)
    21dc:	dc000017 	ldw	r16,0(sp)
    21e0:	dec00204 	addi	sp,sp,8
    21e4:	f800283a 	ret

000021e8 <___vfprintf_internal_r>:
    21e8:	defea404 	addi	sp,sp,-1392
    21ec:	dd815815 	stw	r22,1376(sp)
    21f0:	dc015215 	stw	r16,1352(sp)
    21f4:	d9c15115 	stw	r7,1348(sp)
    21f8:	dfc15b15 	stw	ra,1388(sp)
    21fc:	df015a15 	stw	fp,1384(sp)
    2200:	ddc15915 	stw	r23,1380(sp)
    2204:	dd415715 	stw	r21,1372(sp)
    2208:	dd015615 	stw	r20,1368(sp)
    220c:	dcc15515 	stw	r19,1364(sp)
    2210:	dc815415 	stw	r18,1360(sp)
    2214:	dc415315 	stw	r17,1356(sp)
    2218:	282d883a 	mov	r22,r5
    221c:	3021883a 	mov	r16,r6
    2220:	d9014f15 	stw	r4,1340(sp)
    2224:	00080c80 	call	80c8 <_localeconv_r>
    2228:	10800017 	ldw	r2,0(r2)
    222c:	d9c15117 	ldw	r7,1348(sp)
    2230:	d8814915 	stw	r2,1316(sp)
    2234:	d8814f17 	ldw	r2,1340(sp)
    2238:	10000226 	beq	r2,zero,2244 <___vfprintf_internal_r+0x5c>
    223c:	10800e17 	ldw	r2,56(r2)
    2240:	10020d26 	beq	r2,zero,2a78 <___vfprintf_internal_r+0x890>
    2244:	b080030b 	ldhu	r2,12(r22)
    2248:	1080020c 	andi	r2,r2,8
    224c:	10020e26 	beq	r2,zero,2a88 <___vfprintf_internal_r+0x8a0>
    2250:	b0800417 	ldw	r2,16(r22)
    2254:	10020c26 	beq	r2,zero,2a88 <___vfprintf_internal_r+0x8a0>
    2258:	b200030b 	ldhu	r8,12(r22)
    225c:	00800284 	movi	r2,10
    2260:	40c0068c 	andi	r3,r8,26
    2264:	18802f1e 	bne	r3,r2,2324 <___vfprintf_internal_r+0x13c>
    2268:	b080038f 	ldh	r2,14(r22)
    226c:	10002d16 	blt	r2,zero,2324 <___vfprintf_internal_r+0x13c>
    2270:	b240038b 	ldhu	r9,14(r22)
    2274:	b2800717 	ldw	r10,28(r22)
    2278:	b2c00917 	ldw	r11,36(r22)
    227c:	d9014f17 	ldw	r4,1340(sp)
    2280:	dc402904 	addi	r17,sp,164
    2284:	d8804004 	addi	r2,sp,256
    2288:	00c10004 	movi	r3,1024
    228c:	423fff4c 	andi	r8,r8,65533
    2290:	800d883a 	mov	r6,r16
    2294:	880b883a 	mov	r5,r17
    2298:	da002c0d 	sth	r8,176(sp)
    229c:	da402c8d 	sth	r9,178(sp)
    22a0:	da803015 	stw	r10,192(sp)
    22a4:	dac03215 	stw	r11,200(sp)
    22a8:	d8802d15 	stw	r2,180(sp)
    22ac:	d8c02e15 	stw	r3,184(sp)
    22b0:	d8802915 	stw	r2,164(sp)
    22b4:	d8c02b15 	stw	r3,172(sp)
    22b8:	d8002f15 	stw	zero,188(sp)
    22bc:	00021e80 	call	21e8 <___vfprintf_internal_r>
    22c0:	d8814b15 	stw	r2,1324(sp)
    22c4:	10000416 	blt	r2,zero,22d8 <___vfprintf_internal_r+0xf0>
    22c8:	d9014f17 	ldw	r4,1340(sp)
    22cc:	880b883a 	mov	r5,r17
    22d0:	000734c0 	call	734c <_fflush_r>
    22d4:	1002321e 	bne	r2,zero,2ba0 <___vfprintf_internal_r+0x9b8>
    22d8:	d8802c0b 	ldhu	r2,176(sp)
    22dc:	1080100c 	andi	r2,r2,64
    22e0:	10000326 	beq	r2,zero,22f0 <___vfprintf_internal_r+0x108>
    22e4:	b080030b 	ldhu	r2,12(r22)
    22e8:	10801014 	ori	r2,r2,64
    22ec:	b080030d 	sth	r2,12(r22)
    22f0:	d8814b17 	ldw	r2,1324(sp)
    22f4:	dfc15b17 	ldw	ra,1388(sp)
    22f8:	df015a17 	ldw	fp,1384(sp)
    22fc:	ddc15917 	ldw	r23,1380(sp)
    2300:	dd815817 	ldw	r22,1376(sp)
    2304:	dd415717 	ldw	r21,1372(sp)
    2308:	dd015617 	ldw	r20,1368(sp)
    230c:	dcc15517 	ldw	r19,1364(sp)
    2310:	dc815417 	ldw	r18,1360(sp)
    2314:	dc415317 	ldw	r17,1356(sp)
    2318:	dc015217 	ldw	r16,1352(sp)
    231c:	dec15c04 	addi	sp,sp,1392
    2320:	f800283a 	ret
    2324:	0005883a 	mov	r2,zero
    2328:	0007883a 	mov	r3,zero
    232c:	dd401904 	addi	r21,sp,100
    2330:	d8814215 	stw	r2,1288(sp)
    2334:	802f883a 	mov	r23,r16
    2338:	d8c14315 	stw	r3,1292(sp)
    233c:	d8014b15 	stw	zero,1324(sp)
    2340:	d8014815 	stw	zero,1312(sp)
    2344:	d8014415 	stw	zero,1296(sp)
    2348:	d8014715 	stw	zero,1308(sp)
    234c:	dd400c15 	stw	r21,48(sp)
    2350:	d8000e15 	stw	zero,56(sp)
    2354:	d8000d15 	stw	zero,52(sp)
    2358:	b8800007 	ldb	r2,0(r23)
    235c:	10001926 	beq	r2,zero,23c4 <___vfprintf_internal_r+0x1dc>
    2360:	00c00944 	movi	r3,37
    2364:	10c01726 	beq	r2,r3,23c4 <___vfprintf_internal_r+0x1dc>
    2368:	b821883a 	mov	r16,r23
    236c:	00000106 	br	2374 <___vfprintf_internal_r+0x18c>
    2370:	10c00326 	beq	r2,r3,2380 <___vfprintf_internal_r+0x198>
    2374:	84000044 	addi	r16,r16,1
    2378:	80800007 	ldb	r2,0(r16)
    237c:	103ffc1e 	bne	r2,zero,2370 <___vfprintf_internal_r+0x188>
    2380:	85e7c83a 	sub	r19,r16,r23
    2384:	98000e26 	beq	r19,zero,23c0 <___vfprintf_internal_r+0x1d8>
    2388:	dc800e17 	ldw	r18,56(sp)
    238c:	dc400d17 	ldw	r17,52(sp)
    2390:	008001c4 	movi	r2,7
    2394:	94e5883a 	add	r18,r18,r19
    2398:	8c400044 	addi	r17,r17,1
    239c:	adc00015 	stw	r23,0(r21)
    23a0:	dc800e15 	stw	r18,56(sp)
    23a4:	acc00115 	stw	r19,4(r21)
    23a8:	dc400d15 	stw	r17,52(sp)
    23ac:	14428b16 	blt	r2,r17,2ddc <___vfprintf_internal_r+0xbf4>
    23b0:	ad400204 	addi	r21,r21,8
    23b4:	d9014b17 	ldw	r4,1324(sp)
    23b8:	24c9883a 	add	r4,r4,r19
    23bc:	d9014b15 	stw	r4,1324(sp)
    23c0:	802f883a 	mov	r23,r16
    23c4:	b8800007 	ldb	r2,0(r23)
    23c8:	10013c26 	beq	r2,zero,28bc <___vfprintf_internal_r+0x6d4>
    23cc:	bdc00044 	addi	r23,r23,1
    23d0:	d8000405 	stb	zero,16(sp)
    23d4:	b8c00007 	ldb	r3,0(r23)
    23d8:	04ffffc4 	movi	r19,-1
    23dc:	d8014c15 	stw	zero,1328(sp)
    23e0:	d8014a15 	stw	zero,1320(sp)
    23e4:	d8c14d15 	stw	r3,1332(sp)
    23e8:	bdc00044 	addi	r23,r23,1
    23ec:	d9414d17 	ldw	r5,1332(sp)
    23f0:	00801604 	movi	r2,88
    23f4:	28fff804 	addi	r3,r5,-32
    23f8:	10c06036 	bltu	r2,r3,257c <___vfprintf_internal_r+0x394>
    23fc:	18c5883a 	add	r2,r3,r3
    2400:	1085883a 	add	r2,r2,r2
    2404:	00c00034 	movhi	r3,0
    2408:	18c90604 	addi	r3,r3,9240
    240c:	10c5883a 	add	r2,r2,r3
    2410:	11000017 	ldw	r4,0(r2)
    2414:	2000683a 	jmp	r4
    2418:	0000338c 	andi	zero,zero,206
    241c:	0000257c 	xorhi	zero,zero,149
    2420:	0000257c 	xorhi	zero,zero,149
    2424:	00003378 	rdprs	zero,zero,205
    2428:	0000257c 	xorhi	zero,zero,149
    242c:	0000257c 	xorhi	zero,zero,149
    2430:	0000257c 	xorhi	zero,zero,149
    2434:	0000257c 	xorhi	zero,zero,149
    2438:	0000257c 	xorhi	zero,zero,149
    243c:	0000257c 	xorhi	zero,zero,149
    2440:	00003158 	cmpnei	zero,zero,197
    2444:	00003368 	cmpgeui	zero,zero,205
    2448:	0000257c 	xorhi	zero,zero,149
    244c:	00003170 	cmpltui	zero,zero,197
    2450:	00003404 	movi	zero,208
    2454:	0000257c 	xorhi	zero,zero,149
    2458:	000033f0 	cmpltui	zero,zero,207
    245c:	000033b8 	rdprs	zero,zero,206
    2460:	000033b8 	rdprs	zero,zero,206
    2464:	000033b8 	rdprs	zero,zero,206
    2468:	000033b8 	rdprs	zero,zero,206
    246c:	000033b8 	rdprs	zero,zero,206
    2470:	000033b8 	rdprs	zero,zero,206
    2474:	000033b8 	rdprs	zero,zero,206
    2478:	000033b8 	rdprs	zero,zero,206
    247c:	000033b8 	rdprs	zero,zero,206
    2480:	0000257c 	xorhi	zero,zero,149
    2484:	0000257c 	xorhi	zero,zero,149
    2488:	0000257c 	xorhi	zero,zero,149
    248c:	0000257c 	xorhi	zero,zero,149
    2490:	0000257c 	xorhi	zero,zero,149
    2494:	0000257c 	xorhi	zero,zero,149
    2498:	0000257c 	xorhi	zero,zero,149
    249c:	0000257c 	xorhi	zero,zero,149
    24a0:	0000257c 	xorhi	zero,zero,149
    24a4:	0000257c 	xorhi	zero,zero,149
    24a8:	00002bd4 	movui	zero,175
    24ac:	00003240 	call	324 <cmd_read+0x30>
    24b0:	0000257c 	xorhi	zero,zero,149
    24b4:	00003240 	call	324 <cmd_read+0x30>
    24b8:	0000257c 	xorhi	zero,zero,149
    24bc:	0000257c 	xorhi	zero,zero,149
    24c0:	0000257c 	xorhi	zero,zero,149
    24c4:	0000257c 	xorhi	zero,zero,149
    24c8:	000033a4 	muli	zero,zero,206
    24cc:	0000257c 	xorhi	zero,zero,149
    24d0:	0000257c 	xorhi	zero,zero,149
    24d4:	00002c88 	cmpgei	zero,zero,178
    24d8:	0000257c 	xorhi	zero,zero,149
    24dc:	0000257c 	xorhi	zero,zero,149
    24e0:	0000257c 	xorhi	zero,zero,149
    24e4:	0000257c 	xorhi	zero,zero,149
    24e8:	0000257c 	xorhi	zero,zero,149
    24ec:	00002cd4 	movui	zero,179
    24f0:	0000257c 	xorhi	zero,zero,149
    24f4:	0000257c 	xorhi	zero,zero,149
    24f8:	000032f4 	movhi	zero,203
    24fc:	0000257c 	xorhi	zero,zero,149
    2500:	0000257c 	xorhi	zero,zero,149
    2504:	0000257c 	xorhi	zero,zero,149
    2508:	0000257c 	xorhi	zero,zero,149
    250c:	0000257c 	xorhi	zero,zero,149
    2510:	0000257c 	xorhi	zero,zero,149
    2514:	0000257c 	xorhi	zero,zero,149
    2518:	0000257c 	xorhi	zero,zero,149
    251c:	0000257c 	xorhi	zero,zero,149
    2520:	0000257c 	xorhi	zero,zero,149
    2524:	000032c8 	cmpgei	zero,zero,203
    2528:	00002be0 	cmpeqi	zero,zero,175
    252c:	00003240 	call	324 <cmd_read+0x30>
    2530:	00003240 	call	324 <cmd_read+0x30>
    2534:	00003240 	call	324 <cmd_read+0x30>
    2538:	0000322c 	andhi	zero,zero,200
    253c:	00002be0 	cmpeqi	zero,zero,175
    2540:	0000257c 	xorhi	zero,zero,149
    2544:	0000257c 	xorhi	zero,zero,149
    2548:	000031b4 	movhi	zero,198
    254c:	0000257c 	xorhi	zero,zero,149
    2550:	00003184 	movi	zero,198
    2554:	00002c94 	movui	zero,178
    2558:	000031e4 	muli	zero,zero,199
    255c:	000031d0 	cmplti	zero,zero,199
    2560:	0000257c 	xorhi	zero,zero,149
    2564:	00003460 	cmpeqi	zero,zero,209
    2568:	0000257c 	xorhi	zero,zero,149
    256c:	00002ce0 	cmpeqi	zero,zero,179
    2570:	0000257c 	xorhi	zero,zero,149
    2574:	0000257c 	xorhi	zero,zero,149
    2578:	00003358 	cmpnei	zero,zero,205
    257c:	d9014d17 	ldw	r4,1332(sp)
    2580:	2000ce26 	beq	r4,zero,28bc <___vfprintf_internal_r+0x6d4>
    2584:	01400044 	movi	r5,1
    2588:	d9800f04 	addi	r6,sp,60
    258c:	d9c14015 	stw	r7,1280(sp)
    2590:	d9414515 	stw	r5,1300(sp)
    2594:	d9814115 	stw	r6,1284(sp)
    2598:	280f883a 	mov	r7,r5
    259c:	d9000f05 	stb	r4,60(sp)
    25a0:	d8000405 	stb	zero,16(sp)
    25a4:	d8014615 	stw	zero,1304(sp)
    25a8:	d8c14c17 	ldw	r3,1328(sp)
    25ac:	1880008c 	andi	r2,r3,2
    25b0:	1005003a 	cmpeq	r2,r2,zero
    25b4:	d8815015 	stw	r2,1344(sp)
    25b8:	1000031e 	bne	r2,zero,25c8 <___vfprintf_internal_r+0x3e0>
    25bc:	d9014517 	ldw	r4,1300(sp)
    25c0:	21000084 	addi	r4,r4,2
    25c4:	d9014515 	stw	r4,1300(sp)
    25c8:	d9414c17 	ldw	r5,1328(sp)
    25cc:	2940210c 	andi	r5,r5,132
    25d0:	d9414e15 	stw	r5,1336(sp)
    25d4:	28002d1e 	bne	r5,zero,268c <___vfprintf_internal_r+0x4a4>
    25d8:	d9814a17 	ldw	r6,1320(sp)
    25dc:	d8814517 	ldw	r2,1300(sp)
    25e0:	30a1c83a 	sub	r16,r6,r2
    25e4:	0400290e 	bge	zero,r16,268c <___vfprintf_internal_r+0x4a4>
    25e8:	00800404 	movi	r2,16
    25ec:	1404580e 	bge	r2,r16,3750 <___vfprintf_internal_r+0x1568>
    25f0:	dc800e17 	ldw	r18,56(sp)
    25f4:	dc400d17 	ldw	r17,52(sp)
    25f8:	1027883a 	mov	r19,r2
    25fc:	07000074 	movhi	fp,1
    2600:	e7094d84 	addi	fp,fp,9526
    2604:	050001c4 	movi	r20,7
    2608:	00000306 	br	2618 <___vfprintf_internal_r+0x430>
    260c:	843ffc04 	addi	r16,r16,-16
    2610:	ad400204 	addi	r21,r21,8
    2614:	9c00130e 	bge	r19,r16,2664 <___vfprintf_internal_r+0x47c>
    2618:	94800404 	addi	r18,r18,16
    261c:	8c400044 	addi	r17,r17,1
    2620:	af000015 	stw	fp,0(r21)
    2624:	acc00115 	stw	r19,4(r21)
    2628:	dc800e15 	stw	r18,56(sp)
    262c:	dc400d15 	stw	r17,52(sp)
    2630:	a47ff60e 	bge	r20,r17,260c <___vfprintf_internal_r+0x424>
    2634:	d9014f17 	ldw	r4,1340(sp)
    2638:	b00b883a 	mov	r5,r22
    263c:	d9800c04 	addi	r6,sp,48
    2640:	d9c15115 	stw	r7,1348(sp)
    2644:	00021900 	call	2190 <__sprint_r>
    2648:	d9c15117 	ldw	r7,1348(sp)
    264c:	10009e1e 	bne	r2,zero,28c8 <___vfprintf_internal_r+0x6e0>
    2650:	843ffc04 	addi	r16,r16,-16
    2654:	dc800e17 	ldw	r18,56(sp)
    2658:	dc400d17 	ldw	r17,52(sp)
    265c:	dd401904 	addi	r21,sp,100
    2660:	9c3fed16 	blt	r19,r16,2618 <___vfprintf_internal_r+0x430>
    2664:	9425883a 	add	r18,r18,r16
    2668:	8c400044 	addi	r17,r17,1
    266c:	008001c4 	movi	r2,7
    2670:	af000015 	stw	fp,0(r21)
    2674:	ac000115 	stw	r16,4(r21)
    2678:	dc800e15 	stw	r18,56(sp)
    267c:	dc400d15 	stw	r17,52(sp)
    2680:	1441f516 	blt	r2,r17,2e58 <___vfprintf_internal_r+0xc70>
    2684:	ad400204 	addi	r21,r21,8
    2688:	00000206 	br	2694 <___vfprintf_internal_r+0x4ac>
    268c:	dc800e17 	ldw	r18,56(sp)
    2690:	dc400d17 	ldw	r17,52(sp)
    2694:	d8800407 	ldb	r2,16(sp)
    2698:	10000b26 	beq	r2,zero,26c8 <___vfprintf_internal_r+0x4e0>
    269c:	00800044 	movi	r2,1
    26a0:	94800044 	addi	r18,r18,1
    26a4:	8c400044 	addi	r17,r17,1
    26a8:	a8800115 	stw	r2,4(r21)
    26ac:	d8c00404 	addi	r3,sp,16
    26b0:	008001c4 	movi	r2,7
    26b4:	a8c00015 	stw	r3,0(r21)
    26b8:	dc800e15 	stw	r18,56(sp)
    26bc:	dc400d15 	stw	r17,52(sp)
    26c0:	1441da16 	blt	r2,r17,2e2c <___vfprintf_internal_r+0xc44>
    26c4:	ad400204 	addi	r21,r21,8
    26c8:	d9015017 	ldw	r4,1344(sp)
    26cc:	20000b1e 	bne	r4,zero,26fc <___vfprintf_internal_r+0x514>
    26d0:	d8800444 	addi	r2,sp,17
    26d4:	94800084 	addi	r18,r18,2
    26d8:	8c400044 	addi	r17,r17,1
    26dc:	a8800015 	stw	r2,0(r21)
    26e0:	00c00084 	movi	r3,2
    26e4:	008001c4 	movi	r2,7
    26e8:	a8c00115 	stw	r3,4(r21)
    26ec:	dc800e15 	stw	r18,56(sp)
    26f0:	dc400d15 	stw	r17,52(sp)
    26f4:	1441c216 	blt	r2,r17,2e00 <___vfprintf_internal_r+0xc18>
    26f8:	ad400204 	addi	r21,r21,8
    26fc:	d9414e17 	ldw	r5,1336(sp)
    2700:	00802004 	movi	r2,128
    2704:	2880b126 	beq	r5,r2,29cc <___vfprintf_internal_r+0x7e4>
    2708:	d8c14617 	ldw	r3,1304(sp)
    270c:	19e1c83a 	sub	r16,r3,r7
    2710:	0400260e 	bge	zero,r16,27ac <___vfprintf_internal_r+0x5c4>
    2714:	00800404 	movi	r2,16
    2718:	1403c90e 	bge	r2,r16,3640 <___vfprintf_internal_r+0x1458>
    271c:	1027883a 	mov	r19,r2
    2720:	07000074 	movhi	fp,1
    2724:	e7094984 	addi	fp,fp,9510
    2728:	050001c4 	movi	r20,7
    272c:	00000306 	br	273c <___vfprintf_internal_r+0x554>
    2730:	843ffc04 	addi	r16,r16,-16
    2734:	ad400204 	addi	r21,r21,8
    2738:	9c00130e 	bge	r19,r16,2788 <___vfprintf_internal_r+0x5a0>
    273c:	94800404 	addi	r18,r18,16
    2740:	8c400044 	addi	r17,r17,1
    2744:	af000015 	stw	fp,0(r21)
    2748:	acc00115 	stw	r19,4(r21)
    274c:	dc800e15 	stw	r18,56(sp)
    2750:	dc400d15 	stw	r17,52(sp)
    2754:	a47ff60e 	bge	r20,r17,2730 <___vfprintf_internal_r+0x548>
    2758:	d9014f17 	ldw	r4,1340(sp)
    275c:	b00b883a 	mov	r5,r22
    2760:	d9800c04 	addi	r6,sp,48
    2764:	d9c15115 	stw	r7,1348(sp)
    2768:	00021900 	call	2190 <__sprint_r>
    276c:	d9c15117 	ldw	r7,1348(sp)
    2770:	1000551e 	bne	r2,zero,28c8 <___vfprintf_internal_r+0x6e0>
    2774:	843ffc04 	addi	r16,r16,-16
    2778:	dc800e17 	ldw	r18,56(sp)
    277c:	dc400d17 	ldw	r17,52(sp)
    2780:	dd401904 	addi	r21,sp,100
    2784:	9c3fed16 	blt	r19,r16,273c <___vfprintf_internal_r+0x554>
    2788:	9425883a 	add	r18,r18,r16
    278c:	8c400044 	addi	r17,r17,1
    2790:	008001c4 	movi	r2,7
    2794:	af000015 	stw	fp,0(r21)
    2798:	ac000115 	stw	r16,4(r21)
    279c:	dc800e15 	stw	r18,56(sp)
    27a0:	dc400d15 	stw	r17,52(sp)
    27a4:	14418216 	blt	r2,r17,2db0 <___vfprintf_internal_r+0xbc8>
    27a8:	ad400204 	addi	r21,r21,8
    27ac:	d9014c17 	ldw	r4,1328(sp)
    27b0:	2080400c 	andi	r2,r4,256
    27b4:	10004a1e 	bne	r2,zero,28e0 <___vfprintf_internal_r+0x6f8>
    27b8:	d9414117 	ldw	r5,1284(sp)
    27bc:	91e5883a 	add	r18,r18,r7
    27c0:	8c400044 	addi	r17,r17,1
    27c4:	008001c4 	movi	r2,7
    27c8:	a9400015 	stw	r5,0(r21)
    27cc:	a9c00115 	stw	r7,4(r21)
    27d0:	dc800e15 	stw	r18,56(sp)
    27d4:	dc400d15 	stw	r17,52(sp)
    27d8:	14416716 	blt	r2,r17,2d78 <___vfprintf_internal_r+0xb90>
    27dc:	a8c00204 	addi	r3,r21,8
    27e0:	d9814c17 	ldw	r6,1328(sp)
    27e4:	3080010c 	andi	r2,r6,4
    27e8:	10002826 	beq	r2,zero,288c <___vfprintf_internal_r+0x6a4>
    27ec:	d8814a17 	ldw	r2,1320(sp)
    27f0:	d9014517 	ldw	r4,1300(sp)
    27f4:	1121c83a 	sub	r16,r2,r4
    27f8:	0400240e 	bge	zero,r16,288c <___vfprintf_internal_r+0x6a4>
    27fc:	00800404 	movi	r2,16
    2800:	14044f0e 	bge	r2,r16,3940 <___vfprintf_internal_r+0x1758>
    2804:	dc400d17 	ldw	r17,52(sp)
    2808:	1027883a 	mov	r19,r2
    280c:	07000074 	movhi	fp,1
    2810:	e7094d84 	addi	fp,fp,9526
    2814:	050001c4 	movi	r20,7
    2818:	00000306 	br	2828 <___vfprintf_internal_r+0x640>
    281c:	843ffc04 	addi	r16,r16,-16
    2820:	18c00204 	addi	r3,r3,8
    2824:	9c00110e 	bge	r19,r16,286c <___vfprintf_internal_r+0x684>
    2828:	94800404 	addi	r18,r18,16
    282c:	8c400044 	addi	r17,r17,1
    2830:	1f000015 	stw	fp,0(r3)
    2834:	1cc00115 	stw	r19,4(r3)
    2838:	dc800e15 	stw	r18,56(sp)
    283c:	dc400d15 	stw	r17,52(sp)
    2840:	a47ff60e 	bge	r20,r17,281c <___vfprintf_internal_r+0x634>
    2844:	d9014f17 	ldw	r4,1340(sp)
    2848:	b00b883a 	mov	r5,r22
    284c:	d9800c04 	addi	r6,sp,48
    2850:	00021900 	call	2190 <__sprint_r>
    2854:	10001c1e 	bne	r2,zero,28c8 <___vfprintf_internal_r+0x6e0>
    2858:	843ffc04 	addi	r16,r16,-16
    285c:	dc800e17 	ldw	r18,56(sp)
    2860:	dc400d17 	ldw	r17,52(sp)
    2864:	d8c01904 	addi	r3,sp,100
    2868:	9c3fef16 	blt	r19,r16,2828 <___vfprintf_internal_r+0x640>
    286c:	9425883a 	add	r18,r18,r16
    2870:	8c400044 	addi	r17,r17,1
    2874:	008001c4 	movi	r2,7
    2878:	1f000015 	stw	fp,0(r3)
    287c:	1c000115 	stw	r16,4(r3)
    2880:	dc800e15 	stw	r18,56(sp)
    2884:	dc400d15 	stw	r17,52(sp)
    2888:	1440cb16 	blt	r2,r17,2bb8 <___vfprintf_internal_r+0x9d0>
    288c:	d8814a17 	ldw	r2,1320(sp)
    2890:	d9414517 	ldw	r5,1300(sp)
    2894:	1140010e 	bge	r2,r5,289c <___vfprintf_internal_r+0x6b4>
    2898:	2805883a 	mov	r2,r5
    289c:	d9814b17 	ldw	r6,1324(sp)
    28a0:	308d883a 	add	r6,r6,r2
    28a4:	d9814b15 	stw	r6,1324(sp)
    28a8:	90013b1e 	bne	r18,zero,2d98 <___vfprintf_internal_r+0xbb0>
    28ac:	d9c14017 	ldw	r7,1280(sp)
    28b0:	dd401904 	addi	r21,sp,100
    28b4:	d8000d15 	stw	zero,52(sp)
    28b8:	003ea706 	br	2358 <___vfprintf_internal_r+0x170>
    28bc:	d8800e17 	ldw	r2,56(sp)
    28c0:	10053f1e 	bne	r2,zero,3dc0 <___vfprintf_internal_r+0x1bd8>
    28c4:	d8000d15 	stw	zero,52(sp)
    28c8:	b080030b 	ldhu	r2,12(r22)
    28cc:	1080100c 	andi	r2,r2,64
    28d0:	103e8726 	beq	r2,zero,22f0 <___vfprintf_internal_r+0x108>
    28d4:	00bfffc4 	movi	r2,-1
    28d8:	d8814b15 	stw	r2,1324(sp)
    28dc:	003e8406 	br	22f0 <___vfprintf_internal_r+0x108>
    28e0:	d9814d17 	ldw	r6,1332(sp)
    28e4:	00801944 	movi	r2,101
    28e8:	11806e16 	blt	r2,r6,2aa4 <___vfprintf_internal_r+0x8bc>
    28ec:	d9414717 	ldw	r5,1308(sp)
    28f0:	00c00044 	movi	r3,1
    28f4:	1943430e 	bge	r3,r5,3604 <___vfprintf_internal_r+0x141c>
    28f8:	d8814117 	ldw	r2,1284(sp)
    28fc:	94800044 	addi	r18,r18,1
    2900:	8c400044 	addi	r17,r17,1
    2904:	a8800015 	stw	r2,0(r21)
    2908:	008001c4 	movi	r2,7
    290c:	a8c00115 	stw	r3,4(r21)
    2910:	dc800e15 	stw	r18,56(sp)
    2914:	dc400d15 	stw	r17,52(sp)
    2918:	1441ca16 	blt	r2,r17,3044 <___vfprintf_internal_r+0xe5c>
    291c:	a8c00204 	addi	r3,r21,8
    2920:	d9014917 	ldw	r4,1316(sp)
    2924:	00800044 	movi	r2,1
    2928:	94800044 	addi	r18,r18,1
    292c:	8c400044 	addi	r17,r17,1
    2930:	18800115 	stw	r2,4(r3)
    2934:	008001c4 	movi	r2,7
    2938:	19000015 	stw	r4,0(r3)
    293c:	dc800e15 	stw	r18,56(sp)
    2940:	dc400d15 	stw	r17,52(sp)
    2944:	1441b616 	blt	r2,r17,3020 <___vfprintf_internal_r+0xe38>
    2948:	1cc00204 	addi	r19,r3,8
    294c:	d9014217 	ldw	r4,1288(sp)
    2950:	d9414317 	ldw	r5,1292(sp)
    2954:	000d883a 	mov	r6,zero
    2958:	000f883a 	mov	r7,zero
    295c:	000e7c40 	call	e7c4 <__nedf2>
    2960:	10017426 	beq	r2,zero,2f34 <___vfprintf_internal_r+0xd4c>
    2964:	d9414717 	ldw	r5,1308(sp)
    2968:	d9814117 	ldw	r6,1284(sp)
    296c:	8c400044 	addi	r17,r17,1
    2970:	2c85883a 	add	r2,r5,r18
    2974:	14bfffc4 	addi	r18,r2,-1
    2978:	28bfffc4 	addi	r2,r5,-1
    297c:	30c00044 	addi	r3,r6,1
    2980:	98800115 	stw	r2,4(r19)
    2984:	008001c4 	movi	r2,7
    2988:	98c00015 	stw	r3,0(r19)
    298c:	dc800e15 	stw	r18,56(sp)
    2990:	dc400d15 	stw	r17,52(sp)
    2994:	14418e16 	blt	r2,r17,2fd0 <___vfprintf_internal_r+0xde8>
    2998:	9cc00204 	addi	r19,r19,8
    299c:	d9414817 	ldw	r5,1312(sp)
    29a0:	d8800804 	addi	r2,sp,32
    29a4:	8c400044 	addi	r17,r17,1
    29a8:	9165883a 	add	r18,r18,r5
    29ac:	98800015 	stw	r2,0(r19)
    29b0:	008001c4 	movi	r2,7
    29b4:	99400115 	stw	r5,4(r19)
    29b8:	dc800e15 	stw	r18,56(sp)
    29bc:	dc400d15 	stw	r17,52(sp)
    29c0:	1440ed16 	blt	r2,r17,2d78 <___vfprintf_internal_r+0xb90>
    29c4:	98c00204 	addi	r3,r19,8
    29c8:	003f8506 	br	27e0 <___vfprintf_internal_r+0x5f8>
    29cc:	d9814a17 	ldw	r6,1320(sp)
    29d0:	d8814517 	ldw	r2,1300(sp)
    29d4:	30a1c83a 	sub	r16,r6,r2
    29d8:	043f4b0e 	bge	zero,r16,2708 <___vfprintf_internal_r+0x520>
    29dc:	00800404 	movi	r2,16
    29e0:	1404340e 	bge	r2,r16,3ab4 <___vfprintf_internal_r+0x18cc>
    29e4:	1027883a 	mov	r19,r2
    29e8:	07000074 	movhi	fp,1
    29ec:	e7094984 	addi	fp,fp,9510
    29f0:	050001c4 	movi	r20,7
    29f4:	00000306 	br	2a04 <___vfprintf_internal_r+0x81c>
    29f8:	843ffc04 	addi	r16,r16,-16
    29fc:	ad400204 	addi	r21,r21,8
    2a00:	9c00130e 	bge	r19,r16,2a50 <___vfprintf_internal_r+0x868>
    2a04:	94800404 	addi	r18,r18,16
    2a08:	8c400044 	addi	r17,r17,1
    2a0c:	af000015 	stw	fp,0(r21)
    2a10:	acc00115 	stw	r19,4(r21)
    2a14:	dc800e15 	stw	r18,56(sp)
    2a18:	dc400d15 	stw	r17,52(sp)
    2a1c:	a47ff60e 	bge	r20,r17,29f8 <___vfprintf_internal_r+0x810>
    2a20:	d9014f17 	ldw	r4,1340(sp)
    2a24:	b00b883a 	mov	r5,r22
    2a28:	d9800c04 	addi	r6,sp,48
    2a2c:	d9c15115 	stw	r7,1348(sp)
    2a30:	00021900 	call	2190 <__sprint_r>
    2a34:	d9c15117 	ldw	r7,1348(sp)
    2a38:	103fa31e 	bne	r2,zero,28c8 <___vfprintf_internal_r+0x6e0>
    2a3c:	843ffc04 	addi	r16,r16,-16
    2a40:	dc800e17 	ldw	r18,56(sp)
    2a44:	dc400d17 	ldw	r17,52(sp)
    2a48:	dd401904 	addi	r21,sp,100
    2a4c:	9c3fed16 	blt	r19,r16,2a04 <___vfprintf_internal_r+0x81c>
    2a50:	9425883a 	add	r18,r18,r16
    2a54:	8c400044 	addi	r17,r17,1
    2a58:	008001c4 	movi	r2,7
    2a5c:	af000015 	stw	fp,0(r21)
    2a60:	ac000115 	stw	r16,4(r21)
    2a64:	dc800e15 	stw	r18,56(sp)
    2a68:	dc400d15 	stw	r17,52(sp)
    2a6c:	14416116 	blt	r2,r17,2ff4 <___vfprintf_internal_r+0xe0c>
    2a70:	ad400204 	addi	r21,r21,8
    2a74:	003f2406 	br	2708 <___vfprintf_internal_r+0x520>
    2a78:	d9014f17 	ldw	r4,1340(sp)
    2a7c:	0000b340 	call	b34 <__sinit>
    2a80:	d9c15117 	ldw	r7,1348(sp)
    2a84:	003def06 	br	2244 <___vfprintf_internal_r+0x5c>
    2a88:	d9014f17 	ldw	r4,1340(sp)
    2a8c:	b00b883a 	mov	r5,r22
    2a90:	d9c15115 	stw	r7,1348(sp)
    2a94:	00058b00 	call	58b0 <__swsetup_r>
    2a98:	d9c15117 	ldw	r7,1348(sp)
    2a9c:	103dee26 	beq	r2,zero,2258 <___vfprintf_internal_r+0x70>
    2aa0:	003f8c06 	br	28d4 <___vfprintf_internal_r+0x6ec>
    2aa4:	d9014217 	ldw	r4,1288(sp)
    2aa8:	d9414317 	ldw	r5,1292(sp)
    2aac:	000d883a 	mov	r6,zero
    2ab0:	000f883a 	mov	r7,zero
    2ab4:	000e73c0 	call	e73c <__eqdf2>
    2ab8:	1000f21e 	bne	r2,zero,2e84 <___vfprintf_internal_r+0xc9c>
    2abc:	00800074 	movhi	r2,1
    2ac0:	10894904 	addi	r2,r2,9508
    2ac4:	94800044 	addi	r18,r18,1
    2ac8:	8c400044 	addi	r17,r17,1
    2acc:	a8800015 	stw	r2,0(r21)
    2ad0:	00c00044 	movi	r3,1
    2ad4:	008001c4 	movi	r2,7
    2ad8:	a8c00115 	stw	r3,4(r21)
    2adc:	dc800e15 	stw	r18,56(sp)
    2ae0:	dc400d15 	stw	r17,52(sp)
    2ae4:	1442fa16 	blt	r2,r17,36d0 <___vfprintf_internal_r+0x14e8>
    2ae8:	a8c00204 	addi	r3,r21,8
    2aec:	d8800517 	ldw	r2,20(sp)
    2af0:	d9014717 	ldw	r4,1308(sp)
    2af4:	11015c0e 	bge	r2,r4,3068 <___vfprintf_internal_r+0xe80>
    2af8:	dc400d17 	ldw	r17,52(sp)
    2afc:	d9814917 	ldw	r6,1316(sp)
    2b00:	00800044 	movi	r2,1
    2b04:	94800044 	addi	r18,r18,1
    2b08:	8c400044 	addi	r17,r17,1
    2b0c:	18800115 	stw	r2,4(r3)
    2b10:	008001c4 	movi	r2,7
    2b14:	19800015 	stw	r6,0(r3)
    2b18:	dc800e15 	stw	r18,56(sp)
    2b1c:	dc400d15 	stw	r17,52(sp)
    2b20:	14431016 	blt	r2,r17,3764 <___vfprintf_internal_r+0x157c>
    2b24:	18c00204 	addi	r3,r3,8
    2b28:	d8814717 	ldw	r2,1308(sp)
    2b2c:	143fffc4 	addi	r16,r2,-1
    2b30:	043f2b0e 	bge	zero,r16,27e0 <___vfprintf_internal_r+0x5f8>
    2b34:	00800404 	movi	r2,16
    2b38:	1402a20e 	bge	r2,r16,35c4 <___vfprintf_internal_r+0x13dc>
    2b3c:	dc400d17 	ldw	r17,52(sp)
    2b40:	1027883a 	mov	r19,r2
    2b44:	07000074 	movhi	fp,1
    2b48:	e7094984 	addi	fp,fp,9510
    2b4c:	050001c4 	movi	r20,7
    2b50:	00000306 	br	2b60 <___vfprintf_internal_r+0x978>
    2b54:	18c00204 	addi	r3,r3,8
    2b58:	843ffc04 	addi	r16,r16,-16
    2b5c:	9c029c0e 	bge	r19,r16,35d0 <___vfprintf_internal_r+0x13e8>
    2b60:	94800404 	addi	r18,r18,16
    2b64:	8c400044 	addi	r17,r17,1
    2b68:	1f000015 	stw	fp,0(r3)
    2b6c:	1cc00115 	stw	r19,4(r3)
    2b70:	dc800e15 	stw	r18,56(sp)
    2b74:	dc400d15 	stw	r17,52(sp)
    2b78:	a47ff60e 	bge	r20,r17,2b54 <___vfprintf_internal_r+0x96c>
    2b7c:	d9014f17 	ldw	r4,1340(sp)
    2b80:	b00b883a 	mov	r5,r22
    2b84:	d9800c04 	addi	r6,sp,48
    2b88:	00021900 	call	2190 <__sprint_r>
    2b8c:	103f4e1e 	bne	r2,zero,28c8 <___vfprintf_internal_r+0x6e0>
    2b90:	dc800e17 	ldw	r18,56(sp)
    2b94:	dc400d17 	ldw	r17,52(sp)
    2b98:	d8c01904 	addi	r3,sp,100
    2b9c:	003fee06 	br	2b58 <___vfprintf_internal_r+0x970>
    2ba0:	d8802c0b 	ldhu	r2,176(sp)
    2ba4:	00ffffc4 	movi	r3,-1
    2ba8:	d8c14b15 	stw	r3,1324(sp)
    2bac:	1080100c 	andi	r2,r2,64
    2bb0:	103dcc1e 	bne	r2,zero,22e4 <___vfprintf_internal_r+0xfc>
    2bb4:	003dce06 	br	22f0 <___vfprintf_internal_r+0x108>
    2bb8:	d9014f17 	ldw	r4,1340(sp)
    2bbc:	b00b883a 	mov	r5,r22
    2bc0:	d9800c04 	addi	r6,sp,48
    2bc4:	00021900 	call	2190 <__sprint_r>
    2bc8:	103f3f1e 	bne	r2,zero,28c8 <___vfprintf_internal_r+0x6e0>
    2bcc:	dc800e17 	ldw	r18,56(sp)
    2bd0:	003f2e06 	br	288c <___vfprintf_internal_r+0x6a4>
    2bd4:	d9414c17 	ldw	r5,1328(sp)
    2bd8:	29400414 	ori	r5,r5,16
    2bdc:	d9414c15 	stw	r5,1328(sp)
    2be0:	d9814c17 	ldw	r6,1328(sp)
    2be4:	3080080c 	andi	r2,r6,32
    2be8:	10014f1e 	bne	r2,zero,3128 <___vfprintf_internal_r+0xf40>
    2bec:	d8c14c17 	ldw	r3,1328(sp)
    2bf0:	1880040c 	andi	r2,r3,16
    2bf4:	1002ea1e 	bne	r2,zero,37a0 <___vfprintf_internal_r+0x15b8>
    2bf8:	d9014c17 	ldw	r4,1328(sp)
    2bfc:	2080100c 	andi	r2,r4,64
    2c00:	1002e726 	beq	r2,zero,37a0 <___vfprintf_internal_r+0x15b8>
    2c04:	3880000f 	ldh	r2,0(r7)
    2c08:	39c00104 	addi	r7,r7,4
    2c0c:	d9c14015 	stw	r7,1280(sp)
    2c10:	1023d7fa 	srai	r17,r2,31
    2c14:	1021883a 	mov	r16,r2
    2c18:	88037216 	blt	r17,zero,39e4 <___vfprintf_internal_r+0x17fc>
    2c1c:	01000044 	movi	r4,1
    2c20:	98000416 	blt	r19,zero,2c34 <___vfprintf_internal_r+0xa4c>
    2c24:	d8c14c17 	ldw	r3,1328(sp)
    2c28:	00bfdfc4 	movi	r2,-129
    2c2c:	1886703a 	and	r3,r3,r2
    2c30:	d8c14c15 	stw	r3,1328(sp)
    2c34:	8444b03a 	or	r2,r16,r17
    2c38:	1002261e 	bne	r2,zero,34d4 <___vfprintf_internal_r+0x12ec>
    2c3c:	9802251e 	bne	r19,zero,34d4 <___vfprintf_internal_r+0x12ec>
    2c40:	20803fcc 	andi	r2,r4,255
    2c44:	10029b26 	beq	r2,zero,36b4 <___vfprintf_internal_r+0x14cc>
    2c48:	d8c01904 	addi	r3,sp,100
    2c4c:	dd000f04 	addi	r20,sp,60
    2c50:	d8c14115 	stw	r3,1284(sp)
    2c54:	d8c14117 	ldw	r3,1284(sp)
    2c58:	dcc14515 	stw	r19,1300(sp)
    2c5c:	a0c5c83a 	sub	r2,r20,r3
    2c60:	11c00a04 	addi	r7,r2,40
    2c64:	99c0010e 	bge	r19,r7,2c6c <___vfprintf_internal_r+0xa84>
    2c68:	d9c14515 	stw	r7,1300(sp)
    2c6c:	dcc14615 	stw	r19,1304(sp)
    2c70:	d8800407 	ldb	r2,16(sp)
    2c74:	103e4c26 	beq	r2,zero,25a8 <___vfprintf_internal_r+0x3c0>
    2c78:	d8814517 	ldw	r2,1300(sp)
    2c7c:	10800044 	addi	r2,r2,1
    2c80:	d8814515 	stw	r2,1300(sp)
    2c84:	003e4806 	br	25a8 <___vfprintf_internal_r+0x3c0>
    2c88:	d9814c17 	ldw	r6,1328(sp)
    2c8c:	31800414 	ori	r6,r6,16
    2c90:	d9814c15 	stw	r6,1328(sp)
    2c94:	d8c14c17 	ldw	r3,1328(sp)
    2c98:	1880080c 	andi	r2,r3,32
    2c9c:	1001271e 	bne	r2,zero,313c <___vfprintf_internal_r+0xf54>
    2ca0:	d9414c17 	ldw	r5,1328(sp)
    2ca4:	2880040c 	andi	r2,r5,16
    2ca8:	1002b61e 	bne	r2,zero,3784 <___vfprintf_internal_r+0x159c>
    2cac:	d9814c17 	ldw	r6,1328(sp)
    2cb0:	3080100c 	andi	r2,r6,64
    2cb4:	1002b326 	beq	r2,zero,3784 <___vfprintf_internal_r+0x159c>
    2cb8:	3c00000b 	ldhu	r16,0(r7)
    2cbc:	0009883a 	mov	r4,zero
    2cc0:	39c00104 	addi	r7,r7,4
    2cc4:	0023883a 	mov	r17,zero
    2cc8:	d9c14015 	stw	r7,1280(sp)
    2ccc:	d8000405 	stb	zero,16(sp)
    2cd0:	003fd306 	br	2c20 <___vfprintf_internal_r+0xa38>
    2cd4:	d9014c17 	ldw	r4,1328(sp)
    2cd8:	21000414 	ori	r4,r4,16
    2cdc:	d9014c15 	stw	r4,1328(sp)
    2ce0:	d9414c17 	ldw	r5,1328(sp)
    2ce4:	2880080c 	andi	r2,r5,32
    2ce8:	1001081e 	bne	r2,zero,310c <___vfprintf_internal_r+0xf24>
    2cec:	d8c14c17 	ldw	r3,1328(sp)
    2cf0:	1880040c 	andi	r2,r3,16
    2cf4:	1002b01e 	bne	r2,zero,37b8 <___vfprintf_internal_r+0x15d0>
    2cf8:	d9014c17 	ldw	r4,1328(sp)
    2cfc:	2080100c 	andi	r2,r4,64
    2d00:	1002ad26 	beq	r2,zero,37b8 <___vfprintf_internal_r+0x15d0>
    2d04:	3c00000b 	ldhu	r16,0(r7)
    2d08:	01000044 	movi	r4,1
    2d0c:	39c00104 	addi	r7,r7,4
    2d10:	0023883a 	mov	r17,zero
    2d14:	d9c14015 	stw	r7,1280(sp)
    2d18:	d8000405 	stb	zero,16(sp)
    2d1c:	003fc006 	br	2c20 <___vfprintf_internal_r+0xa38>
    2d20:	d9014f17 	ldw	r4,1340(sp)
    2d24:	b00b883a 	mov	r5,r22
    2d28:	d9800c04 	addi	r6,sp,48
    2d2c:	00021900 	call	2190 <__sprint_r>
    2d30:	103ee51e 	bne	r2,zero,28c8 <___vfprintf_internal_r+0x6e0>
    2d34:	dc800e17 	ldw	r18,56(sp)
    2d38:	d8c01904 	addi	r3,sp,100
    2d3c:	d9814c17 	ldw	r6,1328(sp)
    2d40:	3080004c 	andi	r2,r6,1
    2d44:	1005003a 	cmpeq	r2,r2,zero
    2d48:	103ea51e 	bne	r2,zero,27e0 <___vfprintf_internal_r+0x5f8>
    2d4c:	00800044 	movi	r2,1
    2d50:	dc400d17 	ldw	r17,52(sp)
    2d54:	18800115 	stw	r2,4(r3)
    2d58:	d8814917 	ldw	r2,1316(sp)
    2d5c:	94800044 	addi	r18,r18,1
    2d60:	8c400044 	addi	r17,r17,1
    2d64:	18800015 	stw	r2,0(r3)
    2d68:	008001c4 	movi	r2,7
    2d6c:	dc800e15 	stw	r18,56(sp)
    2d70:	dc400d15 	stw	r17,52(sp)
    2d74:	14421e0e 	bge	r2,r17,35f0 <___vfprintf_internal_r+0x1408>
    2d78:	d9014f17 	ldw	r4,1340(sp)
    2d7c:	b00b883a 	mov	r5,r22
    2d80:	d9800c04 	addi	r6,sp,48
    2d84:	00021900 	call	2190 <__sprint_r>
    2d88:	103ecf1e 	bne	r2,zero,28c8 <___vfprintf_internal_r+0x6e0>
    2d8c:	dc800e17 	ldw	r18,56(sp)
    2d90:	d8c01904 	addi	r3,sp,100
    2d94:	003e9206 	br	27e0 <___vfprintf_internal_r+0x5f8>
    2d98:	d9014f17 	ldw	r4,1340(sp)
    2d9c:	b00b883a 	mov	r5,r22
    2da0:	d9800c04 	addi	r6,sp,48
    2da4:	00021900 	call	2190 <__sprint_r>
    2da8:	103ec026 	beq	r2,zero,28ac <___vfprintf_internal_r+0x6c4>
    2dac:	003ec606 	br	28c8 <___vfprintf_internal_r+0x6e0>
    2db0:	d9014f17 	ldw	r4,1340(sp)
    2db4:	b00b883a 	mov	r5,r22
    2db8:	d9800c04 	addi	r6,sp,48
    2dbc:	d9c15115 	stw	r7,1348(sp)
    2dc0:	00021900 	call	2190 <__sprint_r>
    2dc4:	d9c15117 	ldw	r7,1348(sp)
    2dc8:	103ebf1e 	bne	r2,zero,28c8 <___vfprintf_internal_r+0x6e0>
    2dcc:	dc800e17 	ldw	r18,56(sp)
    2dd0:	dc400d17 	ldw	r17,52(sp)
    2dd4:	dd401904 	addi	r21,sp,100
    2dd8:	003e7406 	br	27ac <___vfprintf_internal_r+0x5c4>
    2ddc:	d9014f17 	ldw	r4,1340(sp)
    2de0:	b00b883a 	mov	r5,r22
    2de4:	d9800c04 	addi	r6,sp,48
    2de8:	d9c15115 	stw	r7,1348(sp)
    2dec:	00021900 	call	2190 <__sprint_r>
    2df0:	d9c15117 	ldw	r7,1348(sp)
    2df4:	103eb41e 	bne	r2,zero,28c8 <___vfprintf_internal_r+0x6e0>
    2df8:	dd401904 	addi	r21,sp,100
    2dfc:	003d6d06 	br	23b4 <___vfprintf_internal_r+0x1cc>
    2e00:	d9014f17 	ldw	r4,1340(sp)
    2e04:	b00b883a 	mov	r5,r22
    2e08:	d9800c04 	addi	r6,sp,48
    2e0c:	d9c15115 	stw	r7,1348(sp)
    2e10:	00021900 	call	2190 <__sprint_r>
    2e14:	d9c15117 	ldw	r7,1348(sp)
    2e18:	103eab1e 	bne	r2,zero,28c8 <___vfprintf_internal_r+0x6e0>
    2e1c:	dc800e17 	ldw	r18,56(sp)
    2e20:	dc400d17 	ldw	r17,52(sp)
    2e24:	dd401904 	addi	r21,sp,100
    2e28:	003e3406 	br	26fc <___vfprintf_internal_r+0x514>
    2e2c:	d9014f17 	ldw	r4,1340(sp)
    2e30:	b00b883a 	mov	r5,r22
    2e34:	d9800c04 	addi	r6,sp,48
    2e38:	d9c15115 	stw	r7,1348(sp)
    2e3c:	00021900 	call	2190 <__sprint_r>
    2e40:	d9c15117 	ldw	r7,1348(sp)
    2e44:	103ea01e 	bne	r2,zero,28c8 <___vfprintf_internal_r+0x6e0>
    2e48:	dc800e17 	ldw	r18,56(sp)
    2e4c:	dc400d17 	ldw	r17,52(sp)
    2e50:	dd401904 	addi	r21,sp,100
    2e54:	003e1c06 	br	26c8 <___vfprintf_internal_r+0x4e0>
    2e58:	d9014f17 	ldw	r4,1340(sp)
    2e5c:	b00b883a 	mov	r5,r22
    2e60:	d9800c04 	addi	r6,sp,48
    2e64:	d9c15115 	stw	r7,1348(sp)
    2e68:	00021900 	call	2190 <__sprint_r>
    2e6c:	d9c15117 	ldw	r7,1348(sp)
    2e70:	103e951e 	bne	r2,zero,28c8 <___vfprintf_internal_r+0x6e0>
    2e74:	dc800e17 	ldw	r18,56(sp)
    2e78:	dc400d17 	ldw	r17,52(sp)
    2e7c:	dd401904 	addi	r21,sp,100
    2e80:	003e0406 	br	2694 <___vfprintf_internal_r+0x4ac>
    2e84:	d9000517 	ldw	r4,20(sp)
    2e88:	0102520e 	bge	zero,r4,37d4 <___vfprintf_internal_r+0x15ec>
    2e8c:	d9814717 	ldw	r6,1308(sp)
    2e90:	21807a16 	blt	r4,r6,307c <___vfprintf_internal_r+0xe94>
    2e94:	d8814117 	ldw	r2,1284(sp)
    2e98:	91a5883a 	add	r18,r18,r6
    2e9c:	8c400044 	addi	r17,r17,1
    2ea0:	a8800015 	stw	r2,0(r21)
    2ea4:	008001c4 	movi	r2,7
    2ea8:	a9800115 	stw	r6,4(r21)
    2eac:	dc800e15 	stw	r18,56(sp)
    2eb0:	dc400d15 	stw	r17,52(sp)
    2eb4:	1442f616 	blt	r2,r17,3a90 <___vfprintf_internal_r+0x18a8>
    2eb8:	a8c00204 	addi	r3,r21,8
    2ebc:	d9414717 	ldw	r5,1308(sp)
    2ec0:	2161c83a 	sub	r16,r4,r5
    2ec4:	043f9d0e 	bge	zero,r16,2d3c <___vfprintf_internal_r+0xb54>
    2ec8:	00800404 	movi	r2,16
    2ecc:	1402130e 	bge	r2,r16,371c <___vfprintf_internal_r+0x1534>
    2ed0:	dc400d17 	ldw	r17,52(sp)
    2ed4:	1027883a 	mov	r19,r2
    2ed8:	07000074 	movhi	fp,1
    2edc:	e7094984 	addi	fp,fp,9510
    2ee0:	050001c4 	movi	r20,7
    2ee4:	00000306 	br	2ef4 <___vfprintf_internal_r+0xd0c>
    2ee8:	18c00204 	addi	r3,r3,8
    2eec:	843ffc04 	addi	r16,r16,-16
    2ef0:	9c020d0e 	bge	r19,r16,3728 <___vfprintf_internal_r+0x1540>
    2ef4:	94800404 	addi	r18,r18,16
    2ef8:	8c400044 	addi	r17,r17,1
    2efc:	1f000015 	stw	fp,0(r3)
    2f00:	1cc00115 	stw	r19,4(r3)
    2f04:	dc800e15 	stw	r18,56(sp)
    2f08:	dc400d15 	stw	r17,52(sp)
    2f0c:	a47ff60e 	bge	r20,r17,2ee8 <___vfprintf_internal_r+0xd00>
    2f10:	d9014f17 	ldw	r4,1340(sp)
    2f14:	b00b883a 	mov	r5,r22
    2f18:	d9800c04 	addi	r6,sp,48
    2f1c:	00021900 	call	2190 <__sprint_r>
    2f20:	103e691e 	bne	r2,zero,28c8 <___vfprintf_internal_r+0x6e0>
    2f24:	dc800e17 	ldw	r18,56(sp)
    2f28:	dc400d17 	ldw	r17,52(sp)
    2f2c:	d8c01904 	addi	r3,sp,100
    2f30:	003fee06 	br	2eec <___vfprintf_internal_r+0xd04>
    2f34:	d8814717 	ldw	r2,1308(sp)
    2f38:	143fffc4 	addi	r16,r2,-1
    2f3c:	043e970e 	bge	zero,r16,299c <___vfprintf_internal_r+0x7b4>
    2f40:	00800404 	movi	r2,16
    2f44:	1400180e 	bge	r2,r16,2fa8 <___vfprintf_internal_r+0xdc0>
    2f48:	1029883a 	mov	r20,r2
    2f4c:	07000074 	movhi	fp,1
    2f50:	e7094984 	addi	fp,fp,9510
    2f54:	054001c4 	movi	r21,7
    2f58:	00000306 	br	2f68 <___vfprintf_internal_r+0xd80>
    2f5c:	9cc00204 	addi	r19,r19,8
    2f60:	843ffc04 	addi	r16,r16,-16
    2f64:	a400120e 	bge	r20,r16,2fb0 <___vfprintf_internal_r+0xdc8>
    2f68:	94800404 	addi	r18,r18,16
    2f6c:	8c400044 	addi	r17,r17,1
    2f70:	9f000015 	stw	fp,0(r19)
    2f74:	9d000115 	stw	r20,4(r19)
    2f78:	dc800e15 	stw	r18,56(sp)
    2f7c:	dc400d15 	stw	r17,52(sp)
    2f80:	ac7ff60e 	bge	r21,r17,2f5c <___vfprintf_internal_r+0xd74>
    2f84:	d9014f17 	ldw	r4,1340(sp)
    2f88:	b00b883a 	mov	r5,r22
    2f8c:	d9800c04 	addi	r6,sp,48
    2f90:	00021900 	call	2190 <__sprint_r>
    2f94:	103e4c1e 	bne	r2,zero,28c8 <___vfprintf_internal_r+0x6e0>
    2f98:	dc800e17 	ldw	r18,56(sp)
    2f9c:	dc400d17 	ldw	r17,52(sp)
    2fa0:	dcc01904 	addi	r19,sp,100
    2fa4:	003fee06 	br	2f60 <___vfprintf_internal_r+0xd78>
    2fa8:	07000074 	movhi	fp,1
    2fac:	e7094984 	addi	fp,fp,9510
    2fb0:	9425883a 	add	r18,r18,r16
    2fb4:	8c400044 	addi	r17,r17,1
    2fb8:	008001c4 	movi	r2,7
    2fbc:	9f000015 	stw	fp,0(r19)
    2fc0:	9c000115 	stw	r16,4(r19)
    2fc4:	dc800e15 	stw	r18,56(sp)
    2fc8:	dc400d15 	stw	r17,52(sp)
    2fcc:	147e720e 	bge	r2,r17,2998 <___vfprintf_internal_r+0x7b0>
    2fd0:	d9014f17 	ldw	r4,1340(sp)
    2fd4:	b00b883a 	mov	r5,r22
    2fd8:	d9800c04 	addi	r6,sp,48
    2fdc:	00021900 	call	2190 <__sprint_r>
    2fe0:	103e391e 	bne	r2,zero,28c8 <___vfprintf_internal_r+0x6e0>
    2fe4:	dc800e17 	ldw	r18,56(sp)
    2fe8:	dc400d17 	ldw	r17,52(sp)
    2fec:	dcc01904 	addi	r19,sp,100
    2ff0:	003e6a06 	br	299c <___vfprintf_internal_r+0x7b4>
    2ff4:	d9014f17 	ldw	r4,1340(sp)
    2ff8:	b00b883a 	mov	r5,r22
    2ffc:	d9800c04 	addi	r6,sp,48
    3000:	d9c15115 	stw	r7,1348(sp)
    3004:	00021900 	call	2190 <__sprint_r>
    3008:	d9c15117 	ldw	r7,1348(sp)
    300c:	103e2e1e 	bne	r2,zero,28c8 <___vfprintf_internal_r+0x6e0>
    3010:	dc800e17 	ldw	r18,56(sp)
    3014:	dc400d17 	ldw	r17,52(sp)
    3018:	dd401904 	addi	r21,sp,100
    301c:	003dba06 	br	2708 <___vfprintf_internal_r+0x520>
    3020:	d9014f17 	ldw	r4,1340(sp)
    3024:	b00b883a 	mov	r5,r22
    3028:	d9800c04 	addi	r6,sp,48
    302c:	00021900 	call	2190 <__sprint_r>
    3030:	103e251e 	bne	r2,zero,28c8 <___vfprintf_internal_r+0x6e0>
    3034:	dc800e17 	ldw	r18,56(sp)
    3038:	dc400d17 	ldw	r17,52(sp)
    303c:	dcc01904 	addi	r19,sp,100
    3040:	003e4206 	br	294c <___vfprintf_internal_r+0x764>
    3044:	d9014f17 	ldw	r4,1340(sp)
    3048:	b00b883a 	mov	r5,r22
    304c:	d9800c04 	addi	r6,sp,48
    3050:	00021900 	call	2190 <__sprint_r>
    3054:	103e1c1e 	bne	r2,zero,28c8 <___vfprintf_internal_r+0x6e0>
    3058:	dc800e17 	ldw	r18,56(sp)
    305c:	dc400d17 	ldw	r17,52(sp)
    3060:	d8c01904 	addi	r3,sp,100
    3064:	003e2e06 	br	2920 <___vfprintf_internal_r+0x738>
    3068:	d9414c17 	ldw	r5,1328(sp)
    306c:	2880004c 	andi	r2,r5,1
    3070:	1005003a 	cmpeq	r2,r2,zero
    3074:	103dda1e 	bne	r2,zero,27e0 <___vfprintf_internal_r+0x5f8>
    3078:	003e9f06 	br	2af8 <___vfprintf_internal_r+0x910>
    307c:	d8c14117 	ldw	r3,1284(sp)
    3080:	9125883a 	add	r18,r18,r4
    3084:	8c400044 	addi	r17,r17,1
    3088:	008001c4 	movi	r2,7
    308c:	a8c00015 	stw	r3,0(r21)
    3090:	a9000115 	stw	r4,4(r21)
    3094:	dc800e15 	stw	r18,56(sp)
    3098:	dc400d15 	stw	r17,52(sp)
    309c:	14426616 	blt	r2,r17,3a38 <___vfprintf_internal_r+0x1850>
    30a0:	a8c00204 	addi	r3,r21,8
    30a4:	d9414917 	ldw	r5,1316(sp)
    30a8:	00800044 	movi	r2,1
    30ac:	94800044 	addi	r18,r18,1
    30b0:	8c400044 	addi	r17,r17,1
    30b4:	18800115 	stw	r2,4(r3)
    30b8:	008001c4 	movi	r2,7
    30bc:	19400015 	stw	r5,0(r3)
    30c0:	dc800e15 	stw	r18,56(sp)
    30c4:	dc400d15 	stw	r17,52(sp)
    30c8:	2021883a 	mov	r16,r4
    30cc:	14425016 	blt	r2,r17,3a10 <___vfprintf_internal_r+0x1828>
    30d0:	19400204 	addi	r5,r3,8
    30d4:	d9814717 	ldw	r6,1308(sp)
    30d8:	8c400044 	addi	r17,r17,1
    30dc:	dc400d15 	stw	r17,52(sp)
    30e0:	3107c83a 	sub	r3,r6,r4
    30e4:	d9014117 	ldw	r4,1284(sp)
    30e8:	90e5883a 	add	r18,r18,r3
    30ec:	28c00115 	stw	r3,4(r5)
    30f0:	8105883a 	add	r2,r16,r4
    30f4:	28800015 	stw	r2,0(r5)
    30f8:	008001c4 	movi	r2,7
    30fc:	dc800e15 	stw	r18,56(sp)
    3100:	147f1d16 	blt	r2,r17,2d78 <___vfprintf_internal_r+0xb90>
    3104:	28c00204 	addi	r3,r5,8
    3108:	003db506 	br	27e0 <___vfprintf_internal_r+0x5f8>
    310c:	3c000017 	ldw	r16,0(r7)
    3110:	3c400117 	ldw	r17,4(r7)
    3114:	39800204 	addi	r6,r7,8
    3118:	01000044 	movi	r4,1
    311c:	d9814015 	stw	r6,1280(sp)
    3120:	d8000405 	stb	zero,16(sp)
    3124:	003ebe06 	br	2c20 <___vfprintf_internal_r+0xa38>
    3128:	3c000017 	ldw	r16,0(r7)
    312c:	3c400117 	ldw	r17,4(r7)
    3130:	38800204 	addi	r2,r7,8
    3134:	d8814015 	stw	r2,1280(sp)
    3138:	003eb706 	br	2c18 <___vfprintf_internal_r+0xa30>
    313c:	3c000017 	ldw	r16,0(r7)
    3140:	3c400117 	ldw	r17,4(r7)
    3144:	39000204 	addi	r4,r7,8
    3148:	d9014015 	stw	r4,1280(sp)
    314c:	0009883a 	mov	r4,zero
    3150:	d8000405 	stb	zero,16(sp)
    3154:	003eb206 	br	2c20 <___vfprintf_internal_r+0xa38>
    3158:	38c00017 	ldw	r3,0(r7)
    315c:	39c00104 	addi	r7,r7,4
    3160:	d8c14a15 	stw	r3,1320(sp)
    3164:	1800d10e 	bge	r3,zero,34ac <___vfprintf_internal_r+0x12c4>
    3168:	00c7c83a 	sub	r3,zero,r3
    316c:	d8c14a15 	stw	r3,1320(sp)
    3170:	d9014c17 	ldw	r4,1328(sp)
    3174:	b8c00007 	ldb	r3,0(r23)
    3178:	21000114 	ori	r4,r4,4
    317c:	d9014c15 	stw	r4,1328(sp)
    3180:	003c9806 	br	23e4 <___vfprintf_internal_r+0x1fc>
    3184:	d9814c17 	ldw	r6,1328(sp)
    3188:	3080080c 	andi	r2,r6,32
    318c:	1001f026 	beq	r2,zero,3950 <___vfprintf_internal_r+0x1768>
    3190:	d9014b17 	ldw	r4,1324(sp)
    3194:	38800017 	ldw	r2,0(r7)
    3198:	39c00104 	addi	r7,r7,4
    319c:	d9c14015 	stw	r7,1280(sp)
    31a0:	2007d7fa 	srai	r3,r4,31
    31a4:	d9c14017 	ldw	r7,1280(sp)
    31a8:	11000015 	stw	r4,0(r2)
    31ac:	10c00115 	stw	r3,4(r2)
    31b0:	003c6906 	br	2358 <___vfprintf_internal_r+0x170>
    31b4:	b8c00007 	ldb	r3,0(r23)
    31b8:	00801b04 	movi	r2,108
    31bc:	18824f26 	beq	r3,r2,3afc <___vfprintf_internal_r+0x1914>
    31c0:	d9414c17 	ldw	r5,1328(sp)
    31c4:	29400414 	ori	r5,r5,16
    31c8:	d9414c15 	stw	r5,1328(sp)
    31cc:	003c8506 	br	23e4 <___vfprintf_internal_r+0x1fc>
    31d0:	d9814c17 	ldw	r6,1328(sp)
    31d4:	b8c00007 	ldb	r3,0(r23)
    31d8:	31800814 	ori	r6,r6,32
    31dc:	d9814c15 	stw	r6,1328(sp)
    31e0:	003c8006 	br	23e4 <___vfprintf_internal_r+0x1fc>
    31e4:	d8814c17 	ldw	r2,1328(sp)
    31e8:	3c000017 	ldw	r16,0(r7)
    31ec:	00c01e04 	movi	r3,120
    31f0:	10800094 	ori	r2,r2,2
    31f4:	d8814c15 	stw	r2,1328(sp)
    31f8:	39c00104 	addi	r7,r7,4
    31fc:	01400074 	movhi	r5,1
    3200:	29493204 	addi	r5,r5,9416
    3204:	00800c04 	movi	r2,48
    3208:	0023883a 	mov	r17,zero
    320c:	01000084 	movi	r4,2
    3210:	d9c14015 	stw	r7,1280(sp)
    3214:	d8c14d15 	stw	r3,1332(sp)
    3218:	d9414415 	stw	r5,1296(sp)
    321c:	d8800445 	stb	r2,17(sp)
    3220:	d8c00485 	stb	r3,18(sp)
    3224:	d8000405 	stb	zero,16(sp)
    3228:	003e7d06 	br	2c20 <___vfprintf_internal_r+0xa38>
    322c:	d8814c17 	ldw	r2,1328(sp)
    3230:	b8c00007 	ldb	r3,0(r23)
    3234:	10801014 	ori	r2,r2,64
    3238:	d8814c15 	stw	r2,1328(sp)
    323c:	003c6906 	br	23e4 <___vfprintf_internal_r+0x1fc>
    3240:	d9414c17 	ldw	r5,1328(sp)
    3244:	2880020c 	andi	r2,r5,8
    3248:	1001df26 	beq	r2,zero,39c8 <___vfprintf_internal_r+0x17e0>
    324c:	39800017 	ldw	r6,0(r7)
    3250:	38800204 	addi	r2,r7,8
    3254:	d8814015 	stw	r2,1280(sp)
    3258:	d9814215 	stw	r6,1288(sp)
    325c:	39c00117 	ldw	r7,4(r7)
    3260:	d9c14315 	stw	r7,1292(sp)
    3264:	d9014217 	ldw	r4,1288(sp)
    3268:	d9414317 	ldw	r5,1292(sp)
    326c:	0009bd00 	call	9bd0 <__isinfd>
    3270:	10021726 	beq	r2,zero,3ad0 <___vfprintf_internal_r+0x18e8>
    3274:	d9014217 	ldw	r4,1288(sp)
    3278:	d9414317 	ldw	r5,1292(sp)
    327c:	000d883a 	mov	r6,zero
    3280:	000f883a 	mov	r7,zero
    3284:	000e95c0 	call	e95c <__ltdf2>
    3288:	1002ca16 	blt	r2,zero,3db4 <___vfprintf_internal_r+0x1bcc>
    328c:	d9414d17 	ldw	r5,1332(sp)
    3290:	008011c4 	movi	r2,71
    3294:	11420a16 	blt	r2,r5,3ac0 <___vfprintf_internal_r+0x18d8>
    3298:	01800074 	movhi	r6,1
    329c:	31893704 	addi	r6,r6,9436
    32a0:	d9814115 	stw	r6,1284(sp)
    32a4:	d9014c17 	ldw	r4,1328(sp)
    32a8:	00c000c4 	movi	r3,3
    32ac:	00bfdfc4 	movi	r2,-129
    32b0:	2088703a 	and	r4,r4,r2
    32b4:	180f883a 	mov	r7,r3
    32b8:	d8c14515 	stw	r3,1300(sp)
    32bc:	d9014c15 	stw	r4,1328(sp)
    32c0:	d8014615 	stw	zero,1304(sp)
    32c4:	003e6a06 	br	2c70 <___vfprintf_internal_r+0xa88>
    32c8:	38800017 	ldw	r2,0(r7)
    32cc:	00c00044 	movi	r3,1
    32d0:	39c00104 	addi	r7,r7,4
    32d4:	d9c14015 	stw	r7,1280(sp)
    32d8:	d9000f04 	addi	r4,sp,60
    32dc:	180f883a 	mov	r7,r3
    32e0:	d8c14515 	stw	r3,1300(sp)
    32e4:	d9014115 	stw	r4,1284(sp)
    32e8:	d8800f05 	stb	r2,60(sp)
    32ec:	d8000405 	stb	zero,16(sp)
    32f0:	003cac06 	br	25a4 <___vfprintf_internal_r+0x3bc>
    32f4:	01400074 	movhi	r5,1
    32f8:	29493d04 	addi	r5,r5,9460
    32fc:	d9414415 	stw	r5,1296(sp)
    3300:	d9814c17 	ldw	r6,1328(sp)
    3304:	3080080c 	andi	r2,r6,32
    3308:	1000f926 	beq	r2,zero,36f0 <___vfprintf_internal_r+0x1508>
    330c:	3c000017 	ldw	r16,0(r7)
    3310:	3c400117 	ldw	r17,4(r7)
    3314:	38800204 	addi	r2,r7,8
    3318:	d8814015 	stw	r2,1280(sp)
    331c:	d9414c17 	ldw	r5,1328(sp)
    3320:	2880004c 	andi	r2,r5,1
    3324:	1005003a 	cmpeq	r2,r2,zero
    3328:	1000b31e 	bne	r2,zero,35f8 <___vfprintf_internal_r+0x1410>
    332c:	8444b03a 	or	r2,r16,r17
    3330:	1000b126 	beq	r2,zero,35f8 <___vfprintf_internal_r+0x1410>
    3334:	d9814d17 	ldw	r6,1332(sp)
    3338:	29400094 	ori	r5,r5,2
    333c:	00800c04 	movi	r2,48
    3340:	01000084 	movi	r4,2
    3344:	d9414c15 	stw	r5,1328(sp)
    3348:	d8800445 	stb	r2,17(sp)
    334c:	d9800485 	stb	r6,18(sp)
    3350:	d8000405 	stb	zero,16(sp)
    3354:	003e3206 	br	2c20 <___vfprintf_internal_r+0xa38>
    3358:	01800074 	movhi	r6,1
    335c:	31893204 	addi	r6,r6,9416
    3360:	d9814415 	stw	r6,1296(sp)
    3364:	003fe606 	br	3300 <___vfprintf_internal_r+0x1118>
    3368:	00800ac4 	movi	r2,43
    336c:	d8800405 	stb	r2,16(sp)
    3370:	b8c00007 	ldb	r3,0(r23)
    3374:	003c1b06 	br	23e4 <___vfprintf_internal_r+0x1fc>
    3378:	d8814c17 	ldw	r2,1328(sp)
    337c:	b8c00007 	ldb	r3,0(r23)
    3380:	10800054 	ori	r2,r2,1
    3384:	d8814c15 	stw	r2,1328(sp)
    3388:	003c1606 	br	23e4 <___vfprintf_internal_r+0x1fc>
    338c:	d8800407 	ldb	r2,16(sp)
    3390:	1000461e 	bne	r2,zero,34ac <___vfprintf_internal_r+0x12c4>
    3394:	00800804 	movi	r2,32
    3398:	d8800405 	stb	r2,16(sp)
    339c:	b8c00007 	ldb	r3,0(r23)
    33a0:	003c1006 	br	23e4 <___vfprintf_internal_r+0x1fc>
    33a4:	d9814c17 	ldw	r6,1328(sp)
    33a8:	b8c00007 	ldb	r3,0(r23)
    33ac:	31800214 	ori	r6,r6,8
    33b0:	d9814c15 	stw	r6,1328(sp)
    33b4:	003c0b06 	br	23e4 <___vfprintf_internal_r+0x1fc>
    33b8:	0007883a 	mov	r3,zero
    33bc:	01000244 	movi	r4,9
    33c0:	188002a4 	muli	r2,r3,10
    33c4:	b8c00007 	ldb	r3,0(r23)
    33c8:	d9814d17 	ldw	r6,1332(sp)
    33cc:	bdc00044 	addi	r23,r23,1
    33d0:	d8c14d15 	stw	r3,1332(sp)
    33d4:	d9414d17 	ldw	r5,1332(sp)
    33d8:	3085883a 	add	r2,r6,r2
    33dc:	10fff404 	addi	r3,r2,-48
    33e0:	28bff404 	addi	r2,r5,-48
    33e4:	20bff62e 	bgeu	r4,r2,33c0 <___vfprintf_internal_r+0x11d8>
    33e8:	d8c14a15 	stw	r3,1320(sp)
    33ec:	003bff06 	br	23ec <___vfprintf_internal_r+0x204>
    33f0:	d9414c17 	ldw	r5,1328(sp)
    33f4:	b8c00007 	ldb	r3,0(r23)
    33f8:	29402014 	ori	r5,r5,128
    33fc:	d9414c15 	stw	r5,1328(sp)
    3400:	003bf806 	br	23e4 <___vfprintf_internal_r+0x1fc>
    3404:	b8c00007 	ldb	r3,0(r23)
    3408:	00800a84 	movi	r2,42
    340c:	bdc00044 	addi	r23,r23,1
    3410:	18831526 	beq	r3,r2,4068 <___vfprintf_internal_r+0x1e80>
    3414:	d8c14d15 	stw	r3,1332(sp)
    3418:	18bff404 	addi	r2,r3,-48
    341c:	00c00244 	movi	r3,9
    3420:	18827836 	bltu	r3,r2,3e04 <___vfprintf_internal_r+0x1c1c>
    3424:	000d883a 	mov	r6,zero
    3428:	308002a4 	muli	r2,r6,10
    342c:	b9800007 	ldb	r6,0(r23)
    3430:	d9414d17 	ldw	r5,1332(sp)
    3434:	bdc00044 	addi	r23,r23,1
    3438:	d9814d15 	stw	r6,1332(sp)
    343c:	d9014d17 	ldw	r4,1332(sp)
    3440:	1145883a 	add	r2,r2,r5
    3444:	11bff404 	addi	r6,r2,-48
    3448:	20bff404 	addi	r2,r4,-48
    344c:	18bff62e 	bgeu	r3,r2,3428 <___vfprintf_internal_r+0x1240>
    3450:	3027883a 	mov	r19,r6
    3454:	303be50e 	bge	r6,zero,23ec <___vfprintf_internal_r+0x204>
    3458:	04ffffc4 	movi	r19,-1
    345c:	003be306 	br	23ec <___vfprintf_internal_r+0x204>
    3460:	d8000405 	stb	zero,16(sp)
    3464:	39800017 	ldw	r6,0(r7)
    3468:	39c00104 	addi	r7,r7,4
    346c:	d9c14015 	stw	r7,1280(sp)
    3470:	d9814115 	stw	r6,1284(sp)
    3474:	3001c926 	beq	r6,zero,3b9c <___vfprintf_internal_r+0x19b4>
    3478:	98000e16 	blt	r19,zero,34b4 <___vfprintf_internal_r+0x12cc>
    347c:	d9014117 	ldw	r4,1284(sp)
    3480:	000b883a 	mov	r5,zero
    3484:	980d883a 	mov	r6,r19
    3488:	000164c0 	call	164c <memchr>
    348c:	10025926 	beq	r2,zero,3df4 <___vfprintf_internal_r+0x1c0c>
    3490:	d8c14117 	ldw	r3,1284(sp)
    3494:	10cfc83a 	sub	r7,r2,r3
    3498:	99c19e16 	blt	r19,r7,3b14 <___vfprintf_internal_r+0x192c>
    349c:	d9c14515 	stw	r7,1300(sp)
    34a0:	38000916 	blt	r7,zero,34c8 <___vfprintf_internal_r+0x12e0>
    34a4:	d8014615 	stw	zero,1304(sp)
    34a8:	003df106 	br	2c70 <___vfprintf_internal_r+0xa88>
    34ac:	b8c00007 	ldb	r3,0(r23)
    34b0:	003bcc06 	br	23e4 <___vfprintf_internal_r+0x1fc>
    34b4:	d9014117 	ldw	r4,1284(sp)
    34b8:	000211c0 	call	211c <strlen>
    34bc:	d8814515 	stw	r2,1300(sp)
    34c0:	100f883a 	mov	r7,r2
    34c4:	103ff70e 	bge	r2,zero,34a4 <___vfprintf_internal_r+0x12bc>
    34c8:	d8014515 	stw	zero,1300(sp)
    34cc:	d8014615 	stw	zero,1304(sp)
    34d0:	003de706 	br	2c70 <___vfprintf_internal_r+0xa88>
    34d4:	20c03fcc 	andi	r3,r4,255
    34d8:	00800044 	movi	r2,1
    34dc:	18802d26 	beq	r3,r2,3594 <___vfprintf_internal_r+0x13ac>
    34e0:	18800e36 	bltu	r3,r2,351c <___vfprintf_internal_r+0x1334>
    34e4:	00800084 	movi	r2,2
    34e8:	1880fa26 	beq	r3,r2,38d4 <___vfprintf_internal_r+0x16ec>
    34ec:	01000074 	movhi	r4,1
    34f0:	21094204 	addi	r4,r4,9480
    34f4:	000211c0 	call	211c <strlen>
    34f8:	100f883a 	mov	r7,r2
    34fc:	dcc14515 	stw	r19,1300(sp)
    3500:	9880010e 	bge	r19,r2,3508 <___vfprintf_internal_r+0x1320>
    3504:	d8814515 	stw	r2,1300(sp)
    3508:	00800074 	movhi	r2,1
    350c:	10894204 	addi	r2,r2,9480
    3510:	dcc14615 	stw	r19,1304(sp)
    3514:	d8814115 	stw	r2,1284(sp)
    3518:	003dd506 	br	2c70 <___vfprintf_internal_r+0xa88>
    351c:	d9401904 	addi	r5,sp,100
    3520:	dd000f04 	addi	r20,sp,60
    3524:	d9414115 	stw	r5,1284(sp)
    3528:	880a977a 	slli	r5,r17,29
    352c:	d9814117 	ldw	r6,1284(sp)
    3530:	8004d0fa 	srli	r2,r16,3
    3534:	8806d0fa 	srli	r3,r17,3
    3538:	810001cc 	andi	r4,r16,7
    353c:	2884b03a 	or	r2,r5,r2
    3540:	31bfffc4 	addi	r6,r6,-1
    3544:	21000c04 	addi	r4,r4,48
    3548:	d9814115 	stw	r6,1284(sp)
    354c:	10cab03a 	or	r5,r2,r3
    3550:	31000005 	stb	r4,0(r6)
    3554:	1021883a 	mov	r16,r2
    3558:	1823883a 	mov	r17,r3
    355c:	283ff21e 	bne	r5,zero,3528 <___vfprintf_internal_r+0x1340>
    3560:	d8c14c17 	ldw	r3,1328(sp)
    3564:	1880004c 	andi	r2,r3,1
    3568:	1005003a 	cmpeq	r2,r2,zero
    356c:	103db91e 	bne	r2,zero,2c54 <___vfprintf_internal_r+0xa6c>
    3570:	20803fcc 	andi	r2,r4,255
    3574:	1080201c 	xori	r2,r2,128
    3578:	10bfe004 	addi	r2,r2,-128
    357c:	00c00c04 	movi	r3,48
    3580:	10fdb426 	beq	r2,r3,2c54 <___vfprintf_internal_r+0xa6c>
    3584:	31bfffc4 	addi	r6,r6,-1
    3588:	d9814115 	stw	r6,1284(sp)
    358c:	30c00005 	stb	r3,0(r6)
    3590:	003db006 	br	2c54 <___vfprintf_internal_r+0xa6c>
    3594:	88800068 	cmpgeui	r2,r17,1
    3598:	10002c1e 	bne	r2,zero,364c <___vfprintf_internal_r+0x1464>
    359c:	8800021e 	bne	r17,zero,35a8 <___vfprintf_internal_r+0x13c0>
    35a0:	00800244 	movi	r2,9
    35a4:	14002936 	bltu	r2,r16,364c <___vfprintf_internal_r+0x1464>
    35a8:	d90018c4 	addi	r4,sp,99
    35ac:	dd000f04 	addi	r20,sp,60
    35b0:	d9014115 	stw	r4,1284(sp)
    35b4:	d9014117 	ldw	r4,1284(sp)
    35b8:	80800c04 	addi	r2,r16,48
    35bc:	20800005 	stb	r2,0(r4)
    35c0:	003da406 	br	2c54 <___vfprintf_internal_r+0xa6c>
    35c4:	dc400d17 	ldw	r17,52(sp)
    35c8:	07000074 	movhi	fp,1
    35cc:	e7094984 	addi	fp,fp,9510
    35d0:	9425883a 	add	r18,r18,r16
    35d4:	8c400044 	addi	r17,r17,1
    35d8:	008001c4 	movi	r2,7
    35dc:	1f000015 	stw	fp,0(r3)
    35e0:	1c000115 	stw	r16,4(r3)
    35e4:	dc800e15 	stw	r18,56(sp)
    35e8:	dc400d15 	stw	r17,52(sp)
    35ec:	147de216 	blt	r2,r17,2d78 <___vfprintf_internal_r+0xb90>
    35f0:	18c00204 	addi	r3,r3,8
    35f4:	003c7a06 	br	27e0 <___vfprintf_internal_r+0x5f8>
    35f8:	01000084 	movi	r4,2
    35fc:	d8000405 	stb	zero,16(sp)
    3600:	003d8706 	br	2c20 <___vfprintf_internal_r+0xa38>
    3604:	d9814c17 	ldw	r6,1328(sp)
    3608:	30c4703a 	and	r2,r6,r3
    360c:	1005003a 	cmpeq	r2,r2,zero
    3610:	103cb926 	beq	r2,zero,28f8 <___vfprintf_internal_r+0x710>
    3614:	d9014117 	ldw	r4,1284(sp)
    3618:	94800044 	addi	r18,r18,1
    361c:	8c400044 	addi	r17,r17,1
    3620:	008001c4 	movi	r2,7
    3624:	a9000015 	stw	r4,0(r21)
    3628:	a8c00115 	stw	r3,4(r21)
    362c:	dc800e15 	stw	r18,56(sp)
    3630:	dc400d15 	stw	r17,52(sp)
    3634:	147e6616 	blt	r2,r17,2fd0 <___vfprintf_internal_r+0xde8>
    3638:	acc00204 	addi	r19,r21,8
    363c:	003cd706 	br	299c <___vfprintf_internal_r+0x7b4>
    3640:	07000074 	movhi	fp,1
    3644:	e7094984 	addi	fp,fp,9510
    3648:	003c4f06 	br	2788 <___vfprintf_internal_r+0x5a0>
    364c:	dd000f04 	addi	r20,sp,60
    3650:	dc801904 	addi	r18,sp,100
    3654:	8009883a 	mov	r4,r16
    3658:	880b883a 	mov	r5,r17
    365c:	01800284 	movi	r6,10
    3660:	000f883a 	mov	r7,zero
    3664:	000d5040 	call	d504 <__umoddi3>
    3668:	12000c04 	addi	r8,r2,48
    366c:	94bfffc4 	addi	r18,r18,-1
    3670:	8009883a 	mov	r4,r16
    3674:	880b883a 	mov	r5,r17
    3678:	01800284 	movi	r6,10
    367c:	000f883a 	mov	r7,zero
    3680:	92000005 	stb	r8,0(r18)
    3684:	000cf280 	call	cf28 <__udivdi3>
    3688:	1009883a 	mov	r4,r2
    368c:	1021883a 	mov	r16,r2
    3690:	18800068 	cmpgeui	r2,r3,1
    3694:	1823883a 	mov	r17,r3
    3698:	103fee1e 	bne	r2,zero,3654 <___vfprintf_internal_r+0x146c>
    369c:	1800021e 	bne	r3,zero,36a8 <___vfprintf_internal_r+0x14c0>
    36a0:	00800244 	movi	r2,9
    36a4:	113feb36 	bltu	r2,r4,3654 <___vfprintf_internal_r+0x146c>
    36a8:	94bfffc4 	addi	r18,r18,-1
    36ac:	dc814115 	stw	r18,1284(sp)
    36b0:	003fc006 	br	35b4 <___vfprintf_internal_r+0x13cc>
    36b4:	d9014c17 	ldw	r4,1328(sp)
    36b8:	2080004c 	andi	r2,r4,1
    36bc:	10009a1e 	bne	r2,zero,3928 <___vfprintf_internal_r+0x1740>
    36c0:	d9401904 	addi	r5,sp,100
    36c4:	dd000f04 	addi	r20,sp,60
    36c8:	d9414115 	stw	r5,1284(sp)
    36cc:	003d6106 	br	2c54 <___vfprintf_internal_r+0xa6c>
    36d0:	d9014f17 	ldw	r4,1340(sp)
    36d4:	b00b883a 	mov	r5,r22
    36d8:	d9800c04 	addi	r6,sp,48
    36dc:	00021900 	call	2190 <__sprint_r>
    36e0:	103c791e 	bne	r2,zero,28c8 <___vfprintf_internal_r+0x6e0>
    36e4:	dc800e17 	ldw	r18,56(sp)
    36e8:	d8c01904 	addi	r3,sp,100
    36ec:	003cff06 	br	2aec <___vfprintf_internal_r+0x904>
    36f0:	d8c14c17 	ldw	r3,1328(sp)
    36f4:	1880040c 	andi	r2,r3,16
    36f8:	1000711e 	bne	r2,zero,38c0 <___vfprintf_internal_r+0x16d8>
    36fc:	d9014c17 	ldw	r4,1328(sp)
    3700:	2080100c 	andi	r2,r4,64
    3704:	10006e26 	beq	r2,zero,38c0 <___vfprintf_internal_r+0x16d8>
    3708:	3c00000b 	ldhu	r16,0(r7)
    370c:	0023883a 	mov	r17,zero
    3710:	39c00104 	addi	r7,r7,4
    3714:	d9c14015 	stw	r7,1280(sp)
    3718:	003f0006 	br	331c <___vfprintf_internal_r+0x1134>
    371c:	dc400d17 	ldw	r17,52(sp)
    3720:	07000074 	movhi	fp,1
    3724:	e7094984 	addi	fp,fp,9510
    3728:	9425883a 	add	r18,r18,r16
    372c:	8c400044 	addi	r17,r17,1
    3730:	008001c4 	movi	r2,7
    3734:	1f000015 	stw	fp,0(r3)
    3738:	1c000115 	stw	r16,4(r3)
    373c:	dc800e15 	stw	r18,56(sp)
    3740:	dc400d15 	stw	r17,52(sp)
    3744:	147d7616 	blt	r2,r17,2d20 <___vfprintf_internal_r+0xb38>
    3748:	18c00204 	addi	r3,r3,8
    374c:	003d7b06 	br	2d3c <___vfprintf_internal_r+0xb54>
    3750:	dc800e17 	ldw	r18,56(sp)
    3754:	dc400d17 	ldw	r17,52(sp)
    3758:	07000074 	movhi	fp,1
    375c:	e7094d84 	addi	fp,fp,9526
    3760:	003bc006 	br	2664 <___vfprintf_internal_r+0x47c>
    3764:	d9014f17 	ldw	r4,1340(sp)
    3768:	b00b883a 	mov	r5,r22
    376c:	d9800c04 	addi	r6,sp,48
    3770:	00021900 	call	2190 <__sprint_r>
    3774:	103c541e 	bne	r2,zero,28c8 <___vfprintf_internal_r+0x6e0>
    3778:	dc800e17 	ldw	r18,56(sp)
    377c:	d8c01904 	addi	r3,sp,100
    3780:	003ce906 	br	2b28 <___vfprintf_internal_r+0x940>
    3784:	3c000017 	ldw	r16,0(r7)
    3788:	0009883a 	mov	r4,zero
    378c:	39c00104 	addi	r7,r7,4
    3790:	0023883a 	mov	r17,zero
    3794:	d9c14015 	stw	r7,1280(sp)
    3798:	d8000405 	stb	zero,16(sp)
    379c:	003d2006 	br	2c20 <___vfprintf_internal_r+0xa38>
    37a0:	38800017 	ldw	r2,0(r7)
    37a4:	39c00104 	addi	r7,r7,4
    37a8:	d9c14015 	stw	r7,1280(sp)
    37ac:	1023d7fa 	srai	r17,r2,31
    37b0:	1021883a 	mov	r16,r2
    37b4:	003d1806 	br	2c18 <___vfprintf_internal_r+0xa30>
    37b8:	3c000017 	ldw	r16,0(r7)
    37bc:	01000044 	movi	r4,1
    37c0:	39c00104 	addi	r7,r7,4
    37c4:	0023883a 	mov	r17,zero
    37c8:	d9c14015 	stw	r7,1280(sp)
    37cc:	d8000405 	stb	zero,16(sp)
    37d0:	003d1306 	br	2c20 <___vfprintf_internal_r+0xa38>
    37d4:	00800074 	movhi	r2,1
    37d8:	10894904 	addi	r2,r2,9508
    37dc:	94800044 	addi	r18,r18,1
    37e0:	8c400044 	addi	r17,r17,1
    37e4:	a8800015 	stw	r2,0(r21)
    37e8:	00c00044 	movi	r3,1
    37ec:	008001c4 	movi	r2,7
    37f0:	a8c00115 	stw	r3,4(r21)
    37f4:	dc800e15 	stw	r18,56(sp)
    37f8:	dc400d15 	stw	r17,52(sp)
    37fc:	1440ca16 	blt	r2,r17,3b28 <___vfprintf_internal_r+0x1940>
    3800:	a8c00204 	addi	r3,r21,8
    3804:	2000061e 	bne	r4,zero,3820 <___vfprintf_internal_r+0x1638>
    3808:	d9414717 	ldw	r5,1308(sp)
    380c:	2800041e 	bne	r5,zero,3820 <___vfprintf_internal_r+0x1638>
    3810:	d9814c17 	ldw	r6,1328(sp)
    3814:	3080004c 	andi	r2,r6,1
    3818:	1005003a 	cmpeq	r2,r2,zero
    381c:	103bf01e 	bne	r2,zero,27e0 <___vfprintf_internal_r+0x5f8>
    3820:	00800044 	movi	r2,1
    3824:	dc400d17 	ldw	r17,52(sp)
    3828:	18800115 	stw	r2,4(r3)
    382c:	d8814917 	ldw	r2,1316(sp)
    3830:	94800044 	addi	r18,r18,1
    3834:	8c400044 	addi	r17,r17,1
    3838:	18800015 	stw	r2,0(r3)
    383c:	008001c4 	movi	r2,7
    3840:	dc800e15 	stw	r18,56(sp)
    3844:	dc400d15 	stw	r17,52(sp)
    3848:	1440ca16 	blt	r2,r17,3b74 <___vfprintf_internal_r+0x198c>
    384c:	18c00204 	addi	r3,r3,8
    3850:	0121c83a 	sub	r16,zero,r4
    3854:	0400500e 	bge	zero,r16,3998 <___vfprintf_internal_r+0x17b0>
    3858:	00800404 	movi	r2,16
    385c:	1400800e 	bge	r2,r16,3a60 <___vfprintf_internal_r+0x1878>
    3860:	1027883a 	mov	r19,r2
    3864:	07000074 	movhi	fp,1
    3868:	e7094984 	addi	fp,fp,9510
    386c:	050001c4 	movi	r20,7
    3870:	00000306 	br	3880 <___vfprintf_internal_r+0x1698>
    3874:	18c00204 	addi	r3,r3,8
    3878:	843ffc04 	addi	r16,r16,-16
    387c:	9c007a0e 	bge	r19,r16,3a68 <___vfprintf_internal_r+0x1880>
    3880:	94800404 	addi	r18,r18,16
    3884:	8c400044 	addi	r17,r17,1
    3888:	1f000015 	stw	fp,0(r3)
    388c:	1cc00115 	stw	r19,4(r3)
    3890:	dc800e15 	stw	r18,56(sp)
    3894:	dc400d15 	stw	r17,52(sp)
    3898:	a47ff60e 	bge	r20,r17,3874 <___vfprintf_internal_r+0x168c>
    389c:	d9014f17 	ldw	r4,1340(sp)
    38a0:	b00b883a 	mov	r5,r22
    38a4:	d9800c04 	addi	r6,sp,48
    38a8:	00021900 	call	2190 <__sprint_r>
    38ac:	103c061e 	bne	r2,zero,28c8 <___vfprintf_internal_r+0x6e0>
    38b0:	dc800e17 	ldw	r18,56(sp)
    38b4:	dc400d17 	ldw	r17,52(sp)
    38b8:	d8c01904 	addi	r3,sp,100
    38bc:	003fee06 	br	3878 <___vfprintf_internal_r+0x1690>
    38c0:	3c000017 	ldw	r16,0(r7)
    38c4:	0023883a 	mov	r17,zero
    38c8:	39c00104 	addi	r7,r7,4
    38cc:	d9c14015 	stw	r7,1280(sp)
    38d0:	003e9206 	br	331c <___vfprintf_internal_r+0x1134>
    38d4:	d9401904 	addi	r5,sp,100
    38d8:	dd000f04 	addi	r20,sp,60
    38dc:	d9414115 	stw	r5,1284(sp)
    38e0:	d9814417 	ldw	r6,1296(sp)
    38e4:	880a973a 	slli	r5,r17,28
    38e8:	8004d13a 	srli	r2,r16,4
    38ec:	810003cc 	andi	r4,r16,15
    38f0:	3109883a 	add	r4,r6,r4
    38f4:	2884b03a 	or	r2,r5,r2
    38f8:	21400003 	ldbu	r5,0(r4)
    38fc:	d9014117 	ldw	r4,1284(sp)
    3900:	8806d13a 	srli	r3,r17,4
    3904:	1021883a 	mov	r16,r2
    3908:	213fffc4 	addi	r4,r4,-1
    390c:	d9014115 	stw	r4,1284(sp)
    3910:	d9814117 	ldw	r6,1284(sp)
    3914:	10c8b03a 	or	r4,r2,r3
    3918:	1823883a 	mov	r17,r3
    391c:	31400005 	stb	r5,0(r6)
    3920:	203fef1e 	bne	r4,zero,38e0 <___vfprintf_internal_r+0x16f8>
    3924:	003ccb06 	br	2c54 <___vfprintf_internal_r+0xa6c>
    3928:	00800c04 	movi	r2,48
    392c:	d98018c4 	addi	r6,sp,99
    3930:	dd000f04 	addi	r20,sp,60
    3934:	d88018c5 	stb	r2,99(sp)
    3938:	d9814115 	stw	r6,1284(sp)
    393c:	003cc506 	br	2c54 <___vfprintf_internal_r+0xa6c>
    3940:	dc400d17 	ldw	r17,52(sp)
    3944:	07000074 	movhi	fp,1
    3948:	e7094d84 	addi	fp,fp,9526
    394c:	003bc706 	br	286c <___vfprintf_internal_r+0x684>
    3950:	d9414c17 	ldw	r5,1328(sp)
    3954:	2880040c 	andi	r2,r5,16
    3958:	10007c26 	beq	r2,zero,3b4c <___vfprintf_internal_r+0x1964>
    395c:	38800017 	ldw	r2,0(r7)
    3960:	39c00104 	addi	r7,r7,4
    3964:	d9c14015 	stw	r7,1280(sp)
    3968:	d9814b17 	ldw	r6,1324(sp)
    396c:	d9c14017 	ldw	r7,1280(sp)
    3970:	11800015 	stw	r6,0(r2)
    3974:	003a7806 	br	2358 <___vfprintf_internal_r+0x170>
    3978:	d9014f17 	ldw	r4,1340(sp)
    397c:	b00b883a 	mov	r5,r22
    3980:	d9800c04 	addi	r6,sp,48
    3984:	00021900 	call	2190 <__sprint_r>
    3988:	103bcf1e 	bne	r2,zero,28c8 <___vfprintf_internal_r+0x6e0>
    398c:	dc800e17 	ldw	r18,56(sp)
    3990:	dc400d17 	ldw	r17,52(sp)
    3994:	d8c01904 	addi	r3,sp,100
    3998:	d9014717 	ldw	r4,1308(sp)
    399c:	d9414117 	ldw	r5,1284(sp)
    39a0:	8c400044 	addi	r17,r17,1
    39a4:	9125883a 	add	r18,r18,r4
    39a8:	008001c4 	movi	r2,7
    39ac:	19400015 	stw	r5,0(r3)
    39b0:	19000115 	stw	r4,4(r3)
    39b4:	dc800e15 	stw	r18,56(sp)
    39b8:	dc400d15 	stw	r17,52(sp)
    39bc:	147cee16 	blt	r2,r17,2d78 <___vfprintf_internal_r+0xb90>
    39c0:	18c00204 	addi	r3,r3,8
    39c4:	003b8606 	br	27e0 <___vfprintf_internal_r+0x5f8>
    39c8:	38c00017 	ldw	r3,0(r7)
    39cc:	39000204 	addi	r4,r7,8
    39d0:	d9014015 	stw	r4,1280(sp)
    39d4:	d8c14215 	stw	r3,1288(sp)
    39d8:	39c00117 	ldw	r7,4(r7)
    39dc:	d9c14315 	stw	r7,1292(sp)
    39e0:	003e2006 	br	3264 <___vfprintf_internal_r+0x107c>
    39e4:	0005883a 	mov	r2,zero
    39e8:	1409c83a 	sub	r4,r2,r16
    39ec:	1105803a 	cmpltu	r2,r2,r4
    39f0:	044bc83a 	sub	r5,zero,r17
    39f4:	2885c83a 	sub	r2,r5,r2
    39f8:	2021883a 	mov	r16,r4
    39fc:	1023883a 	mov	r17,r2
    3a00:	01000044 	movi	r4,1
    3a04:	00800b44 	movi	r2,45
    3a08:	d8800405 	stb	r2,16(sp)
    3a0c:	003c8406 	br	2c20 <___vfprintf_internal_r+0xa38>
    3a10:	d9014f17 	ldw	r4,1340(sp)
    3a14:	b00b883a 	mov	r5,r22
    3a18:	d9800c04 	addi	r6,sp,48
    3a1c:	00021900 	call	2190 <__sprint_r>
    3a20:	103ba91e 	bne	r2,zero,28c8 <___vfprintf_internal_r+0x6e0>
    3a24:	dc800e17 	ldw	r18,56(sp)
    3a28:	dc400d17 	ldw	r17,52(sp)
    3a2c:	d9000517 	ldw	r4,20(sp)
    3a30:	d9401904 	addi	r5,sp,100
    3a34:	003da706 	br	30d4 <___vfprintf_internal_r+0xeec>
    3a38:	d9014f17 	ldw	r4,1340(sp)
    3a3c:	b00b883a 	mov	r5,r22
    3a40:	d9800c04 	addi	r6,sp,48
    3a44:	00021900 	call	2190 <__sprint_r>
    3a48:	103b9f1e 	bne	r2,zero,28c8 <___vfprintf_internal_r+0x6e0>
    3a4c:	dc800e17 	ldw	r18,56(sp)
    3a50:	dc400d17 	ldw	r17,52(sp)
    3a54:	d9000517 	ldw	r4,20(sp)
    3a58:	d8c01904 	addi	r3,sp,100
    3a5c:	003d9106 	br	30a4 <___vfprintf_internal_r+0xebc>
    3a60:	07000074 	movhi	fp,1
    3a64:	e7094984 	addi	fp,fp,9510
    3a68:	9425883a 	add	r18,r18,r16
    3a6c:	8c400044 	addi	r17,r17,1
    3a70:	008001c4 	movi	r2,7
    3a74:	1f000015 	stw	fp,0(r3)
    3a78:	1c000115 	stw	r16,4(r3)
    3a7c:	dc800e15 	stw	r18,56(sp)
    3a80:	dc400d15 	stw	r17,52(sp)
    3a84:	147fbc16 	blt	r2,r17,3978 <___vfprintf_internal_r+0x1790>
    3a88:	18c00204 	addi	r3,r3,8
    3a8c:	003fc206 	br	3998 <___vfprintf_internal_r+0x17b0>
    3a90:	d9014f17 	ldw	r4,1340(sp)
    3a94:	b00b883a 	mov	r5,r22
    3a98:	d9800c04 	addi	r6,sp,48
    3a9c:	00021900 	call	2190 <__sprint_r>
    3aa0:	103b891e 	bne	r2,zero,28c8 <___vfprintf_internal_r+0x6e0>
    3aa4:	dc800e17 	ldw	r18,56(sp)
    3aa8:	d9000517 	ldw	r4,20(sp)
    3aac:	d8c01904 	addi	r3,sp,100
    3ab0:	003d0206 	br	2ebc <___vfprintf_internal_r+0xcd4>
    3ab4:	07000074 	movhi	fp,1
    3ab8:	e7094984 	addi	fp,fp,9510
    3abc:	003be406 	br	2a50 <___vfprintf_internal_r+0x868>
    3ac0:	00800074 	movhi	r2,1
    3ac4:	10893804 	addi	r2,r2,9440
    3ac8:	d8814115 	stw	r2,1284(sp)
    3acc:	003df506 	br	32a4 <___vfprintf_internal_r+0x10bc>
    3ad0:	d9014217 	ldw	r4,1288(sp)
    3ad4:	d9414317 	ldw	r5,1292(sp)
    3ad8:	0009c100 	call	9c10 <__isnand>
    3adc:	10003926 	beq	r2,zero,3bc4 <___vfprintf_internal_r+0x19dc>
    3ae0:	d9414d17 	ldw	r5,1332(sp)
    3ae4:	008011c4 	movi	r2,71
    3ae8:	1140ce16 	blt	r2,r5,3e24 <___vfprintf_internal_r+0x1c3c>
    3aec:	01800074 	movhi	r6,1
    3af0:	31893904 	addi	r6,r6,9444
    3af4:	d9814115 	stw	r6,1284(sp)
    3af8:	003dea06 	br	32a4 <___vfprintf_internal_r+0x10bc>
    3afc:	d9014c17 	ldw	r4,1328(sp)
    3b00:	bdc00044 	addi	r23,r23,1
    3b04:	b8c00007 	ldb	r3,0(r23)
    3b08:	21000814 	ori	r4,r4,32
    3b0c:	d9014c15 	stw	r4,1328(sp)
    3b10:	003a3406 	br	23e4 <___vfprintf_internal_r+0x1fc>
    3b14:	dcc14515 	stw	r19,1300(sp)
    3b18:	98011016 	blt	r19,zero,3f5c <___vfprintf_internal_r+0x1d74>
    3b1c:	980f883a 	mov	r7,r19
    3b20:	d8014615 	stw	zero,1304(sp)
    3b24:	003c5206 	br	2c70 <___vfprintf_internal_r+0xa88>
    3b28:	d9014f17 	ldw	r4,1340(sp)
    3b2c:	b00b883a 	mov	r5,r22
    3b30:	d9800c04 	addi	r6,sp,48
    3b34:	00021900 	call	2190 <__sprint_r>
    3b38:	103b631e 	bne	r2,zero,28c8 <___vfprintf_internal_r+0x6e0>
    3b3c:	dc800e17 	ldw	r18,56(sp)
    3b40:	d9000517 	ldw	r4,20(sp)
    3b44:	d8c01904 	addi	r3,sp,100
    3b48:	003f2e06 	br	3804 <___vfprintf_internal_r+0x161c>
    3b4c:	d8c14c17 	ldw	r3,1328(sp)
    3b50:	1880100c 	andi	r2,r3,64
    3b54:	1000a026 	beq	r2,zero,3dd8 <___vfprintf_internal_r+0x1bf0>
    3b58:	38800017 	ldw	r2,0(r7)
    3b5c:	39c00104 	addi	r7,r7,4
    3b60:	d9c14015 	stw	r7,1280(sp)
    3b64:	d9014b17 	ldw	r4,1324(sp)
    3b68:	d9c14017 	ldw	r7,1280(sp)
    3b6c:	1100000d 	sth	r4,0(r2)
    3b70:	0039f906 	br	2358 <___vfprintf_internal_r+0x170>
    3b74:	d9014f17 	ldw	r4,1340(sp)
    3b78:	b00b883a 	mov	r5,r22
    3b7c:	d9800c04 	addi	r6,sp,48
    3b80:	00021900 	call	2190 <__sprint_r>
    3b84:	103b501e 	bne	r2,zero,28c8 <___vfprintf_internal_r+0x6e0>
    3b88:	dc800e17 	ldw	r18,56(sp)
    3b8c:	dc400d17 	ldw	r17,52(sp)
    3b90:	d9000517 	ldw	r4,20(sp)
    3b94:	d8c01904 	addi	r3,sp,100
    3b98:	003f2d06 	br	3850 <___vfprintf_internal_r+0x1668>
    3b9c:	00800184 	movi	r2,6
    3ba0:	14c09a36 	bltu	r2,r19,3e0c <___vfprintf_internal_r+0x1c24>
    3ba4:	dcc14515 	stw	r19,1300(sp)
    3ba8:	9800010e 	bge	r19,zero,3bb0 <___vfprintf_internal_r+0x19c8>
    3bac:	d8014515 	stw	zero,1300(sp)
    3bb0:	00800074 	movhi	r2,1
    3bb4:	10893b04 	addi	r2,r2,9452
    3bb8:	980f883a 	mov	r7,r19
    3bbc:	d8814115 	stw	r2,1284(sp)
    3bc0:	003a7806 	br	25a4 <___vfprintf_internal_r+0x3bc>
    3bc4:	00bfffc4 	movi	r2,-1
    3bc8:	9880e226 	beq	r19,r2,3f54 <___vfprintf_internal_r+0x1d6c>
    3bcc:	d9414d17 	ldw	r5,1332(sp)
    3bd0:	008019c4 	movi	r2,103
    3bd4:	2880dc26 	beq	r5,r2,3f48 <___vfprintf_internal_r+0x1d60>
    3bd8:	008011c4 	movi	r2,71
    3bdc:	2880da26 	beq	r5,r2,3f48 <___vfprintf_internal_r+0x1d60>
    3be0:	d9414c17 	ldw	r5,1328(sp)
    3be4:	d9014317 	ldw	r4,1292(sp)
    3be8:	d9814217 	ldw	r6,1288(sp)
    3bec:	29404014 	ori	r5,r5,256
    3bf0:	d9414c15 	stw	r5,1328(sp)
    3bf4:	2000cc16 	blt	r4,zero,3f28 <___vfprintf_internal_r+0x1d40>
    3bf8:	3021883a 	mov	r16,r6
    3bfc:	2023883a 	mov	r17,r4
    3c00:	0039883a 	mov	fp,zero
    3c04:	d9414d17 	ldw	r5,1332(sp)
    3c08:	00801984 	movi	r2,102
    3c0c:	2880b726 	beq	r5,r2,3eec <___vfprintf_internal_r+0x1d04>
    3c10:	00801184 	movi	r2,70
    3c14:	2880b526 	beq	r5,r2,3eec <___vfprintf_internal_r+0x1d04>
    3c18:	00801944 	movi	r2,101
    3c1c:	2880c826 	beq	r5,r2,3f40 <___vfprintf_internal_r+0x1d58>
    3c20:	00801144 	movi	r2,69
    3c24:	2880c626 	beq	r5,r2,3f40 <___vfprintf_internal_r+0x1d58>
    3c28:	9829883a 	mov	r20,r19
    3c2c:	d9014f17 	ldw	r4,1340(sp)
    3c30:	d8800504 	addi	r2,sp,20
    3c34:	880d883a 	mov	r6,r17
    3c38:	d8800115 	stw	r2,4(sp)
    3c3c:	d8c00604 	addi	r3,sp,24
    3c40:	d8800704 	addi	r2,sp,28
    3c44:	800b883a 	mov	r5,r16
    3c48:	01c00084 	movi	r7,2
    3c4c:	d8c00215 	stw	r3,8(sp)
    3c50:	d8800315 	stw	r2,12(sp)
    3c54:	dd000015 	stw	r20,0(sp)
    3c58:	0005c740 	call	5c74 <_dtoa_r>
    3c5c:	d9814d17 	ldw	r6,1332(sp)
    3c60:	d8814115 	stw	r2,1284(sp)
    3c64:	008019c4 	movi	r2,103
    3c68:	30809526 	beq	r6,r2,3ec0 <___vfprintf_internal_r+0x1cd8>
    3c6c:	d8c14d17 	ldw	r3,1332(sp)
    3c70:	008011c4 	movi	r2,71
    3c74:	18809226 	beq	r3,r2,3ec0 <___vfprintf_internal_r+0x1cd8>
    3c78:	d9414117 	ldw	r5,1284(sp)
    3c7c:	d9814d17 	ldw	r6,1332(sp)
    3c80:	00801984 	movi	r2,102
    3c84:	2d25883a 	add	r18,r5,r20
    3c88:	30808626 	beq	r6,r2,3ea4 <___vfprintf_internal_r+0x1cbc>
    3c8c:	00801184 	movi	r2,70
    3c90:	30808426 	beq	r6,r2,3ea4 <___vfprintf_internal_r+0x1cbc>
    3c94:	000d883a 	mov	r6,zero
    3c98:	000f883a 	mov	r7,zero
    3c9c:	880b883a 	mov	r5,r17
    3ca0:	8009883a 	mov	r4,r16
    3ca4:	000e73c0 	call	e73c <__eqdf2>
    3ca8:	1000751e 	bne	r2,zero,3e80 <___vfprintf_internal_r+0x1c98>
    3cac:	9005883a 	mov	r2,r18
    3cb0:	dc800715 	stw	r18,28(sp)
    3cb4:	d9014117 	ldw	r4,1284(sp)
    3cb8:	d9414d17 	ldw	r5,1332(sp)
    3cbc:	00c019c4 	movi	r3,103
    3cc0:	1125c83a 	sub	r18,r2,r4
    3cc4:	28c06826 	beq	r5,r3,3e68 <___vfprintf_internal_r+0x1c80>
    3cc8:	008011c4 	movi	r2,71
    3ccc:	28806626 	beq	r5,r2,3e68 <___vfprintf_internal_r+0x1c80>
    3cd0:	d9000517 	ldw	r4,20(sp)
    3cd4:	d8c14d17 	ldw	r3,1332(sp)
    3cd8:	00801944 	movi	r2,101
    3cdc:	10c05516 	blt	r2,r3,3e34 <___vfprintf_internal_r+0x1c4c>
    3ce0:	213fffc4 	addi	r4,r4,-1
    3ce4:	d9000515 	stw	r4,20(sp)
    3ce8:	d8c00805 	stb	r3,32(sp)
    3cec:	2021883a 	mov	r16,r4
    3cf0:	2000c116 	blt	r4,zero,3ff8 <___vfprintf_internal_r+0x1e10>
    3cf4:	00800ac4 	movi	r2,43
    3cf8:	d8800845 	stb	r2,33(sp)
    3cfc:	00800244 	movi	r2,9
    3d00:	1400af0e 	bge	r2,r16,3fc0 <___vfprintf_internal_r+0x1dd8>
    3d04:	1027883a 	mov	r19,r2
    3d08:	dc400b84 	addi	r17,sp,46
    3d0c:	8009883a 	mov	r4,r16
    3d10:	01400284 	movi	r5,10
    3d14:	000ef200 	call	ef20 <__modsi3>
    3d18:	10800c04 	addi	r2,r2,48
    3d1c:	8c7fffc4 	addi	r17,r17,-1
    3d20:	8009883a 	mov	r4,r16
    3d24:	01400284 	movi	r5,10
    3d28:	88800005 	stb	r2,0(r17)
    3d2c:	000eec00 	call	eec0 <__divsi3>
    3d30:	1021883a 	mov	r16,r2
    3d34:	98bff516 	blt	r19,r2,3d0c <___vfprintf_internal_r+0x1b24>
    3d38:	10c00c04 	addi	r3,r2,48
    3d3c:	d88009c4 	addi	r2,sp,39
    3d40:	108001c4 	addi	r2,r2,7
    3d44:	897fffc4 	addi	r5,r17,-1
    3d48:	88ffffc5 	stb	r3,-1(r17)
    3d4c:	2880a72e 	bgeu	r5,r2,3fec <___vfprintf_internal_r+0x1e04>
    3d50:	1009883a 	mov	r4,r2
    3d54:	d9800804 	addi	r6,sp,32
    3d58:	d8c00884 	addi	r3,sp,34
    3d5c:	28800003 	ldbu	r2,0(r5)
    3d60:	29400044 	addi	r5,r5,1
    3d64:	18800005 	stb	r2,0(r3)
    3d68:	18c00044 	addi	r3,r3,1
    3d6c:	293ffb36 	bltu	r5,r4,3d5c <___vfprintf_internal_r+0x1b74>
    3d70:	1987c83a 	sub	r3,r3,r6
    3d74:	00800044 	movi	r2,1
    3d78:	d8c14815 	stw	r3,1312(sp)
    3d7c:	90cf883a 	add	r7,r18,r3
    3d80:	1480960e 	bge	r2,r18,3fdc <___vfprintf_internal_r+0x1df4>
    3d84:	39c00044 	addi	r7,r7,1
    3d88:	d9c14515 	stw	r7,1300(sp)
    3d8c:	38003416 	blt	r7,zero,3e60 <___vfprintf_internal_r+0x1c78>
    3d90:	e0803fcc 	andi	r2,fp,255
    3d94:	1080201c 	xori	r2,r2,128
    3d98:	10bfe004 	addi	r2,r2,-128
    3d9c:	10004e26 	beq	r2,zero,3ed8 <___vfprintf_internal_r+0x1cf0>
    3da0:	00800b44 	movi	r2,45
    3da4:	dc814715 	stw	r18,1308(sp)
    3da8:	d8014615 	stw	zero,1304(sp)
    3dac:	d8800405 	stb	r2,16(sp)
    3db0:	003bb106 	br	2c78 <___vfprintf_internal_r+0xa90>
    3db4:	00800b44 	movi	r2,45
    3db8:	d8800405 	stb	r2,16(sp)
    3dbc:	003d3306 	br	328c <___vfprintf_internal_r+0x10a4>
    3dc0:	d9014f17 	ldw	r4,1340(sp)
    3dc4:	b00b883a 	mov	r5,r22
    3dc8:	d9800c04 	addi	r6,sp,48
    3dcc:	00021900 	call	2190 <__sprint_r>
    3dd0:	103abd1e 	bne	r2,zero,28c8 <___vfprintf_internal_r+0x6e0>
    3dd4:	003abb06 	br	28c4 <___vfprintf_internal_r+0x6dc>
    3dd8:	38800017 	ldw	r2,0(r7)
    3ddc:	39c00104 	addi	r7,r7,4
    3de0:	d9c14015 	stw	r7,1280(sp)
    3de4:	d9414b17 	ldw	r5,1324(sp)
    3de8:	d9c14017 	ldw	r7,1280(sp)
    3dec:	11400015 	stw	r5,0(r2)
    3df0:	00395906 	br	2358 <___vfprintf_internal_r+0x170>
    3df4:	980f883a 	mov	r7,r19
    3df8:	dcc14515 	stw	r19,1300(sp)
    3dfc:	d8014615 	stw	zero,1304(sp)
    3e00:	003b9b06 	br	2c70 <___vfprintf_internal_r+0xa88>
    3e04:	0027883a 	mov	r19,zero
    3e08:	00397806 	br	23ec <___vfprintf_internal_r+0x204>
    3e0c:	00c00074 	movhi	r3,1
    3e10:	18c93b04 	addi	r3,r3,9452
    3e14:	100f883a 	mov	r7,r2
    3e18:	d8814515 	stw	r2,1300(sp)
    3e1c:	d8c14115 	stw	r3,1284(sp)
    3e20:	0039e006 	br	25a4 <___vfprintf_internal_r+0x3bc>
    3e24:	00800074 	movhi	r2,1
    3e28:	10893a04 	addi	r2,r2,9448
    3e2c:	d8814115 	stw	r2,1284(sp)
    3e30:	003d1c06 	br	32a4 <___vfprintf_internal_r+0x10bc>
    3e34:	d9414d17 	ldw	r5,1332(sp)
    3e38:	00801984 	movi	r2,102
    3e3c:	28804926 	beq	r5,r2,3f64 <___vfprintf_internal_r+0x1d7c>
    3e40:	200f883a 	mov	r7,r4
    3e44:	24805716 	blt	r4,r18,3fa4 <___vfprintf_internal_r+0x1dbc>
    3e48:	d9414c17 	ldw	r5,1328(sp)
    3e4c:	2880004c 	andi	r2,r5,1
    3e50:	10000126 	beq	r2,zero,3e58 <___vfprintf_internal_r+0x1c70>
    3e54:	21c00044 	addi	r7,r4,1
    3e58:	d9c14515 	stw	r7,1300(sp)
    3e5c:	383fcc0e 	bge	r7,zero,3d90 <___vfprintf_internal_r+0x1ba8>
    3e60:	d8014515 	stw	zero,1300(sp)
    3e64:	003fca06 	br	3d90 <___vfprintf_internal_r+0x1ba8>
    3e68:	d9000517 	ldw	r4,20(sp)
    3e6c:	00bfff04 	movi	r2,-4
    3e70:	1100480e 	bge	r2,r4,3f94 <___vfprintf_internal_r+0x1dac>
    3e74:	99004716 	blt	r19,r4,3f94 <___vfprintf_internal_r+0x1dac>
    3e78:	d8c14d15 	stw	r3,1332(sp)
    3e7c:	003ff006 	br	3e40 <___vfprintf_internal_r+0x1c58>
    3e80:	d8800717 	ldw	r2,28(sp)
    3e84:	14bf8b2e 	bgeu	r2,r18,3cb4 <___vfprintf_internal_r+0x1acc>
    3e88:	9007883a 	mov	r3,r18
    3e8c:	01000c04 	movi	r4,48
    3e90:	11000005 	stb	r4,0(r2)
    3e94:	10800044 	addi	r2,r2,1
    3e98:	d8800715 	stw	r2,28(sp)
    3e9c:	18bffc1e 	bne	r3,r2,3e90 <___vfprintf_internal_r+0x1ca8>
    3ea0:	003f8406 	br	3cb4 <___vfprintf_internal_r+0x1acc>
    3ea4:	d8814117 	ldw	r2,1284(sp)
    3ea8:	10c00007 	ldb	r3,0(r2)
    3eac:	00800c04 	movi	r2,48
    3eb0:	18805b26 	beq	r3,r2,4020 <___vfprintf_internal_r+0x1e38>
    3eb4:	d9000517 	ldw	r4,20(sp)
    3eb8:	9125883a 	add	r18,r18,r4
    3ebc:	003f7506 	br	3c94 <___vfprintf_internal_r+0x1aac>
    3ec0:	d9014c17 	ldw	r4,1328(sp)
    3ec4:	2080004c 	andi	r2,r4,1
    3ec8:	1005003a 	cmpeq	r2,r2,zero
    3ecc:	103f6a26 	beq	r2,zero,3c78 <___vfprintf_internal_r+0x1a90>
    3ed0:	d8800717 	ldw	r2,28(sp)
    3ed4:	003f7706 	br	3cb4 <___vfprintf_internal_r+0x1acc>
    3ed8:	d9c14515 	stw	r7,1300(sp)
    3edc:	38004d16 	blt	r7,zero,4014 <___vfprintf_internal_r+0x1e2c>
    3ee0:	dc814715 	stw	r18,1308(sp)
    3ee4:	d8014615 	stw	zero,1304(sp)
    3ee8:	003b6106 	br	2c70 <___vfprintf_internal_r+0xa88>
    3eec:	d9014f17 	ldw	r4,1340(sp)
    3ef0:	d8800504 	addi	r2,sp,20
    3ef4:	d8800115 	stw	r2,4(sp)
    3ef8:	d8c00604 	addi	r3,sp,24
    3efc:	d8800704 	addi	r2,sp,28
    3f00:	800b883a 	mov	r5,r16
    3f04:	880d883a 	mov	r6,r17
    3f08:	01c000c4 	movi	r7,3
    3f0c:	d8c00215 	stw	r3,8(sp)
    3f10:	d8800315 	stw	r2,12(sp)
    3f14:	dcc00015 	stw	r19,0(sp)
    3f18:	9829883a 	mov	r20,r19
    3f1c:	0005c740 	call	5c74 <_dtoa_r>
    3f20:	d8814115 	stw	r2,1284(sp)
    3f24:	003f5106 	br	3c6c <___vfprintf_internal_r+0x1a84>
    3f28:	d8c14217 	ldw	r3,1288(sp)
    3f2c:	d9014317 	ldw	r4,1292(sp)
    3f30:	07000b44 	movi	fp,45
    3f34:	1821883a 	mov	r16,r3
    3f38:	2460003c 	xorhi	r17,r4,32768
    3f3c:	003f3106 	br	3c04 <___vfprintf_internal_r+0x1a1c>
    3f40:	9d000044 	addi	r20,r19,1
    3f44:	003f3906 	br	3c2c <___vfprintf_internal_r+0x1a44>
    3f48:	983f251e 	bne	r19,zero,3be0 <___vfprintf_internal_r+0x19f8>
    3f4c:	04c00044 	movi	r19,1
    3f50:	003f2306 	br	3be0 <___vfprintf_internal_r+0x19f8>
    3f54:	04c00184 	movi	r19,6
    3f58:	003f2106 	br	3be0 <___vfprintf_internal_r+0x19f8>
    3f5c:	d8014515 	stw	zero,1300(sp)
    3f60:	003eee06 	br	3b1c <___vfprintf_internal_r+0x1934>
    3f64:	200f883a 	mov	r7,r4
    3f68:	0100370e 	bge	zero,r4,4048 <___vfprintf_internal_r+0x1e60>
    3f6c:	9800031e 	bne	r19,zero,3f7c <___vfprintf_internal_r+0x1d94>
    3f70:	d9814c17 	ldw	r6,1328(sp)
    3f74:	3080004c 	andi	r2,r6,1
    3f78:	103fb726 	beq	r2,zero,3e58 <___vfprintf_internal_r+0x1c70>
    3f7c:	20800044 	addi	r2,r4,1
    3f80:	98a7883a 	add	r19,r19,r2
    3f84:	dcc14515 	stw	r19,1300(sp)
    3f88:	980f883a 	mov	r7,r19
    3f8c:	983f800e 	bge	r19,zero,3d90 <___vfprintf_internal_r+0x1ba8>
    3f90:	003fb306 	br	3e60 <___vfprintf_internal_r+0x1c78>
    3f94:	d9814d17 	ldw	r6,1332(sp)
    3f98:	31bfff84 	addi	r6,r6,-2
    3f9c:	d9814d15 	stw	r6,1332(sp)
    3fa0:	003f4c06 	br	3cd4 <___vfprintf_internal_r+0x1aec>
    3fa4:	0100180e 	bge	zero,r4,4008 <___vfprintf_internal_r+0x1e20>
    3fa8:	00800044 	movi	r2,1
    3fac:	1485883a 	add	r2,r2,r18
    3fb0:	d8814515 	stw	r2,1300(sp)
    3fb4:	100f883a 	mov	r7,r2
    3fb8:	103f750e 	bge	r2,zero,3d90 <___vfprintf_internal_r+0x1ba8>
    3fbc:	003fa806 	br	3e60 <___vfprintf_internal_r+0x1c78>
    3fc0:	80c00c04 	addi	r3,r16,48
    3fc4:	00800c04 	movi	r2,48
    3fc8:	d8c008c5 	stb	r3,35(sp)
    3fcc:	d9800804 	addi	r6,sp,32
    3fd0:	d8c00904 	addi	r3,sp,36
    3fd4:	d8800885 	stb	r2,34(sp)
    3fd8:	003f6506 	br	3d70 <___vfprintf_internal_r+0x1b88>
    3fdc:	d9014c17 	ldw	r4,1328(sp)
    3fe0:	2084703a 	and	r2,r4,r2
    3fe4:	103f9c26 	beq	r2,zero,3e58 <___vfprintf_internal_r+0x1c70>
    3fe8:	003f6606 	br	3d84 <___vfprintf_internal_r+0x1b9c>
    3fec:	d9800804 	addi	r6,sp,32
    3ff0:	d8c00884 	addi	r3,sp,34
    3ff4:	003f5e06 	br	3d70 <___vfprintf_internal_r+0x1b88>
    3ff8:	00800b44 	movi	r2,45
    3ffc:	0121c83a 	sub	r16,zero,r4
    4000:	d8800845 	stb	r2,33(sp)
    4004:	003f3d06 	br	3cfc <___vfprintf_internal_r+0x1b14>
    4008:	00800084 	movi	r2,2
    400c:	1105c83a 	sub	r2,r2,r4
    4010:	003fe606 	br	3fac <___vfprintf_internal_r+0x1dc4>
    4014:	d8014515 	stw	zero,1300(sp)
    4018:	dc814715 	stw	r18,1308(sp)
    401c:	003fb106 	br	3ee4 <___vfprintf_internal_r+0x1cfc>
    4020:	000d883a 	mov	r6,zero
    4024:	000f883a 	mov	r7,zero
    4028:	8009883a 	mov	r4,r16
    402c:	880b883a 	mov	r5,r17
    4030:	000e7c40 	call	e7c4 <__nedf2>
    4034:	103f9f26 	beq	r2,zero,3eb4 <___vfprintf_internal_r+0x1ccc>
    4038:	00800044 	movi	r2,1
    403c:	1509c83a 	sub	r4,r2,r20
    4040:	d9000515 	stw	r4,20(sp)
    4044:	003f9b06 	br	3eb4 <___vfprintf_internal_r+0x1ccc>
    4048:	98000d1e 	bne	r19,zero,4080 <___vfprintf_internal_r+0x1e98>
    404c:	d8c14c17 	ldw	r3,1328(sp)
    4050:	1880004c 	andi	r2,r3,1
    4054:	10000a1e 	bne	r2,zero,4080 <___vfprintf_internal_r+0x1e98>
    4058:	01000044 	movi	r4,1
    405c:	200f883a 	mov	r7,r4
    4060:	d9014515 	stw	r4,1300(sp)
    4064:	003f4a06 	br	3d90 <___vfprintf_internal_r+0x1ba8>
    4068:	3cc00017 	ldw	r19,0(r7)
    406c:	39c00104 	addi	r7,r7,4
    4070:	983d0e0e 	bge	r19,zero,34ac <___vfprintf_internal_r+0x12c4>
    4074:	b8c00007 	ldb	r3,0(r23)
    4078:	04ffffc4 	movi	r19,-1
    407c:	0038d906 	br	23e4 <___vfprintf_internal_r+0x1fc>
    4080:	9cc00084 	addi	r19,r19,2
    4084:	dcc14515 	stw	r19,1300(sp)
    4088:	980f883a 	mov	r7,r19
    408c:	983f400e 	bge	r19,zero,3d90 <___vfprintf_internal_r+0x1ba8>
    4090:	003f7306 	br	3e60 <___vfprintf_internal_r+0x1c78>

00004094 <__vfprintf_internal>:
    4094:	00800074 	movhi	r2,1
    4098:	10915204 	addi	r2,r2,17736
    409c:	2013883a 	mov	r9,r4
    40a0:	11000017 	ldw	r4,0(r2)
    40a4:	2805883a 	mov	r2,r5
    40a8:	300f883a 	mov	r7,r6
    40ac:	480b883a 	mov	r5,r9
    40b0:	100d883a 	mov	r6,r2
    40b4:	00021e81 	jmpi	21e8 <___vfprintf_internal_r>

000040b8 <__svfscanf_r>:
    40b8:	deff4e04 	addi	sp,sp,-712
    40bc:	dd80ae15 	stw	r22,696(sp)
    40c0:	dd00ac15 	stw	r20,688(sp)
    40c4:	dc40a915 	stw	r17,676(sp)
    40c8:	dc00a815 	stw	r16,672(sp)
    40cc:	dfc0b115 	stw	ra,708(sp)
    40d0:	df00b015 	stw	fp,704(sp)
    40d4:	ddc0af15 	stw	r23,700(sp)
    40d8:	dd40ad15 	stw	r21,692(sp)
    40dc:	dcc0ab15 	stw	r19,684(sp)
    40e0:	dc80aa15 	stw	r18,680(sp)
    40e4:	202d883a 	mov	r22,r4
    40e8:	2821883a 	mov	r16,r5
    40ec:	d9c0a415 	stw	r7,656(sp)
    40f0:	3029883a 	mov	r20,r6
    40f4:	d800a215 	stw	zero,648(sp)
    40f8:	0023883a 	mov	r17,zero
    40fc:	d800a115 	stw	zero,644(sp)
    4100:	d800a015 	stw	zero,640(sp)
    4104:	a1000007 	ldb	r4,0(r20)
    4108:	d9000115 	stw	r4,4(sp)
    410c:	20001f26 	beq	r4,zero,418c <__svfscanf_r+0xd4>
    4110:	04800074 	movhi	r18,1
    4114:	94915604 	addi	r18,r18,17752
    4118:	91800017 	ldw	r6,0(r18)
    411c:	a5000044 	addi	r20,r20,1
    4120:	3107883a 	add	r3,r6,r4
    4124:	18800003 	ldbu	r2,0(r3)
    4128:	1080020c 	andi	r2,r2,8
    412c:	10002426 	beq	r2,zero,41c0 <__svfscanf_r+0x108>
    4130:	80c00117 	ldw	r3,4(r16)
    4134:	00c00e0e 	bge	zero,r3,4170 <__svfscanf_r+0xb8>
    4138:	81400017 	ldw	r5,0(r16)
    413c:	90800017 	ldw	r2,0(r18)
    4140:	28c00003 	ldbu	r3,0(r5)
    4144:	1887883a 	add	r3,r3,r2
    4148:	19000003 	ldbu	r4,0(r3)
    414c:	2100020c 	andi	r4,r4,8
    4150:	203fec26 	beq	r4,zero,4104 <__svfscanf_r+0x4c>
    4154:	80c00117 	ldw	r3,4(r16)
    4158:	29800044 	addi	r6,r5,1
    415c:	8c400044 	addi	r17,r17,1
    4160:	18ffffc4 	addi	r3,r3,-1
    4164:	81800015 	stw	r6,0(r16)
    4168:	80c00115 	stw	r3,4(r16)
    416c:	00fff216 	blt	zero,r3,4138 <__svfscanf_r+0x80>
    4170:	b009883a 	mov	r4,r22
    4174:	800b883a 	mov	r5,r16
    4178:	00018e00 	call	18e0 <__srefill_r>
    417c:	103fee26 	beq	r2,zero,4138 <__svfscanf_r+0x80>
    4180:	a1000007 	ldb	r4,0(r20)
    4184:	d9000115 	stw	r4,4(sp)
    4188:	203fe11e 	bne	r4,zero,4110 <__svfscanf_r+0x58>
    418c:	d880a217 	ldw	r2,648(sp)
    4190:	dfc0b117 	ldw	ra,708(sp)
    4194:	df00b017 	ldw	fp,704(sp)
    4198:	ddc0af17 	ldw	r23,700(sp)
    419c:	dd80ae17 	ldw	r22,696(sp)
    41a0:	dd40ad17 	ldw	r21,692(sp)
    41a4:	dd00ac17 	ldw	r20,688(sp)
    41a8:	dcc0ab17 	ldw	r19,684(sp)
    41ac:	dc80aa17 	ldw	r18,680(sp)
    41b0:	dc40a917 	ldw	r17,676(sp)
    41b4:	dc00a817 	ldw	r16,672(sp)
    41b8:	dec0b204 	addi	sp,sp,712
    41bc:	f800283a 	ret
    41c0:	00800944 	movi	r2,37
    41c4:	20801626 	beq	r4,r2,4220 <__svfscanf_r+0x168>
    41c8:	80800117 	ldw	r2,4(r16)
    41cc:	00800b0e 	bge	zero,r2,41fc <__svfscanf_r+0x144>
    41d0:	81000017 	ldw	r4,0(r16)
    41d4:	a0ffffc7 	ldb	r3,-1(r20)
    41d8:	20800003 	ldbu	r2,0(r4)
    41dc:	10ffeb1e 	bne	r2,r3,418c <__svfscanf_r+0xd4>
    41e0:	80c00117 	ldw	r3,4(r16)
    41e4:	21800044 	addi	r6,r4,1
    41e8:	8c400044 	addi	r17,r17,1
    41ec:	18ffffc4 	addi	r3,r3,-1
    41f0:	80c00115 	stw	r3,4(r16)
    41f4:	81800015 	stw	r6,0(r16)
    41f8:	003fc206 	br	4104 <__svfscanf_r+0x4c>
    41fc:	b009883a 	mov	r4,r22
    4200:	800b883a 	mov	r5,r16
    4204:	00018e00 	call	18e0 <__srefill_r>
    4208:	103ff126 	beq	r2,zero,41d0 <__svfscanf_r+0x118>
    420c:	d900a217 	ldw	r4,648(sp)
    4210:	2004c91e 	bne	r4,zero,5538 <__svfscanf_r+0x1480>
    4214:	00bfffc4 	movi	r2,-1
    4218:	d880a215 	stw	r2,648(sp)
    421c:	003fdb06 	br	418c <__svfscanf_r+0xd4>
    4220:	d800a315 	stw	zero,652(sp)
    4224:	0027883a 	mov	r19,zero
    4228:	a0c00003 	ldbu	r3,0(r20)
    422c:	00801e04 	movi	r2,120
    4230:	a5000044 	addi	r20,r20,1
    4234:	19403fcc 	andi	r5,r3,255
    4238:	2940201c 	xori	r5,r5,128
    423c:	297fe004 	addi	r5,r5,-128
    4240:	10c08036 	bltu	r2,r3,4444 <__svfscanf_r+0x38c>
    4244:	18c5883a 	add	r2,r3,r3
    4248:	1085883a 	add	r2,r2,r2
    424c:	00c00034 	movhi	r3,0
    4250:	18d09804 	addi	r3,r3,16992
    4254:	10c5883a 	add	r2,r2,r3
    4258:	11000017 	ldw	r4,0(r2)
    425c:	2000683a 	jmp	r4
    4260:	00004214 	movui	zero,264
    4264:	00004444 	movi	zero,273
    4268:	00004444 	movi	zero,273
    426c:	00004444 	movi	zero,273
    4270:	00004444 	movi	zero,273
    4274:	00004444 	movi	zero,273
    4278:	00004444 	movi	zero,273
    427c:	00004444 	movi	zero,273
    4280:	00004444 	movi	zero,273
    4284:	00004444 	movi	zero,273
    4288:	00004444 	movi	zero,273
    428c:	00004444 	movi	zero,273
    4290:	00004444 	movi	zero,273
    4294:	00004444 	movi	zero,273
    4298:	00004444 	movi	zero,273
    429c:	00004444 	movi	zero,273
    42a0:	00004444 	movi	zero,273
    42a4:	00004444 	movi	zero,273
    42a8:	00004444 	movi	zero,273
    42ac:	00004444 	movi	zero,273
    42b0:	00004444 	movi	zero,273
    42b4:	00004444 	movi	zero,273
    42b8:	00004444 	movi	zero,273
    42bc:	00004444 	movi	zero,273
    42c0:	00004444 	movi	zero,273
    42c4:	00004444 	movi	zero,273
    42c8:	00004444 	movi	zero,273
    42cc:	00004444 	movi	zero,273
    42d0:	00004444 	movi	zero,273
    42d4:	00004444 	movi	zero,273
    42d8:	00004444 	movi	zero,273
    42dc:	00004444 	movi	zero,273
    42e0:	00004444 	movi	zero,273
    42e4:	00004444 	movi	zero,273
    42e8:	00004444 	movi	zero,273
    42ec:	00004444 	movi	zero,273
    42f0:	00004444 	movi	zero,273
    42f4:	000041c8 	cmpgei	zero,zero,263
    42f8:	00004444 	movi	zero,273
    42fc:	00004444 	movi	zero,273
    4300:	00004444 	movi	zero,273
    4304:	00004444 	movi	zero,273
    4308:	00005468 	cmpgeui	zero,zero,337
    430c:	00004444 	movi	zero,273
    4310:	00004444 	movi	zero,273
    4314:	00004444 	movi	zero,273
    4318:	00004444 	movi	zero,273
    431c:	00004444 	movi	zero,273
    4320:	00004e64 	muli	zero,zero,313
    4324:	00004e64 	muli	zero,zero,313
    4328:	00004e64 	muli	zero,zero,313
    432c:	00004e64 	muli	zero,zero,313
    4330:	00004e64 	muli	zero,zero,313
    4334:	00004e64 	muli	zero,zero,313
    4338:	00004e64 	muli	zero,zero,313
    433c:	00004e64 	muli	zero,zero,313
    4340:	00004e64 	muli	zero,zero,313
    4344:	00004e64 	muli	zero,zero,313
    4348:	00004444 	movi	zero,273
    434c:	00004444 	movi	zero,273
    4350:	00004444 	movi	zero,273
    4354:	00004444 	movi	zero,273
    4358:	00004444 	movi	zero,273
    435c:	00004444 	movi	zero,273
    4360:	00004444 	movi	zero,273
    4364:	00004444 	movi	zero,273
    4368:	00004444 	movi	zero,273
    436c:	00004444 	movi	zero,273
    4370:	000055e4 	muli	zero,zero,343
    4374:	000055dc 	xori	zero,zero,343
    4378:	00004444 	movi	zero,273
    437c:	000055dc 	xori	zero,zero,343
    4380:	00004444 	movi	zero,273
    4384:	00004444 	movi	zero,273
    4388:	00004444 	movi	zero,273
    438c:	00004444 	movi	zero,273
    4390:	00005674 	movhi	zero,345
    4394:	00004444 	movi	zero,273
    4398:	00004444 	movi	zero,273
    439c:	0000562c 	andhi	zero,zero,344
    43a0:	00004444 	movi	zero,273
    43a4:	00004444 	movi	zero,273
    43a8:	00004444 	movi	zero,273
    43ac:	00004444 	movi	zero,273
    43b0:	00004444 	movi	zero,273
    43b4:	00004444 	movi	zero,273
    43b8:	00004444 	movi	zero,273
    43bc:	00004444 	movi	zero,273
    43c0:	00005470 	cmpltui	zero,zero,337
    43c4:	00004444 	movi	zero,273
    43c8:	00004444 	movi	zero,273
    43cc:	00005610 	cmplti	zero,zero,344
    43d0:	00004444 	movi	zero,273
    43d4:	00004444 	movi	zero,273
    43d8:	00004444 	movi	zero,273
    43dc:	00004444 	movi	zero,273
    43e0:	00004444 	movi	zero,273
    43e4:	00004444 	movi	zero,273
    43e8:	00004444 	movi	zero,273
    43ec:	00005604 	movi	zero,344
    43f0:	000055e8 	cmpgeui	zero,zero,343
    43f4:	000055dc 	xori	zero,zero,343
    43f8:	000055dc 	xori	zero,zero,343
    43fc:	000055dc 	xori	zero,zero,343
    4400:	000055d4 	movui	zero,343
    4404:	000056c8 	cmpgei	zero,zero,347
    4408:	00004444 	movi	zero,273
    440c:	00004444 	movi	zero,273
    4410:	000056b4 	movhi	zero,346
    4414:	00004444 	movi	zero,273
    4418:	0000564c 	andi	zero,zero,345
    441c:	00005630 	cmpltui	zero,zero,344
    4420:	00005684 	movi	zero,346
    4424:	00004444 	movi	zero,273
    4428:	00004444 	movi	zero,273
    442c:	0000567c 	xorhi	zero,zero,345
    4430:	00004444 	movi	zero,273
    4434:	000049b4 	movhi	zero,294
    4438:	00004444 	movi	zero,273
    443c:	00004444 	movi	zero,273
    4440:	00005470 	cmpltui	zero,zero,337
    4444:	2987883a 	add	r3,r5,r6
    4448:	18800003 	ldbu	r2,0(r3)
    444c:	1080004c 	andi	r2,r2,1
    4450:	1005003a 	cmpeq	r2,r2,zero
    4454:	10002c26 	beq	r2,zero,4508 <__svfscanf_r+0x450>
    4458:	01000074 	movhi	r4,1
    445c:	212cdd04 	addi	r4,r4,-19596
    4460:	00800284 	movi	r2,10
    4464:	d900a015 	stw	r4,640(sp)
    4468:	054000c4 	movi	r21,3
    446c:	d880a115 	stw	r2,644(sp)
    4470:	80c00117 	ldw	r3,4(r16)
    4474:	00c14a0e 	bge	zero,r3,49a0 <__svfscanf_r+0x8e8>
    4478:	9880100c 	andi	r2,r19,64
    447c:	10001326 	beq	r2,zero,44cc <__svfscanf_r+0x414>
    4480:	00800104 	movi	r2,4
    4484:	157f1f36 	bltu	r2,r21,4104 <__svfscanf_r+0x4c>
    4488:	ad45883a 	add	r2,r21,r21
    448c:	1085883a 	add	r2,r2,r2
    4490:	00c00034 	movhi	r3,0
    4494:	18d12904 	addi	r3,r3,17572
    4498:	10c5883a 	add	r2,r2,r3
    449c:	11000017 	ldw	r4,0(r2)
    44a0:	2000683a 	jmp	r4
    44a4:	00004510 	cmplti	zero,zero,276
    44a8:	0000461c 	xori	zero,zero,280
    44ac:	00004690 	cmplti	zero,zero,282
    44b0:	0000497c 	xorhi	zero,zero,293
    44b4:	000047c8 	cmpgei	zero,zero,287
    44b8:	b009883a 	mov	r4,r22
    44bc:	800b883a 	mov	r5,r16
    44c0:	00018e00 	call	18e0 <__srefill_r>
    44c4:	103f511e 	bne	r2,zero,420c <__svfscanf_r+0x154>
    44c8:	8c400044 	addi	r17,r17,1
    44cc:	81400017 	ldw	r5,0(r16)
    44d0:	90800017 	ldw	r2,0(r18)
    44d4:	28c00003 	ldbu	r3,0(r5)
    44d8:	1887883a 	add	r3,r3,r2
    44dc:	19000003 	ldbu	r4,0(r3)
    44e0:	2100020c 	andi	r4,r4,8
    44e4:	203fe626 	beq	r4,zero,4480 <__svfscanf_r+0x3c8>
    44e8:	80c00117 	ldw	r3,4(r16)
    44ec:	18ffffc4 	addi	r3,r3,-1
    44f0:	80c00115 	stw	r3,4(r16)
    44f4:	00fff00e 	bge	zero,r3,44b8 <__svfscanf_r+0x400>
    44f8:	29800044 	addi	r6,r5,1
    44fc:	8c400044 	addi	r17,r17,1
    4500:	81800015 	stw	r6,0(r16)
    4504:	003ff106 	br	44cc <__svfscanf_r+0x414>
    4508:	9cc00054 	ori	r19,r19,1
    450c:	003fd206 	br	4458 <__svfscanf_r+0x3a0>
    4510:	d8c0a317 	ldw	r3,652(sp)
    4514:	1800021e 	bne	r3,zero,4520 <__svfscanf_r+0x468>
    4518:	01000044 	movi	r4,1
    451c:	d900a315 	stw	r4,652(sp)
    4520:	9880004c 	andi	r2,r19,1
    4524:	1005003a 	cmpeq	r2,r2,zero
    4528:	1003d91e 	bne	r2,zero,5490 <__svfscanf_r+0x13d8>
    452c:	9d40040c 	andi	r21,r19,16
    4530:	a839003a 	cmpeq	fp,r21,zero
    4534:	e0042526 	beq	fp,zero,55cc <__svfscanf_r+0x1514>
    4538:	d880a417 	ldw	r2,656(sp)
    453c:	14c00017 	ldw	r19,0(r2)
    4540:	10800104 	addi	r2,r2,4
    4544:	d880a415 	stw	r2,656(sp)
    4548:	d8c0a317 	ldw	r3,652(sp)
    454c:	18041a26 	beq	r3,zero,55b8 <__svfscanf_r+0x1500>
    4550:	01000074 	movhi	r4,1
    4554:	21115704 	addi	r4,r4,17756
    4558:	20800017 	ldw	r2,0(r4)
    455c:	103f2b26 	beq	r2,zero,420c <__svfscanf_r+0x154>
    4560:	d8804404 	addi	r2,sp,272
    4564:	0025883a 	mov	r18,zero
    4568:	d880a615 	stw	r2,664(sp)
    456c:	05ffffc4 	movi	r23,-1
    4570:	80800017 	ldw	r2,0(r16)
    4574:	80c00117 	ldw	r3,4(r16)
    4578:	d900a617 	ldw	r4,664(sp)
    457c:	12000003 	ldbu	r8,0(r2)
    4580:	18ffffc4 	addi	r3,r3,-1
    4584:	11800044 	addi	r6,r2,1
    4588:	248f883a 	add	r7,r4,r18
    458c:	80c00115 	stw	r3,4(r16)
    4590:	81800015 	stw	r6,0(r16)
    4594:	3a000005 	stb	r8,0(r7)
    4598:	d9000204 	addi	r4,sp,8
    459c:	000b883a 	mov	r5,zero
    45a0:	01800204 	movi	r6,8
    45a4:	00017d00 	call	17d0 <memset>
    45a8:	d980a617 	ldw	r6,664(sp)
    45ac:	94800044 	addi	r18,r18,1
    45b0:	d8800204 	addi	r2,sp,8
    45b4:	b009883a 	mov	r4,r22
    45b8:	980b883a 	mov	r5,r19
    45bc:	900f883a 	mov	r7,r18
    45c0:	d8800015 	stw	r2,0(sp)
    45c4:	00083900 	call	8390 <_mbrtowc_r>
    45c8:	1007883a 	mov	r3,r2
    45cc:	15ff0f26 	beq	r2,r23,420c <__svfscanf_r+0x154>
    45d0:	1003f11e 	bne	r2,zero,5598 <__svfscanf_r+0x14e0>
    45d4:	a800011e 	bne	r21,zero,45dc <__svfscanf_r+0x524>
    45d8:	98000015 	stw	zero,0(r19)
    45dc:	d8c0a317 	ldw	r3,652(sp)
    45e0:	8ca3883a 	add	r17,r17,r18
    45e4:	18ffffc4 	addi	r3,r3,-1
    45e8:	d8c0a315 	stw	r3,652(sp)
    45ec:	e0000126 	beq	fp,zero,45f4 <__svfscanf_r+0x53c>
    45f0:	9cc00104 	addi	r19,r19,4
    45f4:	0025883a 	mov	r18,zero
    45f8:	80c00117 	ldw	r3,4(r16)
    45fc:	00c3e90e 	bge	zero,r3,55a4 <__svfscanf_r+0x14ec>
    4600:	d900a317 	ldw	r4,652(sp)
    4604:	2003ec26 	beq	r4,zero,55b8 <__svfscanf_r+0x1500>
    4608:	00c00074 	movhi	r3,1
    460c:	18d15704 	addi	r3,r3,17756
    4610:	18800017 	ldw	r2,0(r3)
    4614:	90bfd61e 	bne	r18,r2,4570 <__svfscanf_r+0x4b8>
    4618:	003efc06 	br	420c <__svfscanf_r+0x154>
    461c:	d880a317 	ldw	r2,652(sp)
    4620:	1000021e 	bne	r2,zero,462c <__svfscanf_r+0x574>
    4624:	00ffffc4 	movi	r3,-1
    4628:	d8c0a315 	stw	r3,652(sp)
    462c:	9880040c 	andi	r2,r19,16
    4630:	10036526 	beq	r2,zero,53c8 <__svfscanf_r+0x1310>
    4634:	0027883a 	mov	r19,zero
    4638:	dd400404 	addi	r21,sp,16
    463c:	81000017 	ldw	r4,0(r16)
    4640:	20800003 	ldbu	r2,0(r4)
    4644:	a885883a 	add	r2,r21,r2
    4648:	10c00007 	ldb	r3,0(r2)
    464c:	1803be26 	beq	r3,zero,5548 <__svfscanf_r+0x1490>
    4650:	80c00117 	ldw	r3,4(r16)
    4654:	21800044 	addi	r6,r4,1
    4658:	d900a317 	ldw	r4,652(sp)
    465c:	18ffffc4 	addi	r3,r3,-1
    4660:	9cc00044 	addi	r19,r19,1
    4664:	81800015 	stw	r6,0(r16)
    4668:	80c00115 	stw	r3,4(r16)
    466c:	24c3b626 	beq	r4,r19,5548 <__svfscanf_r+0x1490>
    4670:	00fff216 	blt	zero,r3,463c <__svfscanf_r+0x584>
    4674:	b009883a 	mov	r4,r22
    4678:	800b883a 	mov	r5,r16
    467c:	00018e00 	call	18e0 <__srefill_r>
    4680:	103fee26 	beq	r2,zero,463c <__svfscanf_r+0x584>
    4684:	983ee126 	beq	r19,zero,420c <__svfscanf_r+0x154>
    4688:	8ce3883a 	add	r17,r17,r19
    468c:	003e9d06 	br	4104 <__svfscanf_r+0x4c>
    4690:	d900a317 	ldw	r4,652(sp)
    4694:	2000021e 	bne	r4,zero,46a0 <__svfscanf_r+0x5e8>
    4698:	00bfffc4 	movi	r2,-1
    469c:	d880a315 	stw	r2,652(sp)
    46a0:	9880004c 	andi	r2,r19,1
    46a4:	1005003a 	cmpeq	r2,r2,zero
    46a8:	1001f41e 	bne	r2,zero,4e7c <__svfscanf_r+0xdc4>
    46ac:	9dc0040c 	andi	r23,r19,16
    46b0:	b807003a 	cmpeq	r3,r23,zero
    46b4:	d8c0a515 	stw	r3,660(sp)
    46b8:	1803b21e 	bne	r3,zero,5584 <__svfscanf_r+0x14cc>
    46bc:	dd400104 	addi	r21,sp,4
    46c0:	0027883a 	mov	r19,zero
    46c4:	073fffc4 	movi	fp,-1
    46c8:	81400017 	ldw	r5,0(r16)
    46cc:	90800017 	ldw	r2,0(r18)
    46d0:	29c00003 	ldbu	r7,0(r5)
    46d4:	38c03fcc 	andi	r3,r7,255
    46d8:	1887883a 	add	r3,r3,r2
    46dc:	19000003 	ldbu	r4,0(r3)
    46e0:	2100020c 	andi	r4,r4,8
    46e4:	2000321e 	bne	r4,zero,47b0 <__svfscanf_r+0x6f8>
    46e8:	d8c0a317 	ldw	r3,652(sp)
    46ec:	18003026 	beq	r3,zero,47b0 <__svfscanf_r+0x6f8>
    46f0:	00800074 	movhi	r2,1
    46f4:	10915704 	addi	r2,r2,17756
    46f8:	10c00017 	ldw	r3,0(r2)
    46fc:	98fec326 	beq	r19,r3,420c <__svfscanf_r+0x154>
    4700:	d8c04404 	addi	r3,sp,272
    4704:	80800117 	ldw	r2,4(r16)
    4708:	d8c0a615 	stw	r3,664(sp)
    470c:	d900a617 	ldw	r4,664(sp)
    4710:	10ffffc4 	addi	r3,r2,-1
    4714:	29800044 	addi	r6,r5,1
    4718:	80c00115 	stw	r3,4(r16)
    471c:	24c5883a 	add	r2,r4,r19
    4720:	81800015 	stw	r6,0(r16)
    4724:	d9000204 	addi	r4,sp,8
    4728:	000b883a 	mov	r5,zero
    472c:	01800204 	movi	r6,8
    4730:	11c00005 	stb	r7,0(r2)
    4734:	00017d00 	call	17d0 <memset>
    4738:	d980a617 	ldw	r6,664(sp)
    473c:	9cc00044 	addi	r19,r19,1
    4740:	d8800204 	addi	r2,sp,8
    4744:	b009883a 	mov	r4,r22
    4748:	a80b883a 	mov	r5,r21
    474c:	980f883a 	mov	r7,r19
    4750:	d8800015 	stw	r2,0(sp)
    4754:	00083900 	call	8390 <_mbrtowc_r>
    4758:	1007883a 	mov	r3,r2
    475c:	173eab26 	beq	r2,fp,420c <__svfscanf_r+0x154>
    4760:	1003851e 	bne	r2,zero,5578 <__svfscanf_r+0x14c0>
    4764:	a8000015 	stw	zero,0(r21)
    4768:	a9000017 	ldw	r4,0(r21)
    476c:	00080940 	call	8094 <iswspace>
    4770:	1003781e 	bne	r2,zero,5554 <__svfscanf_r+0x149c>
    4774:	d900a317 	ldw	r4,652(sp)
    4778:	d880a517 	ldw	r2,660(sp)
    477c:	8ce3883a 	add	r17,r17,r19
    4780:	213fffc4 	addi	r4,r4,-1
    4784:	d900a315 	stw	r4,652(sp)
    4788:	10000126 	beq	r2,zero,4790 <__svfscanf_r+0x6d8>
    478c:	ad400104 	addi	r21,r21,4
    4790:	0027883a 	mov	r19,zero
    4794:	80c00117 	ldw	r3,4(r16)
    4798:	00ffcb16 	blt	zero,r3,46c8 <__svfscanf_r+0x610>
    479c:	b009883a 	mov	r4,r22
    47a0:	800b883a 	mov	r5,r16
    47a4:	00018e00 	call	18e0 <__srefill_r>
    47a8:	103fc726 	beq	r2,zero,46c8 <__svfscanf_r+0x610>
    47ac:	983e971e 	bne	r19,zero,420c <__svfscanf_r+0x154>
    47b0:	b83e541e 	bne	r23,zero,4104 <__svfscanf_r+0x4c>
    47b4:	d900a217 	ldw	r4,648(sp)
    47b8:	a8000015 	stw	zero,0(r21)
    47bc:	21000044 	addi	r4,r4,1
    47c0:	d900a215 	stw	r4,648(sp)
    47c4:	003e4f06 	br	4104 <__svfscanf_r+0x4c>
    47c8:	d900a317 	ldw	r4,652(sp)
    47cc:	00805704 	movi	r2,348
    47d0:	20ffffc4 	addi	r3,r4,-1
    47d4:	10c1ed2e 	bgeu	r2,r3,4f8c <__svfscanf_r+0xed4>
    47d8:	00805744 	movi	r2,349
    47dc:	21bfa8c4 	addi	r6,r4,-349
    47e0:	9d41e014 	ori	r21,r19,1920
    47e4:	d880a315 	stw	r2,652(sp)
    47e8:	d8c04404 	addi	r3,sp,272
    47ec:	d8c0a615 	stw	r3,664(sp)
    47f0:	182f883a 	mov	r23,r3
    47f4:	d8009f15 	stw	zero,636(sp)
    47f8:	d8009e15 	stw	zero,632(sp)
    47fc:	d8009d15 	stw	zero,628(sp)
    4800:	d8009c15 	stw	zero,624(sp)
    4804:	0039883a 	mov	fp,zero
    4808:	0025883a 	mov	r18,zero
    480c:	80800017 	ldw	r2,0(r16)
    4810:	11400003 	ldbu	r5,0(r2)
    4814:	00801384 	movi	r2,78
    4818:	28fff544 	addi	r3,r5,-43
    481c:	18c03fcc 	andi	r3,r3,255
    4820:	10c07d36 	bltu	r2,r3,4a18 <__svfscanf_r+0x960>
    4824:	18c5883a 	add	r2,r3,r3
    4828:	1085883a 	add	r2,r2,r2
    482c:	00c00034 	movhi	r3,0
    4830:	18d21004 	addi	r3,r3,18496
    4834:	10c5883a 	add	r2,r2,r3
    4838:	11000017 	ldw	r4,0(r2)
    483c:	2000683a 	jmp	r4
    4840:	000049d0 	cmplti	zero,zero,295
    4844:	00004a18 	cmpnei	zero,zero,296
    4848:	000049d0 	cmplti	zero,zero,295
    484c:	00004b64 	muli	zero,zero,301
    4850:	00004a18 	cmpnei	zero,zero,296
    4854:	00004b9c 	xori	zero,zero,302
    4858:	00004bd0 	cmplti	zero,zero,303
    485c:	00004bd0 	cmplti	zero,zero,303
    4860:	00004bd0 	cmplti	zero,zero,303
    4864:	00004bd0 	cmplti	zero,zero,303
    4868:	00004bd0 	cmplti	zero,zero,303
    486c:	00004bd0 	cmplti	zero,zero,303
    4870:	00004bd0 	cmplti	zero,zero,303
    4874:	00004bd0 	cmplti	zero,zero,303
    4878:	00004bd0 	cmplti	zero,zero,303
    487c:	00004a18 	cmpnei	zero,zero,296
    4880:	00004a18 	cmpnei	zero,zero,296
    4884:	00004a18 	cmpnei	zero,zero,296
    4888:	00004a18 	cmpnei	zero,zero,296
    488c:	00004a18 	cmpnei	zero,zero,296
    4890:	00004a18 	cmpnei	zero,zero,296
    4894:	00004a18 	cmpnei	zero,zero,296
    4898:	00004bf0 	cmpltui	zero,zero,303
    489c:	00004a18 	cmpnei	zero,zero,296
    48a0:	00004a18 	cmpnei	zero,zero,296
    48a4:	00004a18 	cmpnei	zero,zero,296
    48a8:	00004c00 	call	4c0 <cmd_help+0xc4>
    48ac:	00004c9c 	xori	zero,zero,306
    48b0:	00004a18 	cmpnei	zero,zero,296
    48b4:	00004a18 	cmpnei	zero,zero,296
    48b8:	00004cb8 	rdprs	zero,zero,306
    48bc:	00004a18 	cmpnei	zero,zero,296
    48c0:	00004a18 	cmpnei	zero,zero,296
    48c4:	00004a18 	cmpnei	zero,zero,296
    48c8:	00004a18 	cmpnei	zero,zero,296
    48cc:	00004ce4 	muli	zero,zero,307
    48d0:	00004a18 	cmpnei	zero,zero,296
    48d4:	00004a18 	cmpnei	zero,zero,296
    48d8:	00004a18 	cmpnei	zero,zero,296
    48dc:	00004a18 	cmpnei	zero,zero,296
    48e0:	00004a18 	cmpnei	zero,zero,296
    48e4:	00004d38 	rdprs	zero,zero,308
    48e8:	00004a18 	cmpnei	zero,zero,296
    48ec:	00004a18 	cmpnei	zero,zero,296
    48f0:	00004a18 	cmpnei	zero,zero,296
    48f4:	00004a18 	cmpnei	zero,zero,296
    48f8:	00004e48 	cmpgei	zero,zero,313
    48fc:	00004a18 	cmpnei	zero,zero,296
    4900:	00004a18 	cmpnei	zero,zero,296
    4904:	00004a18 	cmpnei	zero,zero,296
    4908:	00004a18 	cmpnei	zero,zero,296
    490c:	00004a18 	cmpnei	zero,zero,296
    4910:	00004a18 	cmpnei	zero,zero,296
    4914:	00004a18 	cmpnei	zero,zero,296
    4918:	00004bf0 	cmpltui	zero,zero,303
    491c:	00004a18 	cmpnei	zero,zero,296
    4920:	00004a18 	cmpnei	zero,zero,296
    4924:	00004a18 	cmpnei	zero,zero,296
    4928:	00004c00 	call	4c0 <cmd_help+0xc4>
    492c:	00004c9c 	xori	zero,zero,306
    4930:	00004a18 	cmpnei	zero,zero,296
    4934:	00004a18 	cmpnei	zero,zero,296
    4938:	00004cb8 	rdprs	zero,zero,306
    493c:	00004a18 	cmpnei	zero,zero,296
    4940:	00004a18 	cmpnei	zero,zero,296
    4944:	00004a18 	cmpnei	zero,zero,296
    4948:	00004a18 	cmpnei	zero,zero,296
    494c:	00004ce4 	muli	zero,zero,307
    4950:	00004a18 	cmpnei	zero,zero,296
    4954:	00004a18 	cmpnei	zero,zero,296
    4958:	00004a18 	cmpnei	zero,zero,296
    495c:	00004a18 	cmpnei	zero,zero,296
    4960:	00004a18 	cmpnei	zero,zero,296
    4964:	00004d38 	rdprs	zero,zero,308
    4968:	00004a18 	cmpnei	zero,zero,296
    496c:	00004a18 	cmpnei	zero,zero,296
    4970:	00004a18 	cmpnei	zero,zero,296
    4974:	00004a18 	cmpnei	zero,zero,296
    4978:	00004e48 	cmpgei	zero,zero,313
    497c:	d900a317 	ldw	r4,652(sp)
    4980:	00805704 	movi	r2,348
    4984:	20ffffc4 	addi	r3,r4,-1
    4988:	10c18c2e 	bgeu	r2,r3,4fbc <__svfscanf_r+0xf04>
    498c:	00805744 	movi	r2,349
    4990:	257fa8c4 	addi	r21,r4,-349
    4994:	9c836014 	ori	r18,r19,3456
    4998:	d880a315 	stw	r2,652(sp)
    499c:	0001a106 	br	5024 <__svfscanf_r+0xf6c>
    49a0:	b009883a 	mov	r4,r22
    49a4:	800b883a 	mov	r5,r16
    49a8:	00018e00 	call	18e0 <__srefill_r>
    49ac:	103eb226 	beq	r2,zero,4478 <__svfscanf_r+0x3c0>
    49b0:	003e1606 	br	420c <__svfscanf_r+0x154>
    49b4:	01000284 	movi	r4,10
    49b8:	00800074 	movhi	r2,1
    49bc:	10ae3d04 	addi	r2,r2,-18188
    49c0:	054000c4 	movi	r21,3
    49c4:	d900a115 	stw	r4,644(sp)
    49c8:	d880a015 	stw	r2,640(sp)
    49cc:	003ea806 	br	4470 <__svfscanf_r+0x3b8>
    49d0:	a880200c 	andi	r2,r21,128
    49d4:	10001026 	beq	r2,zero,4a18 <__svfscanf_r+0x960>
    49d8:	00bfdfc4 	movi	r2,-129
    49dc:	a8aa703a 	and	r21,r21,r2
    49e0:	b9400005 	stb	r5,0(r23)
    49e4:	bdc00044 	addi	r23,r23,1
    49e8:	80c00117 	ldw	r3,4(r16)
    49ec:	8c400044 	addi	r17,r17,1
    49f0:	18bfffc4 	addi	r2,r3,-1
    49f4:	80800115 	stw	r2,4(r16)
    49f8:	0080610e 	bge	zero,r2,4b80 <__svfscanf_r+0xac8>
    49fc:	80800017 	ldw	r2,0(r16)
    4a00:	10800044 	addi	r2,r2,1
    4a04:	80800015 	stw	r2,0(r16)
    4a08:	d880a317 	ldw	r2,652(sp)
    4a0c:	10bfffc4 	addi	r2,r2,-1
    4a10:	d880a315 	stw	r2,652(sp)
    4a14:	103f7d1e 	bne	r2,zero,480c <__svfscanf_r+0x754>
    4a18:	d8c09e17 	ldw	r3,632(sp)
    4a1c:	18000226 	beq	r3,zero,4a28 <__svfscanf_r+0x970>
    4a20:	00bfbfc4 	movi	r2,-257
    4a24:	a8aa703a 	and	r21,r21,r2
    4a28:	90ffffc4 	addi	r3,r18,-1
    4a2c:	00800044 	movi	r2,1
    4a30:	10c0cd2e 	bgeu	r2,r3,4d68 <__svfscanf_r+0xcb0>
    4a34:	e1003fcc 	andi	r4,fp,255
    4a38:	2100201c 	xori	r4,r4,128
    4a3c:	213fe004 	addi	r4,r4,-128
    4a40:	20ffffc4 	addi	r3,r4,-1
    4a44:	00800184 	movi	r2,6
    4a48:	10c01736 	bltu	r2,r3,4aa8 <__svfscanf_r+0x9f0>
    4a4c:	00c00084 	movi	r3,2
    4a50:	1900880e 	bge	r3,r4,4c74 <__svfscanf_r+0xbbc>
    4a54:	008000c4 	movi	r2,3
    4a58:	1100130e 	bge	r2,r4,4aa8 <__svfscanf_r+0x9f0>
    4a5c:	e4ffffc4 	addi	r19,fp,-1
    4a60:	b825883a 	mov	r18,r23
    4a64:	94bfffc4 	addi	r18,r18,-1
    4a68:	91400007 	ldb	r5,0(r18)
    4a6c:	b009883a 	mov	r4,r22
    4a70:	800d883a 	mov	r6,r16
    4a74:	000bf140 	call	bf14 <_ungetc_r>
    4a78:	9cffffc4 	addi	r19,r19,-1
    4a7c:	98c03fcc 	andi	r3,r19,255
    4a80:	18c0201c 	xori	r3,r3,128
    4a84:	18ffe004 	addi	r3,r3,-128
    4a88:	00800084 	movi	r2,2
    4a8c:	18bff51e 	bne	r3,r2,4a64 <__svfscanf_r+0x9ac>
    4a90:	e0bfff04 	addi	r2,fp,-4
    4a94:	10803fcc 	andi	r2,r2,255
    4a98:	b887c83a 	sub	r3,r23,r2
    4a9c:	8885c83a 	sub	r2,r17,r2
    4aa0:	147fffc4 	addi	r17,r2,-1
    4aa4:	1dffffc4 	addi	r23,r3,-1
    4aa8:	a880400c 	andi	r2,r21,256
    4aac:	10001226 	beq	r2,zero,4af8 <__svfscanf_r+0xa40>
    4ab0:	a881000c 	andi	r2,r21,1024
    4ab4:	1000651e 	bne	r2,zero,4c4c <__svfscanf_r+0xb94>
    4ab8:	bdffffc4 	addi	r23,r23,-1
    4abc:	b9400007 	ldb	r5,0(r23)
    4ac0:	00801944 	movi	r2,101
    4ac4:	8c7fffc4 	addi	r17,r17,-1
    4ac8:	28800826 	beq	r5,r2,4aec <__svfscanf_r+0xa34>
    4acc:	00801144 	movi	r2,69
    4ad0:	28800626 	beq	r5,r2,4aec <__svfscanf_r+0xa34>
    4ad4:	bdffffc4 	addi	r23,r23,-1
    4ad8:	b009883a 	mov	r4,r22
    4adc:	800d883a 	mov	r6,r16
    4ae0:	000bf140 	call	bf14 <_ungetc_r>
    4ae4:	b9400007 	ldb	r5,0(r23)
    4ae8:	8c7fffc4 	addi	r17,r17,-1
    4aec:	b009883a 	mov	r4,r22
    4af0:	800d883a 	mov	r6,r16
    4af4:	000bf140 	call	bf14 <_ungetc_r>
    4af8:	a880040c 	andi	r2,r21,16
    4afc:	103d811e 	bne	r2,zero,4104 <__svfscanf_r+0x4c>
    4b00:	a8c1800c 	andi	r3,r21,1536
    4b04:	00810004 	movi	r2,1024
    4b08:	b8000005 	stb	zero,0(r23)
    4b0c:	1880bb26 	beq	r3,r2,4dfc <__svfscanf_r+0xd44>
    4b10:	d8809d17 	ldw	r2,628(sp)
    4b14:	1000a61e 	bne	r2,zero,4db0 <__svfscanf_r+0xcf8>
    4b18:	d940a617 	ldw	r5,664(sp)
    4b1c:	b009883a 	mov	r4,r22
    4b20:	000d883a 	mov	r6,zero
    4b24:	0009d500 	call	9d50 <_strtod_r>
    4b28:	a900004c 	andi	r4,r21,1
    4b2c:	2009003a 	cmpeq	r4,r4,zero
    4b30:	1025883a 	mov	r18,r2
    4b34:	1827883a 	mov	r19,r3
    4b38:	2000951e 	bne	r4,zero,4d90 <__svfscanf_r+0xcd8>
    4b3c:	d8c0a417 	ldw	r3,656(sp)
    4b40:	18800017 	ldw	r2,0(r3)
    4b44:	1d400104 	addi	r21,r3,4
    4b48:	14c00115 	stw	r19,4(r2)
    4b4c:	14800015 	stw	r18,0(r2)
    4b50:	d8c0a217 	ldw	r3,648(sp)
    4b54:	dd40a415 	stw	r21,656(sp)
    4b58:	18c00044 	addi	r3,r3,1
    4b5c:	d8c0a215 	stw	r3,648(sp)
    4b60:	003d6806 	br	4104 <__svfscanf_r+0x4c>
    4b64:	a880800c 	andi	r2,r21,512
    4b68:	103fab26 	beq	r2,zero,4a18 <__svfscanf_r+0x960>
    4b6c:	d9009e17 	ldw	r4,632(sp)
    4b70:	00bf5fc4 	movi	r2,-641
    4b74:	a8aa703a 	and	r21,r21,r2
    4b78:	d9009f15 	stw	r4,636(sp)
    4b7c:	003f9806 	br	49e0 <__svfscanf_r+0x928>
    4b80:	b009883a 	mov	r4,r22
    4b84:	800b883a 	mov	r5,r16
    4b88:	d980a715 	stw	r6,668(sp)
    4b8c:	00018e00 	call	18e0 <__srefill_r>
    4b90:	d980a717 	ldw	r6,668(sp)
    4b94:	103f9c26 	beq	r2,zero,4a08 <__svfscanf_r+0x950>
    4b98:	003f9f06 	br	4a18 <__svfscanf_r+0x960>
    4b9c:	a880400c 	andi	r2,r21,256
    4ba0:	10000b26 	beq	r2,zero,4bd0 <__svfscanf_r+0xb18>
    4ba4:	00bfdfc4 	movi	r2,-129
    4ba8:	a8aa703a 	and	r21,r21,r2
    4bac:	d8809e17 	ldw	r2,632(sp)
    4bb0:	10800044 	addi	r2,r2,1
    4bb4:	d8809e15 	stw	r2,632(sp)
    4bb8:	303f8b26 	beq	r6,zero,49e8 <__svfscanf_r+0x930>
    4bbc:	d8c0a317 	ldw	r3,652(sp)
    4bc0:	31bfffc4 	addi	r6,r6,-1
    4bc4:	18c00044 	addi	r3,r3,1
    4bc8:	d8c0a315 	stw	r3,652(sp)
    4bcc:	003f8606 	br	49e8 <__svfscanf_r+0x930>
    4bd0:	e0803fcc 	andi	r2,fp,255
    4bd4:	1080201c 	xori	r2,r2,128
    4bd8:	10bfe004 	addi	r2,r2,-128
    4bdc:	9085883a 	add	r2,r18,r2
    4be0:	103f8d1e 	bne	r2,zero,4a18 <__svfscanf_r+0x960>
    4be4:	00bf9fc4 	movi	r2,-385
    4be8:	a8aa703a 	and	r21,r21,r2
    4bec:	003f7c06 	br	49e0 <__svfscanf_r+0x928>
    4bf0:	00800044 	movi	r2,1
    4bf4:	90bf881e 	bne	r18,r2,4a18 <__svfscanf_r+0x960>
    4bf8:	04800084 	movi	r18,2
    4bfc:	003f7806 	br	49e0 <__svfscanf_r+0x928>
    4c00:	a8c1400c 	andi	r3,r21,1280
    4c04:	00810004 	movi	r2,1024
    4c08:	18800426 	beq	r3,r2,4c1c <__svfscanf_r+0xb64>
    4c0c:	a884703a 	and	r2,r21,r2
    4c10:	103f8126 	beq	r2,zero,4a18 <__svfscanf_r+0x960>
    4c14:	d8809e17 	ldw	r2,632(sp)
    4c18:	103f8326 	beq	r2,zero,4a28 <__svfscanf_r+0x970>
    4c1c:	a880800c 	andi	r2,r21,512
    4c20:	1000051e 	bne	r2,zero,4c38 <__svfscanf_r+0xb80>
    4c24:	d8c09e17 	ldw	r3,632(sp)
    4c28:	d9009f17 	ldw	r4,636(sp)
    4c2c:	ddc09c15 	stw	r23,624(sp)
    4c30:	1907c83a 	sub	r3,r3,r4
    4c34:	d8c09d15 	stw	r3,628(sp)
    4c38:	00be7fc4 	movi	r2,-1537
    4c3c:	a884703a 	and	r2,r21,r2
    4c40:	15406014 	ori	r21,r2,384
    4c44:	d8009e15 	stw	zero,632(sp)
    4c48:	003f6506 	br	49e0 <__svfscanf_r+0x928>
    4c4c:	d900a617 	ldw	r4,664(sp)
    4c50:	25fd4e2e 	bgeu	r4,r23,418c <__svfscanf_r+0xd4>
    4c54:	bdffffc4 	addi	r23,r23,-1
    4c58:	b9400007 	ldb	r5,0(r23)
    4c5c:	b009883a 	mov	r4,r22
    4c60:	800d883a 	mov	r6,r16
    4c64:	000bf140 	call	bf14 <_ungetc_r>
    4c68:	d880a617 	ldw	r2,664(sp)
    4c6c:	15fff936 	bltu	r2,r23,4c54 <__svfscanf_r+0xb9c>
    4c70:	003d4606 	br	418c <__svfscanf_r+0xd4>
    4c74:	d900a617 	ldw	r4,664(sp)
    4c78:	25fd442e 	bgeu	r4,r23,418c <__svfscanf_r+0xd4>
    4c7c:	bdffffc4 	addi	r23,r23,-1
    4c80:	b9400007 	ldb	r5,0(r23)
    4c84:	b009883a 	mov	r4,r22
    4c88:	800d883a 	mov	r6,r16
    4c8c:	000bf140 	call	bf14 <_ungetc_r>
    4c90:	d8c0a617 	ldw	r3,664(sp)
    4c94:	1dfff936 	bltu	r3,r23,4c7c <__svfscanf_r+0xbc4>
    4c98:	003d3c06 	br	418c <__svfscanf_r+0xd4>
    4c9c:	e0c03fcc 	andi	r3,fp,255
    4ca0:	18c0201c 	xori	r3,r3,128
    4ca4:	18ffe004 	addi	r3,r3,-128
    4ca8:	00800084 	movi	r2,2
    4cac:	18bf5a1e 	bne	r3,r2,4a18 <__svfscanf_r+0x960>
    4cb0:	070000c4 	movi	fp,3
    4cb4:	003f4a06 	br	49e0 <__svfscanf_r+0x928>
    4cb8:	e0c03fcc 	andi	r3,fp,255
    4cbc:	18c0201c 	xori	r3,r3,128
    4cc0:	18ffe004 	addi	r3,r3,-128
    4cc4:	1800231e 	bne	r3,zero,4d54 <__svfscanf_r+0xc9c>
    4cc8:	a8c1c00c 	andi	r3,r21,1792
    4ccc:	0081c004 	movi	r2,1792
    4cd0:	18bf511e 	bne	r3,r2,4a18 <__svfscanf_r+0x960>
    4cd4:	00be1fc4 	movi	r2,-1921
    4cd8:	a8aa703a 	and	r21,r21,r2
    4cdc:	07000044 	movi	fp,1
    4ce0:	003f3f06 	br	49e0 <__svfscanf_r+0x928>
    4ce4:	9000101e 	bne	r18,zero,4d28 <__svfscanf_r+0xc70>
    4ce8:	a8c1c00c 	andi	r3,r21,1792
    4cec:	0081c004 	movi	r2,1792
    4cf0:	18800926 	beq	r3,r2,4d18 <__svfscanf_r+0xc60>
    4cf4:	e0c03fcc 	andi	r3,fp,255
    4cf8:	18c0201c 	xori	r3,r3,128
    4cfc:	18ffe004 	addi	r3,r3,-128
    4d00:	00800044 	movi	r2,1
    4d04:	18800226 	beq	r3,r2,4d10 <__svfscanf_r+0xc58>
    4d08:	00800104 	movi	r2,4
    4d0c:	18bf421e 	bne	r3,r2,4a18 <__svfscanf_r+0x960>
    4d10:	e7000044 	addi	fp,fp,1
    4d14:	003f3206 	br	49e0 <__svfscanf_r+0x928>
    4d18:	00be1fc4 	movi	r2,-1921
    4d1c:	a8aa703a 	and	r21,r21,r2
    4d20:	04800044 	movi	r18,1
    4d24:	003f2e06 	br	49e0 <__svfscanf_r+0x928>
    4d28:	00800084 	movi	r2,2
    4d2c:	90bff11e 	bne	r18,r2,4cf4 <__svfscanf_r+0xc3c>
    4d30:	048000c4 	movi	r18,3
    4d34:	003f2a06 	br	49e0 <__svfscanf_r+0x928>
    4d38:	e0c03fcc 	andi	r3,fp,255
    4d3c:	18c0201c 	xori	r3,r3,128
    4d40:	18ffe004 	addi	r3,r3,-128
    4d44:	00800184 	movi	r2,6
    4d48:	18bf331e 	bne	r3,r2,4a18 <__svfscanf_r+0x960>
    4d4c:	070001c4 	movi	fp,7
    4d50:	003f2306 	br	49e0 <__svfscanf_r+0x928>
    4d54:	008000c4 	movi	r2,3
    4d58:	18bfed26 	beq	r3,r2,4d10 <__svfscanf_r+0xc58>
    4d5c:	00800144 	movi	r2,5
    4d60:	18bfeb26 	beq	r3,r2,4d10 <__svfscanf_r+0xc58>
    4d64:	003f2c06 	br	4a18 <__svfscanf_r+0x960>
    4d68:	d900a617 	ldw	r4,664(sp)
    4d6c:	25fd072e 	bgeu	r4,r23,418c <__svfscanf_r+0xd4>
    4d70:	bdffffc4 	addi	r23,r23,-1
    4d74:	b9400007 	ldb	r5,0(r23)
    4d78:	b009883a 	mov	r4,r22
    4d7c:	800d883a 	mov	r6,r16
    4d80:	000bf140 	call	bf14 <_ungetc_r>
    4d84:	d880a617 	ldw	r2,664(sp)
    4d88:	15fff936 	bltu	r2,r23,4d70 <__svfscanf_r+0xcb8>
    4d8c:	003cff06 	br	418c <__svfscanf_r+0xd4>
    4d90:	a880008c 	andi	r2,r21,2
    4d94:	10002026 	beq	r2,zero,4e18 <__svfscanf_r+0xd60>
    4d98:	d900a417 	ldw	r4,656(sp)
    4d9c:	20800017 	ldw	r2,0(r4)
    4da0:	25400104 	addi	r21,r4,4
    4da4:	10c00115 	stw	r3,4(r2)
    4da8:	14800015 	stw	r18,0(r2)
    4dac:	003f6806 	br	4b50 <__svfscanf_r+0xa98>
    4db0:	d8c09c17 	ldw	r3,624(sp)
    4db4:	b009883a 	mov	r4,r22
    4db8:	000d883a 	mov	r6,zero
    4dbc:	19400044 	addi	r5,r3,1
    4dc0:	01c00284 	movi	r7,10
    4dc4:	000b3740 	call	b374 <_strtol_r>
    4dc8:	d9009d17 	ldw	r4,628(sp)
    4dcc:	110dc83a 	sub	r6,r2,r4
    4dd0:	d8c0a617 	ldw	r3,664(sp)
    4dd4:	d9009c17 	ldw	r4,624(sp)
    4dd8:	188054c4 	addi	r2,r3,339
    4ddc:	20800236 	bltu	r4,r2,4de8 <__svfscanf_r+0xd30>
    4de0:	18805484 	addi	r2,r3,338
    4de4:	d8809c15 	stw	r2,624(sp)
    4de8:	d9009c17 	ldw	r4,624(sp)
    4dec:	01400074 	movhi	r5,1
    4df0:	29495204 	addi	r5,r5,9544
    4df4:	0001b300 	call	1b30 <sprintf>
    4df8:	003f4706 	br	4b18 <__svfscanf_r+0xa60>
    4dfc:	d8c09e17 	ldw	r3,632(sp)
    4e00:	d9009f17 	ldw	r4,636(sp)
    4e04:	1905c83a 	sub	r2,r3,r4
    4e08:	103f4326 	beq	r2,zero,4b18 <__svfscanf_r+0xa60>
    4e0c:	008dc83a 	sub	r6,zero,r2
    4e10:	ddc09c15 	stw	r23,624(sp)
    4e14:	003fee06 	br	4dd0 <__svfscanf_r+0xd18>
    4e18:	d880a417 	ldw	r2,656(sp)
    4e1c:	9009883a 	mov	r4,r18
    4e20:	180b883a 	mov	r5,r3
    4e24:	15c00017 	ldw	r23,0(r2)
    4e28:	15400104 	addi	r21,r2,4
    4e2c:	0009c100 	call	9c10 <__isnand>
    4e30:	10021c1e 	bne	r2,zero,56a4 <__svfscanf_r+0x15ec>
    4e34:	980b883a 	mov	r5,r19
    4e38:	9009883a 	mov	r4,r18
    4e3c:	000ec3c0 	call	ec3c <__truncdfsf2>
    4e40:	b8800015 	stw	r2,0(r23)
    4e44:	003f4206 	br	4b50 <__svfscanf_r+0xa98>
    4e48:	e0c03fcc 	andi	r3,fp,255
    4e4c:	18c0201c 	xori	r3,r3,128
    4e50:	18ffe004 	addi	r3,r3,-128
    4e54:	008001c4 	movi	r2,7
    4e58:	18beef1e 	bne	r3,r2,4a18 <__svfscanf_r+0x960>
    4e5c:	07000204 	movi	fp,8
    4e60:	003edf06 	br	49e0 <__svfscanf_r+0x928>
    4e64:	d900a317 	ldw	r4,652(sp)
    4e68:	208002a4 	muli	r2,r4,10
    4e6c:	1145883a 	add	r2,r2,r5
    4e70:	10bff404 	addi	r2,r2,-48
    4e74:	d880a315 	stw	r2,652(sp)
    4e78:	003ceb06 	br	4228 <__svfscanf_r+0x170>
    4e7c:	9880040c 	andi	r2,r19,16
    4e80:	10001426 	beq	r2,zero,4ed4 <__svfscanf_r+0xe1c>
    4e84:	0027883a 	mov	r19,zero
    4e88:	00000906 	br	4eb0 <__svfscanf_r+0xdf8>
    4e8c:	80c00117 	ldw	r3,4(r16)
    4e90:	d880a317 	ldw	r2,652(sp)
    4e94:	29800044 	addi	r6,r5,1
    4e98:	18ffffc4 	addi	r3,r3,-1
    4e9c:	9cc00044 	addi	r19,r19,1
    4ea0:	81800015 	stw	r6,0(r16)
    4ea4:	80c00115 	stw	r3,4(r16)
    4ea8:	14fdf726 	beq	r2,r19,4688 <__svfscanf_r+0x5d0>
    4eac:	00c02c0e 	bge	zero,r3,4f60 <__svfscanf_r+0xea8>
    4eb0:	81400017 	ldw	r5,0(r16)
    4eb4:	90800017 	ldw	r2,0(r18)
    4eb8:	28c00003 	ldbu	r3,0(r5)
    4ebc:	1887883a 	add	r3,r3,r2
    4ec0:	19000003 	ldbu	r4,0(r3)
    4ec4:	2100020c 	andi	r4,r4,8
    4ec8:	203ff026 	beq	r4,zero,4e8c <__svfscanf_r+0xdd4>
    4ecc:	8ce3883a 	add	r17,r17,r19
    4ed0:	003c8c06 	br	4104 <__svfscanf_r+0x4c>
    4ed4:	d8c0a417 	ldw	r3,656(sp)
    4ed8:	1d400017 	ldw	r21,0(r3)
    4edc:	a827883a 	mov	r19,r21
    4ee0:	00000e06 	br	4f1c <__svfscanf_r+0xe64>
    4ee4:	80800117 	ldw	r2,4(r16)
    4ee8:	d900a317 	ldw	r4,652(sp)
    4eec:	29800044 	addi	r6,r5,1
    4ef0:	10ffffc4 	addi	r3,r2,-1
    4ef4:	213fffc4 	addi	r4,r4,-1
    4ef8:	d900a315 	stw	r4,652(sp)
    4efc:	80c00115 	stw	r3,4(r16)
    4f00:	28800003 	ldbu	r2,0(r5)
    4f04:	98800005 	stb	r2,0(r19)
    4f08:	81800015 	stw	r6,0(r16)
    4f0c:	9cc00044 	addi	r19,r19,1
    4f10:	20000926 	beq	r4,zero,4f38 <__svfscanf_r+0xe80>
    4f14:	80800117 	ldw	r2,4(r16)
    4f18:	0080170e 	bge	zero,r2,4f78 <__svfscanf_r+0xec0>
    4f1c:	81400017 	ldw	r5,0(r16)
    4f20:	90800017 	ldw	r2,0(r18)
    4f24:	28c00003 	ldbu	r3,0(r5)
    4f28:	1887883a 	add	r3,r3,r2
    4f2c:	19000003 	ldbu	r4,0(r3)
    4f30:	2100020c 	andi	r4,r4,8
    4f34:	203feb26 	beq	r4,zero,4ee4 <__svfscanf_r+0xe2c>
    4f38:	9d45c83a 	sub	r2,r19,r21
    4f3c:	d8c0a217 	ldw	r3,648(sp)
    4f40:	88a3883a 	add	r17,r17,r2
    4f44:	d880a417 	ldw	r2,656(sp)
    4f48:	18c00044 	addi	r3,r3,1
    4f4c:	d8c0a215 	stw	r3,648(sp)
    4f50:	10800104 	addi	r2,r2,4
    4f54:	d880a415 	stw	r2,656(sp)
    4f58:	98000005 	stb	zero,0(r19)
    4f5c:	003c6906 	br	4104 <__svfscanf_r+0x4c>
    4f60:	b009883a 	mov	r4,r22
    4f64:	800b883a 	mov	r5,r16
    4f68:	00018e00 	call	18e0 <__srefill_r>
    4f6c:	103fd026 	beq	r2,zero,4eb0 <__svfscanf_r+0xdf8>
    4f70:	8ce3883a 	add	r17,r17,r19
    4f74:	003c6306 	br	4104 <__svfscanf_r+0x4c>
    4f78:	b009883a 	mov	r4,r22
    4f7c:	800b883a 	mov	r5,r16
    4f80:	00018e00 	call	18e0 <__srefill_r>
    4f84:	103fe526 	beq	r2,zero,4f1c <__svfscanf_r+0xe64>
    4f88:	003feb06 	br	4f38 <__svfscanf_r+0xe80>
    4f8c:	d900a317 	ldw	r4,652(sp)
    4f90:	9d41e014 	ori	r21,r19,1920
    4f94:	2000821e 	bne	r4,zero,51a0 <__svfscanf_r+0x10e8>
    4f98:	d8c04404 	addi	r3,sp,272
    4f9c:	182f883a 	mov	r23,r3
    4fa0:	0039883a 	mov	fp,zero
    4fa4:	d8c0a615 	stw	r3,664(sp)
    4fa8:	d8009c15 	stw	zero,624(sp)
    4fac:	d8009d15 	stw	zero,628(sp)
    4fb0:	d8009f15 	stw	zero,636(sp)
    4fb4:	d8009e15 	stw	zero,632(sp)
    4fb8:	003e9e06 	br	4a34 <__svfscanf_r+0x97c>
    4fbc:	d900a317 	ldw	r4,652(sp)
    4fc0:	9c836014 	ori	r18,r19,3456
    4fc4:	2000161e 	bne	r4,zero,5020 <__svfscanf_r+0xf68>
    4fc8:	d8804404 	addi	r2,sp,272
    4fcc:	d880a615 	stw	r2,664(sp)
    4fd0:	002f883a 	mov	r23,zero
    4fd4:	1027883a 	mov	r19,r2
    4fd8:	9080400c 	andi	r2,r18,256
    4fdc:	10000926 	beq	r2,zero,5004 <__svfscanf_r+0xf4c>
    4fe0:	d8c0a617 	ldw	r3,664(sp)
    4fe4:	1cc0052e 	bgeu	r3,r19,4ffc <__svfscanf_r+0xf44>
    4fe8:	9cffffc4 	addi	r19,r19,-1
    4fec:	99400007 	ldb	r5,0(r19)
    4ff0:	b009883a 	mov	r4,r22
    4ff4:	800d883a 	mov	r6,r16
    4ff8:	000bf140 	call	bf14 <_ungetc_r>
    4ffc:	d900a617 	ldw	r4,664(sp)
    5000:	24fc6226 	beq	r4,r19,418c <__svfscanf_r+0xd4>
    5004:	9080040c 	andi	r2,r18,16
    5008:	10006726 	beq	r2,zero,51a8 <__svfscanf_r+0x10f0>
    500c:	d8c0a617 	ldw	r3,664(sp)
    5010:	98c5c83a 	sub	r2,r19,r3
    5014:	b885883a 	add	r2,r23,r2
    5018:	88a3883a 	add	r17,r17,r2
    501c:	003c3906 	br	4104 <__svfscanf_r+0x4c>
    5020:	002b883a 	mov	r21,zero
    5024:	d8c04404 	addi	r3,sp,272
    5028:	d8c0a615 	stw	r3,664(sp)
    502c:	002f883a 	mov	r23,zero
    5030:	1827883a 	mov	r19,r3
    5034:	81800017 	ldw	r6,0(r16)
    5038:	00c01344 	movi	r3,77
    503c:	31400003 	ldbu	r5,0(r6)
    5040:	28bff544 	addi	r2,r5,-43
    5044:	10803fcc 	andi	r2,r2,255
    5048:	18bfe336 	bltu	r3,r2,4fd8 <__svfscanf_r+0xf20>
    504c:	1085883a 	add	r2,r2,r2
    5050:	1085883a 	add	r2,r2,r2
    5054:	00c00034 	movhi	r3,0
    5058:	18d41a04 	addi	r3,r3,20584
    505c:	10c5883a 	add	r2,r2,r3
    5060:	11000017 	ldw	r4,0(r2)
    5064:	2000683a 	jmp	r4
    5068:	000051fc 	xorhi	zero,zero,327
    506c:	00004fd8 	cmpnei	zero,zero,319
    5070:	000051fc 	xorhi	zero,zero,327
    5074:	00004fd8 	cmpnei	zero,zero,319
    5078:	00004fd8 	cmpnei	zero,zero,319
    507c:	00005240 	call	524 <cmd_help+0x128>
    5080:	0000533c 	xorhi	zero,zero,332
    5084:	0000533c 	xorhi	zero,zero,332
    5088:	0000533c 	xorhi	zero,zero,332
    508c:	0000533c 	xorhi	zero,zero,332
    5090:	0000533c 	xorhi	zero,zero,332
    5094:	0000533c 	xorhi	zero,zero,332
    5098:	0000533c 	xorhi	zero,zero,332
    509c:	00005364 	muli	zero,zero,333
    50a0:	00005364 	muli	zero,zero,333
    50a4:	00004fd8 	cmpnei	zero,zero,319
    50a8:	00004fd8 	cmpnei	zero,zero,319
    50ac:	00004fd8 	cmpnei	zero,zero,319
    50b0:	00004fd8 	cmpnei	zero,zero,319
    50b4:	00004fd8 	cmpnei	zero,zero,319
    50b8:	00004fd8 	cmpnei	zero,zero,319
    50bc:	00004fd8 	cmpnei	zero,zero,319
    50c0:	00005394 	movui	zero,334
    50c4:	00005394 	movui	zero,334
    50c8:	00005394 	movui	zero,334
    50cc:	00005394 	movui	zero,334
    50d0:	00005394 	movui	zero,334
    50d4:	00005394 	movui	zero,334
    50d8:	00004fd8 	cmpnei	zero,zero,319
    50dc:	00004fd8 	cmpnei	zero,zero,319
    50e0:	00004fd8 	cmpnei	zero,zero,319
    50e4:	00004fd8 	cmpnei	zero,zero,319
    50e8:	00004fd8 	cmpnei	zero,zero,319
    50ec:	00004fd8 	cmpnei	zero,zero,319
    50f0:	00004fd8 	cmpnei	zero,zero,319
    50f4:	00004fd8 	cmpnei	zero,zero,319
    50f8:	00004fd8 	cmpnei	zero,zero,319
    50fc:	00004fd8 	cmpnei	zero,zero,319
    5100:	00004fd8 	cmpnei	zero,zero,319
    5104:	00004fd8 	cmpnei	zero,zero,319
    5108:	00004fd8 	cmpnei	zero,zero,319
    510c:	00004fd8 	cmpnei	zero,zero,319
    5110:	00004fd8 	cmpnei	zero,zero,319
    5114:	00004fd8 	cmpnei	zero,zero,319
    5118:	00004fd8 	cmpnei	zero,zero,319
    511c:	000053a4 	muli	zero,zero,334
    5120:	00004fd8 	cmpnei	zero,zero,319
    5124:	00004fd8 	cmpnei	zero,zero,319
    5128:	00004fd8 	cmpnei	zero,zero,319
    512c:	00004fd8 	cmpnei	zero,zero,319
    5130:	00004fd8 	cmpnei	zero,zero,319
    5134:	00004fd8 	cmpnei	zero,zero,319
    5138:	00004fd8 	cmpnei	zero,zero,319
    513c:	00004fd8 	cmpnei	zero,zero,319
    5140:	00005394 	movui	zero,334
    5144:	00005394 	movui	zero,334
    5148:	00005394 	movui	zero,334
    514c:	00005394 	movui	zero,334
    5150:	00005394 	movui	zero,334
    5154:	00005394 	movui	zero,334
    5158:	00004fd8 	cmpnei	zero,zero,319
    515c:	00004fd8 	cmpnei	zero,zero,319
    5160:	00004fd8 	cmpnei	zero,zero,319
    5164:	00004fd8 	cmpnei	zero,zero,319
    5168:	00004fd8 	cmpnei	zero,zero,319
    516c:	00004fd8 	cmpnei	zero,zero,319
    5170:	00004fd8 	cmpnei	zero,zero,319
    5174:	00004fd8 	cmpnei	zero,zero,319
    5178:	00004fd8 	cmpnei	zero,zero,319
    517c:	00004fd8 	cmpnei	zero,zero,319
    5180:	00004fd8 	cmpnei	zero,zero,319
    5184:	00004fd8 	cmpnei	zero,zero,319
    5188:	00004fd8 	cmpnei	zero,zero,319
    518c:	00004fd8 	cmpnei	zero,zero,319
    5190:	00004fd8 	cmpnei	zero,zero,319
    5194:	00004fd8 	cmpnei	zero,zero,319
    5198:	00004fd8 	cmpnei	zero,zero,319
    519c:	000053a4 	muli	zero,zero,334
    51a0:	000d883a 	mov	r6,zero
    51a4:	003d9006 	br	47e8 <__svfscanf_r+0x730>
    51a8:	98000005 	stb	zero,0(r19)
    51ac:	d8c0a017 	ldw	r3,640(sp)
    51b0:	d940a617 	ldw	r5,664(sp)
    51b4:	d9c0a117 	ldw	r7,644(sp)
    51b8:	b009883a 	mov	r4,r22
    51bc:	000d883a 	mov	r6,zero
    51c0:	183ee83a 	callr	r3
    51c4:	1007883a 	mov	r3,r2
    51c8:	9080080c 	andi	r2,r18,32
    51cc:	10004d1e 	bne	r2,zero,5304 <__svfscanf_r+0x124c>
    51d0:	9080010c 	andi	r2,r18,4
    51d4:	10003426 	beq	r2,zero,52a8 <__svfscanf_r+0x11f0>
    51d8:	d900a417 	ldw	r4,656(sp)
    51dc:	20800017 	ldw	r2,0(r4)
    51e0:	21000104 	addi	r4,r4,4
    51e4:	d900a415 	stw	r4,656(sp)
    51e8:	10c0000d 	sth	r3,0(r2)
    51ec:	d880a217 	ldw	r2,648(sp)
    51f0:	10800044 	addi	r2,r2,1
    51f4:	d880a215 	stw	r2,648(sp)
    51f8:	003f8406 	br	500c <__svfscanf_r+0xf54>
    51fc:	9080200c 	andi	r2,r18,128
    5200:	103f7526 	beq	r2,zero,4fd8 <__svfscanf_r+0xf20>
    5204:	00bfdfc4 	movi	r2,-129
    5208:	90a4703a 	and	r18,r18,r2
    520c:	99400005 	stb	r5,0(r19)
    5210:	9cc00044 	addi	r19,r19,1
    5214:	80c00117 	ldw	r3,4(r16)
    5218:	18ffffc4 	addi	r3,r3,-1
    521c:	80c00115 	stw	r3,4(r16)
    5220:	00c0130e 	bge	zero,r3,5270 <__svfscanf_r+0x11b8>
    5224:	31800044 	addi	r6,r6,1
    5228:	81800015 	stw	r6,0(r16)
    522c:	d880a317 	ldw	r2,652(sp)
    5230:	10bfffc4 	addi	r2,r2,-1
    5234:	d880a315 	stw	r2,652(sp)
    5238:	103f7e1e 	bne	r2,zero,5034 <__svfscanf_r+0xf7c>
    523c:	003f6606 	br	4fd8 <__svfscanf_r+0xf20>
    5240:	9082000c 	andi	r2,r18,2048
    5244:	103ff126 	beq	r2,zero,520c <__svfscanf_r+0x1154>
    5248:	d8c0a117 	ldw	r3,644(sp)
    524c:	1800031e 	bne	r3,zero,525c <__svfscanf_r+0x11a4>
    5250:	01000204 	movi	r4,8
    5254:	94808014 	ori	r18,r18,512
    5258:	d900a115 	stw	r4,644(sp)
    525c:	9081000c 	andi	r2,r18,1024
    5260:	10000826 	beq	r2,zero,5284 <__svfscanf_r+0x11cc>
    5264:	00be9fc4 	movi	r2,-1409
    5268:	90a4703a 	and	r18,r18,r2
    526c:	003fe706 	br	520c <__svfscanf_r+0x1154>
    5270:	b009883a 	mov	r4,r22
    5274:	800b883a 	mov	r5,r16
    5278:	00018e00 	call	18e0 <__srefill_r>
    527c:	103feb26 	beq	r2,zero,522c <__svfscanf_r+0x1174>
    5280:	003f5506 	br	4fd8 <__svfscanf_r+0xf20>
    5284:	a8000426 	beq	r21,zero,5298 <__svfscanf_r+0x11e0>
    5288:	d880a317 	ldw	r2,652(sp)
    528c:	ad7fffc4 	addi	r21,r21,-1
    5290:	10800044 	addi	r2,r2,1
    5294:	d880a315 	stw	r2,652(sp)
    5298:	00bf1fc4 	movi	r2,-897
    529c:	90a4703a 	and	r18,r18,r2
    52a0:	bdc00044 	addi	r23,r23,1
    52a4:	003fdb06 	br	5214 <__svfscanf_r+0x115c>
    52a8:	9080004c 	andi	r2,r18,1
    52ac:	1005003a 	cmpeq	r2,r2,zero
    52b0:	10001426 	beq	r2,zero,5304 <__svfscanf_r+0x124c>
    52b4:	9080008c 	andi	r2,r18,2
    52b8:	10001226 	beq	r2,zero,5304 <__svfscanf_r+0x124c>
    52bc:	d8c0a017 	ldw	r3,640(sp)
    52c0:	00800074 	movhi	r2,1
    52c4:	10ae3d04 	addi	r2,r2,-18188
    52c8:	18801426 	beq	r3,r2,531c <__svfscanf_r+0x1264>
    52cc:	d9c0a117 	ldw	r7,644(sp)
    52d0:	d940a617 	ldw	r5,664(sp)
    52d4:	000d883a 	mov	r6,zero
    52d8:	b009883a 	mov	r4,r22
    52dc:	000b5dc0 	call	b5dc <_strtoll_r>
    52e0:	100d883a 	mov	r6,r2
    52e4:	180f883a 	mov	r7,r3
    52e8:	d900a417 	ldw	r4,656(sp)
    52ec:	20800017 	ldw	r2,0(r4)
    52f0:	21000104 	addi	r4,r4,4
    52f4:	d900a415 	stw	r4,656(sp)
    52f8:	11c00115 	stw	r7,4(r2)
    52fc:	11800015 	stw	r6,0(r2)
    5300:	003fba06 	br	51ec <__svfscanf_r+0x1134>
    5304:	d900a417 	ldw	r4,656(sp)
    5308:	20800017 	ldw	r2,0(r4)
    530c:	21000104 	addi	r4,r4,4
    5310:	d900a415 	stw	r4,656(sp)
    5314:	10c00015 	stw	r3,0(r2)
    5318:	003fb406 	br	51ec <__svfscanf_r+0x1134>
    531c:	d9c0a117 	ldw	r7,644(sp)
    5320:	d940a617 	ldw	r5,664(sp)
    5324:	000d883a 	mov	r6,zero
    5328:	b009883a 	mov	r4,r22
    532c:	000bb480 	call	bb48 <_strtoull_r>
    5330:	100d883a 	mov	r6,r2
    5334:	180f883a 	mov	r7,r3
    5338:	003feb06 	br	52e8 <__svfscanf_r+0x1230>
    533c:	d8c0a117 	ldw	r3,644(sp)
    5340:	18c5883a 	add	r2,r3,r3
    5344:	00c00074 	movhi	r3,1
    5348:	18c95384 	addi	r3,r3,9550
    534c:	10c5883a 	add	r2,r2,r3
    5350:	1080000f 	ldh	r2,0(r2)
    5354:	00fd1fc4 	movi	r3,-2945
    5358:	90e4703a 	and	r18,r18,r3
    535c:	d880a115 	stw	r2,644(sp)
    5360:	003faa06 	br	520c <__svfscanf_r+0x1154>
    5364:	d900a117 	ldw	r4,644(sp)
    5368:	00c00074 	movhi	r3,1
    536c:	18c95384 	addi	r3,r3,9550
    5370:	2105883a 	add	r2,r4,r4
    5374:	10c5883a 	add	r2,r2,r3
    5378:	1080000f 	ldh	r2,0(r2)
    537c:	00c00204 	movi	r3,8
    5380:	d880a115 	stw	r2,644(sp)
    5384:	18bf140e 	bge	r3,r2,4fd8 <__svfscanf_r+0xf20>
    5388:	00bd1fc4 	movi	r2,-2945
    538c:	90a4703a 	and	r18,r18,r2
    5390:	003f9e06 	br	520c <__svfscanf_r+0x1154>
    5394:	d8c0a117 	ldw	r3,644(sp)
    5398:	00800284 	movi	r2,10
    539c:	10fffa16 	blt	r2,r3,5388 <__svfscanf_r+0x12d0>
    53a0:	003f0d06 	br	4fd8 <__svfscanf_r+0xf20>
    53a4:	90c1800c 	andi	r3,r18,1536
    53a8:	00808004 	movi	r2,512
    53ac:	18bf0a1e 	bne	r3,r2,4fd8 <__svfscanf_r+0xf20>
    53b0:	00bf7fc4 	movi	r2,-513
    53b4:	9084703a 	and	r2,r18,r2
    53b8:	01000404 	movi	r4,16
    53bc:	14814014 	ori	r18,r2,1280
    53c0:	d900a115 	stw	r4,644(sp)
    53c4:	003f9106 	br	520c <__svfscanf_r+0x1154>
    53c8:	d880a417 	ldw	r2,656(sp)
    53cc:	dd400404 	addi	r21,sp,16
    53d0:	14800017 	ldw	r18,0(r2)
    53d4:	9027883a 	mov	r19,r18
    53d8:	81000017 	ldw	r4,0(r16)
    53dc:	20800003 	ldbu	r2,0(r4)
    53e0:	a885883a 	add	r2,r21,r2
    53e4:	10c00007 	ldb	r3,0(r2)
    53e8:	18001426 	beq	r3,zero,543c <__svfscanf_r+0x1384>
    53ec:	d8c0a317 	ldw	r3,652(sp)
    53f0:	80800117 	ldw	r2,4(r16)
    53f4:	21800044 	addi	r6,r4,1
    53f8:	18ffffc4 	addi	r3,r3,-1
    53fc:	d8c0a315 	stw	r3,652(sp)
    5400:	10ffffc4 	addi	r3,r2,-1
    5404:	80c00115 	stw	r3,4(r16)
    5408:	20800003 	ldbu	r2,0(r4)
    540c:	90800005 	stb	r2,0(r18)
    5410:	d900a317 	ldw	r4,652(sp)
    5414:	81800015 	stw	r6,0(r16)
    5418:	94800044 	addi	r18,r18,1
    541c:	20000726 	beq	r4,zero,543c <__svfscanf_r+0x1384>
    5420:	80800117 	ldw	r2,4(r16)
    5424:	00bfec16 	blt	zero,r2,53d8 <__svfscanf_r+0x1320>
    5428:	b009883a 	mov	r4,r22
    542c:	800b883a 	mov	r5,r16
    5430:	00018e00 	call	18e0 <__srefill_r>
    5434:	103fe826 	beq	r2,zero,53d8 <__svfscanf_r+0x1320>
    5438:	9cbb7426 	beq	r19,r18,420c <__svfscanf_r+0x154>
    543c:	94e7c83a 	sub	r19,r18,r19
    5440:	983b5226 	beq	r19,zero,418c <__svfscanf_r+0xd4>
    5444:	90000005 	stb	zero,0(r18)
    5448:	d880a417 	ldw	r2,656(sp)
    544c:	d8c0a217 	ldw	r3,648(sp)
    5450:	8ce3883a 	add	r17,r17,r19
    5454:	10800104 	addi	r2,r2,4
    5458:	18c00044 	addi	r3,r3,1
    545c:	d880a415 	stw	r2,656(sp)
    5460:	d8c0a215 	stw	r3,648(sp)
    5464:	003b2706 	br	4104 <__svfscanf_r+0x4c>
    5468:	9cc00414 	ori	r19,r19,16
    546c:	003b6e06 	br	4228 <__svfscanf_r+0x170>
    5470:	00c00404 	movi	r3,16
    5474:	01000074 	movhi	r4,1
    5478:	212e3d04 	addi	r4,r4,-18188
    547c:	9cc08014 	ori	r19,r19,512
    5480:	054000c4 	movi	r21,3
    5484:	d8c0a115 	stw	r3,644(sp)
    5488:	d900a015 	stw	r4,640(sp)
    548c:	003bf806 	br	4470 <__svfscanf_r+0x3b8>
    5490:	9880040c 	andi	r2,r19,16
    5494:	10001926 	beq	r2,zero,54fc <__svfscanf_r+0x1444>
    5498:	0027883a 	mov	r19,zero
    549c:	00000b06 	br	54cc <__svfscanf_r+0x1414>
    54a0:	80800017 	ldw	r2,0(r16)
    54a4:	b009883a 	mov	r4,r22
    54a8:	800b883a 	mov	r5,r16
    54ac:	148d883a 	add	r6,r2,r18
    54b0:	81800015 	stw	r6,0(r16)
    54b4:	9ca7883a 	add	r19,r19,r18
    54b8:	00018e00 	call	18e0 <__srefill_r>
    54bc:	103c711e 	bne	r2,zero,4684 <__svfscanf_r+0x5cc>
    54c0:	d900a317 	ldw	r4,652(sp)
    54c4:	2489c83a 	sub	r4,r4,r18
    54c8:	d900a315 	stw	r4,652(sp)
    54cc:	84800117 	ldw	r18,4(r16)
    54d0:	d8c0a317 	ldw	r3,652(sp)
    54d4:	90fff216 	blt	r18,r3,54a0 <__svfscanf_r+0x13e8>
    54d8:	d900a317 	ldw	r4,652(sp)
    54dc:	80800017 	ldw	r2,0(r16)
    54e0:	9927883a 	add	r19,r19,r4
    54e4:	9107c83a 	sub	r3,r18,r4
    54e8:	110d883a 	add	r6,r2,r4
    54ec:	8ce3883a 	add	r17,r17,r19
    54f0:	80c00115 	stw	r3,4(r16)
    54f4:	81800015 	stw	r6,0(r16)
    54f8:	003b0206 	br	4104 <__svfscanf_r+0x4c>
    54fc:	d880a417 	ldw	r2,656(sp)
    5500:	d980a317 	ldw	r6,652(sp)
    5504:	01400044 	movi	r5,1
    5508:	11000017 	ldw	r4,0(r2)
    550c:	800f883a 	mov	r7,r16
    5510:	00077780 	call	7778 <fread>
    5514:	103b3d26 	beq	r2,zero,420c <__svfscanf_r+0x154>
    5518:	d8c0a417 	ldw	r3,656(sp)
    551c:	d900a217 	ldw	r4,648(sp)
    5520:	88a3883a 	add	r17,r17,r2
    5524:	18c00104 	addi	r3,r3,4
    5528:	21000044 	addi	r4,r4,1
    552c:	d8c0a415 	stw	r3,656(sp)
    5530:	d900a215 	stw	r4,648(sp)
    5534:	003af306 	br	4104 <__svfscanf_r+0x4c>
    5538:	8080030b 	ldhu	r2,12(r16)
    553c:	1080100c 	andi	r2,r2,64
    5540:	103b1226 	beq	r2,zero,418c <__svfscanf_r+0xd4>
    5544:	003b3306 	br	4214 <__svfscanf_r+0x15c>
    5548:	983b1026 	beq	r19,zero,418c <__svfscanf_r+0xd4>
    554c:	8ce3883a 	add	r17,r17,r19
    5550:	003aec06 	br	4104 <__svfscanf_r+0x4c>
    5554:	983c9626 	beq	r19,zero,47b0 <__svfscanf_r+0x6f8>
    5558:	9cffffc4 	addi	r19,r19,-1
    555c:	d8c04404 	addi	r3,sp,272
    5560:	1cc5883a 	add	r2,r3,r19
    5564:	11400003 	ldbu	r5,0(r2)
    5568:	b009883a 	mov	r4,r22
    556c:	800d883a 	mov	r6,r16
    5570:	000bf140 	call	bf14 <_ungetc_r>
    5574:	003ff706 	br	5554 <__svfscanf_r+0x149c>
    5578:	00bfff84 	movi	r2,-2
    557c:	18bc7a1e 	bne	r3,r2,4768 <__svfscanf_r+0x6b0>
    5580:	003c8406 	br	4794 <__svfscanf_r+0x6dc>
    5584:	d900a417 	ldw	r4,656(sp)
    5588:	25400017 	ldw	r21,0(r4)
    558c:	21000104 	addi	r4,r4,4
    5590:	d900a415 	stw	r4,656(sp)
    5594:	003c4a06 	br	46c0 <__svfscanf_r+0x608>
    5598:	00bfff84 	movi	r2,-2
    559c:	18bc0f1e 	bne	r3,r2,45dc <__svfscanf_r+0x524>
    55a0:	003c1506 	br	45f8 <__svfscanf_r+0x540>
    55a4:	b009883a 	mov	r4,r22
    55a8:	800b883a 	mov	r5,r16
    55ac:	00018e00 	call	18e0 <__srefill_r>
    55b0:	103c1326 	beq	r2,zero,4600 <__svfscanf_r+0x548>
    55b4:	903b151e 	bne	r18,zero,420c <__svfscanf_r+0x154>
    55b8:	a83ad21e 	bne	r21,zero,4104 <__svfscanf_r+0x4c>
    55bc:	d880a217 	ldw	r2,648(sp)
    55c0:	10800044 	addi	r2,r2,1
    55c4:	d880a215 	stw	r2,648(sp)
    55c8:	003ace06 	br	4104 <__svfscanf_r+0x4c>
    55cc:	0027883a 	mov	r19,zero
    55d0:	003bdd06 	br	4548 <__svfscanf_r+0x490>
    55d4:	9cc00114 	ori	r19,r19,4
    55d8:	003b1306 	br	4228 <__svfscanf_r+0x170>
    55dc:	05400104 	movi	r21,4
    55e0:	003ba306 	br	4470 <__svfscanf_r+0x3b8>
    55e4:	9cc00054 	ori	r19,r19,1
    55e8:	00800074 	movhi	r2,1
