ARM GAS  C:\Users\HENRIC~1\AppData\Local\Temp\ccev6Gq5.s 			page 1


   1              		.syntax unified
   2              		.cpu cortex-m3
   3              		.fpu softvfp
   4              		.eabi_attribute 20, 1
   5              		.eabi_attribute 21, 1
   6              		.eabi_attribute 23, 3
   7              		.eabi_attribute 24, 1
   8              		.eabi_attribute 25, 1
   9              		.eabi_attribute 26, 1
  10              		.eabi_attribute 30, 1
  11              		.eabi_attribute 34, 1
  12              		.eabi_attribute 18, 4
  13              		.thumb
  14              		.syntax unified
  15              		.file	"cyfitter_cfg.c"
  16              		.text
  17              	.Ltext0:
  18              		.cfi_sections	.debug_frame
  19              		.section	.text.CyClockStartupError,"ax",%progbits
  20              		.align	2
  21              		.thumb
  22              		.thumb_func
  23              		.type	CyClockStartupError, %function
  24              	CyClockStartupError:
  25              	.LFB3:
  26              		.file 1 "Generated_Source\\PSoC5\\cyfitter_cfg.c"
   1:Generated_Source\PSoC5/cyfitter_cfg.c **** 
   2:Generated_Source\PSoC5/cyfitter_cfg.c **** /*******************************************************************************
   3:Generated_Source\PSoC5/cyfitter_cfg.c **** * File Name: cyfitter_cfg.c
   4:Generated_Source\PSoC5/cyfitter_cfg.c **** * 
   5:Generated_Source\PSoC5/cyfitter_cfg.c **** * PSoC Creator  4.1 Update 1
   6:Generated_Source\PSoC5/cyfitter_cfg.c **** *
   7:Generated_Source\PSoC5/cyfitter_cfg.c **** * Description:
   8:Generated_Source\PSoC5/cyfitter_cfg.c **** * This file contains device initialization code.
   9:Generated_Source\PSoC5/cyfitter_cfg.c **** * Except for the user defined sections in CyClockStartupError(), this file should not be modified.
  10:Generated_Source\PSoC5/cyfitter_cfg.c **** * This file is automatically generated by PSoC Creator.
  11:Generated_Source\PSoC5/cyfitter_cfg.c **** *
  12:Generated_Source\PSoC5/cyfitter_cfg.c **** ********************************************************************************
  13:Generated_Source\PSoC5/cyfitter_cfg.c **** * Copyright (c) 2007-2017 Cypress Semiconductor.  All rights reserved.
  14:Generated_Source\PSoC5/cyfitter_cfg.c **** * You may use this file only in accordance with the license, terms, conditions, 
  15:Generated_Source\PSoC5/cyfitter_cfg.c **** * disclaimers, and limitations in the end user license agreement accompanying 
  16:Generated_Source\PSoC5/cyfitter_cfg.c **** * the software package with which this file was provided.
  17:Generated_Source\PSoC5/cyfitter_cfg.c **** ********************************************************************************/
  18:Generated_Source\PSoC5/cyfitter_cfg.c **** 
  19:Generated_Source\PSoC5/cyfitter_cfg.c **** #include <string.h>
  20:Generated_Source\PSoC5/cyfitter_cfg.c **** #include "cytypes.h"
  21:Generated_Source\PSoC5/cyfitter_cfg.c **** #include "cydevice_trm.h"
  22:Generated_Source\PSoC5/cyfitter_cfg.c **** #include "cyfitter.h"
  23:Generated_Source\PSoC5/cyfitter_cfg.c **** #include "CyLib.h"
  24:Generated_Source\PSoC5/cyfitter_cfg.c **** #include "cyfitter_cfg.h"
  25:Generated_Source\PSoC5/cyfitter_cfg.c **** #include "cyapicallbacks.h"
  26:Generated_Source\PSoC5/cyfitter_cfg.c **** 
  27:Generated_Source\PSoC5/cyfitter_cfg.c **** #define CY_NEED_CYCLOCKSTARTUPERROR 1
  28:Generated_Source\PSoC5/cyfitter_cfg.c **** 
  29:Generated_Source\PSoC5/cyfitter_cfg.c **** 
  30:Generated_Source\PSoC5/cyfitter_cfg.c **** #if defined(__GNUC__) || defined(__ARMCC_VERSION)
  31:Generated_Source\PSoC5/cyfitter_cfg.c ****     #define CYPACKED 
ARM GAS  C:\Users\HENRIC~1\AppData\Local\Temp\ccev6Gq5.s 			page 2


  32:Generated_Source\PSoC5/cyfitter_cfg.c ****     #define CYPACKED_ATTR __attribute__ ((packed))
  33:Generated_Source\PSoC5/cyfitter_cfg.c ****     #define CYALIGNED __attribute__ ((aligned))
  34:Generated_Source\PSoC5/cyfitter_cfg.c ****     #define CY_CFG_UNUSED __attribute__ ((unused))
  35:Generated_Source\PSoC5/cyfitter_cfg.c ****     #ifndef CY_CFG_SECTION
  36:Generated_Source\PSoC5/cyfitter_cfg.c ****         #define CY_CFG_SECTION __attribute__ ((section(".psocinit")))
  37:Generated_Source\PSoC5/cyfitter_cfg.c ****     #endif
  38:Generated_Source\PSoC5/cyfitter_cfg.c ****     
  39:Generated_Source\PSoC5/cyfitter_cfg.c ****     #if defined(__ARMCC_VERSION)
  40:Generated_Source\PSoC5/cyfitter_cfg.c ****         #define CY_CFG_MEMORY_BARRIER() __memory_changed()
  41:Generated_Source\PSoC5/cyfitter_cfg.c ****     #else
  42:Generated_Source\PSoC5/cyfitter_cfg.c ****         #define CY_CFG_MEMORY_BARRIER() __sync_synchronize()
  43:Generated_Source\PSoC5/cyfitter_cfg.c ****     #endif
  44:Generated_Source\PSoC5/cyfitter_cfg.c ****     
  45:Generated_Source\PSoC5/cyfitter_cfg.c **** #elif defined(__ICCARM__)
  46:Generated_Source\PSoC5/cyfitter_cfg.c ****     #include <intrinsics.h>
  47:Generated_Source\PSoC5/cyfitter_cfg.c **** 
  48:Generated_Source\PSoC5/cyfitter_cfg.c ****     #define CYPACKED __packed
  49:Generated_Source\PSoC5/cyfitter_cfg.c ****     #define CYPACKED_ATTR 
  50:Generated_Source\PSoC5/cyfitter_cfg.c ****     #define CYALIGNED _Pragma("data_alignment=4")
  51:Generated_Source\PSoC5/cyfitter_cfg.c ****     #define CY_CFG_UNUSED _Pragma("diag_suppress=Pe177")
  52:Generated_Source\PSoC5/cyfitter_cfg.c ****     #define CY_CFG_SECTION _Pragma("location=\".psocinit\"")
  53:Generated_Source\PSoC5/cyfitter_cfg.c ****     
  54:Generated_Source\PSoC5/cyfitter_cfg.c ****     #define CY_CFG_MEMORY_BARRIER() __DMB()
  55:Generated_Source\PSoC5/cyfitter_cfg.c ****     
  56:Generated_Source\PSoC5/cyfitter_cfg.c **** #else
  57:Generated_Source\PSoC5/cyfitter_cfg.c ****     #error Unsupported toolchain
  58:Generated_Source\PSoC5/cyfitter_cfg.c **** #endif
  59:Generated_Source\PSoC5/cyfitter_cfg.c **** 
  60:Generated_Source\PSoC5/cyfitter_cfg.c **** #ifndef CYCODE
  61:Generated_Source\PSoC5/cyfitter_cfg.c ****     #define CYCODE
  62:Generated_Source\PSoC5/cyfitter_cfg.c **** #endif
  63:Generated_Source\PSoC5/cyfitter_cfg.c **** #ifndef CYDATA
  64:Generated_Source\PSoC5/cyfitter_cfg.c ****     #define CYDATA
  65:Generated_Source\PSoC5/cyfitter_cfg.c **** #endif
  66:Generated_Source\PSoC5/cyfitter_cfg.c **** #ifndef CYFAR
  67:Generated_Source\PSoC5/cyfitter_cfg.c ****     #define CYFAR
  68:Generated_Source\PSoC5/cyfitter_cfg.c **** #endif
  69:Generated_Source\PSoC5/cyfitter_cfg.c **** #ifndef CYXDATA
  70:Generated_Source\PSoC5/cyfitter_cfg.c ****     #define CYXDATA
  71:Generated_Source\PSoC5/cyfitter_cfg.c **** #endif
  72:Generated_Source\PSoC5/cyfitter_cfg.c **** 
  73:Generated_Source\PSoC5/cyfitter_cfg.c **** 
  74:Generated_Source\PSoC5/cyfitter_cfg.c **** CY_CFG_UNUSED
  75:Generated_Source\PSoC5/cyfitter_cfg.c **** static void CYMEMZERO(void *s, size_t n);
  76:Generated_Source\PSoC5/cyfitter_cfg.c **** CY_CFG_UNUSED
  77:Generated_Source\PSoC5/cyfitter_cfg.c **** static void CYMEMZERO(void *s, size_t n)
  78:Generated_Source\PSoC5/cyfitter_cfg.c **** {
  79:Generated_Source\PSoC5/cyfitter_cfg.c **** 	(void)memset(s, 0, n);
  80:Generated_Source\PSoC5/cyfitter_cfg.c **** }
  81:Generated_Source\PSoC5/cyfitter_cfg.c **** CY_CFG_UNUSED
  82:Generated_Source\PSoC5/cyfitter_cfg.c **** static void CYCONFIGCPY(void *dest, const void *src, size_t n);
  83:Generated_Source\PSoC5/cyfitter_cfg.c **** CY_CFG_UNUSED
  84:Generated_Source\PSoC5/cyfitter_cfg.c **** static void CYCONFIGCPY(void *dest, const void *src, size_t n)
  85:Generated_Source\PSoC5/cyfitter_cfg.c **** {
  86:Generated_Source\PSoC5/cyfitter_cfg.c **** 	(void)memcpy(dest, src, n);
  87:Generated_Source\PSoC5/cyfitter_cfg.c **** }
  88:Generated_Source\PSoC5/cyfitter_cfg.c **** CY_CFG_UNUSED
ARM GAS  C:\Users\HENRIC~1\AppData\Local\Temp\ccev6Gq5.s 			page 3


  89:Generated_Source\PSoC5/cyfitter_cfg.c **** static void CYCONFIGCPYCODE(void *dest, const void *src, size_t n);
  90:Generated_Source\PSoC5/cyfitter_cfg.c **** CY_CFG_UNUSED
  91:Generated_Source\PSoC5/cyfitter_cfg.c **** static void CYCONFIGCPYCODE(void *dest, const void *src, size_t n)
  92:Generated_Source\PSoC5/cyfitter_cfg.c **** {
  93:Generated_Source\PSoC5/cyfitter_cfg.c **** 	(void)memcpy(dest, src, n);
  94:Generated_Source\PSoC5/cyfitter_cfg.c **** }
  95:Generated_Source\PSoC5/cyfitter_cfg.c **** 
  96:Generated_Source\PSoC5/cyfitter_cfg.c **** 
  97:Generated_Source\PSoC5/cyfitter_cfg.c **** 
  98:Generated_Source\PSoC5/cyfitter_cfg.c **** 
  99:Generated_Source\PSoC5/cyfitter_cfg.c **** /* Clock startup error codes                                                   */
 100:Generated_Source\PSoC5/cyfitter_cfg.c **** #define CYCLOCKSTART_NO_ERROR    0u
 101:Generated_Source\PSoC5/cyfitter_cfg.c **** #define CYCLOCKSTART_XTAL_ERROR  1u
 102:Generated_Source\PSoC5/cyfitter_cfg.c **** #define CYCLOCKSTART_32KHZ_ERROR 2u
 103:Generated_Source\PSoC5/cyfitter_cfg.c **** #define CYCLOCKSTART_PLL_ERROR   3u
 104:Generated_Source\PSoC5/cyfitter_cfg.c **** #define CYCLOCKSTART_FLL_ERROR   4u
 105:Generated_Source\PSoC5/cyfitter_cfg.c **** 
 106:Generated_Source\PSoC5/cyfitter_cfg.c **** 
 107:Generated_Source\PSoC5/cyfitter_cfg.c **** #ifdef CY_NEED_CYCLOCKSTARTUPERROR
 108:Generated_Source\PSoC5/cyfitter_cfg.c **** /*******************************************************************************
 109:Generated_Source\PSoC5/cyfitter_cfg.c **** * Function Name: CyClockStartupError
 110:Generated_Source\PSoC5/cyfitter_cfg.c **** ********************************************************************************
 111:Generated_Source\PSoC5/cyfitter_cfg.c **** * Summary:
 112:Generated_Source\PSoC5/cyfitter_cfg.c **** *  If an error is encountered during clock configuration (crystal startup error,
 113:Generated_Source\PSoC5/cyfitter_cfg.c **** *  PLL lock error, etc.), the system will end up here.  Unless reimplemented by
 114:Generated_Source\PSoC5/cyfitter_cfg.c **** *  the customer, this function will stop in an infinite loop.
 115:Generated_Source\PSoC5/cyfitter_cfg.c **** *
 116:Generated_Source\PSoC5/cyfitter_cfg.c **** * Parameters:
 117:Generated_Source\PSoC5/cyfitter_cfg.c **** *   void
 118:Generated_Source\PSoC5/cyfitter_cfg.c **** *
 119:Generated_Source\PSoC5/cyfitter_cfg.c **** * Return:
 120:Generated_Source\PSoC5/cyfitter_cfg.c **** *   void
 121:Generated_Source\PSoC5/cyfitter_cfg.c **** *
 122:Generated_Source\PSoC5/cyfitter_cfg.c **** *******************************************************************************/
 123:Generated_Source\PSoC5/cyfitter_cfg.c **** CY_CFG_UNUSED
 124:Generated_Source\PSoC5/cyfitter_cfg.c **** static void CyClockStartupError(uint8 errorCode);
 125:Generated_Source\PSoC5/cyfitter_cfg.c **** CY_CFG_UNUSED
 126:Generated_Source\PSoC5/cyfitter_cfg.c **** static void CyClockStartupError(uint8 errorCode)
 127:Generated_Source\PSoC5/cyfitter_cfg.c **** {
  27              		.loc 1 127 0
  28              		.cfi_startproc
  29              		@ Volatile: function does not return.
  30              		@ args = 0, pretend = 0, frame = 0
  31              		@ frame_needed = 0, uses_anonymous_args = 0
  32              		@ link register save eliminated.
  33              	.LVL0:
  34              	.L2:
  35 0000 FEE7     		b	.L2
  36              		.cfi_endproc
  37              	.LFE3:
  38              		.size	CyClockStartupError, .-CyClockStartupError
  39 0002 00BF     		.section	.text.cfg_write_bytes32,"ax",%progbits
  40              		.align	2
  41              		.thumb
  42              		.thumb_func
  43              		.type	cfg_write_bytes32, %function
  44              	cfg_write_bytes32:
ARM GAS  C:\Users\HENRIC~1\AppData\Local\Temp\ccev6Gq5.s 			page 4


  45              	.LFB4:
 128:Generated_Source\PSoC5/cyfitter_cfg.c ****     /* To remove the compiler warning if errorCode not used. */
 129:Generated_Source\PSoC5/cyfitter_cfg.c **** #if defined(CY_PSOC3) && (CY_PSOC3)
 130:Generated_Source\PSoC5/cyfitter_cfg.c ****     errorCode = errorCode;
 131:Generated_Source\PSoC5/cyfitter_cfg.c **** #else
 132:Generated_Source\PSoC5/cyfitter_cfg.c ****     (void)errorCode;
 133:Generated_Source\PSoC5/cyfitter_cfg.c **** #endif /* CY_PSOC3 */
 134:Generated_Source\PSoC5/cyfitter_cfg.c **** 
 135:Generated_Source\PSoC5/cyfitter_cfg.c ****     /* If we have a clock startup error (bad MHz crystal, PLL lock, etc.),  */
 136:Generated_Source\PSoC5/cyfitter_cfg.c ****     /* we will end up here to allow the customer to implement something to  */
 137:Generated_Source\PSoC5/cyfitter_cfg.c ****     /* deal with the clock condition.                                       */
 138:Generated_Source\PSoC5/cyfitter_cfg.c **** 
 139:Generated_Source\PSoC5/cyfitter_cfg.c **** #ifdef CY_CFG_CLOCK_STARTUP_ERROR_CALLBACK
 140:Generated_Source\PSoC5/cyfitter_cfg.c ****     CY_CFG_Clock_Startup_ErrorCallback();
 141:Generated_Source\PSoC5/cyfitter_cfg.c **** #else
 142:Generated_Source\PSoC5/cyfitter_cfg.c ****     /*  If not using CY_CFG_CLOCK_STARTUP_ERROR_CALLBACK, place your clock startup code here. */
 143:Generated_Source\PSoC5/cyfitter_cfg.c ****     /* `#START CyClockStartupError` */
 144:Generated_Source\PSoC5/cyfitter_cfg.c **** 
 145:Generated_Source\PSoC5/cyfitter_cfg.c **** 
 146:Generated_Source\PSoC5/cyfitter_cfg.c **** 
 147:Generated_Source\PSoC5/cyfitter_cfg.c ****     /* `#END` */
 148:Generated_Source\PSoC5/cyfitter_cfg.c **** 
 149:Generated_Source\PSoC5/cyfitter_cfg.c ****     while(1) {}
 150:Generated_Source\PSoC5/cyfitter_cfg.c **** #endif /* CY_CFG_CLOCK_STARTUP_ERROR_CALLBACK */
 151:Generated_Source\PSoC5/cyfitter_cfg.c **** }
 152:Generated_Source\PSoC5/cyfitter_cfg.c **** #endif
 153:Generated_Source\PSoC5/cyfitter_cfg.c **** 
 154:Generated_Source\PSoC5/cyfitter_cfg.c **** #define CY_CFG_BASE_ADDR_COUNT 39u
 155:Generated_Source\PSoC5/cyfitter_cfg.c **** CYPACKED typedef struct
 156:Generated_Source\PSoC5/cyfitter_cfg.c **** {
 157:Generated_Source\PSoC5/cyfitter_cfg.c **** 	uint8 offset;
 158:Generated_Source\PSoC5/cyfitter_cfg.c **** 	uint8 value;
 159:Generated_Source\PSoC5/cyfitter_cfg.c **** } CYPACKED_ATTR cy_cfg_addrvalue_t;
 160:Generated_Source\PSoC5/cyfitter_cfg.c **** 
 161:Generated_Source\PSoC5/cyfitter_cfg.c **** #define cy_cfg_addr_table ((const uint32 CYFAR *)0x48000000u)
 162:Generated_Source\PSoC5/cyfitter_cfg.c **** #define cy_cfg_data_table ((const cy_cfg_addrvalue_t CYFAR *)0x4800009Cu)
 163:Generated_Source\PSoC5/cyfitter_cfg.c **** 
 164:Generated_Source\PSoC5/cyfitter_cfg.c **** /* IOPINS0_0 Address: CYREG_PRT0_DM0 Size (bytes): 8 */
 165:Generated_Source\PSoC5/cyfitter_cfg.c **** #define BS_IOPINS0_0_VAL ((const uint8 CYFAR *)0x480008ECu)
 166:Generated_Source\PSoC5/cyfitter_cfg.c **** 
 167:Generated_Source\PSoC5/cyfitter_cfg.c **** /* IOPINS0_7 Address: CYREG_PRT12_DM0 Size (bytes): 8 */
 168:Generated_Source\PSoC5/cyfitter_cfg.c **** #define BS_IOPINS0_7_VAL ((const uint8 CYFAR *)0x480008F4u)
 169:Generated_Source\PSoC5/cyfitter_cfg.c **** 
 170:Generated_Source\PSoC5/cyfitter_cfg.c **** /* IOPINS0_8 Address: CYREG_PRT15_DR Size (bytes): 10 */
 171:Generated_Source\PSoC5/cyfitter_cfg.c **** #define BS_IOPINS0_8_VAL ((const uint8 CYFAR *)0x480008FCu)
 172:Generated_Source\PSoC5/cyfitter_cfg.c **** 
 173:Generated_Source\PSoC5/cyfitter_cfg.c **** /* IOPINS0_1 Address: CYREG_PRT1_DM0 Size (bytes): 8 */
 174:Generated_Source\PSoC5/cyfitter_cfg.c **** #define BS_IOPINS0_1_VAL ((const uint8 CYFAR *)0x48000908u)
 175:Generated_Source\PSoC5/cyfitter_cfg.c **** 
 176:Generated_Source\PSoC5/cyfitter_cfg.c **** /* IOPINS0_2 Address: CYREG_PRT2_DM0 Size (bytes): 8 */
 177:Generated_Source\PSoC5/cyfitter_cfg.c **** #define BS_IOPINS0_2_VAL ((const uint8 CYFAR *)0x48000910u)
 178:Generated_Source\PSoC5/cyfitter_cfg.c **** 
 179:Generated_Source\PSoC5/cyfitter_cfg.c **** /* IOPINS0_3 Address: CYREG_PRT3_DM0 Size (bytes): 8 */
 180:Generated_Source\PSoC5/cyfitter_cfg.c **** #define BS_IOPINS0_3_VAL ((const uint8 CYFAR *)0x48000918u)
 181:Generated_Source\PSoC5/cyfitter_cfg.c **** 
 182:Generated_Source\PSoC5/cyfitter_cfg.c **** /* IOPINS0_5 Address: CYREG_PRT5_DM0 Size (bytes): 8 */
 183:Generated_Source\PSoC5/cyfitter_cfg.c **** #define BS_IOPINS0_5_VAL ((const uint8 CYFAR *)0x48000920u)
ARM GAS  C:\Users\HENRIC~1\AppData\Local\Temp\ccev6Gq5.s 			page 5


 184:Generated_Source\PSoC5/cyfitter_cfg.c **** 
 185:Generated_Source\PSoC5/cyfitter_cfg.c **** /* IOPINS0_6 Address: CYREG_PRT6_DM0 Size (bytes): 8 */
 186:Generated_Source\PSoC5/cyfitter_cfg.c **** #define BS_IOPINS0_6_VAL ((const uint8 CYFAR *)0x48000928u)
 187:Generated_Source\PSoC5/cyfitter_cfg.c **** 
 188:Generated_Source\PSoC5/cyfitter_cfg.c **** 
 189:Generated_Source\PSoC5/cyfitter_cfg.c **** /*******************************************************************************
 190:Generated_Source\PSoC5/cyfitter_cfg.c **** * Function Name: cfg_write_bytes32
 191:Generated_Source\PSoC5/cyfitter_cfg.c **** ********************************************************************************
 192:Generated_Source\PSoC5/cyfitter_cfg.c **** * Summary:
 193:Generated_Source\PSoC5/cyfitter_cfg.c **** *  This function is used for setting up the chip configuration areas that
 194:Generated_Source\PSoC5/cyfitter_cfg.c **** *  contain relatively sparse data.
 195:Generated_Source\PSoC5/cyfitter_cfg.c **** *
 196:Generated_Source\PSoC5/cyfitter_cfg.c **** * Parameters:
 197:Generated_Source\PSoC5/cyfitter_cfg.c **** *   void
 198:Generated_Source\PSoC5/cyfitter_cfg.c **** *
 199:Generated_Source\PSoC5/cyfitter_cfg.c **** * Return:
 200:Generated_Source\PSoC5/cyfitter_cfg.c **** *   void
 201:Generated_Source\PSoC5/cyfitter_cfg.c **** *
 202:Generated_Source\PSoC5/cyfitter_cfg.c **** *******************************************************************************/
 203:Generated_Source\PSoC5/cyfitter_cfg.c **** static void cfg_write_bytes32(const uint32 addr_table[], const cy_cfg_addrvalue_t data_table[]);
 204:Generated_Source\PSoC5/cyfitter_cfg.c **** static void cfg_write_bytes32(const uint32 addr_table[], const cy_cfg_addrvalue_t data_table[])
 205:Generated_Source\PSoC5/cyfitter_cfg.c **** {
  46              		.loc 1 205 0
  47              		.cfi_startproc
  48              		@ args = 0, pretend = 0, frame = 0
  49              		@ frame_needed = 0, uses_anonymous_args = 0
  50              		@ link register save eliminated.
  51              	.LVL1:
  52              		.loc 1 205 0
  53 0000 F0B4     		push	{r4, r5, r6, r7}
  54              		.cfi_def_cfa_offset 16
  55              		.cfi_offset 4, -16
  56              		.cfi_offset 5, -12
  57              		.cfi_offset 6, -8
  58              		.cfi_offset 7, -4
  59              	.LVL2:
 206:Generated_Source\PSoC5/cyfitter_cfg.c **** 	/* For 32-bit little-endian architectures */
 207:Generated_Source\PSoC5/cyfitter_cfg.c **** 	uint32 i, j = 0u;
  60              		.loc 1 207 0
  61 0002 0022     		movs	r2, #0
 208:Generated_Source\PSoC5/cyfitter_cfg.c **** 	for (i = 0u; i < CY_CFG_BASE_ADDR_COUNT; i++)
  62              		.loc 1 208 0
  63 0004 1746     		mov	r7, r2
  64 0006 11E0     		b	.L4
  65              	.LVL3:
  66              	.L7:
  67              	.LBB2:
 209:Generated_Source\PSoC5/cyfitter_cfg.c **** 	{
 210:Generated_Source\PSoC5/cyfitter_cfg.c **** 		uint32 baseAddr = addr_table[i];
  68              		.loc 1 210 0
  69 0008 50F82760 		ldr	r6, [r0, r7, lsl #2]
  70              	.LVL4:
 211:Generated_Source\PSoC5/cyfitter_cfg.c **** 		uint8 count = (uint8)baseAddr;
  71              		.loc 1 211 0
  72 000c F3B2     		uxtb	r3, r6
  73              	.LVL5:
 212:Generated_Source\PSoC5/cyfitter_cfg.c **** 		baseAddr &= 0xFFFFFF00u;
ARM GAS  C:\Users\HENRIC~1\AppData\Local\Temp\ccev6Gq5.s 			page 6


  74              		.loc 1 212 0
  75 000e 26F0FF06 		bic	r6, r6, #255
  76              	.LVL6:
 213:Generated_Source\PSoC5/cyfitter_cfg.c **** 		while (count != 0u)
  77              		.loc 1 213 0
  78 0012 08E0     		b	.L5
  79              	.L6:
 214:Generated_Source\PSoC5/cyfitter_cfg.c **** 		{
 215:Generated_Source\PSoC5/cyfitter_cfg.c **** 			CY_SET_REG8((void *)(baseAddr + data_table[j].offset), data_table[j].value);
  80              		.loc 1 215 0
  81 0014 01EB4205 		add	r5, r1, r2, lsl #1
  82 0018 11F81240 		ldrb	r4, [r1, r2, lsl #1]	@ zero_extendqisi2
  83 001c 6D78     		ldrb	r5, [r5, #1]	@ zero_extendqisi2
  84 001e A555     		strb	r5, [r4, r6]
 216:Generated_Source\PSoC5/cyfitter_cfg.c **** 			j++;
  85              		.loc 1 216 0
  86 0020 0132     		adds	r2, r2, #1
  87              	.LVL7:
 217:Generated_Source\PSoC5/cyfitter_cfg.c **** 			count--;
  88              		.loc 1 217 0
  89 0022 013B     		subs	r3, r3, #1
  90              	.LVL8:
  91 0024 DBB2     		uxtb	r3, r3
  92              	.LVL9:
  93              	.L5:
 213:Generated_Source\PSoC5/cyfitter_cfg.c **** 		{
  94              		.loc 1 213 0
  95 0026 002B     		cmp	r3, #0
  96 0028 F4D1     		bne	.L6
  97              	.LBE2:
 208:Generated_Source\PSoC5/cyfitter_cfg.c **** 	{
  98              		.loc 1 208 0 discriminator 2
  99 002a 0137     		adds	r7, r7, #1
 100              	.LVL10:
 101              	.L4:
 208:Generated_Source\PSoC5/cyfitter_cfg.c **** 	{
 102              		.loc 1 208 0 is_stmt 0 discriminator 1
 103 002c 262F     		cmp	r7, #38
 104 002e EBD9     		bls	.L7
 218:Generated_Source\PSoC5/cyfitter_cfg.c **** 		}
 219:Generated_Source\PSoC5/cyfitter_cfg.c **** 	}
 220:Generated_Source\PSoC5/cyfitter_cfg.c **** }
 105              		.loc 1 220 0 is_stmt 1
 106 0030 F0BC     		pop	{r4, r5, r6, r7}
 107              		.cfi_restore 7
 108              		.cfi_restore 6
 109              		.cfi_restore 5
 110              		.cfi_restore 4
 111              		.cfi_def_cfa_offset 0
 112              	.LVL11:
 113 0032 7047     		bx	lr
 114              		.cfi_endproc
 115              	.LFE4:
 116              		.size	cfg_write_bytes32, .-cfg_write_bytes32
 117              		.section	.text.CYMEMZERO,"ax",%progbits
 118              		.align	2
 119              		.thumb
ARM GAS  C:\Users\HENRIC~1\AppData\Local\Temp\ccev6Gq5.s 			page 7


 120              		.thumb_func
 121              		.type	CYMEMZERO, %function
 122              	CYMEMZERO:
 123              	.LFB0:
  78:Generated_Source\PSoC5/cyfitter_cfg.c **** 	(void)memset(s, 0, n);
 124              		.loc 1 78 0
 125              		.cfi_startproc
 126              		@ args = 0, pretend = 0, frame = 0
 127              		@ frame_needed = 0, uses_anonymous_args = 0
 128              	.LVL12:
 129 0000 08B5     		push	{r3, lr}
 130              		.cfi_def_cfa_offset 8
 131              		.cfi_offset 3, -8
 132              		.cfi_offset 14, -4
  79:Generated_Source\PSoC5/cyfitter_cfg.c **** }
 133              		.loc 1 79 0
 134 0002 0A46     		mov	r2, r1
 135 0004 0021     		movs	r1, #0
 136              	.LVL13:
 137 0006 FFF7FEFF 		bl	memset
 138              	.LVL14:
 139 000a 08BD     		pop	{r3, pc}
 140              		.cfi_endproc
 141              	.LFE0:
 142              		.size	CYMEMZERO, .-CYMEMZERO
 143              		.section	.text.ClockSetup,"ax",%progbits
 144              		.align	2
 145              		.thumb
 146              		.thumb_func
 147              		.type	ClockSetup, %function
 148              	ClockSetup:
 149              	.LFB5:
 221:Generated_Source\PSoC5/cyfitter_cfg.c **** 
 222:Generated_Source\PSoC5/cyfitter_cfg.c **** /*******************************************************************************
 223:Generated_Source\PSoC5/cyfitter_cfg.c **** * Function Name: ClockSetup
 224:Generated_Source\PSoC5/cyfitter_cfg.c **** ********************************************************************************
 225:Generated_Source\PSoC5/cyfitter_cfg.c **** *
 226:Generated_Source\PSoC5/cyfitter_cfg.c **** * Summary:
 227:Generated_Source\PSoC5/cyfitter_cfg.c **** *  Performs the initialization of all of the clocks in the device based on the
 228:Generated_Source\PSoC5/cyfitter_cfg.c **** *  settings in the Clock tab of the DWR.  This includes enabling the requested
 229:Generated_Source\PSoC5/cyfitter_cfg.c **** *  clocks and setting the necessary dividers to produce the desired frequency. 
 230:Generated_Source\PSoC5/cyfitter_cfg.c **** *
 231:Generated_Source\PSoC5/cyfitter_cfg.c **** * Parameters:
 232:Generated_Source\PSoC5/cyfitter_cfg.c **** *  void
 233:Generated_Source\PSoC5/cyfitter_cfg.c **** *
 234:Generated_Source\PSoC5/cyfitter_cfg.c **** * Return:
 235:Generated_Source\PSoC5/cyfitter_cfg.c **** *  void
 236:Generated_Source\PSoC5/cyfitter_cfg.c **** *
 237:Generated_Source\PSoC5/cyfitter_cfg.c **** *******************************************************************************/
 238:Generated_Source\PSoC5/cyfitter_cfg.c **** static void ClockSetup(void);
 239:Generated_Source\PSoC5/cyfitter_cfg.c **** static void ClockSetup(void)
 240:Generated_Source\PSoC5/cyfitter_cfg.c **** {
 150              		.loc 1 240 0
 151              		.cfi_startproc
 152              		@ args = 0, pretend = 0, frame = 0
 153              		@ frame_needed = 0, uses_anonymous_args = 0
 154 0000 38B5     		push	{r3, r4, r5, lr}
ARM GAS  C:\Users\HENRIC~1\AppData\Local\Temp\ccev6Gq5.s 			page 8


 155              		.cfi_def_cfa_offset 16
 156              		.cfi_offset 3, -16
 157              		.cfi_offset 4, -12
 158              		.cfi_offset 5, -8
 159              		.cfi_offset 14, -4
 241:Generated_Source\PSoC5/cyfitter_cfg.c **** 	uint32 timeout;
 242:Generated_Source\PSoC5/cyfitter_cfg.c **** 	uint8 pllLock;
 243:Generated_Source\PSoC5/cyfitter_cfg.c **** 
 244:Generated_Source\PSoC5/cyfitter_cfg.c **** 
 245:Generated_Source\PSoC5/cyfitter_cfg.c **** 	/* Configure Digital Clocks based on settings from Clock DWR */
 246:Generated_Source\PSoC5/cyfitter_cfg.c **** 	CY_SET_XTND_REG16((void CYFAR *)(CYREG_CLKDIST_DCFG0_CFG0), 0x0001u);
 160              		.loc 1 246 0
 161 0002 0122     		movs	r2, #1
 162 0004 364B     		ldr	r3, .L17
 163 0006 1A80     		strh	r2, [r3]	@ movhi
 247:Generated_Source\PSoC5/cyfitter_cfg.c **** 	CY_SET_XTND_REG8((void CYFAR *)(CYREG_CLKDIST_DCFG0_CFG0 + 0x2u), 0x18u);
 164              		.loc 1 247 0
 165 0008 1823     		movs	r3, #24
 166 000a 364A     		ldr	r2, .L17+4
 167 000c 1370     		strb	r3, [r2]
 248:Generated_Source\PSoC5/cyfitter_cfg.c **** 	CY_SET_XTND_REG16((void CYFAR *)(CYREG_CLKDIST_DCFG1_CFG0), 0x000Eu);
 168              		.loc 1 248 0
 169 000e 0E21     		movs	r1, #14
 170 0010 0232     		adds	r2, r2, #2
 171 0012 1180     		strh	r1, [r2]	@ movhi
 249:Generated_Source\PSoC5/cyfitter_cfg.c **** 	CY_SET_XTND_REG8((void CYFAR *)(CYREG_CLKDIST_DCFG1_CFG0 + 0x2u), 0x18u);
 172              		.loc 1 249 0
 173 0014 0232     		adds	r2, r2, #2
 174 0016 1370     		strb	r3, [r2]
 250:Generated_Source\PSoC5/cyfitter_cfg.c **** 	CY_SET_XTND_REG16((void CYFAR *)(CYREG_CLKDIST_DCFG2_CFG0), 0x002Eu);
 175              		.loc 1 250 0
 176 0018 2E21     		movs	r1, #46
 177 001a 0232     		adds	r2, r2, #2
 178 001c 1180     		strh	r1, [r2]	@ movhi
 251:Generated_Source\PSoC5/cyfitter_cfg.c **** 	CY_SET_XTND_REG8((void CYFAR *)(CYREG_CLKDIST_DCFG2_CFG0 + 0x2u), 0x18u);
 179              		.loc 1 251 0
 180 001e 0232     		adds	r2, r2, #2
 181 0020 1370     		strb	r3, [r2]
 252:Generated_Source\PSoC5/cyfitter_cfg.c **** 	CY_SET_XTND_REG16((void CYFAR *)(CYREG_CLKDIST_DCFG3_CFG0), 0x0257u);
 182              		.loc 1 252 0
 183 0022 40F25721 		movw	r1, #599
 184 0026 0232     		adds	r2, r2, #2
 185 0028 1180     		strh	r1, [r2]	@ movhi
 253:Generated_Source\PSoC5/cyfitter_cfg.c **** 	CY_SET_XTND_REG8((void CYFAR *)(CYREG_CLKDIST_DCFG3_CFG0 + 0x2u), 0x18u);
 186              		.loc 1 253 0
 187 002a 0232     		adds	r2, r2, #2
 188 002c 1370     		strb	r3, [r2]
 254:Generated_Source\PSoC5/cyfitter_cfg.c **** 	CY_SET_XTND_REG16((void CYFAR *)(CYREG_CLKDIST_DCFG4_CFG0), 0x2EDFu);
 189              		.loc 1 254 0
 190 002e 42F6DF62 		movw	r2, #11999
 191 0032 2D49     		ldr	r1, .L17+8
 192 0034 0A80     		strh	r2, [r1]	@ movhi
 255:Generated_Source\PSoC5/cyfitter_cfg.c **** 	CY_SET_XTND_REG8((void CYFAR *)(CYREG_CLKDIST_DCFG4_CFG0 + 0x2u), 0x18u);
 193              		.loc 1 255 0
 194 0036 0231     		adds	r1, r1, #2
 195 0038 0B70     		strb	r3, [r1]
 256:Generated_Source\PSoC5/cyfitter_cfg.c **** 	CY_SET_XTND_REG16((void CYFAR *)(CYREG_CLKDIST_DCFG5_CFG0), 0x2EDFu);
ARM GAS  C:\Users\HENRIC~1\AppData\Local\Temp\ccev6Gq5.s 			page 9


 196              		.loc 1 256 0
 197 003a 0231     		adds	r1, r1, #2
 198 003c 0A80     		strh	r2, [r1]	@ movhi
 257:Generated_Source\PSoC5/cyfitter_cfg.c **** 	CY_SET_XTND_REG8((void CYFAR *)(CYREG_CLKDIST_DCFG5_CFG0 + 0x2u), 0x18u);
 199              		.loc 1 257 0
 200 003e 2B4A     		ldr	r2, .L17+12
 201 0040 1370     		strb	r3, [r2]
 258:Generated_Source\PSoC5/cyfitter_cfg.c **** 	CY_SET_XTND_REG16((void CYFAR *)(CYREG_CLKDIST_DCFG6_CFG0), 0x4E1Fu);
 202              		.loc 1 258 0
 203 0042 44F61F61 		movw	r1, #19999
 204 0046 0232     		adds	r2, r2, #2
 205 0048 1180     		strh	r1, [r2]	@ movhi
 259:Generated_Source\PSoC5/cyfitter_cfg.c **** 	CY_SET_XTND_REG8((void CYFAR *)(CYREG_CLKDIST_DCFG6_CFG0 + 0x2u), 0x18u);
 206              		.loc 1 259 0
 207 004a 0232     		adds	r2, r2, #2
 208 004c 1370     		strb	r3, [r2]
 260:Generated_Source\PSoC5/cyfitter_cfg.c **** 	CY_SET_XTND_REG16((void CYFAR *)(CYREG_CLKDIST_DCFG7_CFG0), 0xFFFFu);
 209              		.loc 1 260 0
 210 004e 4FF6FF71 		movw	r1, #65535
 211 0052 0232     		adds	r2, r2, #2
 212 0054 1180     		strh	r1, [r2]	@ movhi
 261:Generated_Source\PSoC5/cyfitter_cfg.c **** 	CY_SET_XTND_REG8((void CYFAR *)(CYREG_CLKDIST_DCFG7_CFG0 + 0x2u), 0x18u);
 213              		.loc 1 261 0
 214 0056 0232     		adds	r2, r2, #2
 215 0058 1370     		strb	r3, [r2]
 262:Generated_Source\PSoC5/cyfitter_cfg.c **** 
 263:Generated_Source\PSoC5/cyfitter_cfg.c **** 	/* Configure ILO based on settings from Clock DWR */
 264:Generated_Source\PSoC5/cyfitter_cfg.c **** 	CY_SET_XTND_REG8((void CYFAR *)(CYREG_SLOWCLK_ILO_CR0), 0x06u);
 216              		.loc 1 264 0
 217 005a 0622     		movs	r2, #6
 218 005c 244B     		ldr	r3, .L17+16
 219 005e 1A70     		strb	r2, [r3]
 265:Generated_Source\PSoC5/cyfitter_cfg.c **** 
 266:Generated_Source\PSoC5/cyfitter_cfg.c **** 	/* Configure IMO based on settings from Clock DWR */
 267:Generated_Source\PSoC5/cyfitter_cfg.c **** 	CY_SET_XTND_REG8((void CYFAR *)(CYREG_FASTCLK_IMO_CR), 0x52u);
 220              		.loc 1 267 0
 221 0060 5222     		movs	r2, #82
 222 0062 A3F58073 		sub	r3, r3, #256
 223 0066 1A70     		strb	r2, [r3]
 268:Generated_Source\PSoC5/cyfitter_cfg.c **** 	CY_SET_XTND_REG8((void CYFAR *)(CYREG_IMO_TR1), (CY_GET_XTND_REG8((void CYFAR *)CYREG_FLSHID_CUST_
 224              		.loc 1 268 0
 225 0068 224B     		ldr	r3, .L17+20
 226 006a 1B78     		ldrb	r3, [r3]	@ zero_extendqisi2
 227 006c DBB2     		uxtb	r3, r3
 228 006e 224A     		ldr	r2, .L17+24
 229 0070 1370     		strb	r3, [r2]
 269:Generated_Source\PSoC5/cyfitter_cfg.c **** 
 270:Generated_Source\PSoC5/cyfitter_cfg.c **** 	/* Configure PLL based on settings from Clock DWR */
 271:Generated_Source\PSoC5/cyfitter_cfg.c **** 	CY_SET_XTND_REG16((void CYFAR *)(CYREG_FASTCLK_PLL_P), 0x0708u);
 230              		.loc 1 271 0
 231 0072 4FF4E162 		mov	r2, #1800
 232 0076 214B     		ldr	r3, .L17+28
 233 0078 1A80     		strh	r2, [r3]	@ movhi
 272:Generated_Source\PSoC5/cyfitter_cfg.c **** 	CY_SET_XTND_REG16((void CYFAR *)(CYREG_FASTCLK_PLL_CFG0), 0x1251u);
 234              		.loc 1 272 0
 235 007a 41F25122 		movw	r2, #4689
 236 007e 023B     		subs	r3, r3, #2
ARM GAS  C:\Users\HENRIC~1\AppData\Local\Temp\ccev6Gq5.s 			page 10


 237 0080 1A80     		strh	r2, [r3]	@ movhi
 238              	.LVL15:
 273:Generated_Source\PSoC5/cyfitter_cfg.c **** 	/* Wait up to 250us for the PLL to lock */
 274:Generated_Source\PSoC5/cyfitter_cfg.c **** 	pllLock = 0u;
 239              		.loc 1 274 0
 240 0082 0024     		movs	r4, #0
 275:Generated_Source\PSoC5/cyfitter_cfg.c **** 	for (timeout = 250u / 10u; (timeout > 0u) && (pllLock != 0x03u); timeout--)
 241              		.loc 1 275 0
 242 0084 1925     		movs	r5, #25
 243 0086 0CE0     		b	.L12
 244              	.LVL16:
 245              	.L14:
 276:Generated_Source\PSoC5/cyfitter_cfg.c **** 	{ 
 277:Generated_Source\PSoC5/cyfitter_cfg.c **** 		pllLock = 0x03u & ((uint8)((uint8)pllLock << 1) | ((CY_GET_XTND_REG8((void CYFAR *)CYREG_FASTCLK_
 246              		.loc 1 277 0 discriminator 4
 247 0088 1D4B     		ldr	r3, .L17+32
 248 008a 1B78     		ldrb	r3, [r3]	@ zero_extendqisi2
 249 008c 03F00103 		and	r3, r3, #1
 250 0090 43EA4404 		orr	r4, r3, r4, lsl #1
 251              	.LVL17:
 252 0094 04F00304 		and	r4, r4, #3
 253              	.LVL18:
 278:Generated_Source\PSoC5/cyfitter_cfg.c **** 		CyDelayCycles(10u * 48u); /* Delay 10us based on 48MHz clock */
 254              		.loc 1 278 0 discriminator 4
 255 0098 4FF4F070 		mov	r0, #480
 256 009c FFF7FEFF 		bl	CyDelayCycles
 257              	.LVL19:
 275:Generated_Source\PSoC5/cyfitter_cfg.c **** 	for (timeout = 250u / 10u; (timeout > 0u) && (pllLock != 0x03u); timeout--)
 258              		.loc 1 275 0 discriminator 4
 259 00a0 013D     		subs	r5, r5, #1
 260              	.LVL20:
 261              	.L12:
 275:Generated_Source\PSoC5/cyfitter_cfg.c **** 	for (timeout = 250u / 10u; (timeout > 0u) && (pllLock != 0x03u); timeout--)
 262              		.loc 1 275 0 is_stmt 0 discriminator 1
 263 00a2 0DB1     		cbz	r5, .L13
 275:Generated_Source\PSoC5/cyfitter_cfg.c **** 	for (timeout = 250u / 10u; (timeout > 0u) && (pllLock != 0x03u); timeout--)
 264              		.loc 1 275 0 discriminator 3
 265 00a4 032C     		cmp	r4, #3
 266 00a6 EFD1     		bne	.L14
 267              	.L13:
 279:Generated_Source\PSoC5/cyfitter_cfg.c **** 	}
 280:Generated_Source\PSoC5/cyfitter_cfg.c **** 	/* If we ran out of time the PLL didn't lock so go to the error function */
 281:Generated_Source\PSoC5/cyfitter_cfg.c **** 	if (timeout == 0u)
 268              		.loc 1 281 0 is_stmt 1
 269 00a8 15B9     		cbnz	r5, .L15
 282:Generated_Source\PSoC5/cyfitter_cfg.c **** 	{
 283:Generated_Source\PSoC5/cyfitter_cfg.c **** 		CyClockStartupError(CYCLOCKSTART_PLL_ERROR);
 270              		.loc 1 283 0
 271 00aa 0320     		movs	r0, #3
 272 00ac FFF7FEFF 		bl	CyClockStartupError
 273              	.LVL21:
 274              	.L15:
 284:Generated_Source\PSoC5/cyfitter_cfg.c **** 	}
 285:Generated_Source\PSoC5/cyfitter_cfg.c **** 
 286:Generated_Source\PSoC5/cyfitter_cfg.c **** 	/* Configure Bus/Master Clock based on settings from Clock DWR */
 287:Generated_Source\PSoC5/cyfitter_cfg.c **** 	CY_SET_XTND_REG16((void CYFAR *)(CYREG_CLKDIST_MSTR0), 0x0100u);
 275              		.loc 1 287 0
ARM GAS  C:\Users\HENRIC~1\AppData\Local\Temp\ccev6Gq5.s 			page 11


 276 00b0 144A     		ldr	r2, .L17+36
 277 00b2 4FF48073 		mov	r3, #256
 278 00b6 1380     		strh	r3, [r2]	@ movhi
 288:Generated_Source\PSoC5/cyfitter_cfg.c **** 	CY_SET_XTND_REG8((void CYFAR *)(CYREG_CLKDIST_MSTR0), 0x07u);
 279              		.loc 1 288 0
 280 00b8 0723     		movs	r3, #7
 281 00ba 1370     		strb	r3, [r2]
 289:Generated_Source\PSoC5/cyfitter_cfg.c **** 	CY_SET_XTND_REG8((void CYFAR *)(CYREG_CLKDIST_BCFG0), 0x00u);
 282              		.loc 1 289 0
 283 00bc 0023     		movs	r3, #0
 284 00be 1249     		ldr	r1, .L17+40
 285 00c0 0B70     		strb	r3, [r1]
 290:Generated_Source\PSoC5/cyfitter_cfg.c **** 	CY_SET_XTND_REG8((void CYFAR *)(CYREG_CLKDIST_BCFG2), 0x48u);
 286              		.loc 1 290 0
 287 00c2 4820     		movs	r0, #72
 288 00c4 0231     		adds	r1, r1, #2
 289 00c6 0870     		strb	r0, [r1]
 291:Generated_Source\PSoC5/cyfitter_cfg.c **** 	CY_SET_XTND_REG8((void CYFAR *)(CYREG_CLKDIST_MSTR0), 0x00u);
 290              		.loc 1 291 0
 291 00c8 1370     		strb	r3, [r2]
 292:Generated_Source\PSoC5/cyfitter_cfg.c **** 
 293:Generated_Source\PSoC5/cyfitter_cfg.c **** 	/* Configure USB Clock based on settings from Clock DWR */
 294:Generated_Source\PSoC5/cyfitter_cfg.c **** 	CY_SET_XTND_REG8((void CYFAR *)(CYREG_CLKDIST_UCFG), 0x00u);
 292              		.loc 1 294 0
 293 00ca 0532     		adds	r2, r2, #5
 294 00cc 1370     		strb	r3, [r2]
 295:Generated_Source\PSoC5/cyfitter_cfg.c **** 	CY_SET_XTND_REG8((void CYFAR *)(CYREG_CLKDIST_LD), 0x02u);
 295              		.loc 1 295 0
 296 00ce 0222     		movs	r2, #2
 297 00d0 0E4B     		ldr	r3, .L17+44
 298 00d2 1A70     		strb	r2, [r3]
 296:Generated_Source\PSoC5/cyfitter_cfg.c **** 
 297:Generated_Source\PSoC5/cyfitter_cfg.c **** 	CY_SET_XTND_REG8((void CYFAR *)(CYREG_PM_ACT_CFG2), ((CY_GET_XTND_REG8((void CYFAR *)CYREG_PM_ACT_
 299              		.loc 1 297 0
 300 00d4 03F2A133 		addw	r3, r3, #929
 301 00d8 1A78     		ldrb	r2, [r3]	@ zero_extendqisi2
 302 00da FF22     		movs	r2, #255
 303 00dc 1A70     		strb	r2, [r3]
 304 00de 38BD     		pop	{r3, r4, r5, pc}
 305              	.LVL22:
 306              	.L18:
 307              		.align	2
 308              	.L17:
 309 00e0 80400040 		.word	1073758336
 310 00e4 82400040 		.word	1073758338
 311 00e8 90400040 		.word	1073758352
 312 00ec 96400040 		.word	1073758358
 313 00f0 00430040 		.word	1073758976
 314 00f4 0F010049 		.word	1224737039
 315 00f8 A1460040 		.word	1073759905
 316 00fc 22420040 		.word	1073758754
 317 0100 25420040 		.word	1073758757
 318 0104 04400040 		.word	1073758212
 319 0108 06400040 		.word	1073758214
 320 010c 01400040 		.word	1073758209
 321              		.cfi_endproc
 322              	.LFE5:
ARM GAS  C:\Users\HENRIC~1\AppData\Local\Temp\ccev6Gq5.s 			page 12


 323              		.size	ClockSetup, .-ClockSetup
 324              		.section	.text.AnalogSetDefault,"ax",%progbits
 325              		.align	2
 326              		.thumb
 327              		.thumb_func
 328              		.type	AnalogSetDefault, %function
 329              	AnalogSetDefault:
 330              	.LFB6:
 298:Generated_Source\PSoC5/cyfitter_cfg.c **** }
 299:Generated_Source\PSoC5/cyfitter_cfg.c **** 
 300:Generated_Source\PSoC5/cyfitter_cfg.c **** 
 301:Generated_Source\PSoC5/cyfitter_cfg.c **** /* Analog API Functions */
 302:Generated_Source\PSoC5/cyfitter_cfg.c **** 
 303:Generated_Source\PSoC5/cyfitter_cfg.c **** 
 304:Generated_Source\PSoC5/cyfitter_cfg.c **** /*******************************************************************************
 305:Generated_Source\PSoC5/cyfitter_cfg.c **** * Function Name: AnalogSetDefault
 306:Generated_Source\PSoC5/cyfitter_cfg.c **** ********************************************************************************
 307:Generated_Source\PSoC5/cyfitter_cfg.c **** *
 308:Generated_Source\PSoC5/cyfitter_cfg.c **** * Summary:
 309:Generated_Source\PSoC5/cyfitter_cfg.c **** *  Sets up the analog portions of the chip to default values based on chip
 310:Generated_Source\PSoC5/cyfitter_cfg.c **** *  configuration options from the project.
 311:Generated_Source\PSoC5/cyfitter_cfg.c **** *
 312:Generated_Source\PSoC5/cyfitter_cfg.c **** * Parameters:
 313:Generated_Source\PSoC5/cyfitter_cfg.c **** *  void
 314:Generated_Source\PSoC5/cyfitter_cfg.c **** *
 315:Generated_Source\PSoC5/cyfitter_cfg.c **** * Return:
 316:Generated_Source\PSoC5/cyfitter_cfg.c **** *  void
 317:Generated_Source\PSoC5/cyfitter_cfg.c **** *
 318:Generated_Source\PSoC5/cyfitter_cfg.c **** *******************************************************************************/
 319:Generated_Source\PSoC5/cyfitter_cfg.c **** static void AnalogSetDefault(void);
 320:Generated_Source\PSoC5/cyfitter_cfg.c **** static void AnalogSetDefault(void)
 321:Generated_Source\PSoC5/cyfitter_cfg.c **** {
 331              		.loc 1 321 0
 332              		.cfi_startproc
 333              		@ args = 0, pretend = 0, frame = 0
 334              		@ frame_needed = 0, uses_anonymous_args = 0
 335 0000 F8B5     		push	{r3, r4, r5, r6, r7, lr}
 336              		.cfi_def_cfa_offset 24
 337              		.cfi_offset 3, -24
 338              		.cfi_offset 4, -20
 339              		.cfi_offset 5, -16
 340              		.cfi_offset 6, -12
 341              		.cfi_offset 7, -8
 342              		.cfi_offset 14, -4
 322:Generated_Source\PSoC5/cyfitter_cfg.c **** 	uint8 bg_xover_inl_trim = CY_GET_XTND_REG8((void CYFAR *)(CYREG_FLSHID_MFG_CFG_BG_XOVER_INL_TRIM +
 343              		.loc 1 322 0
 344 0002 254B     		ldr	r3, .L21
 345 0004 1B78     		ldrb	r3, [r3]	@ zero_extendqisi2
 346 0006 DBB2     		uxtb	r3, r3
 347              	.LVL23:
 323:Generated_Source\PSoC5/cyfitter_cfg.c **** 	uint8 cr4 = CY_GET_XTND_REG8((void CYFAR *)(CYREG_RESET_CR4));
 348              		.loc 1 323 0
 349 0008 244E     		ldr	r6, .L21+4
 350 000a 3478     		ldrb	r4, [r6]	@ zero_extendqisi2
 351 000c E4B2     		uxtb	r4, r4
 352              	.LVL24:
 324:Generated_Source\PSoC5/cyfitter_cfg.c **** 	uint8 cr5 = CY_GET_XTND_REG8((void CYFAR *)(CYREG_RESET_CR5));
ARM GAS  C:\Users\HENRIC~1\AppData\Local\Temp\ccev6Gq5.s 			page 13


 353              		.loc 1 324 0
 354 000e 244F     		ldr	r7, .L21+8
 355 0010 3D78     		ldrb	r5, [r7]	@ zero_extendqisi2
 356 0012 EDB2     		uxtb	r5, r5
 357              	.LVL25:
 325:Generated_Source\PSoC5/cyfitter_cfg.c **** 	CY_SET_XTND_REG8((void CYFAR *)(CYREG_BG_DFT0), (bg_xover_inl_trim & 0x07u));
 358              		.loc 1 325 0
 359 0014 03F00701 		and	r1, r3, #7
 360 0018 224A     		ldr	r2, .L21+12
 361 001a 1170     		strb	r1, [r2]
 326:Generated_Source\PSoC5/cyfitter_cfg.c **** 	CY_SET_XTND_REG8((void CYFAR *)(CYREG_BG_DFT1), ((bg_xover_inl_trim >> 4) & 0x0Fu));
 362              		.loc 1 326 0
 363 001c 1B09     		lsrs	r3, r3, #4
 364              	.LVL26:
 365 001e 0132     		adds	r2, r2, #1
 366 0020 1370     		strb	r3, [r2]
 327:Generated_Source\PSoC5/cyfitter_cfg.c **** 	/* Disable PRES while setting up SAR voltage reference */
 328:Generated_Source\PSoC5/cyfitter_cfg.c **** 	CY_SET_XTND_REG8((void CYFAR *)(CYREG_RESET_CR4), (cr4 | 0x03u));
 367              		.loc 1 328 0
 368 0022 44F00303 		orr	r3, r4, #3
 369 0026 3370     		strb	r3, [r6]
 329:Generated_Source\PSoC5/cyfitter_cfg.c **** 	CY_SET_XTND_REG8((void CYFAR *)(CYREG_RESET_CR5), (cr5 | 0x03u));
 370              		.loc 1 329 0
 371 0028 45F00303 		orr	r3, r5, #3
 372 002c 3B70     		strb	r3, [r7]
 330:Generated_Source\PSoC5/cyfitter_cfg.c **** 	CY_SET_XTND_REG8((void CYFAR *)CYREG_PRT3_AG, 0xC0u);
 373              		.loc 1 330 0
 374 002e C022     		movs	r2, #192
 375 0030 1D4B     		ldr	r3, .L21+16
 376 0032 1A70     		strb	r2, [r3]
 331:Generated_Source\PSoC5/cyfitter_cfg.c **** 	CY_SET_XTND_REG8((void CYFAR *)CYREG_PRT6_AG, 0x10u);
 377              		.loc 1 331 0
 378 0034 1022     		movs	r2, #16
 379 0036 3033     		adds	r3, r3, #48
 380 0038 1A70     		strb	r2, [r3]
 332:Generated_Source\PSoC5/cyfitter_cfg.c **** 	CY_SET_XTND_REG8((void CYFAR *)CYREG_CAPSL_CFG0, 0x00u);
 381              		.loc 1 332 0
 382 003a 0022     		movs	r2, #0
 383 003c 03F20373 		addw	r3, r3, #1795
 384 0040 1A70     		strb	r2, [r3]
 333:Generated_Source\PSoC5/cyfitter_cfg.c **** 	CY_SET_XTND_REG8((void CYFAR *)CYREG_SAR1_CSR1, 0x40u);
 385              		.loc 1 333 0
 386 0042 4023     		movs	r3, #64
 387 0044 194A     		ldr	r2, .L21+20
 388 0046 1370     		strb	r3, [r2]
 334:Generated_Source\PSoC5/cyfitter_cfg.c **** 	CY_SET_XTND_REG8((void CYFAR *)CYREG_SAR1_CSR3, 0x40u);
 389              		.loc 1 334 0
 390 0048 0232     		adds	r2, r2, #2
 391 004a 1370     		strb	r3, [r2]
 335:Generated_Source\PSoC5/cyfitter_cfg.c **** 	CY_SET_XTND_REG8((void CYFAR *)CYREG_SC1_SW8, 0x80u);
 392              		.loc 1 335 0
 393 004c 8022     		movs	r2, #128
 394 004e 184B     		ldr	r3, .L21+24
 395 0050 1A70     		strb	r2, [r3]
 336:Generated_Source\PSoC5/cyfitter_cfg.c **** 	CY_SET_XTND_REG8((void CYFAR *)CYREG_DAC1_SW0, 0x02u);
 396              		.loc 1 336 0
 397 0052 0221     		movs	r1, #2
ARM GAS  C:\Users\HENRIC~1\AppData\Local\Temp\ccev6Gq5.s 			page 14


 398 0054 7033     		adds	r3, r3, #112
 399 0056 1970     		strb	r1, [r3]
 337:Generated_Source\PSoC5/cyfitter_cfg.c **** 	CY_SET_XTND_REG8((void CYFAR *)CYREG_DAC2_SW0, 0x20u);
 400              		.loc 1 337 0
 401 0058 2023     		movs	r3, #32
 402 005a 1648     		ldr	r0, .L21+28
 403 005c 0370     		strb	r3, [r0]
 338:Generated_Source\PSoC5/cyfitter_cfg.c **** 	CY_SET_XTND_REG8((void CYFAR *)CYREG_CMP1_SW3, 0x20u);
 404              		.loc 1 338 0
 405 005e 3B30     		adds	r0, r0, #59
 406 0060 0370     		strb	r3, [r0]
 339:Generated_Source\PSoC5/cyfitter_cfg.c **** 	CY_SET_XTND_REG8((void CYFAR *)CYREG_CMP3_SW0, 0x80u);
 407              		.loc 1 339 0
 408 0062 0D30     		adds	r0, r0, #13
 409 0064 0270     		strb	r2, [r0]
 340:Generated_Source\PSoC5/cyfitter_cfg.c **** 	CY_SET_XTND_REG8((void CYFAR *)CYREG_CMP3_SW4, 0x02u);
 410              		.loc 1 340 0
 411 0066 0430     		adds	r0, r0, #4
 412 0068 0170     		strb	r1, [r0]
 341:Generated_Source\PSoC5/cyfitter_cfg.c **** 	CY_SET_XTND_REG8((void CYFAR *)CYREG_DSM0_SW0, 0x60u);
 413              		.loc 1 341 0
 414 006a 6020     		movs	r0, #96
 415 006c 1249     		ldr	r1, .L21+32
 416 006e 0870     		strb	r0, [r1]
 342:Generated_Source\PSoC5/cyfitter_cfg.c **** 	CY_SET_XTND_REG8((void CYFAR *)CYREG_SAR1_SW0, 0x80u);
 417              		.loc 1 342 0
 418 0070 2831     		adds	r1, r1, #40
 419 0072 0A70     		strb	r2, [r1]
 343:Generated_Source\PSoC5/cyfitter_cfg.c **** 	CY_SET_XTND_REG8((void CYFAR *)CYREG_SAR1_SW3, 0x20u);
 420              		.loc 1 343 0
 421 0074 114A     		ldr	r2, .L21+36
 422 0076 1370     		strb	r3, [r2]
 344:Generated_Source\PSoC5/cyfitter_cfg.c **** 	CY_SET_XTND_REG8((void CYFAR *)CYREG_BUS_SW0, 0x50u);
 423              		.loc 1 344 0
 424 0078 5022     		movs	r2, #80
 425 007a 114B     		ldr	r3, .L21+40
 426 007c 1A70     		strb	r2, [r3]
 345:Generated_Source\PSoC5/cyfitter_cfg.c **** 	CY_SET_XTND_REG8((void CYFAR *)CYREG_BUS_SW3, 0x01u);
 427              		.loc 1 345 0
 428 007e 0122     		movs	r2, #1
 429 0080 0333     		adds	r3, r3, #3
 430 0082 1A70     		strb	r2, [r3]
 346:Generated_Source\PSoC5/cyfitter_cfg.c **** 	CyDelayUs(10u); /* Allow vref to settle before re-enabling PRES */
 431              		.loc 1 346 0
 432 0084 0A20     		movs	r0, #10
 433 0086 FFF7FEFF 		bl	CyDelayUs
 434              	.LVL27:
 347:Generated_Source\PSoC5/cyfitter_cfg.c **** 	CY_SET_XTND_REG8((void CYFAR *)(CYREG_RESET_CR5), (cr5));
 435              		.loc 1 347 0
 436 008a 3D70     		strb	r5, [r7]
 348:Generated_Source\PSoC5/cyfitter_cfg.c **** 	CY_SET_XTND_REG8((void CYFAR *)(CYREG_RESET_CR4), (cr4));
 437              		.loc 1 348 0
 438 008c 3470     		strb	r4, [r6]
 349:Generated_Source\PSoC5/cyfitter_cfg.c **** 	CY_SET_XTND_REG8((void CYFAR *)CYREG_PUMP_CR0, 0x44u);
 439              		.loc 1 349 0
 440 008e 4422     		movs	r2, #68
 441 0090 0C4B     		ldr	r3, .L21+44
ARM GAS  C:\Users\HENRIC~1\AppData\Local\Temp\ccev6Gq5.s 			page 15


 442 0092 1A70     		strb	r2, [r3]
 443 0094 F8BD     		pop	{r3, r4, r5, r6, r7, pc}
 444              	.LVL28:
 445              	.L22:
 446 0096 00BF     		.align	2
 447              	.L21:
 448 0098 CF010049 		.word	1224737231
 449 009c F8460040 		.word	1073759992
 450 00a0 F9460040 		.word	1073759993
 451 00a4 6E580040 		.word	1073764462
 452 00a8 3D510040 		.word	1073762621
 453 00ac 09590040 		.word	1073764617
 454 00b0 185A0040 		.word	1073764888
 455 00b4 905A0040 		.word	1073765008
 456 00b8 005B0040 		.word	1073765120
 457 00bc 2B5B0040 		.word	1073765163
 458 00c0 585B0040 		.word	1073765208
 459 00c4 76580040 		.word	1073764470
 460              		.cfi_endproc
 461              	.LFE6:
 462              		.size	AnalogSetDefault, .-AnalogSetDefault
 463              		.section	.text.CYCONFIGCPY,"ax",%progbits
 464              		.align	2
 465              		.thumb
 466              		.thumb_func
 467              		.type	CYCONFIGCPY, %function
 468              	CYCONFIGCPY:
 469              	.LFB1:
  85:Generated_Source\PSoC5/cyfitter_cfg.c **** 	(void)memcpy(dest, src, n);
 470              		.loc 1 85 0
 471              		.cfi_startproc
 472              		@ args = 0, pretend = 0, frame = 0
 473              		@ frame_needed = 0, uses_anonymous_args = 0
 474              	.LVL29:
 475 0000 08B5     		push	{r3, lr}
 476              		.cfi_def_cfa_offset 8
 477              		.cfi_offset 3, -8
 478              		.cfi_offset 14, -4
  86:Generated_Source\PSoC5/cyfitter_cfg.c **** }
 479              		.loc 1 86 0
 480 0002 FFF7FEFF 		bl	memcpy
 481              	.LVL30:
 482 0006 08BD     		pop	{r3, pc}
 483              		.cfi_endproc
 484              	.LFE1:
 485              		.size	CYCONFIGCPY, .-CYCONFIGCPY
 486              		.section	.text.SetAnalogRoutingPumps,"ax",%progbits
 487              		.align	2
 488              		.global	SetAnalogRoutingPumps
 489              		.thumb
 490              		.thumb_func
 491              		.type	SetAnalogRoutingPumps, %function
 492              	SetAnalogRoutingPumps:
 493              	.LFB7:
 350:Generated_Source\PSoC5/cyfitter_cfg.c **** }
 351:Generated_Source\PSoC5/cyfitter_cfg.c **** 
 352:Generated_Source\PSoC5/cyfitter_cfg.c **** 
ARM GAS  C:\Users\HENRIC~1\AppData\Local\Temp\ccev6Gq5.s 			page 16


 353:Generated_Source\PSoC5/cyfitter_cfg.c **** /*******************************************************************************
 354:Generated_Source\PSoC5/cyfitter_cfg.c **** * Function Name: SetAnalogRoutingPumps
 355:Generated_Source\PSoC5/cyfitter_cfg.c **** ********************************************************************************
 356:Generated_Source\PSoC5/cyfitter_cfg.c **** *
 357:Generated_Source\PSoC5/cyfitter_cfg.c **** * Summary:
 358:Generated_Source\PSoC5/cyfitter_cfg.c **** * Enables or disables the analog pumps feeding analog routing switches.
 359:Generated_Source\PSoC5/cyfitter_cfg.c **** * Intended to be called at startup, based on the Vdda system configuration;
 360:Generated_Source\PSoC5/cyfitter_cfg.c **** * may be called during operation when the user informs us that the Vdda voltage
 361:Generated_Source\PSoC5/cyfitter_cfg.c **** * crossed the pump threshold.
 362:Generated_Source\PSoC5/cyfitter_cfg.c **** *
 363:Generated_Source\PSoC5/cyfitter_cfg.c **** * Parameters:
 364:Generated_Source\PSoC5/cyfitter_cfg.c **** *  enabled - 1 to enable the pumps, 0 to disable the pumps
 365:Generated_Source\PSoC5/cyfitter_cfg.c **** *
 366:Generated_Source\PSoC5/cyfitter_cfg.c **** * Return:
 367:Generated_Source\PSoC5/cyfitter_cfg.c **** *  void
 368:Generated_Source\PSoC5/cyfitter_cfg.c **** *
 369:Generated_Source\PSoC5/cyfitter_cfg.c **** *******************************************************************************/
 370:Generated_Source\PSoC5/cyfitter_cfg.c **** void SetAnalogRoutingPumps(uint8 enabled)
 371:Generated_Source\PSoC5/cyfitter_cfg.c **** {
 494              		.loc 1 371 0
 495              		.cfi_startproc
 496              		@ args = 0, pretend = 0, frame = 0
 497              		@ frame_needed = 0, uses_anonymous_args = 0
 498              		@ link register save eliminated.
 499              	.LVL31:
 372:Generated_Source\PSoC5/cyfitter_cfg.c **** 	uint8 regValue = CY_GET_XTND_REG8((void CYFAR *)CYREG_PUMP_CR0);
 500              		.loc 1 372 0
 501 0000 054B     		ldr	r3, .L28
 502 0002 1B78     		ldrb	r3, [r3]	@ zero_extendqisi2
 503 0004 DBB2     		uxtb	r3, r3
 504              	.LVL32:
 373:Generated_Source\PSoC5/cyfitter_cfg.c **** 	if (enabled != 0u)
 505              		.loc 1 373 0
 506 0006 10B1     		cbz	r0, .L26
 374:Generated_Source\PSoC5/cyfitter_cfg.c **** 	{
 375:Generated_Source\PSoC5/cyfitter_cfg.c **** 		regValue |= 0x22u;
 507              		.loc 1 375 0
 508 0008 43F02203 		orr	r3, r3, #34
 509              	.LVL33:
 510 000c 01E0     		b	.L27
 511              	.L26:
 376:Generated_Source\PSoC5/cyfitter_cfg.c **** 	}
 377:Generated_Source\PSoC5/cyfitter_cfg.c **** 	else
 378:Generated_Source\PSoC5/cyfitter_cfg.c **** 	{
 379:Generated_Source\PSoC5/cyfitter_cfg.c **** 		regValue &= (uint8)~0x22u;
 512              		.loc 1 379 0
 513 000e 03F0DD03 		and	r3, r3, #221
 514              	.LVL34:
 515              	.L27:
 380:Generated_Source\PSoC5/cyfitter_cfg.c **** 	}
 381:Generated_Source\PSoC5/cyfitter_cfg.c **** 	CY_SET_XTND_REG8((void CYFAR *)CYREG_PUMP_CR0, regValue);
 516              		.loc 1 381 0
 517 0012 014A     		ldr	r2, .L28
 518 0014 1370     		strb	r3, [r2]
 519 0016 7047     		bx	lr
 520              	.L29:
 521              		.align	2
ARM GAS  C:\Users\HENRIC~1\AppData\Local\Temp\ccev6Gq5.s 			page 17


 522              	.L28:
 523 0018 76580040 		.word	1073764470
 524              		.cfi_endproc
 525              	.LFE7:
 526              		.size	SetAnalogRoutingPumps, .-SetAnalogRoutingPumps
 527              		.section	.text.HB_MUX_Set,"ax",%progbits
 528              		.align	2
 529              		.global	HB_MUX_Set
 530              		.thumb
 531              		.thumb_func
 532              		.type	HB_MUX_Set, %function
 533              	HB_MUX_Set:
 534              	.LFB8:
 382:Generated_Source\PSoC5/cyfitter_cfg.c **** }
 383:Generated_Source\PSoC5/cyfitter_cfg.c **** 
 384:Generated_Source\PSoC5/cyfitter_cfg.c **** 
 385:Generated_Source\PSoC5/cyfitter_cfg.c **** #define CY_AMUX_UNUSED CYREG_BOOST_SR
 386:Generated_Source\PSoC5/cyfitter_cfg.c **** static uint8 CYXDATA * const CYCODE HB_MUX__outerAddr[2] = {
 387:Generated_Source\PSoC5/cyfitter_cfg.c **** 	(uint8 CYXDATA *)CYREG_DAC3_SW0, 
 388:Generated_Source\PSoC5/cyfitter_cfg.c **** 	(uint8 CYXDATA *)CYREG_PRT0_AG, 
 389:Generated_Source\PSoC5/cyfitter_cfg.c **** };
 390:Generated_Source\PSoC5/cyfitter_cfg.c **** 
 391:Generated_Source\PSoC5/cyfitter_cfg.c **** static const uint8 CYCODE HB_MUX__outerMask[2] = {
 392:Generated_Source\PSoC5/cyfitter_cfg.c **** 	0x10u, 
 393:Generated_Source\PSoC5/cyfitter_cfg.c **** 	0x10u, 
 394:Generated_Source\PSoC5/cyfitter_cfg.c **** };
 395:Generated_Source\PSoC5/cyfitter_cfg.c **** 
 396:Generated_Source\PSoC5/cyfitter_cfg.c **** static uint8 CYXDATA * const CYCODE HB_MUX__innerAddr[1] = {
 397:Generated_Source\PSoC5/cyfitter_cfg.c **** 	(uint8 CYXDATA *)CYREG_SC1_SW0, 
 398:Generated_Source\PSoC5/cyfitter_cfg.c **** };
 399:Generated_Source\PSoC5/cyfitter_cfg.c **** 
 400:Generated_Source\PSoC5/cyfitter_cfg.c **** static const uint8 CYCODE HB_MUX__innerMask[1] = {
 401:Generated_Source\PSoC5/cyfitter_cfg.c **** 	0x10u, 
 402:Generated_Source\PSoC5/cyfitter_cfg.c **** };
 403:Generated_Source\PSoC5/cyfitter_cfg.c **** 
 404:Generated_Source\PSoC5/cyfitter_cfg.c **** static const uint8 CYCODE HB_MUX__innerMap[2] = {
 405:Generated_Source\PSoC5/cyfitter_cfg.c **** 	0u, 
 406:Generated_Source\PSoC5/cyfitter_cfg.c **** 	0u, 
 407:Generated_Source\PSoC5/cyfitter_cfg.c **** };
 408:Generated_Source\PSoC5/cyfitter_cfg.c **** 
 409:Generated_Source\PSoC5/cyfitter_cfg.c **** static uint8 HB_MUX__armsEnabled = 0u;
 410:Generated_Source\PSoC5/cyfitter_cfg.c **** static uint8 HB_MUX__refCnt[] = {0u};
 411:Generated_Source\PSoC5/cyfitter_cfg.c **** 
 412:Generated_Source\PSoC5/cyfitter_cfg.c **** /*******************************************************************************
 413:Generated_Source\PSoC5/cyfitter_cfg.c **** * Function Name: HB_MUX_Set
 414:Generated_Source\PSoC5/cyfitter_cfg.c **** ********************************************************************************
 415:Generated_Source\PSoC5/cyfitter_cfg.c **** * Summary:
 416:Generated_Source\PSoC5/cyfitter_cfg.c **** *  This function is used to set a particular channel as active on the AMux.
 417:Generated_Source\PSoC5/cyfitter_cfg.c **** *
 418:Generated_Source\PSoC5/cyfitter_cfg.c **** * Parameters:  
 419:Generated_Source\PSoC5/cyfitter_cfg.c **** *   channel - The mux channel input to set as active
 420:Generated_Source\PSoC5/cyfitter_cfg.c **** *
 421:Generated_Source\PSoC5/cyfitter_cfg.c **** * Return:
 422:Generated_Source\PSoC5/cyfitter_cfg.c **** *   void
 423:Generated_Source\PSoC5/cyfitter_cfg.c **** *
 424:Generated_Source\PSoC5/cyfitter_cfg.c **** *******************************************************************************/
 425:Generated_Source\PSoC5/cyfitter_cfg.c **** void HB_MUX_Set(uint8 channel)
ARM GAS  C:\Users\HENRIC~1\AppData\Local\Temp\ccev6Gq5.s 			page 18


 426:Generated_Source\PSoC5/cyfitter_cfg.c **** {
 535              		.loc 1 426 0
 536              		.cfi_startproc
 537              		@ args = 0, pretend = 0, frame = 0
 538              		@ frame_needed = 0, uses_anonymous_args = 0
 539              		@ link register save eliminated.
 540              	.LVL35:
 427:Generated_Source\PSoC5/cyfitter_cfg.c **** 	uint8 i;
 428:Generated_Source\PSoC5/cyfitter_cfg.c **** 	uint8 channelMask = (1UL << channel);
 541              		.loc 1 428 0
 542 0000 0123     		movs	r3, #1
 543 0002 8340     		lsls	r3, r3, r0
 544              	.LVL36:
 429:Generated_Source\PSoC5/cyfitter_cfg.c **** 	if ((channel < 2u) && ((HB_MUX__armsEnabled & channelMask) == ((uint32)0u)))
 545              		.loc 1 429 0
 546 0004 0128     		cmp	r0, #1
 547 0006 1FD8     		bhi	.L35
 548 0008 DBB2     		uxtb	r3, r3
 549              		.loc 1 429 0 is_stmt 0 discriminator 1
 550 000a 104A     		ldr	r2, .L36
 551 000c 1278     		ldrb	r2, [r2]	@ zero_extendqisi2
 552 000e 1342     		tst	r3, r2
 553 0010 1AD1     		bne	.L35
 426:Generated_Source\PSoC5/cyfitter_cfg.c **** 	uint8 i;
 554              		.loc 1 426 0 is_stmt 1
 555 0012 10B4     		push	{r4}
 556              		.cfi_def_cfa_offset 4
 557              		.cfi_offset 4, -4
 430:Generated_Source\PSoC5/cyfitter_cfg.c **** 	{
 431:Generated_Source\PSoC5/cyfitter_cfg.c **** 		HB_MUX__armsEnabled |= channelMask;
 558              		.loc 1 431 0
 559 0014 0D49     		ldr	r1, .L36
 560 0016 1343     		orrs	r3, r3, r2
 561              	.LVL37:
 562 0018 0B70     		strb	r3, [r1]
 432:Generated_Source\PSoC5/cyfitter_cfg.c **** 		*HB_MUX__outerAddr[channel] |= HB_MUX__outerMask[channel];
 563              		.loc 1 432 0
 564 001a 0D4B     		ldr	r3, .L36+4
 565 001c 53F82020 		ldr	r2, [r3, r0, lsl #2]
 566 0020 1844     		add	r0, r0, r3
 567              	.LVL38:
 568 0022 047A     		ldrb	r4, [r0, #8]	@ zero_extendqisi2
 569 0024 1378     		ldrb	r3, [r2]	@ zero_extendqisi2
 570 0026 2343     		orrs	r3, r3, r4
 571 0028 1370     		strb	r3, [r2]
 433:Generated_Source\PSoC5/cyfitter_cfg.c **** 		i = HB_MUX__innerMap[channel];
 572              		.loc 1 433 0
 573 002a 037B     		ldrb	r3, [r0, #12]	@ zero_extendqisi2
 434:Generated_Source\PSoC5/cyfitter_cfg.c **** 		if (HB_MUX__refCnt[i] == 0u)
 574              		.loc 1 434 0
 575 002c 1944     		add	r1, r1, r3
 576 002e 0A79     		ldrb	r2, [r1, #4]	@ zero_extendqisi2
 577 0030 22B9     		cbnz	r2, .L32
 435:Generated_Source\PSoC5/cyfitter_cfg.c **** 		{
 436:Generated_Source\PSoC5/cyfitter_cfg.c **** 			*HB_MUX__innerAddr[i] |= HB_MUX__innerMask[i];
 578              		.loc 1 436 0
 579 0032 0849     		ldr	r1, .L36+8
ARM GAS  C:\Users\HENRIC~1\AppData\Local\Temp\ccev6Gq5.s 			page 19


 580 0034 0A78     		ldrb	r2, [r1]	@ zero_extendqisi2
 581 0036 42F01002 		orr	r2, r2, #16
 582 003a 0A70     		strb	r2, [r1]
 583              	.L32:
 437:Generated_Source\PSoC5/cyfitter_cfg.c **** 		}
 438:Generated_Source\PSoC5/cyfitter_cfg.c **** 		HB_MUX__refCnt[i]++;
 584              		.loc 1 438 0
 585 003c 034A     		ldr	r2, .L36
 586 003e 1344     		add	r3, r3, r2
 587 0040 1A79     		ldrb	r2, [r3, #4]	@ zero_extendqisi2
 588 0042 0132     		adds	r2, r2, #1
 589 0044 1A71     		strb	r2, [r3, #4]
 439:Generated_Source\PSoC5/cyfitter_cfg.c **** 	}
 440:Generated_Source\PSoC5/cyfitter_cfg.c **** }
 590              		.loc 1 440 0
 591 0046 10BC     		pop	{r4}
 592              		.cfi_restore 4
 593              		.cfi_def_cfa_offset 0
 594              	.LVL39:
 595              	.L35:
 596 0048 7047     		bx	lr
 597              	.L37:
 598 004a 00BF     		.align	2
 599              	.L36:
 600 004c 00000000 		.word	.LANCHOR0
 601 0050 00000000 		.word	.LANCHOR1
 602 0054 105A0040 		.word	1073764880
 603              		.cfi_endproc
 604              	.LFE8:
 605              		.size	HB_MUX_Set, .-HB_MUX_Set
 606              		.section	.text.HB_MUX_Unset,"ax",%progbits
 607              		.align	2
 608              		.global	HB_MUX_Unset
 609              		.thumb
 610              		.thumb_func
 611              		.type	HB_MUX_Unset, %function
 612              	HB_MUX_Unset:
 613              	.LFB9:
 441:Generated_Source\PSoC5/cyfitter_cfg.c **** 
 442:Generated_Source\PSoC5/cyfitter_cfg.c **** /*******************************************************************************
 443:Generated_Source\PSoC5/cyfitter_cfg.c **** * Function Name: HB_MUX_Unset
 444:Generated_Source\PSoC5/cyfitter_cfg.c **** ********************************************************************************
 445:Generated_Source\PSoC5/cyfitter_cfg.c **** * Summary:
 446:Generated_Source\PSoC5/cyfitter_cfg.c **** *  This function is used to clear a particular channel from being active on the
 447:Generated_Source\PSoC5/cyfitter_cfg.c **** *  AMux.
 448:Generated_Source\PSoC5/cyfitter_cfg.c **** *
 449:Generated_Source\PSoC5/cyfitter_cfg.c **** * Parameters:  
 450:Generated_Source\PSoC5/cyfitter_cfg.c **** *   channel - The mux channel input to mark inactive
 451:Generated_Source\PSoC5/cyfitter_cfg.c **** *
 452:Generated_Source\PSoC5/cyfitter_cfg.c **** * Return:
 453:Generated_Source\PSoC5/cyfitter_cfg.c **** *   void
 454:Generated_Source\PSoC5/cyfitter_cfg.c **** *
 455:Generated_Source\PSoC5/cyfitter_cfg.c **** *******************************************************************************/
 456:Generated_Source\PSoC5/cyfitter_cfg.c **** void HB_MUX_Unset(uint8 channel)
 457:Generated_Source\PSoC5/cyfitter_cfg.c **** {
 614              		.loc 1 457 0
 615              		.cfi_startproc
ARM GAS  C:\Users\HENRIC~1\AppData\Local\Temp\ccev6Gq5.s 			page 20


 616              		@ args = 0, pretend = 0, frame = 0
 617              		@ frame_needed = 0, uses_anonymous_args = 0
 618              		@ link register save eliminated.
 619              	.LVL40:
 458:Generated_Source\PSoC5/cyfitter_cfg.c **** 	uint8 i;
 459:Generated_Source\PSoC5/cyfitter_cfg.c **** 	uint8 channelMask = (1UL << channel);
 620              		.loc 1 459 0
 621 0000 0123     		movs	r3, #1
 622 0002 8340     		lsls	r3, r3, r0
 623              	.LVL41:
 460:Generated_Source\PSoC5/cyfitter_cfg.c **** 	if ((channel < 2u) && ((HB_MUX__armsEnabled & channelMask) != ((uint32)0u)))
 624              		.loc 1 460 0
 625 0004 0128     		cmp	r0, #1
 626 0006 1FD8     		bhi	.L42
 627 0008 DBB2     		uxtb	r3, r3
 628              		.loc 1 460 0 is_stmt 0 discriminator 1
 629 000a 104A     		ldr	r2, .L43
 630 000c 1278     		ldrb	r2, [r2]	@ zero_extendqisi2
 631 000e 1342     		tst	r3, r2
 632 0010 1AD0     		beq	.L42
 457:Generated_Source\PSoC5/cyfitter_cfg.c **** 	uint8 i;
 633              		.loc 1 457 0 is_stmt 1
 634 0012 10B4     		push	{r4}
 635              		.cfi_def_cfa_offset 4
 636              		.cfi_offset 4, -4
 461:Generated_Source\PSoC5/cyfitter_cfg.c **** 	{
 462:Generated_Source\PSoC5/cyfitter_cfg.c **** 		HB_MUX__armsEnabled &= (uint8)~channelMask;
 637              		.loc 1 462 0
 638 0014 0D49     		ldr	r1, .L43
 639 0016 22EA0303 		bic	r3, r2, r3
 640              	.LVL42:
 641 001a 0B70     		strb	r3, [r1]
 463:Generated_Source\PSoC5/cyfitter_cfg.c **** 		*HB_MUX__outerAddr[channel] &= (uint8)~HB_MUX__outerMask[channel];
 642              		.loc 1 463 0
 643 001c 0C4B     		ldr	r3, .L43+4
 644 001e 53F82020 		ldr	r2, [r3, r0, lsl #2]
 645 0022 1844     		add	r0, r0, r3
 646              	.LVL43:
 647 0024 047A     		ldrb	r4, [r0, #8]	@ zero_extendqisi2
 648 0026 1378     		ldrb	r3, [r2]	@ zero_extendqisi2
 649 0028 23EA0403 		bic	r3, r3, r4
 650 002c 1370     		strb	r3, [r2]
 464:Generated_Source\PSoC5/cyfitter_cfg.c **** 		i = HB_MUX__innerMap[channel];
 651              		.loc 1 464 0
 652 002e 037B     		ldrb	r3, [r0, #12]	@ zero_extendqisi2
 653              	.LVL44:
 465:Generated_Source\PSoC5/cyfitter_cfg.c **** 		HB_MUX__refCnt[i]--;
 654              		.loc 1 465 0
 655 0030 CA18     		adds	r2, r1, r3
 656 0032 1379     		ldrb	r3, [r2, #4]	@ zero_extendqisi2
 657              	.LVL45:
 658 0034 013B     		subs	r3, r3, #1
 659 0036 DBB2     		uxtb	r3, r3
 660 0038 1371     		strb	r3, [r2, #4]
 466:Generated_Source\PSoC5/cyfitter_cfg.c **** 		if (HB_MUX__refCnt[i] == 0)
 661              		.loc 1 466 0
 662 003a 23B9     		cbnz	r3, .L38
ARM GAS  C:\Users\HENRIC~1\AppData\Local\Temp\ccev6Gq5.s 			page 21


 467:Generated_Source\PSoC5/cyfitter_cfg.c **** 		{
 468:Generated_Source\PSoC5/cyfitter_cfg.c **** 			*HB_MUX__innerAddr[i] &= (uint8)~HB_MUX__innerMask[i];
 663              		.loc 1 468 0
 664 003c 054A     		ldr	r2, .L43+8
 665 003e 1378     		ldrb	r3, [r2]	@ zero_extendqisi2
 666 0040 23F01003 		bic	r3, r3, #16
 667 0044 1370     		strb	r3, [r2]
 668              	.L38:
 469:Generated_Source\PSoC5/cyfitter_cfg.c **** 		}
 470:Generated_Source\PSoC5/cyfitter_cfg.c **** 	}
 471:Generated_Source\PSoC5/cyfitter_cfg.c **** }
 669              		.loc 1 471 0
 670 0046 10BC     		pop	{r4}
 671              		.cfi_restore 4
 672              		.cfi_def_cfa_offset 0
 673              	.LVL46:
 674              	.L42:
 675 0048 7047     		bx	lr
 676              	.L44:
 677 004a 00BF     		.align	2
 678              	.L43:
 679 004c 00000000 		.word	.LANCHOR0
 680 0050 00000000 		.word	.LANCHOR1
 681 0054 105A0040 		.word	1073764880
 682              		.cfi_endproc
 683              	.LFE9:
 684              		.size	HB_MUX_Unset, .-HB_MUX_Unset
 685              		.section	.text.CapSense_AMuxCH0_Set,"ax",%progbits
 686              		.align	2
 687              		.global	CapSense_AMuxCH0_Set
 688              		.thumb
 689              		.thumb_func
 690              		.type	CapSense_AMuxCH0_Set, %function
 691              	CapSense_AMuxCH0_Set:
 692              	.LFB10:
 472:Generated_Source\PSoC5/cyfitter_cfg.c **** 
 473:Generated_Source\PSoC5/cyfitter_cfg.c **** /* This is an implementation detail of the AMux. Code that depends on it may be
 474:Generated_Source\PSoC5/cyfitter_cfg.c ****    incompatible with other versions of PSoC Creator. */
 475:Generated_Source\PSoC5/cyfitter_cfg.c **** uint8 CYXDATA * const CYCODE CapSense_AMuxCH0__addrTable[10] = {
 476:Generated_Source\PSoC5/cyfitter_cfg.c **** 	(uint8 CYXDATA *)CYREG_PRT5_AMUX, 
 477:Generated_Source\PSoC5/cyfitter_cfg.c **** 	(uint8 CYXDATA *)CYREG_PRT5_AMUX, 
 478:Generated_Source\PSoC5/cyfitter_cfg.c **** 	(uint8 CYXDATA *)CYREG_PRT5_AMUX, 
 479:Generated_Source\PSoC5/cyfitter_cfg.c **** 	(uint8 CYXDATA *)CYREG_PRT5_AMUX, 
 480:Generated_Source\PSoC5/cyfitter_cfg.c **** 	(uint8 CYXDATA *)CYREG_PRT5_AMUX, 
 481:Generated_Source\PSoC5/cyfitter_cfg.c **** 	(uint8 CYXDATA *)CYREG_PRT5_AMUX, 
 482:Generated_Source\PSoC5/cyfitter_cfg.c **** 	(uint8 CYXDATA *)CYREG_PRT5_AMUX, 
 483:Generated_Source\PSoC5/cyfitter_cfg.c **** 	(uint8 CYXDATA *)CYREG_PRT6_AMUX, 
 484:Generated_Source\PSoC5/cyfitter_cfg.c **** 	(uint8 CYXDATA *)CYREG_CMP1_SW3, 
 485:Generated_Source\PSoC5/cyfitter_cfg.c **** 	(uint8 CYXDATA *)CYREG_DAC0_SW3, 
 486:Generated_Source\PSoC5/cyfitter_cfg.c **** };
 487:Generated_Source\PSoC5/cyfitter_cfg.c **** 
 488:Generated_Source\PSoC5/cyfitter_cfg.c **** /* This is an implementation detail of the AMux. Code that depends on it may be
 489:Generated_Source\PSoC5/cyfitter_cfg.c ****    incompatible with other versions of PSoC Creator. */
 490:Generated_Source\PSoC5/cyfitter_cfg.c **** const uint8 CYCODE CapSense_AMuxCH0__maskTable[10] = {
 491:Generated_Source\PSoC5/cyfitter_cfg.c **** 	0x20u, 
 492:Generated_Source\PSoC5/cyfitter_cfg.c **** 	0x40u, 
 493:Generated_Source\PSoC5/cyfitter_cfg.c **** 	0x01u, 
ARM GAS  C:\Users\HENRIC~1\AppData\Local\Temp\ccev6Gq5.s 			page 22


 494:Generated_Source\PSoC5/cyfitter_cfg.c **** 	0x02u, 
 495:Generated_Source\PSoC5/cyfitter_cfg.c **** 	0x04u, 
 496:Generated_Source\PSoC5/cyfitter_cfg.c **** 	0x08u, 
 497:Generated_Source\PSoC5/cyfitter_cfg.c **** 	0x10u, 
 498:Generated_Source\PSoC5/cyfitter_cfg.c **** 	0x10u, 
 499:Generated_Source\PSoC5/cyfitter_cfg.c **** 	0x01u, 
 500:Generated_Source\PSoC5/cyfitter_cfg.c **** 	0x10u, 
 501:Generated_Source\PSoC5/cyfitter_cfg.c **** };
 502:Generated_Source\PSoC5/cyfitter_cfg.c **** 
 503:Generated_Source\PSoC5/cyfitter_cfg.c **** /*******************************************************************************
 504:Generated_Source\PSoC5/cyfitter_cfg.c **** * Function Name: CapSense_AMuxCH0_Set
 505:Generated_Source\PSoC5/cyfitter_cfg.c **** ********************************************************************************
 506:Generated_Source\PSoC5/cyfitter_cfg.c **** * Summary:
 507:Generated_Source\PSoC5/cyfitter_cfg.c **** *  This function is used to set a particular channel as active on the AMux.
 508:Generated_Source\PSoC5/cyfitter_cfg.c **** *
 509:Generated_Source\PSoC5/cyfitter_cfg.c **** * Parameters:  
 510:Generated_Source\PSoC5/cyfitter_cfg.c **** *   channel - The mux channel input to set as active
 511:Generated_Source\PSoC5/cyfitter_cfg.c **** *
 512:Generated_Source\PSoC5/cyfitter_cfg.c **** * Return:
 513:Generated_Source\PSoC5/cyfitter_cfg.c **** *   void
 514:Generated_Source\PSoC5/cyfitter_cfg.c **** *
 515:Generated_Source\PSoC5/cyfitter_cfg.c **** *******************************************************************************/
 516:Generated_Source\PSoC5/cyfitter_cfg.c **** void CapSense_AMuxCH0_Set(uint8 channel)
 517:Generated_Source\PSoC5/cyfitter_cfg.c **** {
 693              		.loc 1 517 0
 694              		.cfi_startproc
 695              		@ args = 0, pretend = 0, frame = 0
 696              		@ frame_needed = 0, uses_anonymous_args = 0
 697              		@ link register save eliminated.
 698              	.LVL47:
 518:Generated_Source\PSoC5/cyfitter_cfg.c **** 	if (channel < 10)
 699              		.loc 1 518 0
 700 0000 0928     		cmp	r0, #9
 701 0002 09D8     		bhi	.L45
 519:Generated_Source\PSoC5/cyfitter_cfg.c **** 	{
 520:Generated_Source\PSoC5/cyfitter_cfg.c **** 		*CapSense_AMuxCH0__addrTable[channel] |= CapSense_AMuxCH0__maskTable[channel];
 702              		.loc 1 520 0
 703 0004 054B     		ldr	r3, .L47
 704 0006 03EB8002 		add	r2, r3, r0, lsl #2
 705 000a 1269     		ldr	r2, [r2, #16]
 706 000c 1844     		add	r0, r0, r3
 707              	.LVL48:
 708 000e 90F83810 		ldrb	r1, [r0, #56]	@ zero_extendqisi2
 709 0012 1378     		ldrb	r3, [r2]	@ zero_extendqisi2
 710 0014 0B43     		orrs	r3, r3, r1
 711 0016 1370     		strb	r3, [r2]
 712              	.L45:
 713 0018 7047     		bx	lr
 714              	.L48:
 715 001a 00BF     		.align	2
 716              	.L47:
 717 001c 00000000 		.word	.LANCHOR1
 718              		.cfi_endproc
 719              	.LFE10:
 720              		.size	CapSense_AMuxCH0_Set, .-CapSense_AMuxCH0_Set
 721              		.section	.text.CapSense_AMuxCH0_Unset,"ax",%progbits
 722              		.align	2
ARM GAS  C:\Users\HENRIC~1\AppData\Local\Temp\ccev6Gq5.s 			page 23


 723              		.global	CapSense_AMuxCH0_Unset
 724              		.thumb
 725              		.thumb_func
 726              		.type	CapSense_AMuxCH0_Unset, %function
 727              	CapSense_AMuxCH0_Unset:
 728              	.LFB11:
 521:Generated_Source\PSoC5/cyfitter_cfg.c **** 	}
 522:Generated_Source\PSoC5/cyfitter_cfg.c **** }
 523:Generated_Source\PSoC5/cyfitter_cfg.c **** 
 524:Generated_Source\PSoC5/cyfitter_cfg.c **** /*******************************************************************************
 525:Generated_Source\PSoC5/cyfitter_cfg.c **** * Function Name: CapSense_AMuxCH0_Unset
 526:Generated_Source\PSoC5/cyfitter_cfg.c **** ********************************************************************************
 527:Generated_Source\PSoC5/cyfitter_cfg.c **** * Summary:
 528:Generated_Source\PSoC5/cyfitter_cfg.c **** *  This function is used to clear a particular channel from being active on the
 529:Generated_Source\PSoC5/cyfitter_cfg.c **** *  AMux.
 530:Generated_Source\PSoC5/cyfitter_cfg.c **** *
 531:Generated_Source\PSoC5/cyfitter_cfg.c **** * Parameters:  
 532:Generated_Source\PSoC5/cyfitter_cfg.c **** *   channel - The mux channel input to mark inactive
 533:Generated_Source\PSoC5/cyfitter_cfg.c **** *
 534:Generated_Source\PSoC5/cyfitter_cfg.c **** * Return:
 535:Generated_Source\PSoC5/cyfitter_cfg.c **** *   void
 536:Generated_Source\PSoC5/cyfitter_cfg.c **** *
 537:Generated_Source\PSoC5/cyfitter_cfg.c **** *******************************************************************************/
 538:Generated_Source\PSoC5/cyfitter_cfg.c **** void CapSense_AMuxCH0_Unset(uint8 channel)
 539:Generated_Source\PSoC5/cyfitter_cfg.c **** {
 729              		.loc 1 539 0
 730              		.cfi_startproc
 731              		@ args = 0, pretend = 0, frame = 0
 732              		@ frame_needed = 0, uses_anonymous_args = 0
 733              		@ link register save eliminated.
 734              	.LVL49:
 540:Generated_Source\PSoC5/cyfitter_cfg.c **** 	if (channel < 10)
 735              		.loc 1 540 0
 736 0000 0928     		cmp	r0, #9
 737 0002 0AD8     		bhi	.L49
 541:Generated_Source\PSoC5/cyfitter_cfg.c **** 	{
 542:Generated_Source\PSoC5/cyfitter_cfg.c **** 		*CapSense_AMuxCH0__addrTable[channel] &= (uint8)~CapSense_AMuxCH0__maskTable[channel];
 738              		.loc 1 542 0
 739 0004 054B     		ldr	r3, .L51
 740 0006 03EB8002 		add	r2, r3, r0, lsl #2
 741 000a 1269     		ldr	r2, [r2, #16]
 742 000c 1844     		add	r0, r0, r3
 743              	.LVL50:
 744 000e 90F83810 		ldrb	r1, [r0, #56]	@ zero_extendqisi2
 745 0012 1378     		ldrb	r3, [r2]	@ zero_extendqisi2
 746 0014 23EA0103 		bic	r3, r3, r1
 747 0018 1370     		strb	r3, [r2]
 748              	.L49:
 749 001a 7047     		bx	lr
 750              	.L52:
 751              		.align	2
 752              	.L51:
 753 001c 00000000 		.word	.LANCHOR1
 754              		.cfi_endproc
 755              	.LFE11:
 756              		.size	CapSense_AMuxCH0_Unset, .-CapSense_AMuxCH0_Unset
 757              		.section	.text.cyfitter_cfg,"ax",%progbits
ARM GAS  C:\Users\HENRIC~1\AppData\Local\Temp\ccev6Gq5.s 			page 24


 758              		.align	2
 759              		.global	cyfitter_cfg
 760              		.thumb
 761              		.thumb_func
 762              		.type	cyfitter_cfg, %function
 763              	cyfitter_cfg:
 764              	.LFB12:
 543:Generated_Source\PSoC5/cyfitter_cfg.c **** 	}
 544:Generated_Source\PSoC5/cyfitter_cfg.c **** }
 545:Generated_Source\PSoC5/cyfitter_cfg.c **** 
 546:Generated_Source\PSoC5/cyfitter_cfg.c **** 
 547:Generated_Source\PSoC5/cyfitter_cfg.c **** 
 548:Generated_Source\PSoC5/cyfitter_cfg.c **** /*******************************************************************************
 549:Generated_Source\PSoC5/cyfitter_cfg.c **** * Function Name: cyfitter_cfg
 550:Generated_Source\PSoC5/cyfitter_cfg.c **** ********************************************************************************
 551:Generated_Source\PSoC5/cyfitter_cfg.c **** * Summary:
 552:Generated_Source\PSoC5/cyfitter_cfg.c **** *  This function is called by the start-up code for the selected device. It
 553:Generated_Source\PSoC5/cyfitter_cfg.c **** *  performs all of the necessary device configuration based on the design
 554:Generated_Source\PSoC5/cyfitter_cfg.c **** *  settings.  This includes settings from the Design Wide Resources (DWR) such
 555:Generated_Source\PSoC5/cyfitter_cfg.c **** *  as Clocks and Pins as well as any component configuration that is necessary.
 556:Generated_Source\PSoC5/cyfitter_cfg.c **** *
 557:Generated_Source\PSoC5/cyfitter_cfg.c **** * Parameters:
 558:Generated_Source\PSoC5/cyfitter_cfg.c **** *   void
 559:Generated_Source\PSoC5/cyfitter_cfg.c **** *
 560:Generated_Source\PSoC5/cyfitter_cfg.c **** * Return:
 561:Generated_Source\PSoC5/cyfitter_cfg.c **** *   void
 562:Generated_Source\PSoC5/cyfitter_cfg.c **** *
 563:Generated_Source\PSoC5/cyfitter_cfg.c **** *******************************************************************************/
 564:Generated_Source\PSoC5/cyfitter_cfg.c **** 
 565:Generated_Source\PSoC5/cyfitter_cfg.c **** void cyfitter_cfg(void)
 566:Generated_Source\PSoC5/cyfitter_cfg.c **** {
 765              		.loc 1 566 0
 766              		.cfi_startproc
 767              		@ args = 0, pretend = 0, frame = 0
 768              		@ frame_needed = 0, uses_anonymous_args = 0
 769 0000 38B5     		push	{r3, r4, r5, lr}
 770              		.cfi_def_cfa_offset 16
 771              		.cfi_offset 3, -16
 772              		.cfi_offset 4, -12
 773              		.cfi_offset 5, -8
 774              		.cfi_offset 14, -4
 567:Generated_Source\PSoC5/cyfitter_cfg.c **** #ifdef CYGlobalIntDisable
 568:Generated_Source\PSoC5/cyfitter_cfg.c **** 	/* Disable interrupts by default. Let user enable if/when they want. */
 569:Generated_Source\PSoC5/cyfitter_cfg.c **** 	CYGlobalIntDisable
 775              		.loc 1 569 0
 776              		.syntax unified
 777              	@ 569 "Generated_Source\PSoC5\cyfitter_cfg.c" 1
 778 0002 72B6     		CPSID   i
 779              	@ 0 "" 2
 570:Generated_Source\PSoC5/cyfitter_cfg.c **** #endif
 571:Generated_Source\PSoC5/cyfitter_cfg.c **** 
 572:Generated_Source\PSoC5/cyfitter_cfg.c **** 	/* Enable/Disable Debug functionality based on settings from System DWR */
 573:Generated_Source\PSoC5/cyfitter_cfg.c **** 	CY_SET_XTND_REG8((void CYFAR *)CYREG_MLOGIC_DEBUG, (CY_GET_XTND_REG8((void CYFAR *)CYREG_MLOGIC_DE
 780              		.loc 1 573 0
 781              		.thumb
 782              		.syntax unified
 783 0004 414A     		ldr	r2, .L57
ARM GAS  C:\Users\HENRIC~1\AppData\Local\Temp\ccev6Gq5.s 			page 25


 784 0006 1378     		ldrb	r3, [r2]	@ zero_extendqisi2
 785 0008 43F00403 		orr	r3, r3, #4
 786 000c 1370     		strb	r3, [r2]
 787              	.LVL51:
 788              	.LBB3:
 574:Generated_Source\PSoC5/cyfitter_cfg.c **** 
 575:Generated_Source\PSoC5/cyfitter_cfg.c **** 	{
 576:Generated_Source\PSoC5/cyfitter_cfg.c **** 
 577:Generated_Source\PSoC5/cyfitter_cfg.c **** 		CYPACKED typedef struct {
 578:Generated_Source\PSoC5/cyfitter_cfg.c **** 			void CYFAR *address;
 579:Generated_Source\PSoC5/cyfitter_cfg.c **** 			uint16 size;
 580:Generated_Source\PSoC5/cyfitter_cfg.c **** 		} CYPACKED_ATTR cfg_memset_t;
 581:Generated_Source\PSoC5/cyfitter_cfg.c **** 
 582:Generated_Source\PSoC5/cyfitter_cfg.c **** 		static const cfg_memset_t CYCODE cfg_memset_list[] = {
 583:Generated_Source\PSoC5/cyfitter_cfg.c **** 			/* address, size */
 584:Generated_Source\PSoC5/cyfitter_cfg.c **** 			{(void CYFAR *)(CYREG_TMR0_CFG0), 12u},
 585:Generated_Source\PSoC5/cyfitter_cfg.c **** 			{(void CYFAR *)(CYREG_PRT4_DR), 16u},
 586:Generated_Source\PSoC5/cyfitter_cfg.c **** 			{(void CYFAR *)(CYDEV_UCFG_B0_P0_U0_BASE), 4096u},
 587:Generated_Source\PSoC5/cyfitter_cfg.c **** 			{(void CYFAR *)(CYDEV_UCFG_B1_P2_U0_BASE), 2048u},
 588:Generated_Source\PSoC5/cyfitter_cfg.c **** 			{(void CYFAR *)(CYDEV_UCFG_DSI0_BASE), 2560u},
 589:Generated_Source\PSoC5/cyfitter_cfg.c **** 			{(void CYFAR *)(CYDEV_UCFG_DSI12_BASE), 512u},
 590:Generated_Source\PSoC5/cyfitter_cfg.c **** 			{(void CYFAR *)(CYREG_BCTL0_MDCLK_EN), 32u},
 591:Generated_Source\PSoC5/cyfitter_cfg.c **** 		};
 592:Generated_Source\PSoC5/cyfitter_cfg.c **** 
 593:Generated_Source\PSoC5/cyfitter_cfg.c **** 		uint8 CYDATA i;
 594:Generated_Source\PSoC5/cyfitter_cfg.c **** 
 595:Generated_Source\PSoC5/cyfitter_cfg.c **** 		/* Zero out critical memory blocks before beginning configuration */
 596:Generated_Source\PSoC5/cyfitter_cfg.c **** 		for (i = 0u; i < (sizeof(cfg_memset_list)/sizeof(cfg_memset_list[0])); i++)
 789              		.loc 1 596 0
 790 000e 0024     		movs	r4, #0
 791 0010 0CE0     		b	.L54
 792              	.LVL52:
 793              	.L55:
 794              	.LBB4:
 597:Generated_Source\PSoC5/cyfitter_cfg.c **** 		{
 598:Generated_Source\PSoC5/cyfitter_cfg.c **** 			const cfg_memset_t CYCODE * CYDATA ms = &cfg_memset_list[i];
 599:Generated_Source\PSoC5/cyfitter_cfg.c **** 			CYMEMZERO(ms->address, (size_t)(uint32)(ms->size));
 795              		.loc 1 599 0 discriminator 3
 796 0012 3F48     		ldr	r0, .L57+4
 797 0014 6300     		lsls	r3, r4, #1
 798 0016 1A19     		adds	r2, r3, r4
 799 0018 5100     		lsls	r1, r2, #1
 800 001a 0144     		add	r1, r1, r0
 801 001c 0A46     		mov	r2, r1
 802 001e B1F84810 		ldrh	r1, [r1, #72]
 803 0022 506C     		ldr	r0, [r2, #68]	@ unaligned
 804 0024 FFF7FEFF 		bl	CYMEMZERO
 805              	.LVL53:
 806              	.LBE4:
 596:Generated_Source\PSoC5/cyfitter_cfg.c **** 		{
 807              		.loc 1 596 0 discriminator 3
 808 0028 0134     		adds	r4, r4, #1
 809              	.LVL54:
 810 002a E4B2     		uxtb	r4, r4
 811              	.LVL55:
 812              	.L54:
 596:Generated_Source\PSoC5/cyfitter_cfg.c **** 		{
ARM GAS  C:\Users\HENRIC~1\AppData\Local\Temp\ccev6Gq5.s 			page 26


 813              		.loc 1 596 0 is_stmt 0 discriminator 1
 814 002c 062C     		cmp	r4, #6
 815 002e F0D9     		bls	.L55
 600:Generated_Source\PSoC5/cyfitter_cfg.c **** 		}
 601:Generated_Source\PSoC5/cyfitter_cfg.c **** 
 602:Generated_Source\PSoC5/cyfitter_cfg.c **** 		cfg_write_bytes32(cy_cfg_addr_table, cy_cfg_data_table);
 816              		.loc 1 602 0 is_stmt 1
 817 0030 3849     		ldr	r1, .L57+8
 818 0032 4FF09040 		mov	r0, #1207959552
 819 0036 FFF7FEFF 		bl	cfg_write_bytes32
 820              	.LVL56:
 603:Generated_Source\PSoC5/cyfitter_cfg.c **** 
 604:Generated_Source\PSoC5/cyfitter_cfg.c **** 		/* Perform normal device configuration. Order is not critical for these items. */
 605:Generated_Source\PSoC5/cyfitter_cfg.c **** 		CY_SET_XTND_REG16((void CYFAR *)(CYREG_CAPSR_CFG0), 0x0300u);
 821              		.loc 1 605 0
 822 003a 4FF44072 		mov	r2, #768
 823 003e 364B     		ldr	r3, .L57+12
 824 0040 1A80     		strh	r2, [r3]	@ movhi
 606:Generated_Source\PSoC5/cyfitter_cfg.c **** 		CY_SET_XTND_REG16((void CYFAR *)(CYREG_LUT1_CR), 0x0103u);
 825              		.loc 1 606 0
 826 0042 40F20312 		movw	r2, #259
 827 0046 283B     		subs	r3, r3, #40
 828 0048 1A80     		strh	r2, [r3]	@ movhi
 607:Generated_Source\PSoC5/cyfitter_cfg.c **** 		CY_SET_XTND_REG16((void CYFAR *)(CYREG_LUT3_CR), 0x0303u);
 829              		.loc 1 607 0
 830 004a 40F20332 		movw	r2, #771
 831 004e 0433     		adds	r3, r3, #4
 832 0050 1A80     		strh	r2, [r3]	@ movhi
 608:Generated_Source\PSoC5/cyfitter_cfg.c **** 		CYMEMZERO((void CYFAR *)(CYREG_PHUB_CFGMEM0_CFG0), 4u);
 833              		.loc 1 608 0
 834 0052 0421     		movs	r1, #4
 835 0054 3148     		ldr	r0, .L57+16
 836 0056 FFF7FEFF 		bl	CYMEMZERO
 837              	.LVL57:
 609:Generated_Source\PSoC5/cyfitter_cfg.c **** 		CYMEMZERO((void CYFAR *)(CYREG_PHUB_CFGMEM1_CFG0), 4u);
 838              		.loc 1 609 0
 839 005a 0421     		movs	r1, #4
 840 005c 3048     		ldr	r0, .L57+20
 841 005e FFF7FEFF 		bl	CYMEMZERO
 842              	.LVL58:
 610:Generated_Source\PSoC5/cyfitter_cfg.c **** 
 611:Generated_Source\PSoC5/cyfitter_cfg.c **** 		/* B1_P5_U0_CFG24 Starting address: CYDEV_UCFG_B1_P5_U0_CFG24 */
 612:Generated_Source\PSoC5/cyfitter_cfg.c **** 		CY_SET_XTND_REG32((void CYFAR *)(CYREG_B1_P5_U0_CFG24), 0x84040404u);
 843              		.loc 1 612 0
 844 0062 304A     		ldr	r2, .L57+24
 845 0064 304B     		ldr	r3, .L57+28
 846 0066 1A60     		str	r2, [r3]
 613:Generated_Source\PSoC5/cyfitter_cfg.c **** 
 614:Generated_Source\PSoC5/cyfitter_cfg.c **** 		/* Enable digital routing */
 615:Generated_Source\PSoC5/cyfitter_cfg.c **** 		CY_SET_XTND_REG8((void CYFAR *)CYREG_BCTL0_BANK_CTL, CY_GET_XTND_REG8((void CYFAR *)CYREG_BCTL0_B
 847              		.loc 1 615 0
 848 0068 304A     		ldr	r2, .L57+32
 849 006a 1378     		ldrb	r3, [r2]	@ zero_extendqisi2
 850 006c 43F00203 		orr	r3, r3, #2
 851 0070 1370     		strb	r3, [r2]
 616:Generated_Source\PSoC5/cyfitter_cfg.c **** 		CY_SET_XTND_REG8((void CYFAR *)CYREG_BCTL1_BANK_CTL, CY_GET_XTND_REG8((void CYFAR *)CYREG_BCTL1_B
 852              		.loc 1 616 0
ARM GAS  C:\Users\HENRIC~1\AppData\Local\Temp\ccev6Gq5.s 			page 27


 853 0072 1032     		adds	r2, r2, #16
 854 0074 1378     		ldrb	r3, [r2]	@ zero_extendqisi2
 855 0076 43F00203 		orr	r3, r3, #2
 856 007a 1370     		strb	r3, [r2]
 617:Generated_Source\PSoC5/cyfitter_cfg.c **** 
 618:Generated_Source\PSoC5/cyfitter_cfg.c **** 		/* Enable UDB array */
 619:Generated_Source\PSoC5/cyfitter_cfg.c **** 		CY_SET_XTND_REG8((void CYFAR *)CYREG_PM_ACT_CFG0, CY_GET_XTND_REG8((void CYFAR *)CYREG_PM_ACT_CFG
 857              		.loc 1 619 0
 858 007c 2C4C     		ldr	r4, .L57+36
 859              	.LVL59:
 860 007e 2378     		ldrb	r3, [r4]	@ zero_extendqisi2
 861 0080 43F04003 		orr	r3, r3, #64
 862 0084 2370     		strb	r3, [r4]
 620:Generated_Source\PSoC5/cyfitter_cfg.c **** 		CY_SET_XTND_REG8((void CYFAR *)CYREG_PM_AVAIL_CR2, CY_GET_XTND_REG8((void CYFAR *)CYREG_PM_AVAIL_
 863              		.loc 1 620 0
 864 0086 A2F58632 		sub	r2, r2, #68608
 865 008a 513A     		subs	r2, r2, #81
 866 008c 1378     		ldrb	r3, [r2]	@ zero_extendqisi2
 867 008e 43F01003 		orr	r3, r3, #16
 868 0092 1370     		strb	r3, [r2]
 869              	.LBE3:
 621:Generated_Source\PSoC5/cyfitter_cfg.c **** 	}
 622:Generated_Source\PSoC5/cyfitter_cfg.c **** 
 623:Generated_Source\PSoC5/cyfitter_cfg.c **** 
 624:Generated_Source\PSoC5/cyfitter_cfg.c **** 	/* Perform second pass device configuration. These items must be configured in specific order afte
 625:Generated_Source\PSoC5/cyfitter_cfg.c **** 	CYCONFIGCPY((void CYFAR *)(CYREG_PRT0_DM0), (const void CYFAR *)(BS_IOPINS0_0_VAL), 8u);
 870              		.loc 1 625 0
 871 0094 0822     		movs	r2, #8
 872 0096 2749     		ldr	r1, .L57+40
 873 0098 2748     		ldr	r0, .L57+44
 874 009a FFF7FEFF 		bl	CYCONFIGCPY
 875              	.LVL60:
 626:Generated_Source\PSoC5/cyfitter_cfg.c **** 	CYCONFIGCPY((void CYFAR *)(CYREG_PRT12_DM0), (const void CYFAR *)(BS_IOPINS0_7_VAL), 8u);
 876              		.loc 1 626 0
 877 009e 0822     		movs	r2, #8
 878 00a0 2649     		ldr	r1, .L57+48
 879 00a2 2748     		ldr	r0, .L57+52
 880 00a4 FFF7FEFF 		bl	CYCONFIGCPY
 881              	.LVL61:
 627:Generated_Source\PSoC5/cyfitter_cfg.c **** 	CYCONFIGCPY((void CYFAR *)(CYREG_PRT15_DR), (const void CYFAR *)(BS_IOPINS0_8_VAL), 10u);
 882              		.loc 1 627 0
 883 00a8 0A22     		movs	r2, #10
 884 00aa 2649     		ldr	r1, .L57+56
 885 00ac 2648     		ldr	r0, .L57+60
 886 00ae FFF7FEFF 		bl	CYCONFIGCPY
 887              	.LVL62:
 628:Generated_Source\PSoC5/cyfitter_cfg.c **** 	CYCONFIGCPY((void CYFAR *)(CYREG_PRT1_DM0), (const void CYFAR *)(BS_IOPINS0_1_VAL), 8u);
 888              		.loc 1 628 0
 889 00b2 0822     		movs	r2, #8
 890 00b4 2549     		ldr	r1, .L57+64
 891 00b6 2648     		ldr	r0, .L57+68
 892 00b8 FFF7FEFF 		bl	CYCONFIGCPY
 893              	.LVL63:
 629:Generated_Source\PSoC5/cyfitter_cfg.c **** 	CYCONFIGCPY((void CYFAR *)(CYREG_PRT2_DM0), (const void CYFAR *)(BS_IOPINS0_2_VAL), 8u);
 894              		.loc 1 629 0
 895 00bc 0822     		movs	r2, #8
 896 00be 2549     		ldr	r1, .L57+72
ARM GAS  C:\Users\HENRIC~1\AppData\Local\Temp\ccev6Gq5.s 			page 28


 897 00c0 2548     		ldr	r0, .L57+76
 898 00c2 FFF7FEFF 		bl	CYCONFIGCPY
 899              	.LVL64:
 630:Generated_Source\PSoC5/cyfitter_cfg.c **** 	CYCONFIGCPY((void CYFAR *)(CYREG_PRT3_DM0), (const void CYFAR *)(BS_IOPINS0_3_VAL), 8u);
 900              		.loc 1 630 0
 901 00c6 0822     		movs	r2, #8
 902 00c8 2449     		ldr	r1, .L57+80
 903 00ca 2548     		ldr	r0, .L57+84
 904 00cc FFF7FEFF 		bl	CYCONFIGCPY
 905              	.LVL65:
 631:Generated_Source\PSoC5/cyfitter_cfg.c **** 	CYCONFIGCPY((void CYFAR *)(CYREG_PRT5_DM0), (const void CYFAR *)(BS_IOPINS0_5_VAL), 8u);
 906              		.loc 1 631 0
 907 00d0 0822     		movs	r2, #8
 908 00d2 2449     		ldr	r1, .L57+88
 909 00d4 2448     		ldr	r0, .L57+92
 910 00d6 FFF7FEFF 		bl	CYCONFIGCPY
 911              	.LVL66:
 632:Generated_Source\PSoC5/cyfitter_cfg.c **** 	CYCONFIGCPY((void CYFAR *)(CYREG_PRT6_DM0), (const void CYFAR *)(BS_IOPINS0_6_VAL), 8u);
 912              		.loc 1 632 0
 913 00da 0822     		movs	r2, #8
 914 00dc 2349     		ldr	r1, .L57+96
 915 00de 2448     		ldr	r0, .L57+100
 916 00e0 FFF7FEFF 		bl	CYCONFIGCPY
 917              	.LVL67:
 633:Generated_Source\PSoC5/cyfitter_cfg.c **** 	/* Switch Boost to the precision bandgap reference from its internal reference */
 634:Generated_Source\PSoC5/cyfitter_cfg.c **** 	CY_SET_REG8((void CYXDATA *)CYREG_BOOST_CR2, (CY_GET_REG8((void CYXDATA *)CYREG_BOOST_CR2) | 0x08u
 918              		.loc 1 634 0
 919 00e4 234A     		ldr	r2, .L57+104
 920 00e6 1378     		ldrb	r3, [r2]	@ zero_extendqisi2
 921 00e8 43F00803 		orr	r3, r3, #8
 922 00ec 1370     		strb	r3, [r2]
 635:Generated_Source\PSoC5/cyfitter_cfg.c **** 
 636:Generated_Source\PSoC5/cyfitter_cfg.c **** 	/* Set Flash Cycles based on max possible frequency in case a glitch occurs during ClockSetup(). *
 637:Generated_Source\PSoC5/cyfitter_cfg.c **** 	CY_SET_XTND_REG8((void CYFAR *)(CYREG_CACHE_CC_CTL), (((CYDEV_INSTRUCT_CACHE_ENABLED) != 0) ? 0x01
 923              		.loc 1 637 0
 924 00ee 224D     		ldr	r5, .L57+108
 925 00f0 0123     		movs	r3, #1
 926 00f2 2B70     		strb	r3, [r5]
 638:Generated_Source\PSoC5/cyfitter_cfg.c **** 	/* Setup clocks based on selections from Clock DWR */
 639:Generated_Source\PSoC5/cyfitter_cfg.c **** 	ClockSetup();
 927              		.loc 1 639 0
 928 00f4 FFF7FEFF 		bl	ClockSetup
 929              	.LVL68:
 640:Generated_Source\PSoC5/cyfitter_cfg.c **** 	/* Set Flash Cycles based on newly configured 24.00MHz Bus Clock. */
 641:Generated_Source\PSoC5/cyfitter_cfg.c **** 	CY_SET_XTND_REG8((void CYFAR *)(CYREG_CACHE_CC_CTL), (((CYDEV_INSTRUCT_CACHE_ENABLED) != 0) ? 0x81
 930              		.loc 1 641 0
 931 00f8 8123     		movs	r3, #129
 932 00fa 2B70     		strb	r3, [r5]
 642:Generated_Source\PSoC5/cyfitter_cfg.c **** 
 643:Generated_Source\PSoC5/cyfitter_cfg.c **** 	/* Perform basic analog initialization to defaults */
 644:Generated_Source\PSoC5/cyfitter_cfg.c **** 	AnalogSetDefault();
 933              		.loc 1 644 0
 934 00fc FFF7FEFF 		bl	AnalogSetDefault
 935              	.LVL69:
 645:Generated_Source\PSoC5/cyfitter_cfg.c **** 
 646:Generated_Source\PSoC5/cyfitter_cfg.c **** 	/* Configure alternate active mode */
 647:Generated_Source\PSoC5/cyfitter_cfg.c **** 	CYCONFIGCPY((void CYFAR *)CYDEV_PM_STBY_BASE, (const void CYFAR *)CYDEV_PM_ACT_BASE, 14u);
ARM GAS  C:\Users\HENRIC~1\AppData\Local\Temp\ccev6Gq5.s 			page 29


 936              		.loc 1 647 0
 937 0100 0E22     		movs	r2, #14
 938 0102 2146     		mov	r1, r4
 939 0104 1D48     		ldr	r0, .L57+112
 940 0106 FFF7FEFF 		bl	CYCONFIGCPY
 941              	.LVL70:
 942 010a 38BD     		pop	{r3, r4, r5, pc}
 943              	.L58:
 944              		.align	2
 945              	.L57:
 946 010c E8460040 		.word	1073759976
 947 0110 00000000 		.word	.LANCHOR1
 948 0114 9C000048 		.word	1207959708
 949 0118 72580040 		.word	1073764466
 950 011c 00760040 		.word	1073772032
 951 0120 08760040 		.word	1073772040
 952 0124 04040484 		.word	-2080111612
 953 0128 581A0140 		.word	1073814104
 954 012c 03500140 		.word	1073827843
 955 0130 A0430040 		.word	1073759136
 956 0134 EC080048 		.word	1207961836
 957 0138 02510040 		.word	1073762562
 958 013c F4080048 		.word	1207961844
 959 0140 C2510040 		.word	1073762754
 960 0144 FC080048 		.word	1207961852
 961 0148 F0510040 		.word	1073762800
 962 014c 08090048 		.word	1207961864
 963 0150 12510040 		.word	1073762578
 964 0154 10090048 		.word	1207961872
 965 0158 22510040 		.word	1073762594
 966 015c 18090048 		.word	1207961880
 967 0160 32510040 		.word	1073762610
 968 0164 20090048 		.word	1207961888
 969 0168 52510040 		.word	1073762642
 970 016c 28090048 		.word	1207961896
 971 0170 62510040 		.word	1073762658
 972 0174 22430040 		.word	1073759010
 973 0178 00480040 		.word	1073760256
 974 017c B0430040 		.word	1073759152
 975              		.cfi_endproc
 976              	.LFE12:
 977              		.size	cyfitter_cfg, .-cyfitter_cfg
 978              		.global	CapSense_AMuxCH0__maskTable
 979              		.global	CapSense_AMuxCH0__addrTable
 980              		.section	.rodata
 981              		.align	2
 982              		.set	.LANCHOR1,. + 0
 983              		.type	HB_MUX__outerAddr, %object
 984              		.size	HB_MUX__outerAddr, 8
 985              	HB_MUX__outerAddr:
 986 0000 985A0040 		.word	1073765016
 987 0004 0D510040 		.word	1073762573
 988              		.type	HB_MUX__outerMask, %object
 989              		.size	HB_MUX__outerMask, 2
 990              	HB_MUX__outerMask:
 991 0008 10       		.byte	16
 992 0009 10       		.byte	16
ARM GAS  C:\Users\HENRIC~1\AppData\Local\Temp\ccev6Gq5.s 			page 30


 993 000a 0000     		.space	2
 994              		.type	HB_MUX__innerMap, %object
 995              		.size	HB_MUX__innerMap, 2
 996              	HB_MUX__innerMap:
 997 000c 0000     		.space	2
 998 000e 0000     		.space	2
 999              		.type	CapSense_AMuxCH0__addrTable, %object
 1000              		.size	CapSense_AMuxCH0__addrTable, 40
 1001              	CapSense_AMuxCH0__addrTable:
 1002 0010 5C510040 		.word	1073762652
 1003 0014 5C510040 		.word	1073762652
 1004 0018 5C510040 		.word	1073762652
 1005 001c 5C510040 		.word	1073762652
 1006 0020 5C510040 		.word	1073762652
 1007 0024 5C510040 		.word	1073762652
 1008 0028 5C510040 		.word	1073762652
 1009 002c 6C510040 		.word	1073762668
 1010 0030 CB5A0040 		.word	1073765067
 1011 0034 835A0040 		.word	1073764995
 1012              		.type	CapSense_AMuxCH0__maskTable, %object
 1013              		.size	CapSense_AMuxCH0__maskTable, 10
 1014              	CapSense_AMuxCH0__maskTable:
 1015 0038 20       		.byte	32
 1016 0039 40       		.byte	64
 1017 003a 01       		.byte	1
 1018 003b 02       		.byte	2
 1019 003c 04       		.byte	4
 1020 003d 08       		.byte	8
 1021 003e 10       		.byte	16
 1022 003f 10       		.byte	16
 1023 0040 01       		.byte	1
 1024 0041 10       		.byte	16
 1025 0042 0000     		.space	2
 1026              		.type	cfg_memset_list.5040, %object
 1027              		.size	cfg_memset_list.5040, 42
 1028              	cfg_memset_list.5040:
 1029 0044 004F0040 		.word	1073762048
 1030 0048 0C00     		.short	12
 1031 004a 40510040 		.4byte	1073762624
 1032 004e 1000     		.short	16
 1033 0050 00000140 		.word	1073807360
 1034 0054 0010     		.short	4096
 1035 0056 00140140 		.4byte	1073812480
 1036 005a 0008     		.short	2048
 1037 005c 00400140 		.word	1073823744
 1038 0060 000A     		.short	2560
 1039 0062 004C0140 		.4byte	1073826816
 1040 0066 0002     		.short	512
 1041 0068 00500140 		.word	1073827840
 1042 006c 2000     		.short	32
 1043              		.bss
 1044              		.align	2
 1045              		.set	.LANCHOR0,. + 0
 1046              		.type	HB_MUX__armsEnabled, %object
 1047              		.size	HB_MUX__armsEnabled, 1
 1048              	HB_MUX__armsEnabled:
 1049 0000 00       		.space	1
ARM GAS  C:\Users\HENRIC~1\AppData\Local\Temp\ccev6Gq5.s 			page 31


 1050 0001 000000   		.space	3
 1051              		.type	HB_MUX__refCnt, %object
 1052              		.size	HB_MUX__refCnt, 1
 1053              	HB_MUX__refCnt:
 1054 0004 00       		.space	1
 1055              		.text
 1056              	.Letext0:
 1057              		.file 2 "c:\\program files (x86)\\cypress\\psoc creator\\4.1\\psoc creator\\import\\gnu\\arm\\5.4.
 1058              		.file 3 "Generated_Source\\PSoC5\\cytypes.h"
 1059              		.file 4 "Generated_Source\\PSoC5\\CyLib.h"