ARM GAS  C:\Users\HENRIC~1\AppData\Local\Temp\ccxLr4vP.s 			page 1


   1              		.syntax unified
   2              		.cpu cortex-m3
   3              		.fpu softvfp
   4              		.eabi_attribute 20, 1
   5              		.eabi_attribute 21, 1
   6              		.eabi_attribute 23, 3
   7              		.eabi_attribute 24, 1
   8              		.eabi_attribute 25, 1
   9              		.eabi_attribute 26, 1
  10              		.eabi_attribute 30, 1
  11              		.eabi_attribute 34, 1
  12              		.eabi_attribute 18, 4
  13              		.thumb
  14              		.syntax unified
  15              		.file	"Fault.c"
  16              		.text
  17              	.Ltext0:
  18              		.cfi_sections	.debug_frame
  19              		.section	.text.fault_init,"ax",%progbits
  20              		.align	2
  21              		.global	fault_init
  22              		.thumb
  23              		.thumb_func
  24              		.type	fault_init, %function
  25              	fault_init:
  26              	.LFB63:
  27              		.file 1 "Fault.c"
   1:Fault.c       **** /**
   2:Fault.c       ****  * Fault
   3:Fault.c       ****  * @author Curt Henrichs
   4:Fault.c       ****  * @date 10-17-17
   5:Fault.c       ****  *
   6:Fault.c       ****  * Fault detection module will determine if any component have failed. If
   7:Fault.c       ****  * failure occured then the watchdog epxire unless system has entered a critical
   8:Fault.c       ****  * section, where then the main loop takes control of the watchdog.
   9:Fault.c       ****  */
  10:Fault.c       **** 
  11:Fault.c       **** //=============================================================================
  12:Fault.c       **** //                                  Libraries
  13:Fault.c       **** //=============================================================================
  14:Fault.c       ****  
  15:Fault.c       **** #include "Fault.h"
  16:Fault.c       **** #include <project.h>
  17:Fault.c       **** 
  18:Fault.c       **** //=============================================================================
  19:Fault.c       **** //                         Interrupt Handler Prototypes
  20:Fault.c       **** //=============================================================================
  21:Fault.c       **** 
  22:Fault.c       **** /**
  23:Fault.c       ****  * Fault Detection ISR triggered on watchdog feed timer overflow. ISR will 
  24:Fault.c       ****  * check for all possible faults and if a fault occurs, it will cause the
  25:Fault.c       ****  * system to reset.
  26:Fault.c       ****  */
  27:Fault.c       **** CY_ISR_PROTO(fault_detection_isr);
  28:Fault.c       **** 
  29:Fault.c       **** //=============================================================================
  30:Fault.c       **** //                             Private Attributes
ARM GAS  C:\Users\HENRIC~1\AppData\Local\Temp\ccxLr4vP.s 			page 2


  31:Fault.c       **** //=============================================================================
  32:Fault.c       **** 
  33:Fault.c       **** /**
  34:Fault.c       ****  * Flag to signal main program has entered a critical section where watchdog
  35:Fault.c       ****  * should not cause immediate reset.
  36:Fault.c       ****  */
  37:Fault.c       **** static volatile bool _critical_section = false;
  38:Fault.c       **** 
  39:Fault.c       **** //=============================================================================
  40:Fault.c       **** //                         Public Function Implementation
  41:Fault.c       **** //=============================================================================
  42:Fault.c       **** 
  43:Fault.c       **** /**
  44:Fault.c       ****  * Initialization function for fault detection software module
  45:Fault.c       ****  */
  46:Fault.c       **** void fault_init(void){
  28              		.loc 1 46 0
  29              		.cfi_startproc
  30              		@ args = 0, pretend = 0, frame = 0
  31              		@ frame_needed = 0, uses_anonymous_args = 0
  32 0000 08B5     		push	{r3, lr}
  33              		.cfi_def_cfa_offset 8
  34              		.cfi_offset 3, -8
  35              		.cfi_offset 14, -4
  47:Fault.c       ****     //start watchdog timer
  48:Fault.c       ****     Watchdog_Timer_Overflow_Int_StartEx(fault_detection_isr);
  36              		.loc 1 48 0
  37 0002 0548     		ldr	r0, .L3
  38 0004 FFF7FEFF 		bl	Watchdog_Timer_Overflow_Int_StartEx
  39              	.LVL0:
  49:Fault.c       ****     Watchdog_Timer_Start();
  40              		.loc 1 49 0
  41 0008 FFF7FEFF 		bl	Watchdog_Timer_Start
  42              	.LVL1:
  50:Fault.c       ****     
  51:Fault.c       ****     //start watchdog
  52:Fault.c       ****     CyWdtStart(CYWDT_128_TICKS,CYWDT_LPMODE_NOCHANGE);
  43              		.loc 1 52 0
  44 000c 0021     		movs	r1, #0
  45 000e 0220     		movs	r0, #2
  46 0010 FFF7FEFF 		bl	CyWdtStart
  47              	.LVL2:
  48 0014 08BD     		pop	{r3, pc}
  49              	.L4:
  50 0016 00BF     		.align	2
  51              	.L3:
  52 0018 00000000 		.word	fault_detection_isr
  53              		.cfi_endproc
  54              	.LFE63:
  55              		.size	fault_init, .-fault_init
  56              		.section	.text.fault_check_for_failure,"ax",%progbits
  57              		.align	2
  58              		.global	fault_check_for_failure
  59              		.thumb
  60              		.thumb_func
  61              		.type	fault_check_for_failure, %function
  62              	fault_check_for_failure:
ARM GAS  C:\Users\HENRIC~1\AppData\Local\Temp\ccxLr4vP.s 			page 3


  63              	.LFB64:
  53:Fault.c       **** }
  54:Fault.c       **** 
  55:Fault.c       **** /**
  56:Fault.c       ****  * Checks hardware signals noting component failure.
  57:Fault.c       ****  * @return true if a module has failed, false if module 
  58:Fault.c       ****  */
  59:Fault.c       **** bool fault_check_for_failure(void){
  64              		.loc 1 59 0
  65              		.cfi_startproc
  66              		@ args = 0, pretend = 0, frame = 0
  67              		@ frame_needed = 0, uses_anonymous_args = 0
  68 0000 08B5     		push	{r3, lr}
  69              		.cfi_def_cfa_offset 8
  70              		.cfi_offset 3, -8
  71              		.cfi_offset 14, -4
  60:Fault.c       ****     return  !(Heartbeat_COP_Read() && Motor_COP_Read() && UserInput_COP_Read());
  72              		.loc 1 60 0
  73 0002 FFF7FEFF 		bl	Heartbeat_COP_Read
  74              	.LVL3:
  75 0006 38B1     		cbz	r0, .L7
  76              		.loc 1 60 0 is_stmt 0 discriminator 2
  77 0008 FFF7FEFF 		bl	Motor_COP_Read
  78              	.LVL4:
  79 000c 30B1     		cbz	r0, .L8
  80              		.loc 1 60 0 discriminator 4
  81 000e FFF7FEFF 		bl	UserInput_COP_Read
  82              	.LVL5:
  83 0012 28B1     		cbz	r0, .L9
  84              		.loc 1 60 0
  85 0014 0020     		movs	r0, #0
  86 0016 08BD     		pop	{r3, pc}
  87              	.L7:
  88 0018 0120     		movs	r0, #1
  89 001a 08BD     		pop	{r3, pc}
  90              	.L8:
  91 001c 0120     		movs	r0, #1
  92 001e 08BD     		pop	{r3, pc}
  93              	.L9:
  94 0020 0120     		movs	r0, #1
  61:Fault.c       **** }
  95              		.loc 1 61 0 is_stmt 1
  96 0022 08BD     		pop	{r3, pc}
  97              		.cfi_endproc
  98              	.LFE64:
  99              		.size	fault_check_for_failure, .-fault_check_for_failure
 100              		.section	.text.fault_detection_isr,"ax",%progbits
 101              		.align	2
 102              		.global	fault_detection_isr
 103              		.thumb
 104              		.thumb_func
 105              		.type	fault_detection_isr, %function
 106              	fault_detection_isr:
 107              	.LFB67:
  62:Fault.c       **** 
  63:Fault.c       **** /**
  64:Fault.c       ****  * Generates the fault code associated to the components failed.
ARM GAS  C:\Users\HENRIC~1\AppData\Local\Temp\ccxLr4vP.s 			page 4


  65:Fault.c       ****  * result is a bit field that follows form
  66:Fault.c       ****  * b8 : 0
  67:Fault.c       ****  * b7 : 0
  68:Fault.c       ****  * b6 : 0
  69:Fault.c       ****  * b5 : 0
  70:Fault.c       ****  * b4 : 0
  71:Fault.c       ****  * b3 : 1 if input failed else 0
  72:Fault.c       ****  * b2 : 1 if motor failed else 0
  73:Fault.c       ****  * b1 : 1 if heartbeat failed else 0
  74:Fault.c       ****  * @return error code as detailed above
  75:Fault.c       ****  */
  76:Fault.c       **** uint8_t fault_code(void){
  77:Fault.c       ****     uint8_t code = 0x00;
  78:Fault.c       ****     code += (!Heartbeat_COP_Read()) << 0;
  79:Fault.c       ****     code += (!Motor_COP_Read()) << 1;
  80:Fault.c       ****     code += (!UserInput_COP_Read()) << 2;
  81:Fault.c       ****     return code;
  82:Fault.c       **** }
  83:Fault.c       **** 
  84:Fault.c       **** /**
  85:Fault.c       ****  * Signals to the fault module whether to supress watchdog expiration even if
  86:Fault.c       ****  * component has failed. Ideally used when main loop is interacting with the 
  87:Fault.c       ****  * motor, which needs to be slowly backed off.
  88:Fault.c       **** * @param s is boolean signaling to module whether if in critical section
  89:Fault.c       ****  */
  90:Fault.c       **** void fault_in_critical_section(bool s){
  91:Fault.c       ****     _critical_section = s;
  92:Fault.c       **** }
  93:Fault.c       **** 
  94:Fault.c       **** //=============================================================================
  95:Fault.c       **** //                       Interrupt Handler Implementation
  96:Fault.c       **** //=============================================================================
  97:Fault.c       **** 
  98:Fault.c       **** /**
  99:Fault.c       ****  * Fault Detection ISR triggered on watchdog feed timer overflow. ISR will 
 100:Fault.c       ****  * check for all possible faults and if a fault occurs, it will cause the
 101:Fault.c       ****  * system to reset.
 102:Fault.c       ****  */
 103:Fault.c       **** CY_ISR(fault_detection_isr){
 108              		.loc 1 103 0
 109              		.cfi_startproc
 110              		@ args = 0, pretend = 0, frame = 0
 111              		@ frame_needed = 0, uses_anonymous_args = 0
 112 0000 08B5     		push	{r3, lr}
 113              		.cfi_def_cfa_offset 8
 114              		.cfi_offset 3, -8
 115              		.cfi_offset 14, -4
 104:Fault.c       ****     
 105:Fault.c       ****     //feed watchdog only if no faults exist
 106:Fault.c       ****     if(!fault_check_for_failure() || _critical_section){
 116              		.loc 1 106 0
 117 0002 FFF7FEFF 		bl	fault_check_for_failure
 118              	.LVL6:
 119 0006 20B1     		cbz	r0, .L12
 120              		.loc 1 106 0 is_stmt 0 discriminator 1
 121 0008 054B     		ldr	r3, .L15
 122 000a 1B78     		ldrb	r3, [r3]	@ zero_extendqisi2
ARM GAS  C:\Users\HENRIC~1\AppData\Local\Temp\ccxLr4vP.s 			page 5


 123 000c 13F0FF0F 		tst	r3, #255
 124 0010 01D0     		beq	.L13
 125              	.L12:
 107:Fault.c       ****         CyWdtClear();
 126              		.loc 1 107 0 is_stmt 1
 127 0012 FFF7FEFF 		bl	CyWdtClear
 128              	.LVL7:
 129              	.L13:
 108:Fault.c       ****     }
 109:Fault.c       ****         
 110:Fault.c       ****     //clear source of interrupt
 111:Fault.c       ****     Watchdog_Timer_ReadStatusRegister();
 130              		.loc 1 111 0
 131 0016 FFF7FEFF 		bl	Watchdog_Timer_ReadStatusRegister
 132              	.LVL8:
 112:Fault.c       ****     Watchdog_Timer_Overflow_Int_ClearPending();
 133              		.loc 1 112 0
 134 001a FFF7FEFF 		bl	Watchdog_Timer_Overflow_Int_ClearPending
 135              	.LVL9:
 136 001e 08BD     		pop	{r3, pc}
 137              	.L16:
 138              		.align	2
 139              	.L15:
 140 0020 00000000 		.word	.LANCHOR0
 141              		.cfi_endproc
 142              	.LFE67:
 143              		.size	fault_detection_isr, .-fault_detection_isr
 144              		.section	.text.fault_code,"ax",%progbits
 145              		.align	2
 146              		.global	fault_code
 147              		.thumb
 148              		.thumb_func
 149              		.type	fault_code, %function
 150              	fault_code:
 151              	.LFB65:
  76:Fault.c       ****     uint8_t code = 0x00;
 152              		.loc 1 76 0
 153              		.cfi_startproc
 154              		@ args = 0, pretend = 0, frame = 0
 155              		@ frame_needed = 0, uses_anonymous_args = 0
 156 0000 10B5     		push	{r4, lr}
 157              		.cfi_def_cfa_offset 8
 158              		.cfi_offset 4, -8
 159              		.cfi_offset 14, -4
 160              	.LVL10:
  78:Fault.c       ****     code += (!Motor_COP_Read()) << 1;
 161              		.loc 1 78 0
 162 0002 FFF7FEFF 		bl	Heartbeat_COP_Read
 163              	.LVL11:
 164 0006 B0FA80F4 		clz	r4, r0
 165 000a 6409     		lsrs	r4, r4, #5
 166              	.LVL12:
  79:Fault.c       ****     code += (!UserInput_COP_Read()) << 2;
 167              		.loc 1 79 0
 168 000c FFF7FEFF 		bl	Motor_COP_Read
 169              	.LVL13:
 170 0010 08B9     		cbnz	r0, .L20
ARM GAS  C:\Users\HENRIC~1\AppData\Local\Temp\ccxLr4vP.s 			page 6


 171 0012 0220     		movs	r0, #2
 172 0014 00E0     		b	.L18
 173              	.L20:
 174 0016 0020     		movs	r0, #0
 175              	.L18:
  79:Fault.c       ****     code += (!UserInput_COP_Read()) << 2;
 176              		.loc 1 79 0 is_stmt 0 discriminator 4
 177 0018 0444     		add	r4, r4, r0
 178              	.LVL14:
  80:Fault.c       ****     return code;
 179              		.loc 1 80 0 is_stmt 1 discriminator 4
 180 001a FFF7FEFF 		bl	UserInput_COP_Read
 181              	.LVL15:
 182 001e 08B9     		cbnz	r0, .L21
  80:Fault.c       ****     return code;
 183              		.loc 1 80 0 is_stmt 0
 184 0020 0420     		movs	r0, #4
 185 0022 00E0     		b	.L19
 186              	.L21:
 187 0024 0020     		movs	r0, #0
 188              	.L19:
  80:Fault.c       ****     return code;
 189              		.loc 1 80 0 discriminator 4
 190 0026 2044     		add	r0, r0, r4
 191              	.LVL16:
  82:Fault.c       **** 
 192              		.loc 1 82 0 is_stmt 1 discriminator 4
 193 0028 C0B2     		uxtb	r0, r0
 194 002a 10BD     		pop	{r4, pc}
 195              		.cfi_endproc
 196              	.LFE65:
 197              		.size	fault_code, .-fault_code
 198              		.section	.text.fault_in_critical_section,"ax",%progbits
 199              		.align	2
 200              		.global	fault_in_critical_section
 201              		.thumb
 202              		.thumb_func
 203              		.type	fault_in_critical_section, %function
 204              	fault_in_critical_section:
 205              	.LFB66:
  90:Fault.c       ****     _critical_section = s;
 206              		.loc 1 90 0
 207              		.cfi_startproc
 208              		@ args = 0, pretend = 0, frame = 0
 209              		@ frame_needed = 0, uses_anonymous_args = 0
 210              		@ link register save eliminated.
 211              	.LVL17:
  91:Fault.c       **** }
 212              		.loc 1 91 0
 213 0000 014B     		ldr	r3, .L24
 214 0002 1870     		strb	r0, [r3]
 215 0004 7047     		bx	lr
 216              	.L25:
 217 0006 00BF     		.align	2
 218              	.L24:
 219 0008 00000000 		.word	.LANCHOR0
 220              		.cfi_endproc
ARM GAS  C:\Users\HENRIC~1\AppData\Local\Temp\ccxLr4vP.s 			page 7


 221              	.LFE66:
 222              		.size	fault_in_critical_section, .-fault_in_critical_section
 223              		.bss
 224              		.set	.LANCHOR0,. + 0
 225              		.type	_critical_section, %object
 226              		.size	_critical_section, 1
 227              	_critical_section:
 228 0000 00       		.space	1
 229              		.text
 230              	.Letext0:
 231              		.file 2 "c:\\program files (x86)\\cypress\\psoc creator\\4.1\\psoc creator\\import\\gnu\\arm\\5.4.
 232              		.file 3 "c:\\program files (x86)\\cypress\\psoc creator\\4.1\\psoc creator\\import\\gnu\\arm\\5.4.
 233              		.file 4 "Generated_Source\\PSoC5/Watchdog_Timer_Overflow_Int.h"
 234              		.file 5 "Generated_Source\\PSoC5/Watchdog_Timer.h"
 235              		.file 6 "Generated_Source\\PSoC5/CyLib.h"
 236              		.file 7 "Generated_Source\\PSoC5/Heartbeat_COP.h"
 237              		.file 8 "Generated_Source\\PSoC5/Motor_COP.h"
 238              		.file 9 "Generated_Source\\PSoC5/UserInput_COP.h"
 239              		.file 10 "Generated_Source\\PSoC5/core_cm3.h"