ARM GAS  C:\Users\HENRIC~1\AppData\Local\Temp\cc0Xnvti.s 			page 1


   1              		.syntax unified
   2              		.cpu cortex-m3
   3              		.fpu softvfp
   4              		.eabi_attribute 20, 1
   5              		.eabi_attribute 21, 1
   6              		.eabi_attribute 23, 3
   7              		.eabi_attribute 24, 1
   8              		.eabi_attribute 25, 1
   9              		.eabi_attribute 26, 1
  10              		.eabi_attribute 30, 1
  11              		.eabi_attribute 34, 1
  12              		.eabi_attribute 18, 4
  13              		.thumb
  14              		.syntax unified
  15              		.file	"Music.c"
  16              		.text
  17              	.Ltext0:
  18              		.cfi_sections	.debug_frame
  19              		.section	.text.music_isr,"ax",%progbits
  20              		.align	2
  21              		.global	music_isr
  22              		.thumb
  23              		.thumb_func
  24              		.type	music_isr, %function
  25              	music_isr:
  26              	.LFB67:
  27              		.file 1 "Music.c"
   1:Music.c       **** /**
   2:Music.c       ****  * Music
   3:Music.c       ****  * @author Curt Henrichs
   4:Music.c       ****  * @date 9-10-17
   5:Music.c       ****  * 
   6:Music.c       ****  * Music module provides interface to the Piezo buzzer hardware to produce
   7:Music.c       ****  * frequency modulated, variable duration waveforms. An object is developed
   8:Music.c       ****  * to interface with the hardware and create music arrays. Finally all 
   9:Music.c       ****  * operations return control quickly to the caller as the hardware uses
  10:Music.c       ****  * interruts to handle note clockout.
  11:Music.c       ****  */
  12:Music.c       **** 
  13:Music.c       **** //=============================================================================
  14:Music.c       **** //                                  Libraries
  15:Music.c       **** //=============================================================================
  16:Music.c       **** 
  17:Music.c       **** #include "Music.h"
  18:Music.c       **** #include <project.h>
  19:Music.c       **** 
  20:Music.c       **** //=============================================================================
  21:Music.c       **** //                        Constant and Macro Defintions
  22:Music.c       **** //=============================================================================
  23:Music.c       **** 
  24:Music.c       **** #define TONE_F_CLK_FREQ_IN 40000    //! Clock frequency that is divided for out
  25:Music.c       **** 
  26:Music.c       **** //=============================================================================
  27:Music.c       **** //                             Private Attributes
  28:Music.c       **** //=============================================================================
  29:Music.c       **** 
  30:Music.c       **** static const Note_t* _current_buffer = NULL; //! Music buffer association
ARM GAS  C:\Users\HENRIC~1\AppData\Local\Temp\cc0Xnvti.s 			page 2


  31:Music.c       **** static uint32_t _current_buffer_length = 0;  //! Size of buffer
  32:Music.c       **** static uint32_t _current_buffer_index = 0;   //! Index into buffer clockout
  33:Music.c       **** 
  34:Music.c       **** //=============================================================================
  35:Music.c       **** //                         Interrupt Handler Prototypes
  36:Music.c       **** //=============================================================================
  37:Music.c       **** 
  38:Music.c       **** /**
  39:Music.c       ****  * Music note clock out ISR is linked to the duration counter. Only active
  40:Music.c       ****  * when music is actively being played
  41:Music.c       ****  */
  42:Music.c       **** CY_ISR_PROTO(music_isr);
  43:Music.c       **** 
  44:Music.c       **** //=============================================================================
  45:Music.c       **** //                        Public Function Implementation
  46:Music.c       **** //=============================================================================
  47:Music.c       **** 
  48:Music.c       **** /**
  49:Music.c       ****  * Initalization function will start hardware, set ISRs for hardware, and
  50:Music.c       ****  * set internal data structures for playback.
  51:Music.c       ****  */
  52:Music.c       **** void music_init(void){
  53:Music.c       ****     Tone_F_Start();
  54:Music.c       ****     Tone_F_WriteCompare(0);
  55:Music.c       ****     Tone_D_Start();
  56:Music.c       ****     Tone_D_Stop(); //sets up hardware but then disables timer
  57:Music.c       ****     Tone_Int_StartEx(music_isr);
  58:Music.c       **** }
  59:Music.c       **** 
  60:Music.c       **** /**
  61:Music.c       ****  * Sets a tune to play. This is a non-blocking function so that other things
  62:Music.c       ****  * may happen. Most of the music generation is in hardware but a periodic 
  63:Music.c       ****  * interrupt is needed to update notes.
  64:Music.c       ****  * @param buffer is array of notes to play on the buzzer
  65:Music.c       ****  * @param length is the number of Notes in the buffer to play
  66:Music.c       ****  */
  67:Music.c       **** void music_set_tune(const Note_t* buffer, uint32_t length){
  68:Music.c       ****     Tone_Int_Disable();
  69:Music.c       ****     
  70:Music.c       ****     //copy buffer location for playback
  71:Music.c       ****     _current_buffer = buffer;
  72:Music.c       ****     _current_buffer_length = length;
  73:Music.c       ****     _current_buffer_index = 0;
  74:Music.c       ****     
  75:Music.c       ****     //set up timer counter
  76:Music.c       ****     Tone_D_WritePeriod(1);
  77:Music.c       ****     Tone_D_WriteCounter(0);
  78:Music.c       ****     Tone_Int_Enable();
  79:Music.c       ****     Tone_D_Start();
  80:Music.c       **** }
  81:Music.c       **** 
  82:Music.c       **** /**
  83:Music.c       ****  * Checks to see if the music is still playing
  84:Music.c       ****  * @return 1 if music is playing else 0
  85:Music.c       ****  */
  86:Music.c       **** uint8_t music_is_playing(void){
  87:Music.c       ****     return _current_buffer != NULL;   
ARM GAS  C:\Users\HENRIC~1\AppData\Local\Temp\cc0Xnvti.s 			page 3


  88:Music.c       **** }
  89:Music.c       **** 
  90:Music.c       **** /**
  91:Music.c       ****  * Stops the music from playing then clears the music buffer assoication
  92:Music.c       ****  */
  93:Music.c       **** void music_stop_playing(void){
  94:Music.c       ****     _current_buffer = NULL;
  95:Music.c       ****     Tone_F_WriteCompare(0);
  96:Music.c       ****     Tone_D_Stop();
  97:Music.c       **** }
  98:Music.c       **** 
  99:Music.c       **** //=============================================================================
 100:Music.c       **** //                       Interrupt Handler Implementation
 101:Music.c       **** //=============================================================================
 102:Music.c       **** 
 103:Music.c       **** /**
 104:Music.c       ****  * Music note clock out ISR is linked to the duration counter. Only active
 105:Music.c       ****  * when music is actively being played
 106:Music.c       ****  */
 107:Music.c       **** CY_ISR(music_isr){
  28              		.loc 1 107 0
  29              		.cfi_startproc
  30              		@ args = 0, pretend = 0, frame = 0
  31              		@ frame_needed = 0, uses_anonymous_args = 0
  32 0000 10B5     		push	{r4, lr}
  33              		.cfi_def_cfa_offset 8
  34              		.cfi_offset 4, -8
  35              		.cfi_offset 14, -4
 108:Music.c       ****     static uint16_t freq = 0;
 109:Music.c       ****     static uint16_t per = 0;
 110:Music.c       ****     static uint16_t cmp = 0;
 111:Music.c       ****     static uint16_t dur  = 0;
 112:Music.c       ****     
 113:Music.c       ****     //play next note
 114:Music.c       ****     Tone_D_Stop();
  36              		.loc 1 114 0
  37 0002 FFF7FEFF 		bl	Tone_D_Stop
  38              	.LVL0:
 115:Music.c       ****     if(_current_buffer != NULL){
  39              		.loc 1 115 0
  40 0006 1B4B     		ldr	r3, .L8
  41 0008 1A68     		ldr	r2, [r3]
  42 000a 72B3     		cbz	r2, .L2
 116:Music.c       ****         if(_current_buffer_index >= _current_buffer_length){
  43              		.loc 1 116 0
  44 000c 1946     		mov	r1, r3
  45 000e 5B68     		ldr	r3, [r3, #4]
  46 0010 8968     		ldr	r1, [r1, #8]
  47 0012 8B42     		cmp	r3, r1
  48 0014 07D3     		bcc	.L3
 117:Music.c       ****             //end of tune
 118:Music.c       ****             _current_buffer = NULL;
  49              		.loc 1 118 0
  50 0016 0020     		movs	r0, #0
  51 0018 164B     		ldr	r3, .L8
  52 001a 1860     		str	r0, [r3]
 119:Music.c       ****             Tone_F_WriteCompare(0);
ARM GAS  C:\Users\HENRIC~1\AppData\Local\Temp\cc0Xnvti.s 			page 4


  53              		.loc 1 119 0
  54 001c FFF7FEFF 		bl	Tone_F_WriteCompare
  55              	.LVL1:
 120:Music.c       ****             Tone_D_Stop();
  56              		.loc 1 120 0
  57 0020 FFF7FEFF 		bl	Tone_D_Stop
  58              	.LVL2:
  59 0024 21E0     		b	.L2
  60              	.L3:
 121:Music.c       ****         }else{
 122:Music.c       ****             //play for current frequency and duration
 123:Music.c       ****             freq = _current_buffer[_current_buffer_index].frequency;
  61              		.loc 1 123 0
  62 0026 02EB8301 		add	r1, r2, r3, lsl #2
  63 002a 32F82320 		ldrh	r2, [r2, r3, lsl #2]
 124:Music.c       ****             per = TONE_F_CLK_FREQ_IN / ((freq > 0)? freq : 1);
  64              		.loc 1 124 0
  65 002e 22B1     		cbz	r2, .L6
  66              		.loc 1 124 0 is_stmt 0 discriminator 1
  67 0030 49F64040 		movw	r0, #40000
  68 0034 90FBF2F0 		sdiv	r0, r0, r2
  69 0038 01E0     		b	.L4
  70              	.L6:
  71              		.loc 1 124 0
  72 003a 49F64040 		movw	r0, #40000
  73              	.L4:
 125:Music.c       ****             cmp = (freq > 0) ? per / 2 : 0;
  74              		.loc 1 125 0 is_stmt 1 discriminator 4
  75 003e 0AB1     		cbz	r2, .L5
  76              		.loc 1 125 0 is_stmt 0 discriminator 1
  77 0040 C0F34F02 		ubfx	r2, r0, #1, #16
  78              	.L5:
  79              		.loc 1 125 0 discriminator 4
  80 0044 0B4C     		ldr	r4, .L8
  81 0046 A281     		strh	r2, [r4, #12]	@ movhi
 126:Music.c       ****             dur = _current_buffer[_current_buffer_index].duration;
  82              		.loc 1 126 0 is_stmt 1 discriminator 4
  83 0048 4A88     		ldrh	r2, [r1, #2]
  84 004a E281     		strh	r2, [r4, #14]	@ movhi
 127:Music.c       ****             _current_buffer_index++;
  85              		.loc 1 127 0 discriminator 4
  86 004c 0133     		adds	r3, r3, #1
  87 004e 6360     		str	r3, [r4, #4]
 128:Music.c       ****             
 129:Music.c       ****             Tone_F_WritePeriod(per);
  88              		.loc 1 129 0 discriminator 4
  89 0050 FFF7FEFF 		bl	Tone_F_WritePeriod
  90              	.LVL3:
 130:Music.c       ****             Tone_F_WriteCompare(cmp);
  91              		.loc 1 130 0 discriminator 4
  92 0054 A089     		ldrh	r0, [r4, #12]
  93 0056 FFF7FEFF 		bl	Tone_F_WriteCompare
  94              	.LVL4:
 131:Music.c       ****             Tone_D_WritePeriod(dur);
  95              		.loc 1 131 0 discriminator 4
  96 005a E089     		ldrh	r0, [r4, #14]
  97 005c FFF7FEFF 		bl	Tone_D_WritePeriod
ARM GAS  C:\Users\HENRIC~1\AppData\Local\Temp\cc0Xnvti.s 			page 5


  98              	.LVL5:
 132:Music.c       ****             Tone_D_WriteCounter(0);
  99              		.loc 1 132 0 discriminator 4
 100 0060 0020     		movs	r0, #0
 101 0062 FFF7FEFF 		bl	Tone_D_WriteCounter
 102              	.LVL6:
 133:Music.c       ****             Tone_D_Start();
 103              		.loc 1 133 0 discriminator 4
 104 0066 FFF7FEFF 		bl	Tone_D_Start
 105              	.LVL7:
 106              	.L2:
 134:Music.c       ****         }
 135:Music.c       ****     }
 136:Music.c       ****     Tone_D_ReadStatusRegister();
 107              		.loc 1 136 0
 108 006a FFF7FEFF 		bl	Tone_D_ReadStatusRegister
 109              	.LVL8:
 137:Music.c       ****     Tone_Int_ClearPending();
 110              		.loc 1 137 0
 111 006e FFF7FEFF 		bl	Tone_Int_ClearPending
 112              	.LVL9:
 113 0072 10BD     		pop	{r4, pc}
 114              	.L9:
 115              		.align	2
 116              	.L8:
 117 0074 00000000 		.word	.LANCHOR0
 118              		.cfi_endproc
 119              	.LFE67:
 120              		.size	music_isr, .-music_isr
 121              		.section	.text.music_init,"ax",%progbits
 122              		.align	2
 123              		.global	music_init
 124              		.thumb
 125              		.thumb_func
 126              		.type	music_init, %function
 127              	music_init:
 128              	.LFB63:
  52:Music.c       ****     Tone_F_Start();
 129              		.loc 1 52 0
 130              		.cfi_startproc
 131              		@ args = 0, pretend = 0, frame = 0
 132              		@ frame_needed = 0, uses_anonymous_args = 0
 133 0000 08B5     		push	{r3, lr}
 134              		.cfi_def_cfa_offset 8
 135              		.cfi_offset 3, -8
 136              		.cfi_offset 14, -4
  53:Music.c       ****     Tone_F_WriteCompare(0);
 137              		.loc 1 53 0
 138 0002 FFF7FEFF 		bl	Tone_F_Start
 139              	.LVL10:
  54:Music.c       ****     Tone_D_Start();
 140              		.loc 1 54 0
 141 0006 0020     		movs	r0, #0
 142 0008 FFF7FEFF 		bl	Tone_F_WriteCompare
 143              	.LVL11:
  55:Music.c       ****     Tone_D_Stop(); //sets up hardware but then disables timer
 144              		.loc 1 55 0
ARM GAS  C:\Users\HENRIC~1\AppData\Local\Temp\cc0Xnvti.s 			page 6


 145 000c FFF7FEFF 		bl	Tone_D_Start
 146              	.LVL12:
  56:Music.c       ****     Tone_Int_StartEx(music_isr);
 147              		.loc 1 56 0
 148 0010 FFF7FEFF 		bl	Tone_D_Stop
 149              	.LVL13:
  57:Music.c       **** }
 150              		.loc 1 57 0
 151 0014 0148     		ldr	r0, .L12
 152 0016 FFF7FEFF 		bl	Tone_Int_StartEx
 153              	.LVL14:
 154 001a 08BD     		pop	{r3, pc}
 155              	.L13:
 156              		.align	2
 157              	.L12:
 158 001c 00000000 		.word	music_isr
 159              		.cfi_endproc
 160              	.LFE63:
 161              		.size	music_init, .-music_init
 162              		.section	.text.music_set_tune,"ax",%progbits
 163              		.align	2
 164              		.global	music_set_tune
 165              		.thumb
 166              		.thumb_func
 167              		.type	music_set_tune, %function
 168              	music_set_tune:
 169              	.LFB64:
  67:Music.c       ****     Tone_Int_Disable();
 170              		.loc 1 67 0
 171              		.cfi_startproc
 172              		@ args = 0, pretend = 0, frame = 0
 173              		@ frame_needed = 0, uses_anonymous_args = 0
 174              	.LVL15:
 175 0000 38B5     		push	{r3, r4, r5, lr}
 176              		.cfi_def_cfa_offset 16
 177              		.cfi_offset 3, -16
 178              		.cfi_offset 4, -12
 179              		.cfi_offset 5, -8
 180              		.cfi_offset 14, -4
 181 0002 0546     		mov	r5, r0
 182 0004 0C46     		mov	r4, r1
  68:Music.c       ****     
 183              		.loc 1 68 0
 184 0006 FFF7FEFF 		bl	Tone_Int_Disable
 185              	.LVL16:
  71:Music.c       ****     _current_buffer_length = length;
 186              		.loc 1 71 0
 187 000a 084B     		ldr	r3, .L16
 188 000c 1D60     		str	r5, [r3]
  72:Music.c       ****     _current_buffer_index = 0;
 189              		.loc 1 72 0
 190 000e 9C60     		str	r4, [r3, #8]
  73:Music.c       ****     
 191              		.loc 1 73 0
 192 0010 0024     		movs	r4, #0
 193              	.LVL17:
 194 0012 5C60     		str	r4, [r3, #4]
ARM GAS  C:\Users\HENRIC~1\AppData\Local\Temp\cc0Xnvti.s 			page 7


  76:Music.c       ****     Tone_D_WriteCounter(0);
 195              		.loc 1 76 0
 196 0014 0120     		movs	r0, #1
 197 0016 FFF7FEFF 		bl	Tone_D_WritePeriod
 198              	.LVL18:
  77:Music.c       ****     Tone_Int_Enable();
 199              		.loc 1 77 0
 200 001a 2046     		mov	r0, r4
 201 001c FFF7FEFF 		bl	Tone_D_WriteCounter
 202              	.LVL19:
  78:Music.c       ****     Tone_D_Start();
 203              		.loc 1 78 0
 204 0020 FFF7FEFF 		bl	Tone_Int_Enable
 205              	.LVL20:
  79:Music.c       **** }
 206              		.loc 1 79 0
 207 0024 FFF7FEFF 		bl	Tone_D_Start
 208              	.LVL21:
 209 0028 38BD     		pop	{r3, r4, r5, pc}
 210              	.LVL22:
 211              	.L17:
 212 002a 00BF     		.align	2
 213              	.L16:
 214 002c 00000000 		.word	.LANCHOR0
 215              		.cfi_endproc
 216              	.LFE64:
 217              		.size	music_set_tune, .-music_set_tune
 218              		.section	.text.music_is_playing,"ax",%progbits
 219              		.align	2
 220              		.global	music_is_playing
 221              		.thumb
 222              		.thumb_func
 223              		.type	music_is_playing, %function
 224              	music_is_playing:
 225              	.LFB65:
  86:Music.c       ****     return _current_buffer != NULL;   
 226              		.loc 1 86 0
 227              		.cfi_startproc
 228              		@ args = 0, pretend = 0, frame = 0
 229              		@ frame_needed = 0, uses_anonymous_args = 0
 230              		@ link register save eliminated.
  87:Music.c       **** }
 231              		.loc 1 87 0
 232 0000 024B     		ldr	r3, .L19
 233 0002 1868     		ldr	r0, [r3]
  88:Music.c       **** 
 234              		.loc 1 88 0
 235 0004 0030     		adds	r0, r0, #0
 236 0006 18BF     		it	ne
 237 0008 0120     		movne	r0, #1
 238 000a 7047     		bx	lr
 239              	.L20:
 240              		.align	2
 241              	.L19:
 242 000c 00000000 		.word	.LANCHOR0
 243              		.cfi_endproc
 244              	.LFE65:
ARM GAS  C:\Users\HENRIC~1\AppData\Local\Temp\cc0Xnvti.s 			page 8


 245              		.size	music_is_playing, .-music_is_playing
 246              		.section	.text.music_stop_playing,"ax",%progbits
 247              		.align	2
 248              		.global	music_stop_playing
 249              		.thumb
 250              		.thumb_func
 251              		.type	music_stop_playing, %function
 252              	music_stop_playing:
 253              	.LFB66:
  93:Music.c       ****     _current_buffer = NULL;
 254              		.loc 1 93 0
 255              		.cfi_startproc
 256              		@ args = 0, pretend = 0, frame = 0
 257              		@ frame_needed = 0, uses_anonymous_args = 0
 258 0000 08B5     		push	{r3, lr}
 259              		.cfi_def_cfa_offset 8
 260              		.cfi_offset 3, -8
 261              		.cfi_offset 14, -4
  94:Music.c       ****     Tone_F_WriteCompare(0);
 262              		.loc 1 94 0
 263 0002 0020     		movs	r0, #0
 264 0004 034B     		ldr	r3, .L23
 265 0006 1860     		str	r0, [r3]
  95:Music.c       ****     Tone_D_Stop();
 266              		.loc 1 95 0
 267 0008 FFF7FEFF 		bl	Tone_F_WriteCompare
 268              	.LVL23:
  96:Music.c       **** }
 269              		.loc 1 96 0
 270 000c FFF7FEFF 		bl	Tone_D_Stop
 271              	.LVL24:
 272 0010 08BD     		pop	{r3, pc}
 273              	.L24:
 274 0012 00BF     		.align	2
 275              	.L23:
 276 0014 00000000 		.word	.LANCHOR0
 277              		.cfi_endproc
 278              	.LFE66:
 279              		.size	music_stop_playing, .-music_stop_playing
 280              		.bss
 281              		.align	2
 282              		.set	.LANCHOR0,. + 0
 283              		.type	_current_buffer, %object
 284              		.size	_current_buffer, 4
 285              	_current_buffer:
 286 0000 00000000 		.space	4
 287              		.type	_current_buffer_index, %object
 288              		.size	_current_buffer_index, 4
 289              	_current_buffer_index:
 290 0004 00000000 		.space	4
 291              		.type	_current_buffer_length, %object
 292              		.size	_current_buffer_length, 4
 293              	_current_buffer_length:
 294 0008 00000000 		.space	4
 295              		.type	cmp.7054, %object
 296              		.size	cmp.7054, 2
 297              	cmp.7054:
ARM GAS  C:\Users\HENRIC~1\AppData\Local\Temp\cc0Xnvti.s 			page 9


 298 000c 0000     		.space	2
 299              		.type	dur.7055, %object
 300              		.size	dur.7055, 2
 301              	dur.7055:
 302 000e 0000     		.space	2
 303              		.text
 304              	.Letext0:
 305              		.file 2 "c:\\program files (x86)\\cypress\\psoc creator\\4.1\\psoc creator\\import\\gnu\\arm\\5.4.
 306              		.file 3 "c:\\program files (x86)\\cypress\\psoc creator\\4.1\\psoc creator\\import\\gnu\\arm\\5.4.
 307              		.file 4 "Music.h"
 308              		.file 5 "Generated_Source\\PSoC5/Tone_D.h"
 309              		.file 6 "Generated_Source\\PSoC5/Tone_F.h"
 310              		.file 7 "Generated_Source\\PSoC5/Tone_Int.h"
 311              		.file 8 "Generated_Source\\PSoC5/core_cm3.h"