ARM GAS  C:\Users\HENRIC~1\AppData\Local\Temp\ccRsv9Lg.s 			page 1


   1              		.syntax unified
   2              		.cpu cortex-m3
   3              		.fpu softvfp
   4              		.eabi_attribute 20, 1
   5              		.eabi_attribute 21, 1
   6              		.eabi_attribute 23, 3
   7              		.eabi_attribute 24, 1
   8              		.eabi_attribute 25, 1
   9              		.eabi_attribute 26, 1
  10              		.eabi_attribute 30, 1
  11              		.eabi_attribute 34, 1
  12              		.eabi_attribute 18, 4
  13              		.thumb
  14              		.syntax unified
  15              		.file	"Display.c"
  16              		.text
  17              	.Ltext0:
  18              		.cfi_sections	.debug_frame
  19              		.section	.text._fill_blocks,"ax",%progbits
  20              		.align	2
  21              		.thumb
  22              		.thumb_func
  23              		.type	_fill_blocks, %function
  24              	_fill_blocks:
  25              	.LFB69:
  26              		.file 1 "Display.c"
   1:Display.c     **** /**
   2:Display.c     ****  * Display
   3:Display.c     ****  * @author Curt Henrichs
   4:Display.c     ****  * @date 9-10-17
   5:Display.c     ****  *
   6:Display.c     ****  * Display module abstracts the LCD interface into general high level messages
   7:Display.c     ****  * for user. All functions that rely on low level interface should be 
   8:Display.c     ****  * implemented in this module.
   9:Display.c     ****  */
  10:Display.c     **** 
  11:Display.c     **** //=============================================================================
  12:Display.c     **** //                                  Libraries
  13:Display.c     **** //=============================================================================
  14:Display.c     **** 
  15:Display.c     **** #include "Display.h"
  16:Display.c     **** #include <project.h>
  17:Display.c     **** #include <stdint.h>
  18:Display.c     **** #include <stdio.h>
  19:Display.c     **** 
  20:Display.c     **** //=============================================================================
  21:Display.c     **** //                         Constant and Macro Defintions
  22:Display.c     **** //=============================================================================
  23:Display.c     **** 
  24:Display.c     **** #define BLOCK_CHAR  LCD_CUSTOM_0 //! Custom Block Character for top row
  25:Display.c     **** #define FILL_TO_MSG_DELAY_TIME 250 //! time to transition in welcome message
  26:Display.c     **** 
  27:Display.c     **** //=============================================================================
  28:Display.c     **** //                         Private Function Prototypes
  29:Display.c     **** //=============================================================================
  30:Display.c     **** 
  31:Display.c     **** /**
ARM GAS  C:\Users\HENRIC~1\AppData\Local\Temp\ccRsv9Lg.s 			page 2


  32:Display.c     ****  * Fills the screen with blocks for startup to representing the loading to
  33:Display.c     ****  * the user.
  34:Display.c     ****  */
  35:Display.c     **** static void _fill_blocks(void);
  36:Display.c     **** /**
  37:Display.c     ****  * Welcome message displayed to the user 
  38:Display.c     ****  */
  39:Display.c     **** static void _welcome_msg(void);
  40:Display.c     **** 
  41:Display.c     **** //=============================================================================
  42:Display.c     **** //                        Public Function Implementation
  43:Display.c     **** //=============================================================================
  44:Display.c     **** 
  45:Display.c     **** /**
  46:Display.c     ****  * Intialization function for display module starts hardware
  47:Display.c     ****  */
  48:Display.c     **** void display_init(void){
  49:Display.c     ****     LCD_Start();
  50:Display.c     **** }
  51:Display.c     **** 
  52:Display.c     **** /**
  53:Display.c     ****  * Displays welcome message to the user, intended for startup of the module
  54:Display.c     ****  */
  55:Display.c     **** void display_welcome(void){
  56:Display.c     ****     _fill_blocks();
  57:Display.c     ****     display_clear();
  58:Display.c     ****     CyDelay(FILL_TO_MSG_DELAY_TIME);
  59:Display.c     ****     _welcome_msg();
  60:Display.c     **** }
  61:Display.c     **** 
  62:Display.c     **** /**
  63:Display.c     ****  * Displays the profile menu title screen to explain process to user
  64:Display.c     ****  */
  65:Display.c     **** void display_profile_title(void){
  66:Display.c     ****     display_clear();
  67:Display.c     ****     LCD_Position(0,0);
  68:Display.c     ****     LCD_PrintString("Profile Menu");
  69:Display.c     ****     LCD_Position(1,0);
  70:Display.c     ****     LCD_PrintString("Select L, Next R");
  71:Display.c     **** }
  72:Display.c     **** 
  73:Display.c     **** /**
  74:Display.c     ****  * Displays a general profile page used for both selection and operation
  75:Display.c     ****  * display purposes
  76:Display.c     ****  * @param name is Profile name string
  77:Display.c     ****  * @param detail is second line string for specific details for profile
  78:Display.c     ****  */
  79:Display.c     **** void display_profile(const char* name, const char* detail){
  80:Display.c     ****     if(name == NULL || detail == NULL){
  81:Display.c     ****         return; //invalid input   
  82:Display.c     ****     }else if(strlen(name) > MAX_PROFILE_NAME_LENGTH){
  83:Display.c     ****         return; //invalid length
  84:Display.c     ****     }else if(strlen(detail) > MAX_PROFILE_DETAIL_LENGTH){
  85:Display.c     ****         return; //invalid length
  86:Display.c     ****     }
  87:Display.c     ****     
  88:Display.c     ****     display_clear();
ARM GAS  C:\Users\HENRIC~1\AppData\Local\Temp\ccRsv9Lg.s 			page 3


  89:Display.c     ****     LCD_Position(0,0);
  90:Display.c     ****     char temp[17];
  91:Display.c     ****     sprintf(temp,"Name: %s",name);
  92:Display.c     ****     LCD_PrintString(temp);
  93:Display.c     ****     LCD_Position(1,0);
  94:Display.c     ****     LCD_PrintString(detail);
  95:Display.c     ****     
  96:Display.c     **** }
  97:Display.c     **** 
  98:Display.c     **** /**
  99:Display.c     ****  * Displays a flashing text message on the LCD screen
 100:Display.c     ****  * @param l1 is line one text
 101:Display.c     ****  * @param l2 is line two text
 102:Display.c     ****  * @param c is count or number of times to flash
 103:Display.c     ****  * @param don is delay (in milliseconds) on per count
 104:Display.c     ****  * @param doff is delay (in millseconds) off per count
 105:Display.c     ****  */
 106:Display.c     **** void display_flash_text(const char* l1, const char* l2, uint32_t c, 
 107:Display.c     ****         uint32_t don, uint32_t doff){
 108:Display.c     ****     //sanity check
 109:Display.c     ****     if(l1 == NULL || l2 == NULL){
 110:Display.c     ****         return;
 111:Display.c     ****     }else if(strlen(l1) > LCD_WIDTH || strlen(l2) > LCD_WIDTH){
 112:Display.c     ****         return;
 113:Display.c     ****     }else if(c == 0){
 114:Display.c     ****         return;   
 115:Display.c     ****     }
 116:Display.c     ****     
 117:Display.c     ****     //flash text
 118:Display.c     ****     display_clear();
 119:Display.c     ****     for(uint32_t i=0; i<c; ++i){ 
 120:Display.c     ****         if(don > 0){
 121:Display.c     ****             LCD_Position(0,0);
 122:Display.c     ****             LCD_PrintString(l1);
 123:Display.c     ****             LCD_Position(1,0);
 124:Display.c     ****             LCD_PrintString(l2);
 125:Display.c     ****             CyDelay(don);
 126:Display.c     ****         }   
 127:Display.c     ****         if(doff > 0){
 128:Display.c     ****             display_clear();
 129:Display.c     ****             CyDelay(doff);
 130:Display.c     ****         }
 131:Display.c     ****     }
 132:Display.c     ****     display_clear();
 133:Display.c     **** }
 134:Display.c     **** 
 135:Display.c     **** //=============================================================================
 136:Display.c     **** //                        Private Function Implementation
 137:Display.c     **** //=============================================================================
 138:Display.c     **** 
 139:Display.c     **** /**
 140:Display.c     ****  * Fills the screen with blocks for startup to representing the loading to
 141:Display.c     ****  * the user.
 142:Display.c     ****  */
 143:Display.c     **** static void _fill_blocks(void){
  27              		.loc 1 143 0
  28              		.cfi_startproc
ARM GAS  C:\Users\HENRIC~1\AppData\Local\Temp\ccRsv9Lg.s 			page 4


  29              		@ args = 0, pretend = 0, frame = 0
  30              		@ frame_needed = 0, uses_anonymous_args = 0
  31 0000 10B5     		push	{r4, lr}
  32              		.cfi_def_cfa_offset 8
  33              		.cfi_offset 4, -8
  34              		.cfi_offset 14, -4
 144:Display.c     ****     display_clear();
  35              		.loc 1 144 0
  36 0002 0120     		movs	r0, #1
  37 0004 FFF7FEFF 		bl	LCD_WriteControl
  38              	.LVL0:
 145:Display.c     ****     LCD_Position(0,0);
  39              		.loc 1 145 0
  40 0008 0021     		movs	r1, #0
  41 000a 0846     		mov	r0, r1
  42 000c FFF7FEFF 		bl	LCD_Position
  43              	.LVL1:
  44              	.LBB2:
 146:Display.c     ****     for(uint8_t c=0; c<16; ++c){
  45              		.loc 1 146 0
  46 0010 0024     		movs	r4, #0
  47 0012 07E0     		b	.L2
  48              	.LVL2:
  49              	.L3:
 147:Display.c     ****         LCD_PutChar(BLOCK_CHAR);
  50              		.loc 1 147 0 discriminator 3
  51 0014 0020     		movs	r0, #0
  52 0016 FFF7FEFF 		bl	LCD_PutChar
  53              	.LVL3:
 148:Display.c     ****         CyDelay(100);
  54              		.loc 1 148 0 discriminator 3
  55 001a 6420     		movs	r0, #100
  56 001c FFF7FEFF 		bl	CyDelay
  57              	.LVL4:
 146:Display.c     ****     for(uint8_t c=0; c<16; ++c){
  58              		.loc 1 146 0 discriminator 3
  59 0020 0134     		adds	r4, r4, #1
  60              	.LVL5:
  61 0022 E4B2     		uxtb	r4, r4
  62              	.LVL6:
  63              	.L2:
 146:Display.c     ****     for(uint8_t c=0; c<16; ++c){
  64              		.loc 1 146 0 is_stmt 0 discriminator 1
  65 0024 0F2C     		cmp	r4, #15
  66 0026 F5D9     		bls	.L3
  67              	.LBE2:
 149:Display.c     ****     }
 150:Display.c     **** }
  68              		.loc 1 150 0 is_stmt 1
  69 0028 10BD     		pop	{r4, pc}
  70              		.cfi_endproc
  71              	.LFE69:
  72              		.size	_fill_blocks, .-_fill_blocks
  73 002a 00BF     		.section	.text._welcome_msg,"ax",%progbits
  74              		.align	2
  75              		.thumb
  76              		.thumb_func
ARM GAS  C:\Users\HENRIC~1\AppData\Local\Temp\ccRsv9Lg.s 			page 5


  77              		.type	_welcome_msg, %function
  78              	_welcome_msg:
  79              	.LFB70:
 151:Display.c     **** 
 152:Display.c     **** /**
 153:Display.c     ****  * Welcome message displayed to the user 
 154:Display.c     ****  */
 155:Display.c     **** static void _welcome_msg(void){
  80              		.loc 1 155 0
  81              		.cfi_startproc
  82              		@ args = 0, pretend = 0, frame = 0
  83              		@ frame_needed = 0, uses_anonymous_args = 0
  84 0000 08B5     		push	{r3, lr}
  85              		.cfi_def_cfa_offset 8
  86              		.cfi_offset 3, -8
  87              		.cfi_offset 14, -4
 156:Display.c     ****     display_clear();
  88              		.loc 1 156 0
  89 0002 0120     		movs	r0, #1
  90 0004 FFF7FEFF 		bl	LCD_WriteControl
  91              	.LVL7:
 157:Display.c     ****     LCD_Position(0,3);
  92              		.loc 1 157 0
  93 0008 0321     		movs	r1, #3
  94 000a 0020     		movs	r0, #0
  95 000c FFF7FEFF 		bl	LCD_Position
  96              	.LVL8:
 158:Display.c     ****     LCD_PrintString("Welcome to");
  97              		.loc 1 158 0
  98 0010 0548     		ldr	r0, .L7
  99 0012 FFF7FEFF 		bl	LCD_PrintString
 100              	.LVL9:
 159:Display.c     ****     LCD_Position(1,2);
 101              		.loc 1 159 0
 102 0016 0221     		movs	r1, #2
 103 0018 0120     		movs	r0, #1
 104 001a FFF7FEFF 		bl	LCD_Position
 105              	.LVL10:
 160:Display.c     ****     LCD_PrintString("My Treadmill");
 106              		.loc 1 160 0
 107 001e 0348     		ldr	r0, .L7+4
 108 0020 FFF7FEFF 		bl	LCD_PrintString
 109              	.LVL11:
 110 0024 08BD     		pop	{r3, pc}
 111              	.L8:
 112 0026 00BF     		.align	2
 113              	.L7:
 114 0028 00000000 		.word	.LC0
 115 002c 0C000000 		.word	.LC1
 116              		.cfi_endproc
 117              	.LFE70:
 118              		.size	_welcome_msg, .-_welcome_msg
 119              		.section	.text.display_init,"ax",%progbits
 120              		.align	2
 121              		.global	display_init
 122              		.thumb
 123              		.thumb_func
ARM GAS  C:\Users\HENRIC~1\AppData\Local\Temp\ccRsv9Lg.s 			page 6


 124              		.type	display_init, %function
 125              	display_init:
 126              	.LFB64:
  48:Display.c     ****     LCD_Start();
 127              		.loc 1 48 0
 128              		.cfi_startproc
 129              		@ args = 0, pretend = 0, frame = 0
 130              		@ frame_needed = 0, uses_anonymous_args = 0
 131 0000 08B5     		push	{r3, lr}
 132              		.cfi_def_cfa_offset 8
 133              		.cfi_offset 3, -8
 134              		.cfi_offset 14, -4
  49:Display.c     **** }
 135              		.loc 1 49 0
 136 0002 FFF7FEFF 		bl	LCD_Start
 137              	.LVL12:
 138 0006 08BD     		pop	{r3, pc}
 139              		.cfi_endproc
 140              	.LFE64:
 141              		.size	display_init, .-display_init
 142              		.section	.text.display_welcome,"ax",%progbits
 143              		.align	2
 144              		.global	display_welcome
 145              		.thumb
 146              		.thumb_func
 147              		.type	display_welcome, %function
 148              	display_welcome:
 149              	.LFB65:
  55:Display.c     ****     _fill_blocks();
 150              		.loc 1 55 0
 151              		.cfi_startproc
 152              		@ args = 0, pretend = 0, frame = 0
 153              		@ frame_needed = 0, uses_anonymous_args = 0
 154 0000 08B5     		push	{r3, lr}
 155              		.cfi_def_cfa_offset 8
 156              		.cfi_offset 3, -8
 157              		.cfi_offset 14, -4
  56:Display.c     ****     display_clear();
 158              		.loc 1 56 0
 159 0002 FFF7FEFF 		bl	_fill_blocks
 160              	.LVL13:
  57:Display.c     ****     CyDelay(FILL_TO_MSG_DELAY_TIME);
 161              		.loc 1 57 0
 162 0006 0120     		movs	r0, #1
 163 0008 FFF7FEFF 		bl	LCD_WriteControl
 164              	.LVL14:
  58:Display.c     ****     _welcome_msg();
 165              		.loc 1 58 0
 166 000c FA20     		movs	r0, #250
 167 000e FFF7FEFF 		bl	CyDelay
 168              	.LVL15:
  59:Display.c     **** }
 169              		.loc 1 59 0
 170 0012 FFF7FEFF 		bl	_welcome_msg
 171              	.LVL16:
 172 0016 08BD     		pop	{r3, pc}
 173              		.cfi_endproc
ARM GAS  C:\Users\HENRIC~1\AppData\Local\Temp\ccRsv9Lg.s 			page 7


 174              	.LFE65:
 175              		.size	display_welcome, .-display_welcome
 176              		.section	.text.display_profile_title,"ax",%progbits
 177              		.align	2
 178              		.global	display_profile_title
 179              		.thumb
 180              		.thumb_func
 181              		.type	display_profile_title, %function
 182              	display_profile_title:
 183              	.LFB66:
  65:Display.c     ****     display_clear();
 184              		.loc 1 65 0
 185              		.cfi_startproc
 186              		@ args = 0, pretend = 0, frame = 0
 187              		@ frame_needed = 0, uses_anonymous_args = 0
 188 0000 08B5     		push	{r3, lr}
 189              		.cfi_def_cfa_offset 8
 190              		.cfi_offset 3, -8
 191              		.cfi_offset 14, -4
  66:Display.c     ****     LCD_Position(0,0);
 192              		.loc 1 66 0
 193 0002 0120     		movs	r0, #1
 194 0004 FFF7FEFF 		bl	LCD_WriteControl
 195              	.LVL17:
  67:Display.c     ****     LCD_PrintString("Profile Menu");
 196              		.loc 1 67 0
 197 0008 0021     		movs	r1, #0
 198 000a 0846     		mov	r0, r1
 199 000c FFF7FEFF 		bl	LCD_Position
 200              	.LVL18:
  68:Display.c     ****     LCD_Position(1,0);
 201              		.loc 1 68 0
 202 0010 0548     		ldr	r0, .L15
 203 0012 FFF7FEFF 		bl	LCD_PrintString
 204              	.LVL19:
  69:Display.c     ****     LCD_PrintString("Select L, Next R");
 205              		.loc 1 69 0
 206 0016 0021     		movs	r1, #0
 207 0018 0120     		movs	r0, #1
 208 001a FFF7FEFF 		bl	LCD_Position
 209              	.LVL20:
  70:Display.c     **** }
 210              		.loc 1 70 0
 211 001e 0348     		ldr	r0, .L15+4
 212 0020 FFF7FEFF 		bl	LCD_PrintString
 213              	.LVL21:
 214 0024 08BD     		pop	{r3, pc}
 215              	.L16:
 216 0026 00BF     		.align	2
 217              	.L15:
 218 0028 1C000000 		.word	.LC2
 219 002c 2C000000 		.word	.LC3
 220              		.cfi_endproc
 221              	.LFE66:
 222              		.size	display_profile_title, .-display_profile_title
 223              		.section	.text.display_profile,"ax",%progbits
 224              		.align	2
ARM GAS  C:\Users\HENRIC~1\AppData\Local\Temp\ccRsv9Lg.s 			page 8


 225              		.global	display_profile
 226              		.thumb
 227              		.thumb_func
 228              		.type	display_profile, %function
 229              	display_profile:
 230              	.LFB67:
  79:Display.c     ****     if(name == NULL || detail == NULL){
 231              		.loc 1 79 0
 232              		.cfi_startproc
 233              		@ args = 0, pretend = 0, frame = 24
 234              		@ frame_needed = 0, uses_anonymous_args = 0
 235              	.LVL22:
  80:Display.c     ****         return; //invalid input   
 236              		.loc 1 80 0
 237 0000 28B3     		cbz	r0, .L21
  80:Display.c     ****         return; //invalid input   
 238              		.loc 1 80 0 is_stmt 0 discriminator 1
 239 0002 21B3     		cbz	r1, .L21
  79:Display.c     ****     if(name == NULL || detail == NULL){
 240              		.loc 1 79 0 is_stmt 1
 241 0004 30B5     		push	{r4, r5, lr}
 242              		.cfi_def_cfa_offset 12
 243              		.cfi_offset 4, -12
 244              		.cfi_offset 5, -8
 245              		.cfi_offset 14, -4
 246 0006 87B0     		sub	sp, sp, #28
 247              		.cfi_def_cfa_offset 40
 248 0008 0546     		mov	r5, r0
 249 000a 0C46     		mov	r4, r1
  82:Display.c     ****         return; //invalid length
 250              		.loc 1 82 0
 251 000c FFF7FEFF 		bl	strlen
 252              	.LVL23:
 253 0010 0A28     		cmp	r0, #10
 254 0012 1AD8     		bhi	.L17
  84:Display.c     ****         return; //invalid length
 255              		.loc 1 84 0
 256 0014 2046     		mov	r0, r4
 257 0016 FFF7FEFF 		bl	strlen
 258              	.LVL24:
 259 001a 1028     		cmp	r0, #16
 260 001c 15D8     		bhi	.L17
  88:Display.c     ****     LCD_Position(0,0);
 261              		.loc 1 88 0
 262 001e 0120     		movs	r0, #1
 263 0020 FFF7FEFF 		bl	LCD_WriteControl
 264              	.LVL25:
  89:Display.c     ****     char temp[17];
 265              		.loc 1 89 0
 266 0024 0021     		movs	r1, #0
 267 0026 0846     		mov	r0, r1
 268 0028 FFF7FEFF 		bl	LCD_Position
 269              	.LVL26:
  91:Display.c     ****     LCD_PrintString(temp);
 270              		.loc 1 91 0
 271 002c 2A46     		mov	r2, r5
 272 002e 0849     		ldr	r1, .L22
ARM GAS  C:\Users\HENRIC~1\AppData\Local\Temp\ccRsv9Lg.s 			page 9


 273 0030 01A8     		add	r0, sp, #4
 274 0032 FFF7FEFF 		bl	sprintf
 275              	.LVL27:
  92:Display.c     ****     LCD_Position(1,0);
 276              		.loc 1 92 0
 277 0036 01A8     		add	r0, sp, #4
 278 0038 FFF7FEFF 		bl	LCD_PrintString
 279              	.LVL28:
  93:Display.c     ****     LCD_PrintString(detail);
 280              		.loc 1 93 0
 281 003c 0021     		movs	r1, #0
 282 003e 0120     		movs	r0, #1
 283 0040 FFF7FEFF 		bl	LCD_Position
 284              	.LVL29:
  94:Display.c     ****     
 285              		.loc 1 94 0
 286 0044 2046     		mov	r0, r4
 287 0046 FFF7FEFF 		bl	LCD_PrintString
 288              	.LVL30:
 289              	.L17:
  96:Display.c     **** 
 290              		.loc 1 96 0
 291 004a 07B0     		add	sp, sp, #28
 292              		.cfi_def_cfa_offset 12
 293              		@ sp needed
 294 004c 30BD     		pop	{r4, r5, pc}
 295              	.LVL31:
 296              	.L21:
 297              		.cfi_def_cfa_offset 0
 298              		.cfi_restore 4
 299              		.cfi_restore 5
 300              		.cfi_restore 14
 301 004e 7047     		bx	lr
 302              	.L23:
 303              		.align	2
 304              	.L22:
 305 0050 40000000 		.word	.LC4
 306              		.cfi_endproc
 307              	.LFE67:
 308              		.size	display_profile, .-display_profile
 309              		.section	.text.display_flash_text,"ax",%progbits
 310              		.align	2
 311              		.global	display_flash_text
 312              		.thumb
 313              		.thumb_func
 314              		.type	display_flash_text, %function
 315              	display_flash_text:
 316              	.LFB68:
 107:Display.c     ****     //sanity check
 317              		.loc 1 107 0
 318              		.cfi_startproc
 319              		@ args = 4, pretend = 0, frame = 0
 320              		@ frame_needed = 0, uses_anonymous_args = 0
 321              	.LVL32:
 322 0000 2DE9F843 		push	{r3, r4, r5, r6, r7, r8, r9, lr}
 323              		.cfi_def_cfa_offset 32
 324              		.cfi_offset 3, -32
ARM GAS  C:\Users\HENRIC~1\AppData\Local\Temp\ccRsv9Lg.s 			page 10


 325              		.cfi_offset 4, -28
 326              		.cfi_offset 5, -24
 327              		.cfi_offset 6, -20
 328              		.cfi_offset 7, -16
 329              		.cfi_offset 8, -12
 330              		.cfi_offset 9, -8
 331              		.cfi_offset 14, -4
 332 0004 089E     		ldr	r6, [sp, #32]
 109:Display.c     ****         return;
 333              		.loc 1 109 0
 334 0006 A0B3     		cbz	r0, .L24
 335 0008 8046     		mov	r8, r0
 109:Display.c     ****         return;
 336              		.loc 1 109 0 is_stmt 0 discriminator 1
 337 000a 91B3     		cbz	r1, .L24
 338 000c 1F46     		mov	r7, r3
 339 000e 1546     		mov	r5, r2
 340 0010 0C46     		mov	r4, r1
 111:Display.c     ****         return;
 341              		.loc 1 111 0 is_stmt 1
 342 0012 FFF7FEFF 		bl	strlen
 343              	.LVL33:
 344 0016 1028     		cmp	r0, #16
 345 0018 2BD8     		bhi	.L24
 111:Display.c     ****         return;
 346              		.loc 1 111 0 is_stmt 0 discriminator 1
 347 001a 2046     		mov	r0, r4
 348 001c FFF7FEFF 		bl	strlen
 349              	.LVL34:
 350 0020 1028     		cmp	r0, #16
 351 0022 26D8     		bhi	.L24
 113:Display.c     ****         return;   
 352              		.loc 1 113 0 is_stmt 1
 353 0024 2DB3     		cbz	r5, .L24
 118:Display.c     ****     for(uint32_t i=0; i<c; ++i){ 
 354              		.loc 1 118 0
 355 0026 0120     		movs	r0, #1
 356 0028 FFF7FEFF 		bl	LCD_WriteControl
 357              	.LVL35:
 358              	.LBB3:
 119:Display.c     ****         if(don > 0){
 359              		.loc 1 119 0
 360 002c 4FF00009 		mov	r9, #0
 361 0030 1AE0     		b	.L26
 362              	.LVL36:
 363              	.L29:
 120:Display.c     ****             LCD_Position(0,0);
 364              		.loc 1 120 0
 365 0032 87B1     		cbz	r7, .L27
 121:Display.c     ****             LCD_PrintString(l1);
 366              		.loc 1 121 0
 367 0034 0021     		movs	r1, #0
 368 0036 0846     		mov	r0, r1
 369 0038 FFF7FEFF 		bl	LCD_Position
 370              	.LVL37:
 122:Display.c     ****             LCD_Position(1,0);
 371              		.loc 1 122 0
ARM GAS  C:\Users\HENRIC~1\AppData\Local\Temp\ccRsv9Lg.s 			page 11


 372 003c 4046     		mov	r0, r8
 373 003e FFF7FEFF 		bl	LCD_PrintString
 374              	.LVL38:
 123:Display.c     ****             LCD_PrintString(l2);
 375              		.loc 1 123 0
 376 0042 0021     		movs	r1, #0
 377 0044 0120     		movs	r0, #1
 378 0046 FFF7FEFF 		bl	LCD_Position
 379              	.LVL39:
 124:Display.c     ****             CyDelay(don);
 380              		.loc 1 124 0
 381 004a 2046     		mov	r0, r4
 382 004c FFF7FEFF 		bl	LCD_PrintString
 383              	.LVL40:
 125:Display.c     ****         }   
 384              		.loc 1 125 0
 385 0050 3846     		mov	r0, r7
 386 0052 FFF7FEFF 		bl	CyDelay
 387              	.LVL41:
 388              	.L27:
 127:Display.c     ****             display_clear();
 389              		.loc 1 127 0
 390 0056 2EB1     		cbz	r6, .L28
 128:Display.c     ****             CyDelay(doff);
 391              		.loc 1 128 0
 392 0058 0120     		movs	r0, #1
 393 005a FFF7FEFF 		bl	LCD_WriteControl
 394              	.LVL42:
 129:Display.c     ****         }
 395              		.loc 1 129 0
 396 005e 3046     		mov	r0, r6
 397 0060 FFF7FEFF 		bl	CyDelay
 398              	.LVL43:
 399              	.L28:
 119:Display.c     ****         if(don > 0){
 400              		.loc 1 119 0 discriminator 2
 401 0064 09F10109 		add	r9, r9, #1
 402              	.LVL44:
 403              	.L26:
 119:Display.c     ****         if(don > 0){
 404              		.loc 1 119 0 is_stmt 0 discriminator 1
 405 0068 A945     		cmp	r9, r5
 406 006a E2D3     		bcc	.L29
 407              	.LBE3:
 132:Display.c     **** }
 408              		.loc 1 132 0 is_stmt 1
 409 006c 0120     		movs	r0, #1
 410 006e FFF7FEFF 		bl	LCD_WriteControl
 411              	.LVL45:
 412              	.L24:
 413 0072 BDE8F883 		pop	{r3, r4, r5, r6, r7, r8, r9, pc}
 414              		.cfi_endproc
 415              	.LFE68:
 416              		.size	display_flash_text, .-display_flash_text
 417 0076 00BF     		.section	.rodata.str1.4,"aMS",%progbits,1
 418              		.align	2
 419              	.LC0:
ARM GAS  C:\Users\HENRIC~1\AppData\Local\Temp\ccRsv9Lg.s 			page 12


 420 0000 57656C63 		.ascii	"Welcome to\000"
 420      6F6D6520 
 420      746F00
 421 000b 00       		.space	1
 422              	.LC1:
 423 000c 4D792054 		.ascii	"My Treadmill\000"
 423      72656164 
 423      6D696C6C 
 423      00
 424 0019 000000   		.space	3
 425              	.LC2:
 426 001c 50726F66 		.ascii	"Profile Menu\000"
 426      696C6520 
 426      4D656E75 
 426      00
 427 0029 000000   		.space	3
 428              	.LC3:
 429 002c 53656C65 		.ascii	"Select L, Next R\000"
 429      6374204C 
 429      2C204E65 
 429      78742052 
 429      00
 430 003d 000000   		.space	3
 431              	.LC4:
 432 0040 4E616D65 		.ascii	"Name: %s\000"
 432      3A202573 
 432      00
 433              		.text
 434              	.Letext0:
 435              		.file 2 "c:\\program files (x86)\\cypress\\psoc creator\\4.1\\psoc creator\\import\\gnu\\arm\\5.4.
 436              		.file 3 "c:\\program files (x86)\\cypress\\psoc creator\\4.1\\psoc creator\\import\\gnu\\arm\\5.4.
 437              		.file 4 "Generated_Source\\PSoC5/LCD.h"
 438              		.file 5 "Generated_Source\\PSoC5/CyLib.h"
 439              		.file 6 "c:\\program files (x86)\\cypress\\psoc creator\\4.1\\psoc creator\\import\\gnu\\arm\\5.4.
 440              		.file 7 "c:\\program files (x86)\\cypress\\psoc creator\\4.1\\psoc creator\\import\\gnu\\arm\\5.4.
 441              		.file 8 "Generated_Source\\PSoC5/core_cm3.h"