ARM GAS  C:\Users\HENRIC~1\AppData\Local\Temp\ccLVcrK0.s 			page 1


   1              		.syntax unified
   2              		.cpu cortex-m3
   3              		.fpu softvfp
   4              		.eabi_attribute 20, 1
   5              		.eabi_attribute 21, 1
   6              		.eabi_attribute 23, 3
   7              		.eabi_attribute 24, 1
   8              		.eabi_attribute 25, 1
   9              		.eabi_attribute 26, 1
  10              		.eabi_attribute 30, 1
  11              		.eabi_attribute 34, 1
  12              		.eabi_attribute 18, 4
  13              		.thumb
  14              		.syntax unified
  15              		.file	"Heartbeat.c"
  16              		.text
  17              	.Ltext0:
  18              		.cfi_sections	.debug_frame
  19              		.global	__aeabi_i2f
  20              		.global	__aeabi_fcmpgt
  21              		.global	__aeabi_f2uiz
  22              		.section	.text.comp_isr,"ax",%progbits
  23              		.align	2
  24              		.global	comp_isr
  25              		.thumb
  26              		.thumb_func
  27              		.type	comp_isr, %function
  28              	comp_isr:
  29              	.LFB68:
  30              		.file 1 "Heartbeat.c"
   1:Heartbeat.c   **** /**
   2:Heartbeat.c   ****  * Heartbeat
   3:Heartbeat.c   ****  * @author Curt Henrichs
   4:Heartbeat.c   ****  * @date 9-17-17
   5:Heartbeat.c   ****  *
   6:Heartbeat.c   ****  * Heartbeat module is a software module tasked with collecting heartbeat
   7:Heartbeat.c   ****  * rate from the user for the treadmill application. Heartbeat module operates
   8:Heartbeat.c   ****  * via interrupts. Interrupts are on ADC (for waveform recreation), on counter
   9:Heartbeat.c   ****  * (for overflow, signalling no pulse), and on an analog comparator (to detect
  10:Heartbeat.c   ****  * heartbeat peak and therefore measure frequency).
  11:Heartbeat.c   ****  */
  12:Heartbeat.c   **** 
  13:Heartbeat.c   **** //=============================================================================
  14:Heartbeat.c   **** //                                  Libraries
  15:Heartbeat.c   **** //=============================================================================
  16:Heartbeat.c   ****    
  17:Heartbeat.c   **** #include "Heartbeat.h"
  18:Heartbeat.c   **** #include <project.h>
  19:Heartbeat.c   **** #include "RunningAverage.h"
  20:Heartbeat.c   **** 
  21:Heartbeat.c   **** //=============================================================================
  22:Heartbeat.c   **** //                        Constant and Macro Defintions
  23:Heartbeat.c   **** //=============================================================================
  24:Heartbeat.c   **** 
  25:Heartbeat.c   **** #define HB_MUX_INTERNAL_CH 0 //! Heartbeat internal channel connected to DAC
  26:Heartbeat.c   **** #define HB_MUX_EXTERNAL_CH 1 //! Heartbeat external channel connected to pin
  27:Heartbeat.c   **** 
ARM GAS  C:\Users\HENRIC~1\AppData\Local\Temp\ccLVcrK0.s 			page 2


  28:Heartbeat.c   **** #define HB_COMP_HEARTBEAT_THRESHOLD_VALUE 100 //! DAC value for comparator //125
  29:Heartbeat.c   **** 
  30:Heartbeat.c   **** #define HEARTBEAT_FILTER_SIZE 10 //! Filter bins for running average
  31:Heartbeat.c   **** 
  32:Heartbeat.c   **** #define ADC_TO_DAC_SCALER 1.6f //! Scaler to convert ADC range to DAC range
  33:Heartbeat.c   **** 
  34:Heartbeat.c   **** #define MAX_POSSIBLE_HEARTBEAT 300 //! Highest heartbeat allowed, else zero
  35:Heartbeat.c   **** 
  36:Heartbeat.c   **** //=============================================================================
  37:Heartbeat.c   **** //                             Private Attributes
  38:Heartbeat.c   **** //=============================================================================
  39:Heartbeat.c   **** 
  40:Heartbeat.c   **** /**
  41:Heartbeat.c   ****  * FIR filter of BPM to remove noise in measurement
  42:Heartbeat.c   ****  */
  43:Heartbeat.c   **** static volatile Running_Average_t _filter;
  44:Heartbeat.c   **** 
  45:Heartbeat.c   **** static volatile bool _use_led_state = false;
  46:Heartbeat.c   **** 
  47:Heartbeat.c   **** //=============================================================================
  48:Heartbeat.c   **** //                         Interrupt Handler Prototypes
  49:Heartbeat.c   **** //=============================================================================
  50:Heartbeat.c   **** 
  51:Heartbeat.c   **** /**
  52:Heartbeat.c   ****  * Comparator ISR is triggered on rising edge of peak detection. Responsible
  53:Heartbeat.c   ****  * for calculating current beats per minute and storing that result into
  54:Heartbeat.c   ****  * running average. Resets counter to zero for next comparison.
  55:Heartbeat.c   ****  */
  56:Heartbeat.c   **** CY_ISR_PROTO(comp_isr);
  57:Heartbeat.c   **** /**
  58:Heartbeat.c   ****  * ADC EOC ISR is triggered on end of conversion event. Responsible for reading
  59:Heartbeat.c   ****  * result from ADC, scaling it, and recreating it on the DAC.
  60:Heartbeat.c   ****  */
  61:Heartbeat.c   **** CY_ISR_PROTO(ADC_EOC_isr);
  62:Heartbeat.c   **** /**
  63:Heartbeat.c   ****  * Counter overflow ISR is triggered when counter register overflows. This
  64:Heartbeat.c   ****  * interrupt is a fail-safe to record zero heartbeat. 
  65:Heartbeat.c   ****  */
  66:Heartbeat.c   **** CY_ISR_PROTO(counter_overflow_isr);
  67:Heartbeat.c   **** 
  68:Heartbeat.c   **** //=============================================================================
  69:Heartbeat.c   **** //                         Public Function Implementation
  70:Heartbeat.c   **** //=============================================================================
  71:Heartbeat.c   ****   
  72:Heartbeat.c   **** /**
  73:Heartbeat.c   ****  * Heartbeat module intialization function will start all module hardware and
  74:Heartbeat.c   ****  * intialize all private attributes. This module is entirely driven by
  75:Heartbeat.c   ****  * interrupts so it is crucial that global interrupts are enabled.
  76:Heartbeat.c   ****  * @param source is the heartbeat input source for analog MUX channel select
  77:Heartbeat.c   ****  */
  78:Heartbeat.c   **** void heartbeat_init(Heartbeat_Source_e source){
  79:Heartbeat.c   ****     
  80:Heartbeat.c   ****     //initalize attributes
  81:Heartbeat.c   ****     running_average_init(&_filter,HEARTBEAT_FILTER_SIZE);
  82:Heartbeat.c   ****     
  83:Heartbeat.c   ****     //start analog output hardware
  84:Heartbeat.c   ****     HB_Comp_Neg_DAC_Start();
ARM GAS  C:\Users\HENRIC~1\AppData\Local\Temp\ccLVcrK0.s 			page 3


  85:Heartbeat.c   ****     HB_Comp_Neg_DAC_SetValue(HB_COMP_HEARTBEAT_THRESHOLD_VALUE);
  86:Heartbeat.c   ****     HB_DAC_Start();
  87:Heartbeat.c   ****     HB_DAC_SetValue(0);
  88:Heartbeat.c   ****     
  89:Heartbeat.c   ****     //start analog input hardware
  90:Heartbeat.c   ****     HB_ADC_Start();
  91:Heartbeat.c   ****     HB_ADC_StartConvert();
  92:Heartbeat.c   ****     HB_ADC_IRQ_Enable();
  93:Heartbeat.c   ****     HB_Comp_Start();
  94:Heartbeat.c   ****     HB_Counter_Start();
  95:Heartbeat.c   ****     
  96:Heartbeat.c   ****     //select source and start
  97:Heartbeat.c   ****     HB_MUX_Start();
  98:Heartbeat.c   ****     HB_PGA_Start();
  99:Heartbeat.c   ****     if(source == HEARTBEAT_SOURCE_INTERNAL){
 100:Heartbeat.c   ****         //internal state
 101:Heartbeat.c   ****         I_HB_Start();
 102:Heartbeat.c   ****         HB_MUX_FastSelect(HB_MUX_INTERNAL_CH);
 103:Heartbeat.c   ****     }else if(source == HEARTBEAT_SOURCE_EXTERNAL){
 104:Heartbeat.c   ****         //external state
 105:Heartbeat.c   ****         HB_MUX_FastSelect(HB_MUX_EXTERNAL_CH);
 106:Heartbeat.c   ****     }else{
 107:Heartbeat.c   ****         //off state uses turned off DAC for 0V input
 108:Heartbeat.c   ****         HB_MUX_FastSelect(HB_MUX_INTERNAL_CH);
 109:Heartbeat.c   ****     }
 110:Heartbeat.c   ****     
 111:Heartbeat.c   ****     //start interrupts
 112:Heartbeat.c   ****     HB_ADC_IRQ_StartEx(ADC_EOC_isr);
 113:Heartbeat.c   ****     HB_Comp_Int_StartEx(comp_isr);
 114:Heartbeat.c   ****     HB_Overflow_Int_StartEx(counter_overflow_isr);
 115:Heartbeat.c   **** }
 116:Heartbeat.c   **** 
 117:Heartbeat.c   **** /**
 118:Heartbeat.c   ****  * @return heartbeat beats per minute as standard measure of user's heartrate
 119:Heartbeat.c   ****  */
 120:Heartbeat.c   **** uint16_t heartbeat_get_bpm(void){
 121:Heartbeat.c   ****     return running_average_result(&_filter);
 122:Heartbeat.c   **** }
 123:Heartbeat.c   **** 
 124:Heartbeat.c   **** /**
 125:Heartbeat.c   ****  * Clears the previous heartbeat data, thereby reseting the module
 126:Heartbeat.c   ****  * Note hardware is not modified.
 127:Heartbeat.c   ****  */
 128:Heartbeat.c   **** void heartbeat_clear(void){
 129:Heartbeat.c   ****     running_average_clear(&_filter);
 130:Heartbeat.c   **** }
 131:Heartbeat.c   **** 
 132:Heartbeat.c   **** /**
 133:Heartbeat.c   ****  * Sets the use LED flag so that heartbeat is pulsed out
 134:Heartbeat.c   ****  * @param state, true if activate LED heartbeat, false if disable
 135:Heartbeat.c   ****  */
 136:Heartbeat.c   **** void heartbeat_set_use_LED(bool state){
 137:Heartbeat.c   ****     _use_led_state = state;
 138:Heartbeat.c   **** }
 139:Heartbeat.c   **** 
 140:Heartbeat.c   **** /**
 141:Heartbeat.c   ****  * @return gets the use LED flag state. true if using, false if disabled
ARM GAS  C:\Users\HENRIC~1\AppData\Local\Temp\ccLVcrK0.s 			page 4


 142:Heartbeat.c   ****  */
 143:Heartbeat.c   **** bool heartbeat_get_use_LED(void){
 144:Heartbeat.c   ****     return _use_led_state;
 145:Heartbeat.c   **** }
 146:Heartbeat.c   ****     
 147:Heartbeat.c   **** //=============================================================================
 148:Heartbeat.c   **** //                       Interrupt Handler Implementation
 149:Heartbeat.c   **** //=============================================================================
 150:Heartbeat.c   **** 
 151:Heartbeat.c   **** /**
 152:Heartbeat.c   ****  * Comparator ISR is triggered on rising edge of peak detection. Responsible
 153:Heartbeat.c   ****  * for calculating current beats per minute and storing that result into
 154:Heartbeat.c   ****  * running average. Resets counter to zero for next comparison.
 155:Heartbeat.c   ****  */
 156:Heartbeat.c   **** CY_ISR(comp_isr){
  31              		.loc 1 156 0
  32              		.cfi_startproc
  33              		@ args = 0, pretend = 0, frame = 0
  34              		@ frame_needed = 0, uses_anonymous_args = 0
  35 0000 10B5     		push	{r4, lr}
  36              		.cfi_def_cfa_offset 8
  37              		.cfi_offset 4, -8
  38              		.cfi_offset 14, -4
 157:Heartbeat.c   ****     //calculate the new heartrate in BPM
 158:Heartbeat.c   ****     uint16_t count = HB_Counter_ReadCounter(); //count is ms between peaks
  39              		.loc 1 158 0
  40 0002 FFF7FEFF 		bl	HB_Counter_ReadCounter
  41              	.LVL0:
 159:Heartbeat.c   ****     float bpm = 60000 / ((count > 0) ? (count) : (1)); // in BPM
  42              		.loc 1 159 0
  43 0006 40B1     		cbz	r0, .L6
  44 0008 0346     		mov	r3, r0
  45              		.loc 1 159 0 is_stmt 0 discriminator 1
  46 000a 4EF66020 		movw	r0, #60000
  47              	.LVL1:
  48 000e 90FBF3F0 		sdiv	r0, r0, r3
  49 0012 FFF7FEFF 		bl	__aeabi_i2f
  50              	.LVL2:
  51 0016 0446     		mov	r4, r0
  52 0018 00E0     		b	.L2
  53              	.LVL3:
  54              	.L6:
  55              		.loc 1 159 0
  56 001a 104C     		ldr	r4, .L9
  57              	.LVL4:
  58              	.L2:
 160:Heartbeat.c   ****     bpm = (bpm > MAX_POSSIBLE_HEARTBEAT) ? (0) : (bpm);
  59              		.loc 1 160 0 is_stmt 1 discriminator 4
  60 001c 1049     		ldr	r1, .L9+4
  61 001e 2046     		mov	r0, r4
  62 0020 FFF7FEFF 		bl	__aeabi_fcmpgt
  63              	.LVL5:
  64 0024 00B1     		cbz	r0, .L3
  65              		.loc 1 160 0 is_stmt 0
  66 0026 0024     		movs	r4, #0
  67              	.LVL6:
  68              	.L3:
ARM GAS  C:\Users\HENRIC~1\AppData\Local\Temp\ccLVcrK0.s 			page 5


 161:Heartbeat.c   ****     running_average_update(&_filter,(uint16_t)(bpm));
  69              		.loc 1 161 0 is_stmt 1 discriminator 4
  70 0028 2046     		mov	r0, r4
  71 002a FFF7FEFF 		bl	__aeabi_f2uiz
  72              	.LVL7:
  73 002e 0D4C     		ldr	r4, .L9+8
  74              	.LVL8:
  75 0030 81B2     		uxth	r1, r0
  76 0032 2046     		mov	r0, r4
  77 0034 FFF7FEFF 		bl	running_average_update
  78              	.LVL9:
 162:Heartbeat.c   ****     
 163:Heartbeat.c   ****     //clear source of interrupt
 164:Heartbeat.c   ****     HB_Counter_WriteCounter(0);
  79              		.loc 1 164 0 discriminator 4
  80 0038 0020     		movs	r0, #0
  81 003a FFF7FEFF 		bl	HB_Counter_WriteCounter
  82              	.LVL10:
 165:Heartbeat.c   ****     HB_Comp_Int_ClearPending();
  83              		.loc 1 165 0 discriminator 4
  84 003e FFF7FEFF 		bl	HB_Comp_Int_ClearPending
  85              	.LVL11:
 166:Heartbeat.c   ****     
 167:Heartbeat.c   ****     //pulse LED to simulate heartbeat
 168:Heartbeat.c   ****     if(_use_led_state){
  86              		.loc 1 168 0 discriminator 4
  87 0042 237A     		ldrb	r3, [r4, #8]	@ zero_extendqisi2
  88 0044 13F0FF0F 		tst	r3, #255
  89 0048 06D0     		beq	.L1
 169:Heartbeat.c   ****         LED_Write(!LED_Read());
  90              		.loc 1 169 0
  91 004a FFF7FEFF 		bl	LED_Read
  92              	.LVL12:
  93 004e B0FA80F0 		clz	r0, r0
  94 0052 4009     		lsrs	r0, r0, #5
  95 0054 FFF7FEFF 		bl	LED_Write
  96              	.LVL13:
  97              	.L1:
  98 0058 10BD     		pop	{r4, pc}
  99              	.L10:
 100 005a 00BF     		.align	2
 101              	.L9:
 102 005c 00606A47 		.word	1198153728
 103 0060 00009643 		.word	1133903872
 104 0064 00000000 		.word	.LANCHOR0
 105              		.cfi_endproc
 106              	.LFE68:
 107              		.size	comp_isr, .-comp_isr
 108              		.global	__aeabi_fmul
 109              		.section	.text.ADC_EOC_isr,"ax",%progbits
 110              		.align	2
 111              		.global	ADC_EOC_isr
 112              		.thumb
 113              		.thumb_func
 114              		.type	ADC_EOC_isr, %function
 115              	ADC_EOC_isr:
 116              	.LFB69:
ARM GAS  C:\Users\HENRIC~1\AppData\Local\Temp\ccLVcrK0.s 			page 6


 170:Heartbeat.c   ****     }
 171:Heartbeat.c   **** }
 172:Heartbeat.c   **** 
 173:Heartbeat.c   **** /**
 174:Heartbeat.c   ****  * ADC EOC ISR is triggered on end of conversion event. Responsible for reading
 175:Heartbeat.c   ****  * result from ADC, scaling it, and recreating it on the DAC.
 176:Heartbeat.c   ****  */
 177:Heartbeat.c   **** CY_ISR(ADC_EOC_isr){
 117              		.loc 1 177 0
 118              		.cfi_startproc
 119              		@ args = 0, pretend = 0, frame = 0
 120              		@ frame_needed = 0, uses_anonymous_args = 0
 121 0000 08B5     		push	{r3, lr}
 122              		.cfi_def_cfa_offset 8
 123              		.cfi_offset 3, -8
 124              		.cfi_offset 14, -4
 178:Heartbeat.c   ****     //get value and clear interrupt source
 179:Heartbeat.c   ****     uint8_t adc_val = HB_ADC_GetResult8();
 125              		.loc 1 179 0
 126 0002 FFF7FEFF 		bl	HB_ADC_GetResult8
 127              	.LVL14:
 180:Heartbeat.c   ****     
 181:Heartbeat.c   ****     //send DAC new value
 182:Heartbeat.c   ****     HB_DAC_SetValue((uint8_t)(adc_val * ADC_TO_DAC_SCALER));
 128              		.loc 1 182 0
 129 0006 C0B2     		uxtb	r0, r0
 130 0008 FFF7FEFF 		bl	__aeabi_i2f
 131              	.LVL15:
 132 000c 0549     		ldr	r1, .L13
 133 000e FFF7FEFF 		bl	__aeabi_fmul
 134              	.LVL16:
 135 0012 FFF7FEFF 		bl	__aeabi_f2uiz
 136              	.LVL17:
 137 0016 C0B2     		uxtb	r0, r0
 138 0018 FFF7FEFF 		bl	HB_DAC_SetValue
 139              	.LVL18:
 183:Heartbeat.c   ****     HB_ADC_IRQ_ClearPending();
 140              		.loc 1 183 0
 141 001c FFF7FEFF 		bl	HB_ADC_IRQ_ClearPending
 142              	.LVL19:
 143 0020 08BD     		pop	{r3, pc}
 144              	.L14:
 145 0022 00BF     		.align	2
 146              	.L13:
 147 0024 CDCCCC3F 		.word	1070386381
 148              		.cfi_endproc
 149              	.LFE69:
 150              		.size	ADC_EOC_isr, .-ADC_EOC_isr
 151              		.section	.text.counter_overflow_isr,"ax",%progbits
 152              		.align	2
 153              		.global	counter_overflow_isr
 154              		.thumb
 155              		.thumb_func
 156              		.type	counter_overflow_isr, %function
 157              	counter_overflow_isr:
 158              	.LFB70:
 184:Heartbeat.c   **** }
ARM GAS  C:\Users\HENRIC~1\AppData\Local\Temp\ccLVcrK0.s 			page 7


 185:Heartbeat.c   **** 
 186:Heartbeat.c   **** /**
 187:Heartbeat.c   ****  * Counter overflow ISR is triggered when counter register overflows. This
 188:Heartbeat.c   ****  * interrupt is a fail-safe to record zero heartbeat. 
 189:Heartbeat.c   ****  */
 190:Heartbeat.c   **** CY_ISR(counter_overflow_isr){
 159              		.loc 1 190 0
 160              		.cfi_startproc
 161              		@ args = 0, pretend = 0, frame = 0
 162              		@ frame_needed = 0, uses_anonymous_args = 0
 163 0000 08B5     		push	{r3, lr}
 164              		.cfi_def_cfa_offset 8
 165              		.cfi_offset 3, -8
 166              		.cfi_offset 14, -4
 191:Heartbeat.c   ****     //store zero to heartbeat
 192:Heartbeat.c   ****     running_average_update(&_filter,0);
 167              		.loc 1 192 0
 168 0002 0021     		movs	r1, #0
 169 0004 0348     		ldr	r0, .L17
 170 0006 FFF7FEFF 		bl	running_average_update
 171              	.LVL20:
 193:Heartbeat.c   ****     
 194:Heartbeat.c   ****     //clear source of interrupt
 195:Heartbeat.c   ****     HB_Counter_ReadStatusRegister();
 172              		.loc 1 195 0
 173 000a FFF7FEFF 		bl	HB_Counter_ReadStatusRegister
 174              	.LVL21:
 196:Heartbeat.c   ****     HB_Overflow_Int_ClearPending(); 
 175              		.loc 1 196 0
 176 000e FFF7FEFF 		bl	HB_Overflow_Int_ClearPending
 177              	.LVL22:
 178 0012 08BD     		pop	{r3, pc}
 179              	.L18:
 180              		.align	2
 181              	.L17:
 182 0014 00000000 		.word	.LANCHOR0
 183              		.cfi_endproc
 184              	.LFE70:
 185              		.size	counter_overflow_isr, .-counter_overflow_isr
 186              		.section	.text.heartbeat_init,"ax",%progbits
 187              		.align	2
 188              		.global	heartbeat_init
 189              		.thumb
 190              		.thumb_func
 191              		.type	heartbeat_init, %function
 192              	heartbeat_init:
 193              	.LFB63:
  78:Heartbeat.c   ****     
 194              		.loc 1 78 0
 195              		.cfi_startproc
 196              		@ args = 0, pretend = 0, frame = 0
 197              		@ frame_needed = 0, uses_anonymous_args = 0
 198              	.LVL23:
 199 0000 10B5     		push	{r4, lr}
 200              		.cfi_def_cfa_offset 8
 201              		.cfi_offset 4, -8
 202              		.cfi_offset 14, -4
ARM GAS  C:\Users\HENRIC~1\AppData\Local\Temp\ccLVcrK0.s 			page 8


 203 0002 0446     		mov	r4, r0
  81:Heartbeat.c   ****     
 204              		.loc 1 81 0
 205 0004 0A21     		movs	r1, #10
 206 0006 1B48     		ldr	r0, .L24
 207              	.LVL24:
 208 0008 FFF7FEFF 		bl	running_average_init
 209              	.LVL25:
  84:Heartbeat.c   ****     HB_Comp_Neg_DAC_SetValue(HB_COMP_HEARTBEAT_THRESHOLD_VALUE);
 210              		.loc 1 84 0
 211 000c FFF7FEFF 		bl	HB_Comp_Neg_DAC_Start
 212              	.LVL26:
  85:Heartbeat.c   ****     HB_DAC_Start();
 213              		.loc 1 85 0
 214 0010 6420     		movs	r0, #100
 215 0012 FFF7FEFF 		bl	HB_Comp_Neg_DAC_SetValue
 216              	.LVL27:
  86:Heartbeat.c   ****     HB_DAC_SetValue(0);
 217              		.loc 1 86 0
 218 0016 FFF7FEFF 		bl	HB_DAC_Start
 219              	.LVL28:
  87:Heartbeat.c   ****     
 220              		.loc 1 87 0
 221 001a 0020     		movs	r0, #0
 222 001c FFF7FEFF 		bl	HB_DAC_SetValue
 223              	.LVL29:
  90:Heartbeat.c   ****     HB_ADC_StartConvert();
 224              		.loc 1 90 0
 225 0020 FFF7FEFF 		bl	HB_ADC_Start
 226              	.LVL30:
  91:Heartbeat.c   ****     HB_ADC_IRQ_Enable();
 227              		.loc 1 91 0
 228 0024 FFF7FEFF 		bl	HB_ADC_StartConvert
 229              	.LVL31:
  92:Heartbeat.c   ****     HB_Comp_Start();
 230              		.loc 1 92 0
 231 0028 FFF7FEFF 		bl	HB_ADC_IRQ_Enable
 232              	.LVL32:
  93:Heartbeat.c   ****     HB_Counter_Start();
 233              		.loc 1 93 0
 234 002c FFF7FEFF 		bl	HB_Comp_Start
 235              	.LVL33:
  94:Heartbeat.c   ****     
 236              		.loc 1 94 0
 237 0030 FFF7FEFF 		bl	HB_Counter_Start
 238              	.LVL34:
  97:Heartbeat.c   ****     HB_PGA_Start();
 239              		.loc 1 97 0
 240 0034 FFF7FEFF 		bl	HB_MUX_Start
 241              	.LVL35:
  98:Heartbeat.c   ****     if(source == HEARTBEAT_SOURCE_INTERNAL){
 242              		.loc 1 98 0
 243 0038 FFF7FEFF 		bl	HB_PGA_Start
 244              	.LVL36:
  99:Heartbeat.c   ****         //internal state
 245              		.loc 1 99 0
 246 003c 012C     		cmp	r4, #1
ARM GAS  C:\Users\HENRIC~1\AppData\Local\Temp\ccLVcrK0.s 			page 9


 247 003e 05D1     		bne	.L20
 101:Heartbeat.c   ****         HB_MUX_FastSelect(HB_MUX_INTERNAL_CH);
 248              		.loc 1 101 0
 249 0040 FFF7FEFF 		bl	I_HB_Start
 250              	.LVL37:
 102:Heartbeat.c   ****     }else if(source == HEARTBEAT_SOURCE_EXTERNAL){
 251              		.loc 1 102 0
 252 0044 0020     		movs	r0, #0
 253 0046 FFF7FEFF 		bl	HB_MUX_FastSelect
 254              	.LVL38:
 255 004a 08E0     		b	.L21
 256              	.L20:
 103:Heartbeat.c   ****         //external state
 257              		.loc 1 103 0
 258 004c 022C     		cmp	r4, #2
 259 004e 03D1     		bne	.L22
 105:Heartbeat.c   ****     }else{
 260              		.loc 1 105 0
 261 0050 0120     		movs	r0, #1
 262 0052 FFF7FEFF 		bl	HB_MUX_FastSelect
 263              	.LVL39:
 264 0056 02E0     		b	.L21
 265              	.L22:
 108:Heartbeat.c   ****     }
 266              		.loc 1 108 0
 267 0058 0020     		movs	r0, #0
 268 005a FFF7FEFF 		bl	HB_MUX_FastSelect
 269              	.LVL40:
 270              	.L21:
 112:Heartbeat.c   ****     HB_Comp_Int_StartEx(comp_isr);
 271              		.loc 1 112 0
 272 005e 0648     		ldr	r0, .L24+4
 273 0060 FFF7FEFF 		bl	HB_ADC_IRQ_StartEx
 274              	.LVL41:
 113:Heartbeat.c   ****     HB_Overflow_Int_StartEx(counter_overflow_isr);
 275              		.loc 1 113 0
 276 0064 0548     		ldr	r0, .L24+8
 277 0066 FFF7FEFF 		bl	HB_Comp_Int_StartEx
 278              	.LVL42:
 114:Heartbeat.c   **** }
 279              		.loc 1 114 0
 280 006a 0548     		ldr	r0, .L24+12
 281 006c FFF7FEFF 		bl	HB_Overflow_Int_StartEx
 282              	.LVL43:
 283 0070 10BD     		pop	{r4, pc}
 284              	.L25:
 285 0072 00BF     		.align	2
 286              	.L24:
 287 0074 00000000 		.word	.LANCHOR0
 288 0078 00000000 		.word	ADC_EOC_isr
 289 007c 00000000 		.word	comp_isr
 290 0080 00000000 		.word	counter_overflow_isr
 291              		.cfi_endproc
 292              	.LFE63:
 293              		.size	heartbeat_init, .-heartbeat_init
 294              		.section	.text.heartbeat_get_bpm,"ax",%progbits
 295              		.align	2
ARM GAS  C:\Users\HENRIC~1\AppData\Local\Temp\ccLVcrK0.s 			page 10


 296              		.global	heartbeat_get_bpm
 297              		.thumb
 298              		.thumb_func
 299              		.type	heartbeat_get_bpm, %function
 300              	heartbeat_get_bpm:
 301              	.LFB64:
 120:Heartbeat.c   ****     return running_average_result(&_filter);
 302              		.loc 1 120 0
 303              		.cfi_startproc
 304              		@ args = 0, pretend = 0, frame = 0
 305              		@ frame_needed = 0, uses_anonymous_args = 0
 306 0000 08B5     		push	{r3, lr}
 307              		.cfi_def_cfa_offset 8
 308              		.cfi_offset 3, -8
 309              		.cfi_offset 14, -4
 121:Heartbeat.c   **** }
 310              		.loc 1 121 0
 311 0002 0248     		ldr	r0, .L28
 312 0004 FFF7FEFF 		bl	running_average_result
 313              	.LVL44:
 122:Heartbeat.c   **** 
 314              		.loc 1 122 0
 315 0008 08BD     		pop	{r3, pc}
 316              	.L29:
 317 000a 00BF     		.align	2
 318              	.L28:
 319 000c 00000000 		.word	.LANCHOR0
 320              		.cfi_endproc
 321              	.LFE64:
 322              		.size	heartbeat_get_bpm, .-heartbeat_get_bpm
 323              		.section	.text.heartbeat_clear,"ax",%progbits
 324              		.align	2
 325              		.global	heartbeat_clear
 326              		.thumb
 327              		.thumb_func
 328              		.type	heartbeat_clear, %function
 329              	heartbeat_clear:
 330              	.LFB65:
 128:Heartbeat.c   ****     running_average_clear(&_filter);
 331              		.loc 1 128 0
 332              		.cfi_startproc
 333              		@ args = 0, pretend = 0, frame = 0
 334              		@ frame_needed = 0, uses_anonymous_args = 0
 335 0000 08B5     		push	{r3, lr}
 336              		.cfi_def_cfa_offset 8
 337              		.cfi_offset 3, -8
 338              		.cfi_offset 14, -4
 129:Heartbeat.c   **** }
 339              		.loc 1 129 0
 340 0002 0248     		ldr	r0, .L32
 341 0004 FFF7FEFF 		bl	running_average_clear
 342              	.LVL45:
 343 0008 08BD     		pop	{r3, pc}
 344              	.L33:
 345 000a 00BF     		.align	2
 346              	.L32:
 347 000c 00000000 		.word	.LANCHOR0
ARM GAS  C:\Users\HENRIC~1\AppData\Local\Temp\ccLVcrK0.s 			page 11


 348              		.cfi_endproc
 349              	.LFE65:
 350              		.size	heartbeat_clear, .-heartbeat_clear
 351              		.section	.text.heartbeat_set_use_LED,"ax",%progbits
 352              		.align	2
 353              		.global	heartbeat_set_use_LED
 354              		.thumb
 355              		.thumb_func
 356              		.type	heartbeat_set_use_LED, %function
 357              	heartbeat_set_use_LED:
 358              	.LFB66:
 136:Heartbeat.c   ****     _use_led_state = state;
 359              		.loc 1 136 0
 360              		.cfi_startproc
 361              		@ args = 0, pretend = 0, frame = 0
 362              		@ frame_needed = 0, uses_anonymous_args = 0
 363              		@ link register save eliminated.
 364              	.LVL46:
 137:Heartbeat.c   **** }
 365              		.loc 1 137 0
 366 0000 014B     		ldr	r3, .L35
 367 0002 1872     		strb	r0, [r3, #8]
 368 0004 7047     		bx	lr
 369              	.L36:
 370 0006 00BF     		.align	2
 371              	.L35:
 372 0008 00000000 		.word	.LANCHOR0
 373              		.cfi_endproc
 374              	.LFE66:
 375              		.size	heartbeat_set_use_LED, .-heartbeat_set_use_LED
 376              		.section	.text.heartbeat_get_use_LED,"ax",%progbits
 377              		.align	2
 378              		.global	heartbeat_get_use_LED
 379              		.thumb
 380              		.thumb_func
 381              		.type	heartbeat_get_use_LED, %function
 382              	heartbeat_get_use_LED:
 383              	.LFB67:
 143:Heartbeat.c   ****     return _use_led_state;
 384              		.loc 1 143 0
 385              		.cfi_startproc
 386              		@ args = 0, pretend = 0, frame = 0
 387              		@ frame_needed = 0, uses_anonymous_args = 0
 388              		@ link register save eliminated.
 144:Heartbeat.c   **** }
 389              		.loc 1 144 0
 390 0000 014B     		ldr	r3, .L38
 391 0002 187A     		ldrb	r0, [r3, #8]	@ zero_extendqisi2
 145:Heartbeat.c   ****     
 392              		.loc 1 145 0
 393 0004 7047     		bx	lr
 394              	.L39:
 395 0006 00BF     		.align	2
 396              	.L38:
 397 0008 00000000 		.word	.LANCHOR0
 398              		.cfi_endproc
 399              	.LFE67:
ARM GAS  C:\Users\HENRIC~1\AppData\Local\Temp\ccLVcrK0.s 			page 12


 400              		.size	heartbeat_get_use_LED, .-heartbeat_get_use_LED
 401              		.bss
 402              		.align	2
 403              		.set	.LANCHOR0,. + 0
 404              		.type	_filter, %object
 405              		.size	_filter, 8
 406              	_filter:
 407 0000 00000000 		.space	8
 407      00000000 
 408              		.type	_use_led_state, %object
 409              		.size	_use_led_state, 1
 410              	_use_led_state:
 411 0008 00       		.space	1
 412              		.text
 413              	.Letext0:
 414              		.file 2 "c:\\program files (x86)\\cypress\\psoc creator\\4.1\\psoc creator\\import\\gnu\\arm\\5.4.
 415              		.file 3 "c:\\program files (x86)\\cypress\\psoc creator\\4.1\\psoc creator\\import\\gnu\\arm\\5.4.
 416              		.file 4 "Heartbeat.h"
 417              		.file 5 "RunningAverage.h"
 418              		.file 6 "Generated_Source\\PSoC5/HB_Counter.h"
 419              		.file 7 "Generated_Source\\PSoC5/HB_Comp_Int.h"
 420              		.file 8 "Generated_Source\\PSoC5/LED.h"
 421              		.file 9 "Generated_Source\\PSoC5/HB_ADC.h"
 422              		.file 10 "Generated_Source\\PSoC5/HB_DAC.h"
 423              		.file 11 "Generated_Source\\PSoC5/HB_ADC_IRQ.h"
 424              		.file 12 "Generated_Source\\PSoC5/HB_Overflow_Int.h"
 425              		.file 13 "Generated_Source\\PSoC5/HB_Comp_Neg_DAC.h"
 426              		.file 14 "Generated_Source\\PSoC5/HB_Comp.h"
 427              		.file 15 "Generated_Source\\PSoC5/HB_MUX.h"
 428              		.file 16 "Generated_Source\\PSoC5/HB_PGA.h"
 429              		.file 17 "Generated_Source\\PSoC5/I_HB.h"
 430              		.file 18 "Generated_Source\\PSoC5/core_cm3.h"