ARM GAS  C:\Users\HENRIC~1\AppData\Local\Temp\ccGuLHXs.s 			page 1


   1              		.syntax unified
   2              		.cpu cortex-m3
   3              		.fpu softvfp
   4              		.eabi_attribute 20, 1
   5              		.eabi_attribute 21, 1
   6              		.eabi_attribute 23, 3
   7              		.eabi_attribute 24, 1
   8              		.eabi_attribute 25, 1
   9              		.eabi_attribute 26, 1
  10              		.eabi_attribute 30, 1
  11              		.eabi_attribute 34, 1
  12              		.eabi_attribute 18, 4
  13              		.thumb
  14              		.syntax unified
  15              		.file	"RunningAverage.c"
  16              		.text
  17              	.Ltext0:
  18              		.cfi_sections	.debug_frame
  19              		.section	.text.running_average_init,"ax",%progbits
  20              		.align	2
  21              		.global	running_average_init
  22              		.thumb
  23              		.thumb_func
  24              		.type	running_average_init, %function
  25              	running_average_init:
  26              	.LFB0:
  27              		.file 1 "RunningAverage.c"
   1:RunningAverage.c **** /**
   2:RunningAverage.c ****  * RunningAverage
   3:RunningAverage.c ****  * @author Curt Henrichs
   4:RunningAverage.c ****  * @date 9-17-17
   5:RunningAverage.c ****  *
   6:RunningAverage.c ****  * Running average FIR filter object. Goal of this module is to provide an
   7:RunningAverage.c ****  * object that takes in sensor data and through an averaging FIR filter, 
   8:RunningAverage.c ****  * produce a lowpass average. Module allows user to specify number of bins
   9:RunningAverage.c ****  * which are then constructed in heap space.
  10:RunningAverage.c ****  */
  11:RunningAverage.c **** 
  12:RunningAverage.c **** //=============================================================================
  13:RunningAverage.c **** //                                  Libraries
  14:RunningAverage.c **** //=============================================================================
  15:RunningAverage.c **** 
  16:RunningAverage.c **** #include "RunningAverage.h"
  17:RunningAverage.c **** #include <stdlib.h>
  18:RunningAverage.c **** 
  19:RunningAverage.c **** //=============================================================================
  20:RunningAverage.c **** //                         Public Function Implementation
  21:RunningAverage.c **** //=============================================================================
  22:RunningAverage.c ****  
  23:RunningAverage.c **** /**
  24:RunningAverage.c ****  * Running average object initalization function. Allocates the specified
  25:RunningAverage.c ****  * number of bins into heap space. Note user should call the destroy function
  26:RunningAverage.c ****  * to free this space. 
  27:RunningAverage.c ****  * @param obj valid pointer to Running_Average object
  28:RunningAverage.c ****  * @param num_bins is number of previous values to store. Must follow range.
  29:RunningAverage.c ****  * @return true if allocated bins, else false due to failure
  30:RunningAverage.c ****  */
ARM GAS  C:\Users\HENRIC~1\AppData\Local\Temp\ccGuLHXs.s 			page 2


  31:RunningAverage.c **** bool running_average_init(Running_Average_t* obj, uint16_t num_bins){
  28              		.loc 1 31 0
  29              		.cfi_startproc
  30              		@ args = 0, pretend = 0, frame = 0
  31              		@ frame_needed = 0, uses_anonymous_args = 0
  32              	.LVL0:
  32:RunningAverage.c ****     bool retVal = false;
  33:RunningAverage.c ****     if(obj != NULL && num_bins < RUNNING_AVERAGE_BIN_MAX 
  33              		.loc 1 33 0
  34 0000 C8B1     		cbz	r0, .L5
  31:RunningAverage.c ****     bool retVal = false;
  35              		.loc 1 31 0 discriminator 1
  36 0002 38B5     		push	{r3, r4, r5, lr}
  37              		.cfi_def_cfa_offset 16
  38              		.cfi_offset 3, -16
  39              		.cfi_offset 4, -12
  40              		.cfi_offset 5, -8
  41              		.cfi_offset 14, -4
  42 0004 0446     		mov	r4, r0
  43              		.loc 1 33 0 discriminator 1
  44 0006 FF29     		cmp	r1, #255
  45 0008 17D8     		bhi	.L6
  34:RunningAverage.c ****             && num_bins >= RUNNING_AVERAGE_BIN_MIN){
  46              		.loc 1 34 0
  47 000a C1B1     		cbz	r1, .L7
  48 000c 0D46     		mov	r5, r1
  35:RunningAverage.c ****         obj->bins = (uint16_t*)(malloc(num_bins * sizeof(uint16_t)));
  49              		.loc 1 35 0
  50 000e 4800     		lsls	r0, r1, #1
  51              	.LVL1:
  52 0010 FFF7FEFF 		bl	malloc
  53              	.LVL2:
  54 0014 2060     		str	r0, [r4]
  36:RunningAverage.c ****         if(obj->bins != NULL){
  55              		.loc 1 36 0
  56 0016 A0B1     		cbz	r0, .L8
  57              	.LVL3:
  37:RunningAverage.c ****             retVal = true;
  38:RunningAverage.c ****             obj->head = 0;
  58              		.loc 1 38 0
  59 0018 0023     		movs	r3, #0
  60 001a E380     		strh	r3, [r4, #6]	@ movhi
  39:RunningAverage.c ****             obj->size = num_bins;
  61              		.loc 1 39 0
  62 001c A580     		strh	r5, [r4, #4]	@ movhi
  63              	.LVL4:
  64              	.LBB2:
  40:RunningAverage.c ****             for(uint16_t i=0; i<obj->size; ++i){
  65              		.loc 1 40 0
  66 001e 05E0     		b	.L3
  67              	.LVL5:
  68              	.L4:
  41:RunningAverage.c ****                 obj->bins[i] = 0;   
  69              		.loc 1 41 0 discriminator 3
  70 0020 2268     		ldr	r2, [r4]
  71 0022 0021     		movs	r1, #0
  72 0024 22F81310 		strh	r1, [r2, r3, lsl #1]	@ movhi
ARM GAS  C:\Users\HENRIC~1\AppData\Local\Temp\ccGuLHXs.s 			page 3


  40:RunningAverage.c ****             for(uint16_t i=0; i<obj->size; ++i){
  73              		.loc 1 40 0 discriminator 3
  74 0028 0133     		adds	r3, r3, #1
  75              	.LVL6:
  76 002a 9BB2     		uxth	r3, r3
  77              	.LVL7:
  78              	.L3:
  40:RunningAverage.c ****             for(uint16_t i=0; i<obj->size; ++i){
  79              		.loc 1 40 0 is_stmt 0 discriminator 1
  80 002c A288     		ldrh	r2, [r4, #4]
  81 002e 9342     		cmp	r3, r2
  82 0030 F6D3     		bcc	.L4
  83              	.LBE2:
  37:RunningAverage.c ****             obj->head = 0;
  84              		.loc 1 37 0 is_stmt 1
  85 0032 0120     		movs	r0, #1
  86              	.LBB3:
  87 0034 38BD     		pop	{r3, r4, r5, pc}
  88              	.LVL8:
  89              	.L5:
  90              		.cfi_def_cfa_offset 0
  91              		.cfi_restore 3
  92              		.cfi_restore 4
  93              		.cfi_restore 5
  94              		.cfi_restore 14
  95              	.LBE3:
  32:RunningAverage.c ****     if(obj != NULL && num_bins < RUNNING_AVERAGE_BIN_MAX 
  96              		.loc 1 32 0
  97 0036 0020     		movs	r0, #0
  98              	.LVL9:
  42:RunningAverage.c ****             }
  43:RunningAverage.c ****         }
  44:RunningAverage.c ****     }
  45:RunningAverage.c ****     return retVal;
  46:RunningAverage.c **** }
  99              		.loc 1 46 0
 100 0038 7047     		bx	lr
 101              	.LVL10:
 102              	.L6:
 103              		.cfi_def_cfa_offset 16
 104              		.cfi_offset 3, -16
 105              		.cfi_offset 4, -12
 106              		.cfi_offset 5, -8
 107              		.cfi_offset 14, -4
  32:RunningAverage.c ****     if(obj != NULL && num_bins < RUNNING_AVERAGE_BIN_MAX 
 108              		.loc 1 32 0
 109 003a 0020     		movs	r0, #0
 110              	.LVL11:
 111 003c 38BD     		pop	{r3, r4, r5, pc}
 112              	.LVL12:
 113              	.L7:
 114 003e 0020     		movs	r0, #0
 115              	.LVL13:
 116 0040 38BD     		pop	{r3, r4, r5, pc}
 117              	.LVL14:
 118              	.L8:
 119 0042 0020     		movs	r0, #0
ARM GAS  C:\Users\HENRIC~1\AppData\Local\Temp\ccGuLHXs.s 			page 4


 120              	.LVL15:
 121              		.loc 1 46 0
 122 0044 38BD     		pop	{r3, r4, r5, pc}
 123              		.cfi_endproc
 124              	.LFE0:
 125              		.size	running_average_init, .-running_average_init
 126 0046 00BF     		.section	.text.running_average_update,"ax",%progbits
 127              		.align	2
 128              		.global	running_average_update
 129              		.thumb
 130              		.thumb_func
 131              		.type	running_average_update, %function
 132              	running_average_update:
 133              	.LFB1:
  47:RunningAverage.c **** 
  48:RunningAverage.c **** /**
  49:RunningAverage.c ****  * Running average object update function. Replaces oldest value with the
  50:RunningAverage.c ****  * new supplied value.
  51:RunningAverage.c ****  * @param obj valid pointer to Running_Average object
  52:RunningAverage.c ****  * @param val is value to place into filter
  53:RunningAverage.c ****  */
  54:RunningAverage.c **** void running_average_update(Running_Average_t* obj, uint16_t val){
 134              		.loc 1 54 0
 135              		.cfi_startproc
 136              		@ args = 0, pretend = 0, frame = 0
 137              		@ frame_needed = 0, uses_anonymous_args = 0
 138              		@ link register save eliminated.
 139              	.LVL16:
  55:RunningAverage.c ****     if(obj != NULL && obj->bins != NULL && obj->head < obj->size
 140              		.loc 1 55 0
 141 0000 A0B1     		cbz	r0, .L14
 142 0002 0346     		mov	r3, r0
 143              		.loc 1 55 0 is_stmt 0 discriminator 1
 144 0004 0068     		ldr	r0, [r0]
 145              	.LVL17:
 146 0006 88B1     		cbz	r0, .L14
  54:RunningAverage.c ****     if(obj != NULL && obj->bins != NULL && obj->head < obj->size
 147              		.loc 1 54 0 is_stmt 1 discriminator 2
 148 0008 10B4     		push	{r4}
 149              		.cfi_def_cfa_offset 4
 150              		.cfi_offset 4, -4
 151              		.loc 1 55 0 discriminator 2
 152 000a DC88     		ldrh	r4, [r3, #6]
 153 000c 9A88     		ldrh	r2, [r3, #4]
 154 000e 9442     		cmp	r4, r2
 155 0010 0BD2     		bcs	.L10
  56:RunningAverage.c ****             && obj->size >= RUNNING_AVERAGE_BIN_MIN){
 156              		.loc 1 56 0
 157 0012 52B1     		cbz	r2, .L10
  57:RunningAverage.c ****         obj->bins[obj->head] = val;
 158              		.loc 1 57 0
 159 0014 20F81410 		strh	r1, [r0, r4, lsl #1]	@ movhi
  58:RunningAverage.c ****         obj->head = (++obj->head) % obj->size;
 160              		.loc 1 58 0
 161 0018 DA88     		ldrh	r2, [r3, #6]
 162 001a 0132     		adds	r2, r2, #1
 163 001c 92B2     		uxth	r2, r2
ARM GAS  C:\Users\HENRIC~1\AppData\Local\Temp\ccGuLHXs.s 			page 5


 164 001e 9888     		ldrh	r0, [r3, #4]
 165 0020 B2FBF0F1 		udiv	r1, r2, r0
 166              	.LVL18:
 167 0024 00FB1122 		mls	r2, r0, r1, r2
 168 0028 DA80     		strh	r2, [r3, #6]	@ movhi
 169              	.L10:
  59:RunningAverage.c ****     }
  60:RunningAverage.c **** }
 170              		.loc 1 60 0
 171 002a 10BC     		pop	{r4}
 172              		.cfi_restore 4
 173              		.cfi_def_cfa_offset 0
 174              	.LVL19:
 175              	.L14:
 176 002c 7047     		bx	lr
 177              		.cfi_endproc
 178              	.LFE1:
 179              		.size	running_average_update, .-running_average_update
 180              		.global	__aeabi_i2f
 181              		.global	__aeabi_fadd
 182              		.global	__aeabi_fdiv
 183              		.global	__aeabi_f2uiz
 184 002e 00BF     		.section	.text.running_average_result,"ax",%progbits
 185              		.align	2
 186              		.global	running_average_result
 187              		.thumb
 188              		.thumb_func
 189              		.type	running_average_result, %function
 190              	running_average_result:
 191              	.LFB2:
  61:RunningAverage.c **** 
  62:RunningAverage.c **** /**
  63:RunningAverage.c ****  * Running average object result calculation function. Calculates the average
  64:RunningAverage.c ****  * of all values in the filter. Note that the result will default to zero
  65:RunningAverage.c ****  * if the object is invalid. Additonally, at start of filter, due to lowpass
  66:RunningAverage.c ****  * nature, the result will ramp up from zero to the average input value
  67:RunningAverage.c ****  * @param obj valid pointer to Running_Average object
  68:RunningAverage.c ****  * @return average result from the filter
  69:RunningAverage.c ****  */
  70:RunningAverage.c **** uint16_t running_average_result(Running_Average_t* obj){
 192              		.loc 1 70 0
 193              		.cfi_startproc
 194              		@ args = 0, pretend = 0, frame = 0
 195              		@ frame_needed = 0, uses_anonymous_args = 0
 196              	.LVL20:
  71:RunningAverage.c ****     uint16_t retVal = 0;
  72:RunningAverage.c ****     if(obj != NULL && obj->bins != NULL 
 197              		.loc 1 72 0
 198 0000 08B3     		cbz	r0, .L19
  70:RunningAverage.c ****     uint16_t retVal = 0;
 199              		.loc 1 70 0 discriminator 1
 200 0002 F8B5     		push	{r3, r4, r5, r6, r7, lr}
 201              		.cfi_def_cfa_offset 24
 202              		.cfi_offset 3, -24
 203              		.cfi_offset 4, -20
 204              		.cfi_offset 5, -16
 205              		.cfi_offset 6, -12
ARM GAS  C:\Users\HENRIC~1\AppData\Local\Temp\ccGuLHXs.s 			page 6


 206              		.cfi_offset 7, -8
 207              		.cfi_offset 14, -4
 208              		.loc 1 72 0 discriminator 1
 209 0004 0768     		ldr	r7, [r0]
 210 0006 07B3     		cbz	r7, .L20
  73:RunningAverage.c ****             && obj->size >= RUNNING_AVERAGE_BIN_MIN){
 211              		.loc 1 73 0
 212 0008 8688     		ldrh	r6, [r0, #4]
 213 000a 6EB9     		cbnz	r6, .L21
  71:RunningAverage.c ****     uint16_t retVal = 0;
 214              		.loc 1 71 0
 215 000c 0020     		movs	r0, #0
 216              	.LVL21:
 217 000e F8BD     		pop	{r3, r4, r5, r6, r7, pc}
 218              	.LVL22:
 219              	.L18:
 220              	.LBB4:
 221              	.LBB5:
  74:RunningAverage.c ****         float sum = 0;
  75:RunningAverage.c ****         for(uint16_t i=0; i<obj->size; ++i){
  76:RunningAverage.c ****             sum += obj->bins[i];   
 222              		.loc 1 76 0 discriminator 3
 223 0010 37F81400 		ldrh	r0, [r7, r4, lsl #1]
 224 0014 FFF7FEFF 		bl	__aeabi_i2f
 225              	.LVL23:
 226 0018 0146     		mov	r1, r0
 227 001a 2846     		mov	r0, r5
 228 001c FFF7FEFF 		bl	__aeabi_fadd
 229              	.LVL24:
 230 0020 0546     		mov	r5, r0
 231              	.LVL25:
  75:RunningAverage.c ****             sum += obj->bins[i];   
 232              		.loc 1 75 0 discriminator 3
 233 0022 0134     		adds	r4, r4, #1
 234              	.LVL26:
 235 0024 A4B2     		uxth	r4, r4
 236              	.LVL27:
 237 0026 01E0     		b	.L17
 238              	.LVL28:
 239              	.L21:
 240              	.LBE5:
 241              	.LBE4:
 242 0028 0024     		movs	r4, #0
 243 002a 0025     		movs	r5, #0
 244              	.LVL29:
 245              	.L17:
 246              	.LBB7:
 247              	.LBB6:
  75:RunningAverage.c ****             sum += obj->bins[i];   
 248              		.loc 1 75 0 is_stmt 0 discriminator 1
 249 002c B442     		cmp	r4, r6
 250 002e EFD3     		bcc	.L18
 251              	.LBE6:
  77:RunningAverage.c ****         }
  78:RunningAverage.c ****         retVal = (uint16_t)(sum / obj->size);
 252              		.loc 1 78 0 is_stmt 1
 253 0030 3046     		mov	r0, r6
ARM GAS  C:\Users\HENRIC~1\AppData\Local\Temp\ccGuLHXs.s 			page 7


 254 0032 FFF7FEFF 		bl	__aeabi_i2f
 255              	.LVL30:
 256 0036 0146     		mov	r1, r0
 257 0038 2846     		mov	r0, r5
 258 003a FFF7FEFF 		bl	__aeabi_fdiv
 259              	.LVL31:
 260 003e FFF7FEFF 		bl	__aeabi_f2uiz
 261              	.LVL32:
 262 0042 80B2     		uxth	r0, r0
 263              	.LVL33:
 264 0044 F8BD     		pop	{r3, r4, r5, r6, r7, pc}
 265              	.LVL34:
 266              	.L19:
 267              		.cfi_def_cfa_offset 0
 268              		.cfi_restore 3
 269              		.cfi_restore 4
 270              		.cfi_restore 5
 271              		.cfi_restore 6
 272              		.cfi_restore 7
 273              		.cfi_restore 14
 274              	.LBE7:
  71:RunningAverage.c ****     if(obj != NULL && obj->bins != NULL 
 275              		.loc 1 71 0
 276 0046 0020     		movs	r0, #0
 277              	.LVL35:
  79:RunningAverage.c ****     }
  80:RunningAverage.c ****     return retVal;
  81:RunningAverage.c **** }
 278              		.loc 1 81 0
 279 0048 7047     		bx	lr
 280              	.LVL36:
 281              	.L20:
 282              		.cfi_def_cfa_offset 24
 283              		.cfi_offset 3, -24
 284              		.cfi_offset 4, -20
 285              		.cfi_offset 5, -16
 286              		.cfi_offset 6, -12
 287              		.cfi_offset 7, -8
 288              		.cfi_offset 14, -4
  71:RunningAverage.c ****     if(obj != NULL && obj->bins != NULL 
 289              		.loc 1 71 0
 290 004a 0020     		movs	r0, #0
 291              	.LVL37:
 292              		.loc 1 81 0
 293 004c F8BD     		pop	{r3, r4, r5, r6, r7, pc}
 294              		.cfi_endproc
 295              	.LFE2:
 296              		.size	running_average_result, .-running_average_result
 297 004e 00BF     		.section	.text.running_average_clear,"ax",%progbits
 298              		.align	2
 299              		.global	running_average_clear
 300              		.thumb
 301              		.thumb_func
 302              		.type	running_average_clear, %function
 303              	running_average_clear:
 304              	.LFB3:
  82:RunningAverage.c **** 
ARM GAS  C:\Users\HENRIC~1\AppData\Local\Temp\ccGuLHXs.s 			page 8


  83:RunningAverage.c **** /**
  84:RunningAverage.c ****  * Running average clear function will set all bins to zero.
  85:RunningAverage.c ****  * @param obj valid pointer to Running_Average object
  86:RunningAverage.c ****  */
  87:RunningAverage.c **** void running_average_clear(Running_Average_t* obj){
 305              		.loc 1 87 0
 306              		.cfi_startproc
 307              		@ args = 0, pretend = 0, frame = 0
 308              		@ frame_needed = 0, uses_anonymous_args = 0
 309              		@ link register save eliminated.
 310              	.LVL38:
  88:RunningAverage.c ****     if(obj != NULL && obj->bins != NULL){
 311              		.loc 1 88 0
 312 0000 0246     		mov	r2, r0
 313 0002 68B1     		cbz	r0, .L23
 314              		.loc 1 88 0 is_stmt 0 discriminator 1
 315 0004 0368     		ldr	r3, [r0]
 316 0006 3BB9     		cbnz	r3, .L27
 317              	.LBB8:
 318 0008 7047     		bx	lr
 319              	.LVL39:
 320              	.L26:
  89:RunningAverage.c ****         for(uint16_t i=0; i<obj->size; ++i){
  90:RunningAverage.c ****             obj->bins[i] = 0;   
 321              		.loc 1 90 0 is_stmt 1 discriminator 3
 322 000a 1168     		ldr	r1, [r2]
 323 000c 0020     		movs	r0, #0
 324 000e 21F81300 		strh	r0, [r1, r3, lsl #1]	@ movhi
  89:RunningAverage.c ****         for(uint16_t i=0; i<obj->size; ++i){
 325              		.loc 1 89 0 discriminator 3
 326 0012 0133     		adds	r3, r3, #1
 327              	.LVL40:
 328 0014 9BB2     		uxth	r3, r3
 329              	.LVL41:
 330 0016 00E0     		b	.L25
 331              	.LVL42:
 332              	.L27:
 333              	.LBE8:
 334 0018 0023     		movs	r3, #0
 335              	.LVL43:
 336              	.L25:
 337              	.LBB9:
  89:RunningAverage.c ****         for(uint16_t i=0; i<obj->size; ++i){
 338              		.loc 1 89 0 is_stmt 0 discriminator 1
 339 001a 9188     		ldrh	r1, [r2, #4]
 340 001c 8B42     		cmp	r3, r1
 341 001e F4D3     		bcc	.L26
 342              	.LVL44:
 343              	.L23:
 344 0020 7047     		bx	lr
 345              	.LBE9:
 346              		.cfi_endproc
 347              	.LFE3:
 348              		.size	running_average_clear, .-running_average_clear
 349 0022 00BF     		.section	.text.running_average_destroy,"ax",%progbits
 350              		.align	2
 351              		.global	running_average_destroy
ARM GAS  C:\Users\HENRIC~1\AppData\Local\Temp\ccGuLHXs.s 			page 9


 352              		.thumb
 353              		.thumb_func
 354              		.type	running_average_destroy, %function
 355              	running_average_destroy:
 356              	.LFB4:
  91:RunningAverage.c ****         }
  92:RunningAverage.c ****     }
  93:RunningAverage.c **** }
  94:RunningAverage.c **** 
  95:RunningAverage.c **** /**
  96:RunningAverage.c ****  * Running average destroy function will free heap memory and clear
  97:RunningAverage.c ****  * data members
  98:RunningAverage.c ****  * @param obj valid pointer to Running_Average object
  99:RunningAverage.c ****  */
 100:RunningAverage.c **** void running_average_destroy(Running_Average_t* obj){
 357              		.loc 1 100 0 is_stmt 1
 358              		.cfi_startproc
 359              		@ args = 0, pretend = 0, frame = 0
 360              		@ frame_needed = 0, uses_anonymous_args = 0
 361              	.LVL45:
 101:RunningAverage.c ****     if(obj != NULL && obj->bins != NULL){
 362              		.loc 1 101 0
 363 0000 50B1     		cbz	r0, .L31
 100:RunningAverage.c ****     if(obj != NULL && obj->bins != NULL){
 364              		.loc 1 100 0 discriminator 1
 365 0002 10B5     		push	{r4, lr}
 366              		.cfi_def_cfa_offset 8
 367              		.cfi_offset 4, -8
 368              		.cfi_offset 14, -4
 369 0004 0446     		mov	r4, r0
 370              		.loc 1 101 0 discriminator 1
 371 0006 0068     		ldr	r0, [r0]
 372              	.LVL46:
 373 0008 28B1     		cbz	r0, .L28
 102:RunningAverage.c ****         free(obj->bins);
 374              		.loc 1 102 0
 375 000a FFF7FEFF 		bl	free
 376              	.LVL47:
 103:RunningAverage.c ****         obj->bins = NULL;
 377              		.loc 1 103 0
 378 000e 0023     		movs	r3, #0
 379 0010 2360     		str	r3, [r4]
 104:RunningAverage.c ****         obj->head = 0;
 380              		.loc 1 104 0
 381 0012 E380     		strh	r3, [r4, #6]	@ movhi
 105:RunningAverage.c ****         obj->size = 0;
 382              		.loc 1 105 0
 383 0014 A380     		strh	r3, [r4, #4]	@ movhi
 384              	.L28:
 385 0016 10BD     		pop	{r4, pc}
 386              	.LVL48:
 387              	.L31:
 388              		.cfi_def_cfa_offset 0
 389              		.cfi_restore 4
 390              		.cfi_restore 14
 391 0018 7047     		bx	lr
 392              		.cfi_endproc
ARM GAS  C:\Users\HENRIC~1\AppData\Local\Temp\ccGuLHXs.s 			page 10


 393              	.LFE4:
 394              		.size	running_average_destroy, .-running_average_destroy
 395 001a 00BF     		.text
 396              	.Letext0:
 397              		.file 2 "c:\\program files (x86)\\cypress\\psoc creator\\4.1\\psoc creator\\import\\gnu\\arm\\5.4.
 398              		.file 3 "c:\\program files (x86)\\cypress\\psoc creator\\4.1\\psoc creator\\import\\gnu\\arm\\5.4.
 399              		.file 4 "RunningAverage.h"
 400              		.file 5 "c:\\program files (x86)\\cypress\\psoc creator\\4.1\\psoc creator\\import\\gnu\\arm\\5.4.