ARM GAS  C:\Users\HENRIC~1\AppData\Local\Temp\ccdIb3GY.s 			page 1


   1              		.syntax unified
   2              		.cpu cortex-m3
   3              		.fpu softvfp
   4              		.eabi_attribute 20, 1
   5              		.eabi_attribute 21, 1
   6              		.eabi_attribute 23, 3
   7              		.eabi_attribute 24, 1
   8              		.eabi_attribute 25, 1
   9              		.eabi_attribute 26, 1
  10              		.eabi_attribute 30, 1
  11              		.eabi_attribute 34, 1
  12              		.eabi_attribute 18, 4
  13              		.thumb
  14              		.syntax unified
  15              		.file	"Music.c"
  16              		.text
  17              	.Ltext0:
  18              		.cfi_sections	.debug_frame
  19              		.section	.text.music_isr,"ax",%progbits
  20              		.align	2
  21              		.global	music_isr
  22              		.thumb
  23              		.thumb_func
  24              		.type	music_isr, %function
  25              	music_isr:
  26              	.LFB67:
  27              		.file 1 "Music.c"
   1:Music.c       **** /**
   2:Music.c       ****  * Music
   3:Music.c       ****  * @author Curt Henrichs
   4:Music.c       ****  * @date 9-10-17
   5:Music.c       ****  * 
   6:Music.c       ****  * Music module provides interface to the Piezo buzzer hardware to produce
   7:Music.c       ****  * frequency modulated, variable duration waveforms. An object is developed
   8:Music.c       ****  * to interface with the hardware and create music arrays. Finally all 
   9:Music.c       ****  * operations return control quickly to the caller as the hardware uses
  10:Music.c       ****  * interruts to handle note clockout.
  11:Music.c       ****  */
  12:Music.c       **** 
  13:Music.c       **** //=============================================================================
  14:Music.c       **** //                                  Libraries
  15:Music.c       **** //=============================================================================
  16:Music.c       **** 
  17:Music.c       **** #include "Music.h"
  18:Music.c       **** #include <project.h>
  19:Music.c       **** 
  20:Music.c       **** //=============================================================================
  21:Music.c       **** //                        Constant and Macro Defintions
  22:Music.c       **** //=============================================================================
  23:Music.c       **** 
  24:Music.c       **** #define TONE_F_CLK_FREQ_IN 40000    //! Clock frequency that is divided for out
  25:Music.c       **** 
  26:Music.c       **** //=============================================================================
  27:Music.c       **** //                             Private Attributes
  28:Music.c       **** //=============================================================================
  29:Music.c       **** 
  30:Music.c       **** static const Note_t* _current_buffer = NULL; //! Music buffer association
ARM GAS  C:\Users\HENRIC~1\AppData\Local\Temp\ccdIb3GY.s 			page 2


  31:Music.c       **** static uint32_t _current_buffer_length = 0;  //! Size of buffer
  32:Music.c       **** static uint32_t _current_buffer_index = 0;   //! Index into buffer clockout
  33:Music.c       **** 
  34:Music.c       **** //=============================================================================
  35:Music.c       **** //                         Interrupt Handler Prototypes
  36:Music.c       **** //=============================================================================
  37:Music.c       **** 
  38:Music.c       **** /**
  39:Music.c       ****  * Music note clock out ISR is linked to the duration counter. Only active
  40:Music.c       ****  * when music is actively being played
  41:Music.c       ****  */
  42:Music.c       **** CY_ISR_PROTO(music_isr);
  43:Music.c       **** 
  44:Music.c       **** //=============================================================================
  45:Music.c       **** //                        Public Function Implementation
  46:Music.c       **** //=============================================================================
  47:Music.c       **** 
  48:Music.c       **** /**
  49:Music.c       ****  * Initalization function will start hardware, set ISRs for hardware, and
  50:Music.c       ****  * set internal data structures for playback.
  51:Music.c       ****  */
  52:Music.c       **** void music_init(void){
  53:Music.c       ****     Tone_F_Start();
  54:Music.c       ****     Tone_F_WriteCompare(0);
  55:Music.c       ****     Tone_D_Start();
  56:Music.c       ****     Tone_D_Stop(); //sets up hardware but then disables timer
  57:Music.c       ****     Tone_Int_StartEx(music_isr);
  58:Music.c       **** }
  59:Music.c       **** 
  60:Music.c       **** /**
  61:Music.c       ****  * Sets a tune to play. This is a non-blocking function so that other things
  62:Music.c       ****  * may happen. Most of the music generation is in hardware but a periodic 
  63:Music.c       ****  * interrupt is needed to update notes.
  64:Music.c       ****  * @param buffer is array of notes to play on the buzzer
  65:Music.c       ****  * @param length is the number of Notes in the buffer to play
  66:Music.c       ****  */
  67:Music.c       **** void music_set_tune(const Note_t* buffer, uint32_t length){
  68:Music.c       ****     Tone_Int_Disable();
  69:Music.c       ****     
  70:Music.c       ****     //copy buffer location for playback
  71:Music.c       ****     _current_buffer = buffer;
  72:Music.c       ****     _current_buffer_length = length;
  73:Music.c       ****     _current_buffer_index = 0;
  74:Music.c       ****     
  75:Music.c       ****     //set up timer counter
  76:Music.c       ****     Tone_D_WritePeriod(1);
  77:Music.c       ****     Tone_D_WriteCounter(0);
  78:Music.c       ****     Tone_Int_Enable();
  79:Music.c       ****     Tone_D_Start();
  80:Music.c       **** }
  81:Music.c       **** 
  82:Music.c       **** /**
  83:Music.c       ****  * Checks to see if the music is still playing
  84:Music.c       ****  * @return 1 if music is playing else 0
  85:Music.c       ****  */
  86:Music.c       **** uint8_t music_is_playing(void){
  87:Music.c       ****     return _current_buffer != NULL;   
ARM GAS  C:\Users\HENRIC~1\AppData\Local\Temp\ccdIb3GY.s 			page 3


  88:Music.c       **** }
  89:Music.c       **** 
  90:Music.c       **** /**
  91:Music.c       ****  * Stops the music from playing then clears the music buffer assoication
  92:Music.c       ****  */
  93:Music.c       **** void music_stop_playing(void){
  94:Music.c       ****     _current_buffer = NULL;
  95:Music.c       ****     Tone_F_WriteCompare(0);
  96:Music.c       ****     Tone_D_Stop();
  97:Music.c       **** }
  98:Music.c       **** 
  99:Music.c       **** //=============================================================================
 100:Music.c       **** //                       Interrupt Handler Implementation
 101:Music.c       **** //=============================================================================
 102:Music.c       **** 
 103:Music.c       **** /**
 104:Music.c       ****  * Music note clock out ISR is linked to the duration counter. Only active
 105:Music.c       ****  * when music is actively being played
 106:Music.c       ****  */
 107:Music.c       **** CY_ISR(music_isr){
  28              		.loc 1 107 0
  29              		.cfi_startproc
  30              		@ args = 0, pretend = 0, frame = 0
  31              		@ frame_needed = 0, uses_anonymous_args = 0
  32 0000 38B5     		push	{r3, r4, r5, lr}
  33              		.cfi_def_cfa_offset 16
  34              		.cfi_offset 3, -16
  35              		.cfi_offset 4, -12
  36              		.cfi_offset 5, -8
  37              		.cfi_offset 14, -4
 108:Music.c       ****     Tone_D_Stop();
  38              		.loc 1 108 0
  39 0002 FFF7FEFF 		bl	Tone_D_Stop
  40              	.LVL0:
 109:Music.c       ****     
 110:Music.c       ****     if(_current_buffer != NULL){
  41              		.loc 1 110 0
  42 0006 1B4B     		ldr	r3, .L9
  43 0008 1A68     		ldr	r2, [r3]
  44 000a 72B3     		cbz	r2, .L2
 111:Music.c       ****         if(_current_buffer_index >= _current_buffer_length){
  45              		.loc 1 111 0
  46 000c 1946     		mov	r1, r3
  47 000e 5B68     		ldr	r3, [r3, #4]
  48 0010 8968     		ldr	r1, [r1, #8]
  49 0012 8B42     		cmp	r3, r1
  50 0014 07D3     		bcc	.L3
 112:Music.c       ****             //end of tune
 113:Music.c       ****             _current_buffer = NULL;
  51              		.loc 1 113 0
  52 0016 0020     		movs	r0, #0
  53 0018 164B     		ldr	r3, .L9
  54 001a 1860     		str	r0, [r3]
 114:Music.c       ****             Tone_F_WriteCompare(0);
  55              		.loc 1 114 0
  56 001c FFF7FEFF 		bl	Tone_F_WriteCompare
  57              	.LVL1:
ARM GAS  C:\Users\HENRIC~1\AppData\Local\Temp\ccdIb3GY.s 			page 4


 115:Music.c       ****             Tone_D_Stop();
  58              		.loc 1 115 0
  59 0020 FFF7FEFF 		bl	Tone_D_Stop
  60              	.LVL2:
  61 0024 21E0     		b	.L2
  62              	.L3:
  63              	.LBB2:
 116:Music.c       ****         }else{
 117:Music.c       ****             //play for current frequency and duration
 118:Music.c       ****             uint16_t freq = _current_buffer[_current_buffer_index].frequency;
  64              		.loc 1 118 0
  65 0026 02EB8301 		add	r1, r2, r3, lsl #2
  66 002a 32F82320 		ldrh	r2, [r2, r3, lsl #2]
  67              	.LVL3:
 119:Music.c       ****             uint16_t per = TONE_F_CLK_FREQ_IN / ((freq > 0)? freq : 1);
  68              		.loc 1 119 0
  69 002e 22B1     		cbz	r2, .L6
  70              		.loc 1 119 0 is_stmt 0 discriminator 1
  71 0030 49F64040 		movw	r0, #40000
  72 0034 90FBF2F0 		sdiv	r0, r0, r2
  73 0038 01E0     		b	.L4
  74              	.L6:
  75              		.loc 1 119 0
  76 003a 49F64040 		movw	r0, #40000
  77              	.L4:
  78              	.LVL4:
 120:Music.c       ****             uint16_t cmp = (freq > 0) ? per / 2 : 0;
  79              		.loc 1 120 0 is_stmt 1 discriminator 4
  80 003e 12B1     		cbz	r2, .L7
  81              		.loc 1 120 0 is_stmt 0 discriminator 1
  82 0040 C0F34F05 		ubfx	r5, r0, #1, #16
  83 0044 00E0     		b	.L5
  84              	.L7:
  85              		.loc 1 120 0
  86 0046 0025     		movs	r5, #0
  87              	.L5:
  88              	.LVL5:
 121:Music.c       ****             uint16_t dur = _current_buffer[_current_buffer_index].duration;
  89              		.loc 1 121 0 is_stmt 1 discriminator 4
  90 0048 4C88     		ldrh	r4, [r1, #2]
  91              	.LVL6:
 122:Music.c       ****             _current_buffer_index++;
  92              		.loc 1 122 0 discriminator 4
  93 004a 0133     		adds	r3, r3, #1
  94 004c 094A     		ldr	r2, .L9
  95              	.LVL7:
  96 004e 5360     		str	r3, [r2, #4]
 123:Music.c       ****             
 124:Music.c       ****             Tone_F_WritePeriod(per);
  97              		.loc 1 124 0 discriminator 4
  98 0050 FFF7FEFF 		bl	Tone_F_WritePeriod
  99              	.LVL8:
 125:Music.c       ****             Tone_F_WriteCompare(cmp);
 100              		.loc 1 125 0 discriminator 4
 101 0054 2846     		mov	r0, r5
 102 0056 FFF7FEFF 		bl	Tone_F_WriteCompare
 103              	.LVL9:
ARM GAS  C:\Users\HENRIC~1\AppData\Local\Temp\ccdIb3GY.s 			page 5


 126:Music.c       ****             Tone_D_WritePeriod(dur);
 104              		.loc 1 126 0 discriminator 4
 105 005a 2046     		mov	r0, r4
 106 005c FFF7FEFF 		bl	Tone_D_WritePeriod
 107              	.LVL10:
 127:Music.c       ****             Tone_D_WriteCounter(0);
 108              		.loc 1 127 0 discriminator 4
 109 0060 0020     		movs	r0, #0
 110 0062 FFF7FEFF 		bl	Tone_D_WriteCounter
 111              	.LVL11:
 128:Music.c       ****             Tone_D_Start();
 112              		.loc 1 128 0 discriminator 4
 113 0066 FFF7FEFF 		bl	Tone_D_Start
 114              	.LVL12:
 115              	.L2:
 116              	.LBE2:
 129:Music.c       ****         }
 130:Music.c       ****     }
 131:Music.c       ****     Tone_D_ReadStatusRegister();
 117              		.loc 1 131 0
 118 006a FFF7FEFF 		bl	Tone_D_ReadStatusRegister
 119              	.LVL13:
 132:Music.c       ****     Tone_Int_ClearPending();
 120              		.loc 1 132 0
 121 006e FFF7FEFF 		bl	Tone_Int_ClearPending
 122              	.LVL14:
 123 0072 38BD     		pop	{r3, r4, r5, pc}
 124              	.L10:
 125              		.align	2
 126              	.L9:
 127 0074 00000000 		.word	.LANCHOR0
 128              		.cfi_endproc
 129              	.LFE67:
 130              		.size	music_isr, .-music_isr
 131              		.section	.text.music_init,"ax",%progbits
 132              		.align	2
 133              		.global	music_init
 134              		.thumb
 135              		.thumb_func
 136              		.type	music_init, %function
 137              	music_init:
 138              	.LFB63:
  52:Music.c       ****     Tone_F_Start();
 139              		.loc 1 52 0
 140              		.cfi_startproc
 141              		@ args = 0, pretend = 0, frame = 0
 142              		@ frame_needed = 0, uses_anonymous_args = 0
 143 0000 08B5     		push	{r3, lr}
 144              		.cfi_def_cfa_offset 8
 145              		.cfi_offset 3, -8
 146              		.cfi_offset 14, -4
  53:Music.c       ****     Tone_F_WriteCompare(0);
 147              		.loc 1 53 0
 148 0002 FFF7FEFF 		bl	Tone_F_Start
 149              	.LVL15:
  54:Music.c       ****     Tone_D_Start();
 150              		.loc 1 54 0
ARM GAS  C:\Users\HENRIC~1\AppData\Local\Temp\ccdIb3GY.s 			page 6


 151 0006 0020     		movs	r0, #0
 152 0008 FFF7FEFF 		bl	Tone_F_WriteCompare
 153              	.LVL16:
  55:Music.c       ****     Tone_D_Stop(); //sets up hardware but then disables timer
 154              		.loc 1 55 0
 155 000c FFF7FEFF 		bl	Tone_D_Start
 156              	.LVL17:
  56:Music.c       ****     Tone_Int_StartEx(music_isr);
 157              		.loc 1 56 0
 158 0010 FFF7FEFF 		bl	Tone_D_Stop
 159              	.LVL18:
  57:Music.c       **** }
 160              		.loc 1 57 0
 161 0014 0148     		ldr	r0, .L13
 162 0016 FFF7FEFF 		bl	Tone_Int_StartEx
 163              	.LVL19:
 164 001a 08BD     		pop	{r3, pc}
 165              	.L14:
 166              		.align	2
 167              	.L13:
 168 001c 00000000 		.word	music_isr
 169              		.cfi_endproc
 170              	.LFE63:
 171              		.size	music_init, .-music_init
 172              		.section	.text.music_set_tune,"ax",%progbits
 173              		.align	2
 174              		.global	music_set_tune
 175              		.thumb
 176              		.thumb_func
 177              		.type	music_set_tune, %function
 178              	music_set_tune:
 179              	.LFB64:
  67:Music.c       ****     Tone_Int_Disable();
 180              		.loc 1 67 0
 181              		.cfi_startproc
 182              		@ args = 0, pretend = 0, frame = 0
 183              		@ frame_needed = 0, uses_anonymous_args = 0
 184              	.LVL20:
 185 0000 38B5     		push	{r3, r4, r5, lr}
 186              		.cfi_def_cfa_offset 16
 187              		.cfi_offset 3, -16
 188              		.cfi_offset 4, -12
 189              		.cfi_offset 5, -8
 190              		.cfi_offset 14, -4
 191 0002 0546     		mov	r5, r0
 192 0004 0C46     		mov	r4, r1
  68:Music.c       ****     
 193              		.loc 1 68 0
 194 0006 FFF7FEFF 		bl	Tone_Int_Disable
 195              	.LVL21:
  71:Music.c       ****     _current_buffer_length = length;
 196              		.loc 1 71 0
 197 000a 084B     		ldr	r3, .L17
 198 000c 1D60     		str	r5, [r3]
  72:Music.c       ****     _current_buffer_index = 0;
 199              		.loc 1 72 0
 200 000e 9C60     		str	r4, [r3, #8]
ARM GAS  C:\Users\HENRIC~1\AppData\Local\Temp\ccdIb3GY.s 			page 7


  73:Music.c       ****     
 201              		.loc 1 73 0
 202 0010 0024     		movs	r4, #0
 203              	.LVL22:
 204 0012 5C60     		str	r4, [r3, #4]
  76:Music.c       ****     Tone_D_WriteCounter(0);
 205              		.loc 1 76 0
 206 0014 0120     		movs	r0, #1
 207 0016 FFF7FEFF 		bl	Tone_D_WritePeriod
 208              	.LVL23:
  77:Music.c       ****     Tone_Int_Enable();
 209              		.loc 1 77 0
 210 001a 2046     		mov	r0, r4
 211 001c FFF7FEFF 		bl	Tone_D_WriteCounter
 212              	.LVL24:
  78:Music.c       ****     Tone_D_Start();
 213              		.loc 1 78 0
 214 0020 FFF7FEFF 		bl	Tone_Int_Enable
 215              	.LVL25:
  79:Music.c       **** }
 216              		.loc 1 79 0
 217 0024 FFF7FEFF 		bl	Tone_D_Start
 218              	.LVL26:
 219 0028 38BD     		pop	{r3, r4, r5, pc}
 220              	.LVL27:
 221              	.L18:
 222 002a 00BF     		.align	2
 223              	.L17:
 224 002c 00000000 		.word	.LANCHOR0
 225              		.cfi_endproc
 226              	.LFE64:
 227              		.size	music_set_tune, .-music_set_tune
 228              		.section	.text.music_is_playing,"ax",%progbits
 229              		.align	2
 230              		.global	music_is_playing
 231              		.thumb
 232              		.thumb_func
 233              		.type	music_is_playing, %function
 234              	music_is_playing:
 235              	.LFB65:
  86:Music.c       ****     return _current_buffer != NULL;   
 236              		.loc 1 86 0
 237              		.cfi_startproc
 238              		@ args = 0, pretend = 0, frame = 0
 239              		@ frame_needed = 0, uses_anonymous_args = 0
 240              		@ link register save eliminated.
  87:Music.c       **** }
 241              		.loc 1 87 0
 242 0000 024B     		ldr	r3, .L20
 243 0002 1868     		ldr	r0, [r3]
  88:Music.c       **** 
 244              		.loc 1 88 0
 245 0004 0030     		adds	r0, r0, #0
 246 0006 18BF     		it	ne
 247 0008 0120     		movne	r0, #1
 248 000a 7047     		bx	lr
 249              	.L21:
ARM GAS  C:\Users\HENRIC~1\AppData\Local\Temp\ccdIb3GY.s 			page 8


 250              		.align	2
 251              	.L20:
 252 000c 00000000 		.word	.LANCHOR0
 253              		.cfi_endproc
 254              	.LFE65:
 255              		.size	music_is_playing, .-music_is_playing
 256              		.section	.text.music_stop_playing,"ax",%progbits
 257              		.align	2
 258              		.global	music_stop_playing
 259              		.thumb
 260              		.thumb_func
 261              		.type	music_stop_playing, %function
 262              	music_stop_playing:
 263              	.LFB66:
  93:Music.c       ****     _current_buffer = NULL;
 264              		.loc 1 93 0
 265              		.cfi_startproc
 266              		@ args = 0, pretend = 0, frame = 0
 267              		@ frame_needed = 0, uses_anonymous_args = 0
 268 0000 08B5     		push	{r3, lr}
 269              		.cfi_def_cfa_offset 8
 270              		.cfi_offset 3, -8
 271              		.cfi_offset 14, -4
  94:Music.c       ****     Tone_F_WriteCompare(0);
 272              		.loc 1 94 0
 273 0002 0020     		movs	r0, #0
 274 0004 034B     		ldr	r3, .L24
 275 0006 1860     		str	r0, [r3]
  95:Music.c       ****     Tone_D_Stop();
 276              		.loc 1 95 0
 277 0008 FFF7FEFF 		bl	Tone_F_WriteCompare
 278              	.LVL28:
  96:Music.c       **** }
 279              		.loc 1 96 0
 280 000c FFF7FEFF 		bl	Tone_D_Stop
 281              	.LVL29:
 282 0010 08BD     		pop	{r3, pc}
 283              	.L25:
 284 0012 00BF     		.align	2
 285              	.L24:
 286 0014 00000000 		.word	.LANCHOR0
 287              		.cfi_endproc
 288              	.LFE66:
 289              		.size	music_stop_playing, .-music_stop_playing
 290              		.bss
 291              		.align	2
 292              		.set	.LANCHOR0,. + 0
 293              		.type	_current_buffer, %object
 294              		.size	_current_buffer, 4
 295              	_current_buffer:
 296 0000 00000000 		.space	4
 297              		.type	_current_buffer_index, %object
 298              		.size	_current_buffer_index, 4
 299              	_current_buffer_index:
 300 0004 00000000 		.space	4
 301              		.type	_current_buffer_length, %object
 302              		.size	_current_buffer_length, 4
ARM GAS  C:\Users\HENRIC~1\AppData\Local\Temp\ccdIb3GY.s 			page 9


 303              	_current_buffer_length:
 304 0008 00000000 		.space	4
 305              		.text
 306              	.Letext0:
 307              		.file 2 "c:\\program files (x86)\\cypress\\psoc creator\\4.1\\psoc creator\\import\\gnu\\arm\\5.4.
 308              		.file 3 "c:\\program files (x86)\\cypress\\psoc creator\\4.1\\psoc creator\\import\\gnu\\arm\\5.4.
 309              		.file 4 "Music.h"
 310              		.file 5 "Generated_Source\\PSoC5/Tone_F.h"
 311              		.file 6 "Generated_Source\\PSoC5/Tone_D.h"
 312              		.file 7 "Generated_Source\\PSoC5/Tone_Int.h"
 313              		.file 8 "Generated_Source\\PSoC5/core_cm3.h"