ARM GAS  C:\Users\HENRIC~1\AppData\Local\Temp\cc86Zx9i.s 			page 1


   1              		.syntax unified
   2              		.cpu cortex-m3
   3              		.fpu softvfp
   4              		.eabi_attribute 20, 1
   5              		.eabi_attribute 21, 1
   6              		.eabi_attribute 23, 3
   7              		.eabi_attribute 24, 1
   8              		.eabi_attribute 25, 1
   9              		.eabi_attribute 26, 1
  10              		.eabi_attribute 30, 1
  11              		.eabi_attribute 34, 1
  12              		.eabi_attribute 18, 4
  13              		.thumb
  14              		.syntax unified
  15              		.file	"UserIn.c"
  16              		.text
  17              	.Ltext0:
  18              		.cfi_sections	.debug_frame
  19              		.section	.text.userIn_init,"ax",%progbits
  20              		.align	2
  21              		.global	userIn_init
  22              		.thumb
  23              		.thumb_func
  24              		.type	userIn_init, %function
  25              	userIn_init:
  26              	.LFB63:
  27              		.file 1 "UserIn.c"
   1:UserIn.c      **** /**
   2:UserIn.c      ****  * UserIn
   3:UserIn.c      ****  * @author Curt Henrichs
   4:UserIn.c      ****  * @date 9-23-17
   5:UserIn.c      ****  * 
   6:UserIn.c      ****  * User Input module abstracts all user input hardware into a common module.
   7:UserIn.c      ****  * The goal is to decouple the hardware API from the software application.
   8:UserIn.c      ****  * Currently only a CapSense device is used with two buttons and a slider.
   9:UserIn.c      ****  * Future input would need to extend this module.
  10:UserIn.c      ****  */
  11:UserIn.c      **** 
  12:UserIn.c      **** //=============================================================================
  13:UserIn.c      **** //                                 Library
  14:UserIn.c      **** //=============================================================================
  15:UserIn.c      **** 
  16:UserIn.c      **** #include "UserIn.h"
  17:UserIn.c      **** #include <project.h>
  18:UserIn.c      **** 
  19:UserIn.c      **** //=============================================================================
  20:UserIn.c      **** //                        Constant and Macro Definitions
  21:UserIn.c      **** //=============================================================================
  22:UserIn.c      **** 
  23:UserIn.c      **** #define CAPSENSE_SETTLE_TIME 100
  24:UserIn.c      **** 
  25:UserIn.c      **** //=============================================================================
  26:UserIn.c      **** //                        Public Function Implementation
  27:UserIn.c      **** //=============================================================================
  28:UserIn.c      **** 
  29:UserIn.c      **** /**
  30:UserIn.c      ****  * User input initalization function will start any hardware necessary to
ARM GAS  C:\Users\HENRIC~1\AppData\Local\Temp\cc86Zx9i.s 			page 2


  31:UserIn.c      ****  * process user input events.
  32:UserIn.c      ****  */
  33:UserIn.c      **** void userIn_init(void){
  28              		.loc 1 33 0
  29              		.cfi_startproc
  30              		@ args = 0, pretend = 0, frame = 0
  31              		@ frame_needed = 0, uses_anonymous_args = 0
  32 0000 08B5     		push	{r3, lr}
  33              		.cfi_def_cfa_offset 8
  34              		.cfi_offset 3, -8
  35              		.cfi_offset 14, -4
  34:UserIn.c      ****     CapSense_Start();
  36              		.loc 1 34 0
  37 0002 FFF7FEFF 		bl	CapSense_Start
  38              	.LVL0:
  35:UserIn.c      ****     CyDelay(CAPSENSE_SETTLE_TIME);
  39              		.loc 1 35 0
  40 0006 6420     		movs	r0, #100
  41 0008 FFF7FEFF 		bl	CyDelay
  42              	.LVL1:
  36:UserIn.c      ****     CapSense_InitializeAllBaselines();
  43              		.loc 1 36 0
  44 000c FFF7FEFF 		bl	CapSense_InitializeAllBaselines
  45              	.LVL2:
  46 0010 08BD     		pop	{r3, pc}
  47              		.cfi_endproc
  48              	.LFE63:
  49              		.size	userIn_init, .-userIn_init
  50 0012 00BF     		.section	.text.userIn_check_slider_state,"ax",%progbits
  51              		.align	2
  52              		.global	userIn_check_slider_state
  53              		.thumb
  54              		.thumb_func
  55              		.type	userIn_check_slider_state, %function
  56              	userIn_check_slider_state:
  57              	.LFB64:
  37:UserIn.c      **** }
  38:UserIn.c      **** 
  39:UserIn.c      **** /**
  40:UserIn.c      ****  * User input process slider function will process the capacitive touch slider
  41:UserIn.c      ****  * for user input.
  42:UserIn.c      ****  * @param obj is pointer to Slider_Event_t object to assist in processing of
  43:UserIn.c      ****  *        slider data.
  44:UserIn.c      ****  * @param id is slider to check
  45:UserIn.c      ****  * @return current state of the slider
  46:UserIn.c      ****  */
  47:UserIn.c      **** Slider_e userIn_check_slider_state(Slider_Event_t* obj, uint8_t id){  
  58              		.loc 1 47 0
  59              		.cfi_startproc
  60              		@ args = 0, pretend = 0, frame = 0
  61              		@ frame_needed = 0, uses_anonymous_args = 0
  62              	.LVL3:
  48:UserIn.c      ****     //parameter check
  49:UserIn.c      ****     if(obj == NULL){
  63              		.loc 1 49 0
  64 0000 0028     		cmp	r0, #0
  65 0002 4AD0     		beq	.L11
ARM GAS  C:\Users\HENRIC~1\AppData\Local\Temp\cc86Zx9i.s 			page 3


  47:UserIn.c      ****     //parameter check
  66              		.loc 1 47 0
  67 0004 10B5     		push	{r4, lr}
  68              		.cfi_def_cfa_offset 8
  69              		.cfi_offset 4, -8
  70              		.cfi_offset 14, -4
  71 0006 0446     		mov	r4, r0
  72 0008 0846     		mov	r0, r1
  73              	.LVL4:
  50:UserIn.c      ****         return SLIDE_NO_MATCH;   
  51:UserIn.c      ****     }
  52:UserIn.c      ****     
  53:UserIn.c      ****     //process slider
  54:UserIn.c      ****     Slider_e retVal;
  55:UserIn.c      ****     uint16_t pos = CapSense_GetCentroidPos(id);
  74              		.loc 1 55 0
  75 000a FFF7FEFF 		bl	CapSense_GetCentroidPos
  76              	.LVL5:
  56:UserIn.c      **** 
  57:UserIn.c      ****     //if start of button press
  58:UserIn.c      ****     if(obj->prev_val == NO_TOUCH_ON_SLIDER 
  77              		.loc 1 58 0
  78 000e 2388     		ldrh	r3, [r4]
  79 0010 4FF6FF72 		movw	r2, #65535
  80 0014 9342     		cmp	r3, r2
  81 0016 06D1     		bne	.L5
  59:UserIn.c      ****             && pos != NO_TOUCH_ON_SLIDER){
  82              		.loc 1 59 0
  83 0018 9042     		cmp	r0, r2
  84 001a 04D0     		beq	.L5
  85              	.LVL6:
  60:UserIn.c      ****         retVal = SLIDE_NOT_DETERMINED;
  61:UserIn.c      ****         obj->dir = 0;
  86              		.loc 1 61 0
  87 001c 0023     		movs	r3, #0
  88 001e A370     		strb	r3, [r4, #2]
  62:UserIn.c      ****         obj->origin = pos;
  89              		.loc 1 62 0
  90 0020 E070     		strb	r0, [r4, #3]
  60:UserIn.c      ****         retVal = SLIDE_NOT_DETERMINED;
  91              		.loc 1 60 0
  92 0022 0423     		movs	r3, #4
  93              		.loc 1 62 0
  94 0024 36E0     		b	.L6
  95              	.LVL7:
  96              	.L5:
  63:UserIn.c      ****     }
  64:UserIn.c      ****     //else if up event
  65:UserIn.c      ****     else if(obj->prev_val != NO_TOUCH_ON_SLIDER 
  97              		.loc 1 65 0
  98 0026 4FF6FF72 		movw	r2, #65535
  99 002a 9342     		cmp	r3, r2
 100 002c 0CD0     		beq	.L7
  66:UserIn.c      ****             && pos == NO_TOUCH_ON_SLIDER){
 101              		.loc 1 66 0
 102 002e 9042     		cmp	r0, r2
 103 0030 0AD1     		bne	.L7
ARM GAS  C:\Users\HENRIC~1\AppData\Local\Temp\cc86Zx9i.s 			page 4


  67:UserIn.c      ****         //if slide a left, right, or no match?
  68:UserIn.c      ****         if(obj->origin <= SLIDE_RIGHT_START 
 104              		.loc 1 68 0
 105 0032 E278     		ldrb	r2, [r4, #3]	@ zero_extendqisi2
 106 0034 192A     		cmp	r2, #25
 107 0036 01D8     		bhi	.L8
  69:UserIn.c      ****                 && obj->prev_val >= SLIDE_RIGHT_END){
 108              		.loc 1 69 0
 109 0038 4A2B     		cmp	r3, #74
 110 003a 20D8     		bhi	.L12
 111              	.L8:
  70:UserIn.c      ****             retVal = SLIDE_RIGHT;
  71:UserIn.c      ****         }else if(obj->origin >= SLIDE_LEFT_START 
 112              		.loc 1 71 0
 113 003c 4A2A     		cmp	r2, #74
 114 003e 20D9     		bls	.L13
  72:UserIn.c      ****                 && obj->prev_val <= SLIDE_LEFT_END){
 115              		.loc 1 72 0
 116 0040 192B     		cmp	r3, #25
 117 0042 20D9     		bls	.L14
  73:UserIn.c      ****             retVal = SLIDE_LEFT;
  74:UserIn.c      ****         }else{
  75:UserIn.c      ****             retVal = SLIDE_OFF;
 118              		.loc 1 75 0
 119 0044 0023     		movs	r3, #0
 120 0046 25E0     		b	.L6
 121              	.L7:
  76:UserIn.c      ****         }
  77:UserIn.c      ****     }
  78:UserIn.c      ****     //else if not touching consistent event
  79:UserIn.c      ****     else if(obj->prev_val == NO_TOUCH_ON_SLIDER 
 122              		.loc 1 79 0
 123 0048 4FF6FF72 		movw	r2, #65535
 124 004c 9342     		cmp	r3, r2
 125 004e 01D1     		bne	.L9
  80:UserIn.c      ****             && pos == NO_TOUCH_ON_SLIDER){
 126              		.loc 1 80 0
 127 0050 9042     		cmp	r0, r2
 128 0052 1AD0     		beq	.L15
 129              	.L9:
 130              	.LVL8:
 131              	.LBB2:
  81:UserIn.c      ****         retVal = SLIDE_OFF;
  82:UserIn.c      ****     }
  83:UserIn.c      ****     //else currently sliding
  84:UserIn.c      ****     else{
  85:UserIn.c      ****         retVal = SLIDE_NOT_DETERMINED;
  86:UserIn.c      ****         
  87:UserIn.c      ****         //if user starts moving in the reverse direction, reset origin
  88:UserIn.c      ****         int8_t curr_dir = pos - obj->prev_val;
 132              		.loc 1 88 0
 133 0054 C2B2     		uxtb	r2, r0
 134 0056 D31A     		subs	r3, r2, r3
 135 0058 5BB2     		sxtb	r3, r3
 136              	.LVL9:
  89:UserIn.c      ****         curr_dir = (curr_dir > 0) ? 1 : (curr_dir < 0) ? -1 : 0;
 137              		.loc 1 89 0
ARM GAS  C:\Users\HENRIC~1\AppData\Local\Temp\cc86Zx9i.s 			page 5


 138 005a 002B     		cmp	r3, #0
 139 005c 03DC     		bgt	.L16
 140              		.loc 1 89 0 is_stmt 0 discriminator 1
 141 005e 04DA     		bge	.L17
 142              		.loc 1 89 0
 143 0060 4FF0FF33 		mov	r3, #-1
 144              	.LVL10:
 145 0064 02E0     		b	.L10
 146              	.LVL11:
 147              	.L16:
 148 0066 0123     		movs	r3, #1
 149              	.LVL12:
 150 0068 00E0     		b	.L10
 151              	.LVL13:
 152              	.L17:
 153 006a 0023     		movs	r3, #0
 154              	.LVL14:
 155              	.L10:
  90:UserIn.c      ****         if(curr_dir != 0 && curr_dir != obj->dir){
 156              		.loc 1 90 0 is_stmt 1 discriminator 8
 157 006c 7BB1     		cbz	r3, .L18
 158              		.loc 1 90 0 is_stmt 0 discriminator 1
 159 006e 94F90210 		ldrsb	r1, [r4, #2]
 160 0072 8B42     		cmp	r3, r1
 161 0074 0DD0     		beq	.L19
  91:UserIn.c      ****             obj->dir = curr_dir;
 162              		.loc 1 91 0 is_stmt 1
 163 0076 A370     		strb	r3, [r4, #2]
  92:UserIn.c      ****             obj->origin = pos;
 164              		.loc 1 92 0
 165 0078 E270     		strb	r2, [r4, #3]
  85:UserIn.c      ****         
 166              		.loc 1 85 0
 167 007a 0423     		movs	r3, #4
 168              	.LVL15:
 169 007c 0AE0     		b	.L6
 170              	.LVL16:
 171              	.L12:
 172              	.LBE2:
  70:UserIn.c      ****         }else if(obj->origin >= SLIDE_LEFT_START 
 173              		.loc 1 70 0
 174 007e 0223     		movs	r3, #2
 175 0080 08E0     		b	.L6
 176              	.L13:
  75:UserIn.c      ****         }
 177              		.loc 1 75 0
 178 0082 0023     		movs	r3, #0
 179 0084 06E0     		b	.L6
 180              	.L14:
  73:UserIn.c      ****         }else{
 181              		.loc 1 73 0
 182 0086 0123     		movs	r3, #1
 183 0088 04E0     		b	.L6
 184              	.L15:
  81:UserIn.c      ****     }
 185              		.loc 1 81 0
 186 008a 0023     		movs	r3, #0
ARM GAS  C:\Users\HENRIC~1\AppData\Local\Temp\cc86Zx9i.s 			page 6


 187 008c 02E0     		b	.L6
 188              	.LVL17:
 189              	.L18:
 190              	.LBB3:
  85:UserIn.c      ****         
 191              		.loc 1 85 0
 192 008e 0423     		movs	r3, #4
 193              	.LVL18:
 194 0090 00E0     		b	.L6
 195              	.LVL19:
 196              	.L19:
 197 0092 0423     		movs	r3, #4
 198              	.LVL20:
 199              	.L6:
 200              	.LBE3:
  93:UserIn.c      ****         }
  94:UserIn.c      ****     }
  95:UserIn.c      ****     obj->prev_val = pos;
 201              		.loc 1 95 0
 202 0094 2080     		strh	r0, [r4]	@ movhi
  96:UserIn.c      **** 
  97:UserIn.c      ****     return retVal;
 203              		.loc 1 97 0
 204 0096 1846     		mov	r0, r3
 205              	.LVL21:
 206 0098 10BD     		pop	{r4, pc}
 207              	.LVL22:
 208              	.L11:
 209              		.cfi_def_cfa_offset 0
 210              		.cfi_restore 4
 211              		.cfi_restore 14
  50:UserIn.c      ****     }
 212              		.loc 1 50 0
 213 009a 0320     		movs	r0, #3
 214              	.LVL23:
 215 009c 7047     		bx	lr
 216              		.cfi_endproc
 217              	.LFE64:
 218              		.size	userIn_check_slider_state, .-userIn_check_slider_state
 219 009e 00BF     		.section	.text.userIn_check_button_state,"ax",%progbits
 220              		.align	2
 221              		.global	userIn_check_button_state
 222              		.thumb
 223              		.thumb_func
 224              		.type	userIn_check_button_state, %function
 225              	userIn_check_button_state:
 226              	.LFB65:
  98:UserIn.c      **** }
  99:UserIn.c      **** 
 100:UserIn.c      **** /**
 101:UserIn.c      ****  * User input process button event will check a button for state of hardware.
 102:UserIn.c      ****  * @param id is the button to check
 103:UserIn.c      ****  * @return boolean where true is active state of button, false otherwise
 104:UserIn.c      ****  */
 105:UserIn.c      **** bool userIn_check_button_state(uint8_t id){
 227              		.loc 1 105 0
 228              		.cfi_startproc
ARM GAS  C:\Users\HENRIC~1\AppData\Local\Temp\cc86Zx9i.s 			page 7


 229              		@ args = 0, pretend = 0, frame = 0
 230              		@ frame_needed = 0, uses_anonymous_args = 0
 231              	.LVL24:
 232 0000 08B5     		push	{r3, lr}
 233              		.cfi_def_cfa_offset 8
 234              		.cfi_offset 3, -8
 235              		.cfi_offset 14, -4
 106:UserIn.c      ****     return CapSense_CheckIsWidgetActive(id);
 236              		.loc 1 106 0
 237 0002 FFF7FEFF 		bl	CapSense_CheckIsWidgetActive
 238              	.LVL25:
 107:UserIn.c      **** }...
 239              		.loc 1 107 0
 240 0006 0030     		adds	r0, r0, #0
 241 0008 18BF     		it	ne
 242 000a 0120     		movne	r0, #1
 243 000c 08BD     		pop	{r3, pc}
 244              		.cfi_endproc
 245              	.LFE65:
 246              		.size	userIn_check_button_state, .-userIn_check_button_state
 247 000e 00BF     		.text
 248              	.Letext0:
 249              		.file 2 "c:\\program files (x86)\\cypress\\psoc creator\\4.1\\psoc creator\\import\\gnu\\arm\\5.4.
 250              		.file 3 "c:\\program files (x86)\\cypress\\psoc creator\\4.1\\psoc creator\\import\\gnu\\arm\\5.4.
 251              		.file 4 "UserIn.h"
 252              		.file 5 "Generated_Source\\PSoC5/CapSense.h"
 253              		.file 6 "Generated_Source\\PSoC5/CyLib.h"
 254              		.file 7 "Generated_Source\\PSoC5/CapSense_CSHL.h"
 255              		.file 8 "Generated_Source\\PSoC5/core_cm3.h"