
Embedded_Three_Servo_Tune.elf:     file format elf32-littlenios2
Embedded_Three_Servo_Tune.elf
architecture: nios2, flags 0x00000112:
EXEC_P, HAS_SYMS, D_PAGED
start address 0x000001b4

Program Header:
    LOAD off    0x00001000 vaddr 0x00000000 paddr 0x00000000 align 2**12
         filesz 0x00000020 memsz 0x00000020 flags r-x
    LOAD off    0x00001020 vaddr 0x00000020 paddr 0x00000020 align 2**12
         filesz 0x00012338 memsz 0x00012338 flags r-x
    LOAD off    0x00013358 vaddr 0x00012358 paddr 0x00013de0 align 2**12
         filesz 0x00001a88 memsz 0x00001a88 flags rw-
    LOAD off    0x00015868 vaddr 0x00015868 paddr 0x00015868 align 2**12
         filesz 0x00000000 memsz 0x000003ec flags rw-

Sections:
Idx Name          Size      VMA       LMA       File off  Algn
  0 .entry        00000020  00000000  00000000  00001000  2**5
                  CONTENTS, ALLOC, LOAD, READONLY, CODE
  1 .exceptions   00000194  00000020  00000020  00001020  2**2
                  CONTENTS, ALLOC, LOAD, READONLY, CODE
  2 .text         00011b48  000001b4  000001b4  000011b4  2**2
                  CONTENTS, ALLOC, LOAD, READONLY, CODE
  3 .rodata       0000065c  00011cfc  00011cfc  00012cfc  2**2
                  CONTENTS, ALLOC, LOAD, READONLY, DATA
  4 .rwdata       00001a88  00012358  00013de0  00013358  2**2
                  CONTENTS, ALLOC, LOAD, DATA, SMALL_DATA
  5 .bss          000003ec  00015868  00015868  00015868  2**2
                  ALLOC, SMALL_DATA
  6 .comment      00000026  00000000  00000000  00014de0  2**0
                  CONTENTS, READONLY
  7 .debug_aranges 00001038  00000000  00000000  00014e08  2**3
                  CONTENTS, READONLY, DEBUGGING
  8 .debug_pubnames 00001839  00000000  00000000  00015e40  2**0
                  CONTENTS, READONLY, DEBUGGING
  9 .debug_info   0002f40a  00000000  00000000  00017679  2**0
                  CONTENTS, READONLY, DEBUGGING
 10 .debug_abbrev 0000a44a  00000000  00000000  00046a83  2**0
                  CONTENTS, READONLY, DEBUGGING
 11 .debug_line   0001a263  00000000  00000000  00050ecd  2**0
                  CONTENTS, READONLY, DEBUGGING
 12 .debug_frame  00001f9c  00000000  00000000  0006b130  2**2
                  CONTENTS, READONLY, DEBUGGING
 13 .debug_str    00002a98  00000000  00000000  0006d0cc  2**0
                  CONTENTS, READONLY, DEBUGGING
 14 .debug_loc    00011fef  00000000  00000000  0006fb64  2**0
                  CONTENTS, READONLY, DEBUGGING
 15 .debug_alt_sim_info 00000030  00000000  00000000  00081b54  2**2
                  CONTENTS, READONLY, DEBUGGING
 16 .debug_ranges 00000b30  00000000  00000000  00081b88  2**3
                  CONTENTS, READONLY, DEBUGGING
 17 .thread_model 00000003  00000000  00000000  00085e8a  2**0
                  CONTENTS, READONLY
 18 .cpu          00000003  00000000  00000000  00085e8d  2**0
                  CONTENTS, READONLY
 19 .qsys         00000001  00000000  00000000  00085e90  2**0
                  CONTENTS, READONLY
 20 .simulation_enabled 00000001  00000000  00000000  00085e91  2**0
                  CONTENTS, READONLY
 21 .sysid_hash   00000004  00000000  00000000  00085e92  2**0
                  CONTENTS, READONLY
 22 .sysid_base   00000004  00000000  00000000  00085e96  2**0
                  CONTENTS, READONLY
 23 .sysid_time   00000004  00000000  00000000  00085e9a  2**0
                  CONTENTS, READONLY
 24 .stderr_dev   0000000b  00000000  00000000  00085e9e  2**0
                  CONTENTS, READONLY
 25 .stdin_dev    0000000b  00000000  00000000  00085ea9  2**0
                  CONTENTS, READONLY
 26 .stdout_dev   0000000b  00000000  00000000  00085eb4  2**0
                  CONTENTS, READONLY
 27 .sopc_system_name 00000011  00000000  00000000  00085ebf  2**0
                  CONTENTS, READONLY
 28 .quartus_project_dir 00000040  00000000  00000000  00085ed0  2**0
                  CONTENTS, READONLY
 29 .sopcinfo     00093cf1  00000000  00000000  00085f10  2**0
                  CONTENTS, READONLY
SYMBOL TABLE:
00000000 l    d  .entry	00000000 .entry
00000020 l    d  .exceptions	00000000 .exceptions
000001b4 l    d  .text	00000000 .text
00011cfc l    d  .rodata	00000000 .rodata
00012358 l    d  .rwdata	00000000 .rwdata
00015868 l    d  .bss	00000000 .bss
00000000 l    d  .comment	00000000 .comment
00000000 l    d  .debug_aranges	00000000 .debug_aranges
00000000 l    d  .debug_pubnames	00000000 .debug_pubnames
00000000 l    d  .debug_info	00000000 .debug_info
00000000 l    d  .debug_abbrev	00000000 .debug_abbrev
00000000 l    d  .debug_line	00000000 .debug_line
00000000 l    d  .debug_frame	00000000 .debug_frame
00000000 l    d  .debug_str	00000000 .debug_str
00000000 l    d  .debug_loc	00000000 .debug_loc
00000000 l    d  .debug_alt_sim_info	00000000 .debug_alt_sim_info
00000000 l    d  .debug_ranges	00000000 .debug_ranges
000001fc l       .text	00000000 alt_after_alt_main
00000000 l    df *ABS*	00000000 alt_irq_handler.c
00000000 l    df *ABS*	00000000 PWM.c
00000000 l    df *ABS*	00000000 main.c
00000000 l    df *ABS*	00000000 fgets.c
00000000 l    df *ABS*	00000000 findfp.c
000005f8 l     F .text	00000058 std
00000704 l     F .text	00000008 __fp_lock
0000070c l     F .text	00000008 __fp_unlock
00000000 l    df *ABS*	00000000 fwalk.c
00000000 l    df *ABS*	00000000 impure.c
00012358 l     O .rwdata	00000400 impure_data
00000000 l    df *ABS*	00000000 mallocr.c
00000000 l    df *ABS*	00000000 memchr.c
00000000 l    df *ABS*	00000000 memcpy.c
00000000 l    df *ABS*	00000000 memset.c
00000000 l    df *ABS*	00000000 puts.c
00000000 l    df *ABS*	00000000 refill.c
0000160c l     F .text	0000001c lflush
00000000 l    df *ABS*	00000000 sbrkr.c
00000000 l    df *ABS*	00000000 sscanf.c
00001698 l     F .text	00000008 eofread
00000000 l    df *ABS*	00000000 stdio.c
00000000 l    df *ABS*	00000000 strchr.c
00000000 l    df *ABS*	00000000 strlen.c
00000000 l    df *ABS*	00000000 vfscanf.c
00011d22 l     O .rodata	00000022 basefix.3357
00000000 l    df *ABS*	00000000 writer.c
00000000 l    df *ABS*	00000000 closer.c
00000000 l    df *ABS*	00000000 ctype_.c
00011e45 l     O .rodata	00000180 _ctype_b
00000000 l    df *ABS*	00000000 fclose.c
00000000 l    df *ABS*	00000000 fflush.c
00000000 l    df *ABS*	00000000 fread.c
00000000 l    df *ABS*	00000000 mallocr.c
00000000 l    df *ABS*	00000000 fvwrite.c
00000000 l    df *ABS*	00000000 int_errno.c
00000000 l    df *ABS*	00000000 iswspace.c
00000000 l    df *ABS*	00000000 locale.c
00013db4 l     O .rwdata	00000004 charset
00011fd8 l     O .rodata	00000030 lconv
00000000 l    df *ABS*	00000000 lseekr.c
00000000 l    df *ABS*	00000000 makebuf.c
00000000 l    df *ABS*	00000000 mbrtowc.c
00000000 l    df *ABS*	00000000 mbtowc_r.c
00000000 l    df *ABS*	00000000 memmove.c
00000000 l    df *ABS*	00000000 readr.c
00000000 l    df *ABS*	00000000 mallocr.c
00000000 l    df *ABS*	00000000 s_isnand.c
00000000 l    df *ABS*	00000000 sccl.c
00000000 l    df *ABS*	00000000 sf_nan.c
00000000 l    df *ABS*	00000000 sprintf.c
00000000 l    df *ABS*	00000000 strcmp.c
00000000 l    df *ABS*	00000000 strtod.c
00004ef0 l     F .text	00000048 match
00012b80 l     O .rwdata	00000014 fpi.1950
00012018 l     O .rodata	00000028 tinytens
00012b6c l     O .rwdata	00000014 fpinan.1986
00000000 l    df *ABS*	00000000 strtol.c
00000000 l    df *ABS*	00000000 strtoll_r.c
00000000 l    df *ABS*	00000000 strtoul.c
00000000 l    df *ABS*	00000000 strtoull_r.c
00000000 l    df *ABS*	00000000 ungetc.c
00000000 l    df *ABS*	00000000 vfprintf.c
000072b4 l     F .text	00000058 __sprint_r
000120ae l     O .rodata	00000010 blanks.3452
0001209e l     O .rodata	00000010 zeroes.3453
00000000 l    df *ABS*	00000000 wsetup.c
00000000 l    df *ABS*	00000000 dtoa.c
00009318 l     F .text	00000218 quorem
00000000 l    df *ABS*	00000000 fstatr.c
00000000 l    df *ABS*	00000000 gdtoa-gethex.c
0000ab58 l     F .text	00000024 htinit
0000abe4 l     F .text	000000b0 rshift
00000000 l    df *ABS*	00000000 gdtoa-hexnan.c
0000b44c l     F .text	0000004c L_shift
00000000 l    df *ABS*	00000000 isattyr.c
00000000 l    df *ABS*	00000000 mprec.c
00012204 l     O .rodata	0000000c p05.2458
00000000 l    df *ABS*	00000000 s_isinfd.c
00000000 l    df *ABS*	00000000 mallocr.c
00000000 l    df *ABS*	00000000 libgcc2.c
00000000 l    df *ABS*	00000000 libgcc2.c
00000000 l    df *ABS*	00000000 libgcc2.c
00000000 l    df *ABS*	00000000 libgcc2.c
00000000 l    df *ABS*	00000000 fp-bit.c
00000000 l    df *ABS*	00000000 fp-bit.c
00000000 l    df *ABS*	00000000 fp-bit.c
00000000 l    df *ABS*	00000000 dp-bit.c
0000d668 l     F .text	00000410 _fpadd_parts
00000000 l    df *ABS*	00000000 dp-bit.c
00000000 l    df *ABS*	00000000 dp-bit.c
00000000 l    df *ABS*	00000000 dp-bit.c
00000000 l    df *ABS*	00000000 dp-bit.c
00000000 l    df *ABS*	00000000 dp-bit.c
00000000 l    df *ABS*	00000000 dp-bit.c
00000000 l    df *ABS*	00000000 dp-bit.c
00000000 l    df *ABS*	00000000 dp-bit.c
00000000 l    df *ABS*	00000000 dp-bit.c
00000000 l    df *ABS*	00000000 dp-bit.c
00000000 l    df *ABS*	00000000 dp-bit.c
00000000 l    df *ABS*	00000000 dp-bit.c
00000000 l    df *ABS*	00000000 dp-bit.c
00000000 l    df *ABS*	00000000 lib2-divmod.c
0000e890 l     F .text	0000007c udivmodsi4
00000000 l    df *ABS*	00000000 libgcc2.c
00000000 l    df *ABS*	00000000 libgcc2.c
00000000 l    df *ABS*	00000000 fp-bit.c
00000000 l    df *ABS*	00000000 fp-bit.c
00000000 l    df *ABS*	00000000 fp-bit.c
00000000 l    df *ABS*	00000000 dp-bit.c
00000000 l    df *ABS*	00000000 dp-bit.c
00000000 l    df *ABS*	00000000 dp-bit.c
00000000 l    df *ABS*	00000000 fp-bit.c
00000000 l    df *ABS*	00000000 alt_close.c
0000f368 l     F .text	00000060 alt_get_errno
00000000 l    df *ABS*	00000000 alt_dev.c
0000f3c8 l     F .text	0000002c alt_dev_null_write
00000000 l    df *ABS*	00000000 alt_errno.c
00000000 l    df *ABS*	00000000 alt_fstat.c
0000f4c8 l     F .text	00000060 alt_get_errno
00000000 l    df *ABS*	00000000 alt_isatty.c
0000f5e8 l     F .text	00000060 alt_get_errno
00000000 l    df *ABS*	00000000 alt_load.c
0000f6c8 l     F .text	0000006c alt_load_section
00000000 l    df *ABS*	00000000 alt_lseek.c
0000f824 l     F .text	00000060 alt_get_errno
00000000 l    df *ABS*	00000000 alt_main.c
00000000 l    df *ABS*	00000000 alt_malloc_lock.c
00000000 l    df *ABS*	00000000 alt_read.c
0000fa50 l     F .text	00000060 alt_get_errno
00000000 l    df *ABS*	00000000 alt_release_fd.c
00000000 l    df *ABS*	00000000 alt_sbrk.c
00013dd0 l     O .rwdata	00000004 heap_end
00000000 l    df *ABS*	00000000 alt_write.c
0000fcec l     F .text	00000060 alt_get_errno
00000000 l    df *ABS*	00000000 alt_sys_init.c
00012d3c l     O .rwdata	00001060 jtag_uart_0
0000fddc l     F .text	00000038 alt_dev_reg
00000000 l    df *ABS*	00000000 altera_avalon_jtag_uart_fd.c
00000000 l    df *ABS*	00000000 altera_avalon_jtag_uart_init.c
0001001c l     F .text	00000228 altera_avalon_jtag_uart_irq
00010244 l     F .text	000000b0 altera_avalon_jtag_uart_timeout
00000000 l    df *ABS*	00000000 altera_avalon_jtag_uart_ioctl.c
00000000 l    df *ABS*	00000000 altera_avalon_jtag_uart_read.c
00000000 l    df *ABS*	00000000 altera_avalon_jtag_uart_write.c
00000000 l    df *ABS*	00000000 altera_avalon_timer_sc.c
000108c0 l     F .text	00000070 alt_avalon_timer_sc_irq
00000000 l    df *ABS*	00000000 alt_alarm_start.c
00000000 l    df *ABS*	00000000 alt_dcache_flush_all.c
00000000 l    df *ABS*	00000000 alt_dev_llist_insert.c
00010c0c l     F .text	00000060 alt_get_errno
00000000 l    df *ABS*	00000000 alt_do_ctors.c
00000000 l    df *ABS*	00000000 alt_do_dtors.c
00000000 l    df *ABS*	00000000 alt_icache_flush_all.c
00000000 l    df *ABS*	00000000 alt_iic.c
00000000 l    df *ABS*	00000000 alt_iic_isr_register.c
00000000 l    df *ABS*	00000000 alt_io_redirect.c
00011030 l     F .text	000000c4 alt_open_fd
00000000 l    df *ABS*	00000000 alt_irq_vars.c
00000000 l    df *ABS*	00000000 alt_open.c
0001116c l     F .text	000000dc alt_file_locked
000113d0 l     F .text	00000060 alt_get_errno
00000000 l    df *ABS*	00000000 alt_tick.c
00000000 l    df *ABS*	00000000 altera_nios2_qsys_irq.c
00000000 l    df *ABS*	00000000 alt_find_dev.c
00000000 l    df *ABS*	00000000 alt_find_file.c
00000000 l    df *ABS*	00000000 alt_get_fd.c
00000000 l    df *ABS*	00000000 alt_icache_flush.c
00000000 l    df *ABS*	00000000 atexit.c
00000000 l    df *ABS*	00000000 exit.c
00000000 l    df *ABS*	00000000 memcmp.c
00000000 l    df *ABS*	00000000 __atexit.c
00000000 l    df *ABS*	00000000 __call_atexit.c
00011ae4 l     F .text	00000004 register_fini
00000000 l    df *ABS*	00000000 alt_exit.c
00011c98 l     F .text	00000040 alt_sim_halt
0000bb5c g     F .text	00000094 _mprec_log10
0000bc48 g     F .text	00000088 __any_on
0000b6e0 g     F .text	00000070 _isatty_r
000121dc g     O .rodata	00000028 __mprec_tinytens
0000f884 g     F .text	0000006c alt_main
00001394 g     F .text	000000a0 _puts_r
000159c4 g     O .bss	00000100 alt_irq
00004210 g     F .text	00000078 _lseek_r
00013de0 g       *ABS*	00000000 __flash_rwdata_start
0000e188 g     F .text	00000088 __eqdf2
00015c54 g       *ABS*	00000000 __alt_heap_start
000017b4 g     F .text	00000068 __sseek
00000660 g     F .text	000000a4 __sinit
00004170 g     F .text	00000084 _setlocale_r
00000760 g     F .text	00000068 __sfmoreglue
00007298 g     F .text	0000001c ungetc
0000f910 g     F .text	00000020 __malloc_unlock
00004f38 g     F .text	000014e4 _strtod_r
0000451c g     F .text	000000e0 memmove
00000750 g     F .text	00000010 _cleanup
0000bcd0 g     F .text	000000bc _Balloc
0000e298 g     F .text	00000088 __gtdf2
00000000  w      *UND*	00000000 __errno
00000000 g     F .entry	0000001c __reset
00000020 g       *ABS*	00000000 __flash_exceptions_start
0000aae4 g     F .text	00000074 _fstat_r
00015874 g     O .bss	00000004 errno
000030cc g     F .text	00000024 __svfscanf
0000ebcc g     F .text	0000002c __make_fp
00015888 g     O .bss	00000004 alt_argv
0001bd9c g       *ABS*	00000000 _gp
00000350 g     F .text	00000050 PWM_writeOCRB
000005d4 g     F .text	00000024 fgets
00012bbc g     O .rwdata	00000180 alt_fd_list
000115f4 g     F .text	00000094 alt_find_dev
0000125c g     F .text	000000a0 memcpy
0000b498 g     F .text	00000248 __hexnan
00000744 g     F .text	0000000c _cleanup_r
0000e4b8 g     F .text	000000f8 __floatsidf
000110f4 g     F .text	00000078 alt_io_redirect
0000e3a8 g     F .text	00000088 __ltdf2
00011cfc g       *ABS*	00000000 __DTOR_END__
00001434 g     F .text	00000014 puts
0000449c g     F .text	00000040 mbrtowc
000030f0 g     F .text	00000068 _vfscanf_r
0000baac g     F .text	000000b0 __ratio
0001045c g     F .text	00000224 altera_avalon_jtag_uart_read
00000000  w      *UND*	00000000 malloc
00800000 g       *ABS*	00000000 __alt_mem_onchip_memory2_0
0000e9cc g     F .text	00000008 __udivsi3
0000f528 g     F .text	000000c0 isatty
00004120 g     F .text	0000002c iswspace
000120ec g     O .rodata	000000c8 __mprec_tens
0000414c g     F .text	00000008 __locale_charset
0000c8d0 g     F .text	000000a4 __fixunsdfsi
00011860 g     F .text	00000090 alt_icache_flush
00015868 g     O .bss	00000004 __malloc_top_pad
00006d0c g     F .text	00000024 strtoul
00013db0 g     O .rwdata	00000004 __mb_cur_max
00004154 g     F .text	0000000c _localeconv_r
00006d30 g     F .text	000002f0 _strtoull_r
0000c3c8 g     F .text	0000003c __i2b
00003c84 g     F .text	0000049c __sfvwrite_r
00001628 g     F .text	00000070 _sbrk_r
000045fc g     F .text	00000078 _read_r
00012b60 g     O .rwdata	0000000c __lc_ctype
00013dc8 g     O .rwdata	00000004 alt_max_fd
0000ef0c g     F .text	00000138 __unpack_d
000032b4 g     F .text	00000110 _fclose_r
000035d4 g     F .text	00000034 fflush
0001586c g     O .bss	00000004 __malloc_max_sbrked_mem
0000daf8 g     F .text	00000074 __adddf3
0000d500 g     F .text	00000078 __nesf2
0000b98c g     F .text	00000120 __b2d
0000cf50 g     F .text	000005b0 __umoddi3
0000f734 g     F .text	000000f0 lseek
00013da0 g     O .rwdata	00000004 _global_impure_ptr
00004674 g     F .text	000005f4 _realloc_r
00015c54 g       *ABS*	00000000 __bss_end
00010f38 g     F .text	000000f8 alt_iic_isr_register
000114c8 g     F .text	0000010c alt_tick
000158c4 g     O .bss	00000100 __hexdig
0000c974 g     F .text	000005dc __udivdi3
000121b4 g     O .rodata	00000028 __mprec_bigtens
0000c624 g     F .text	00000120 __s2b
0000e6fc g     F .text	00000194 __floatunsidf
0000b8ac g     F .text	00000060 __mcmp
00013dac g     O .rwdata	00000004 __ctype_ptr
0000072c g     F .text	00000018 __fp_lock_all
00010ef0 g     F .text	00000048 alt_ic_irq_enabled
00011430 g     F .text	00000098 alt_alarm_stop
000067a0 g     F .text	00000024 strtol
00015890 g     O .bss	00000004 alt_irq_active
000000ec g     F .exceptions	000000c8 alt_irq_handler
00012b94 g     O .rwdata	00000028 alt_dev_null
0000ea5c g     F .text	000000c8 __unpack_f
000003cc g     F .text	0000002c PWM_readOCRB
00010b14 g     F .text	00000044 alt_dcache_flush_all
0000b778 g     F .text	00000070 __hi0bits
0000e5b0 g     F .text	000000d8 __fixdfsi
00006540 g     F .text	0000001c strtod
00013de0 g       *ABS*	00000000 __ram_rwdata_end
00013dc0 g     O .rwdata	00000008 alt_dev_list
0000fbcc g     F .text	00000120 write
0000d578 g     F .text	00000078 __gtsf2
00012358 g       *ABS*	00000000 __ram_rodata_end
0000f3f4 g     F .text	000000d4 fstat
0000e430 g     F .text	00000088 __ledf2
0000c504 g     F .text	00000120 __pow5mult
00015878 g     O .bss	00000004 __nlocale_changed
0000e9d4 g     F .text	00000008 __umodsi3
00015c54 g       *ABS*	00000000 end
0000f10c g     F .text	00000160 __pack_f
0000ff5c g     F .text	000000c0 altera_avalon_jtag_uart_init
00011cf8 g       *ABS*	00000000 __CTOR_LIST__
00800000 g       *ABS*	00000000 __alt_stack_pointer
00010930 g     F .text	00000090 alt_avalon_timer_sc_init
0000e9dc g     F .text	00000080 __clzsi2
00010680 g     F .text	00000240 altera_avalon_jtag_uart_write
00000650 g     F .text	00000004 __sfp_lock_acquire
00001178 g     F .text	000000e4 memchr
0000730c g     F .text	00001eac ___vfprintf_internal_r
00004dd4 g     F .text	00000060 _sprintf_r
00003970 g     F .text	00000314 _free_r
00011ae8 g     F .text	000001b0 __call_exitprocs
0001587c g     O .bss	00000004 __mlocale_changed
00013da8 g     O .rwdata	00000004 __malloc_sbrk_base
000001b4 g     F .text	0000004c _start
00015894 g     O .bss	00000004 _alt_tick_rate
000067c4 g     F .text	00000318 _strtoll_r
0000c094 g     F .text	0000014c __lshift
00015898 g     O .bss	00000004 _alt_nticks
0000f930 g     F .text	00000120 read
0000fd80 g     F .text	0000005c alt_sys_init
000119b0 g     F .text	00000134 __register_exitproc
0000c1e0 g     F .text	000001e8 __multiply
000102f4 g     F .text	00000074 altera_avalon_jtag_uart_close
00012358 g       *ABS*	00000000 __ram_rwdata_start
00011cfc g       *ABS*	00000000 __ram_rodata_start
0001589c g     O .bss	00000028 __malloc_current_mallinfo
0000bd8c g     F .text	0000017c __d2b
0000fe14 g     F .text	00000058 altera_avalon_jtag_uart_read_fd
00006adc g     F .text	00000230 _strtoul_r
000117a8 g     F .text	000000b8 alt_get_fd
0000f044 g     F .text	000000c8 __fpcmp_parts_d
00003244 g     F .text	00000070 _close_r
0001193c g     F .text	00000074 memcmp
0000fec4 g     F .text	00000048 altera_avalon_jtag_uart_close_fd
00015c54 g       *ABS*	00000000 __alt_stack_base
0000ff0c g     F .text	00000050 altera_avalon_jtag_uart_ioctl_fd
00001728 g     F .text	00000084 sscanf
000091dc g     F .text	0000013c __swsetup_r
0000df30 g     F .text	00000258 __divdf3
000007c8 g     F .text	000000f0 __sfp
0000bbf0 g     F .text	00000058 __copybits
00012758 g     O .rwdata	00000408 __malloc_av_
0000065c g     F .text	00000004 __sinit_lock_release
00000280 g     F .text	00000080 PWM_setDutyCycle_B
0000db6c g     F .text	000003c4 __muldf3
00001898 g     F .text	00000060 __sread
00003804 g     F .text	00000040 fread
00011688 g     F .text	00000120 alt_find_file
00010b58 g     F .text	000000b4 alt_dev_llist_insert
0000f8f0 g     F .text	00000020 __malloc_lock
0000fb10 g     F .text	000000bc sbrk
000033d8 g     F .text	000001fc _fflush_r
0000c784 g     F .text	000000b4 _calloc_r
00015868 g       *ABS*	00000000 __bss_start
000012fc g     F .text	00000098 memset
000003f8 g     F .text	00000094 main
0001588c g     O .bss	00000004 alt_envp
00015870 g     O .bss	00000004 __malloc_max_total_mem
0000fe6c g     F .text	00000058 altera_avalon_jtag_uart_write_fd
0000d5f0 g     F .text	00000078 __ltsf2
00003608 g     F .text	000001fc _fread_r
000017ac g     F .text	00000008 __sclose
00800000 g       *ABS*	00000000 __alt_heap_limit
000033c4 g     F .text	00000014 fclose
0000655c g     F .text	00000244 _strtol_r
0000e688 g     F .text	00000074 __truncdfsf2
00015ac4 g     O .bss	00000190 _atexit0
00009530 g     F .text	000015b4 _dtoa_r
00000a38 g     F .text	00000740 _malloc_r
00013dcc g     O .rwdata	00000004 alt_errno
00007020 g     F .text	000000dc __submore
00000980 g     F .text	000000b8 _fwalk
0000048c g     F .text	00000148 _fgets_r
000044dc g     F .text	00000040 _mbtowc_r
0000e90c g     F .text	00000060 __divsi3
00012210 g     O .rodata	00000014 __thenan_df
00003844 g     F .text	0000012c _malloc_trim_r
00011cfc g       *ABS*	00000000 __CTOR_END__
00004e34 g     F .text	000000bc strcmp
00011cfc g       *ABS*	00000000 __flash_rodata_start
00011cfc g       *ABS*	00000000 __DTOR_LIST__
0000e210 g     F .text	00000088 __nedf2
0000fd4c g     F .text	00000034 alt_irq_init
0000fab0 g     F .text	00000060 alt_release_fd
000003a0 g     F .text	0000002c PWM_readOCRA
00004d60 g     F .text	00000074 sprintf
00012224 g     O .rodata	00000100 __clz_tab
00015880 g     O .bss	00000004 _PathLocale
0000641c g     F .text	00000124 strtof
000118f0 g     F .text	00000014 atexit
000031cc g     F .text	00000078 _write_r
000041f4 g     F .text	0000001c setlocale
00004d58 g     F .text	00000008 nanf
00013d9c g     O .rwdata	00000004 _impure_ptr
00015884 g     O .bss	00000004 alt_argc
0000441c g     F .text	00000080 _mbrtowc_r
00010cd0 g     F .text	00000064 _do_dtors
00000300 g     F .text	00000050 PWM_writeOCRA
00001448 g     F .text	000001c4 __srefill_r
00000020 g       .exceptions	00000000 alt_irq_entry
0000b90c g     F .text	00000080 __ulp
0000c744 g     F .text	00000040 __isinfd
00000714 g     F .text	00000018 __fp_unlock_all
00013db8 g     O .rwdata	00000008 alt_fs_list
00000020 g       *ABS*	00000000 __ram_exceptions_start
00004160 g     F .text	00000010 localeconv
00010d64 g     F .text	00000050 alt_ic_isr_register
0000ab7c g     F .text	00000068 __hexdig_init
000016a0 g     F .text	00000088 _sscanf_r
00013de0 g       *ABS*	00000000 _edata
00015c54 g       *ABS*	00000000 _end
000001b4 g       *ABS*	00000000 __ram_exceptions_end
00003158 g     F .text	00000074 vfscanf
00010368 g     F .text	000000f4 altera_avalon_jtag_uart_ioctl
00010e50 g     F .text	000000a0 alt_ic_irq_disable
0000181c g     F .text	0000007c __swrite
00013da4 g     O .rwdata	00000004 __malloc_trim_threshold
000115d4 g     F .text	00000020 altera_nios2_qsys_irq_init
00011904 g     F .text	00000038 exit
000008b8 g     F .text	000000c8 _fwalk_reent
0000bf08 g     F .text	0000018c __mdiff
0000e96c g     F .text	00000060 __modsi3
00800000 g       *ABS*	00000000 __alt_data_end
00000020 g     F .exceptions	00000000 alt_exception
00000654 g     F .text	00000004 __sfp_lock_release
00000000 g       *ABS*	00000000 __alt_mem_sdram
00004c98 g     F .text	000000c0 __sccl
00011d44 g     O .rodata	00000101 _ctype_
0000eb24 g     F .text	000000a8 __fpcmp_parts_f
00011cd8 g     F .text	00000020 _exit
00004c68 g     F .text	00000030 __isnand
000109c0 g     F .text	00000154 alt_alarm_start
0000c838 g     F .text	00000098 __muldi3
00004288 g     F .text	00000194 __smakebuf_r
000019d8 g     F .text	00000074 strlen
00011248 g     F .text	00000188 open
0000e320 g     F .text	00000088 __gedf2
0000ac94 g     F .text	000007b8 __gethex
00000200 g     F .text	00000080 PWM_setDutyCycle_A
00010d34 g     F .text	00000030 alt_icache_flush_all
000018f8 g     F .text	000000e0 strchr
00013dd4 g     O .rwdata	00000004 alt_priority_mask
00010db4 g     F .text	0000009c alt_ic_irq_enable
000091b8 g     F .text	00000024 __vfprintf_internal
0000da78 g     F .text	00000080 __subdf3
0000b7e8 g     F .text	000000c4 __lo0bits
00001a4c g     F .text	00001680 __svfscanf_r
00013dd8 g     O .rwdata	00000008 alt_alarm_list
000070fc g     F .text	0000019c _ungetc_r
00010c6c g     F .text	00000064 _do_ctors
0000f26c g     F .text	000000fc close
0000f648 g     F .text	00000080 alt_load
0000ebf8 g     F .text	00000314 __pack_d
00000000  w      *UND*	00000000 free
00000658 g     F .text	00000004 __sinit_lock_acquire
0000c404 g     F .text	00000100 __multadd
0000b750 g     F .text	00000028 _Bfree



Disassembly of section .entry:

00000000 <__reset>:
#if NIOS2_ICACHE_SIZE > 0 && defined(ALT_ALLOW_CODE_AT_RESET) && !defined(ALT_SIM_OPTIMIZE)
    /* Assume the instruction cache size is always a power of two. */
#if NIOS2_ICACHE_SIZE > 0x8000
    movhi r2, %hi(NIOS2_ICACHE_SIZE)
#else
    movui r2, NIOS2_ICACHE_SIZE
   0:	00840014 	movui	r2,4096
#endif

0:
    initi r2
   4:	1001483a 	initi	r2
    addi r2, r2, -NIOS2_ICACHE_LINE_SIZE
   8:	10bff804 	addi	r2,r2,-32
    bgt r2, zero, 0b
   c:	00bffd16 	blt	zero,r2,4 <__reset+0x4>
 * Jump to the _start entry point in the .text section if reset code
 * is allowed or if optimizing for RTL simulation.
 */
#if defined(ALT_ALLOW_CODE_AT_RESET) || defined(ALT_SIM_OPTIMIZE)
    /* Jump to the _start entry point in the .text section. */
    movhi r1, %hi(_start)
  10:	00400034 	movhi	at,0
    ori r1, r1, %lo(_start)
  14:	08406d14 	ori	at,at,436
    jmp r1
  18:	0800683a 	jmp	at
  1c:	00000000 	call	0 <__reset>

Disassembly of section .exceptions:

00000020 <alt_exception>:
         * Process an exception.  For all exceptions we must preserve all
         * caller saved registers on the stack (See the Nios2 ABI
         * documentation for details).
         */

        addi  sp, sp, -76
  20:	deffed04 	addi	sp,sp,-76

#endif

#endif

        stw   ra,  0(sp)
  24:	dfc00015 	stw	ra,0(sp)
        /*
         * Leave a gap in the stack frame at 4(sp) for the muldiv handler to
         * store zero into.
         */

        stw   r1,   8(sp)
  28:	d8400215 	stw	at,8(sp)
        stw   r2,  12(sp)
  2c:	d8800315 	stw	r2,12(sp)
        stw   r3,  16(sp)
  30:	d8c00415 	stw	r3,16(sp)
        stw   r4,  20(sp)
  34:	d9000515 	stw	r4,20(sp)
        stw   r5,  24(sp)
  38:	d9400615 	stw	r5,24(sp)
        stw   r6,  28(sp)
  3c:	d9800715 	stw	r6,28(sp)
        stw   r7,  32(sp)
  40:	d9c00815 	stw	r7,32(sp)

        rdctl r5, estatus
  44:	000b307a 	rdctl	r5,estatus

        stw   r8,  36(sp)
  48:	da000915 	stw	r8,36(sp)
        stw   r9,  40(sp)
  4c:	da400a15 	stw	r9,40(sp)
        stw   r10, 44(sp)
  50:	da800b15 	stw	r10,44(sp)
        stw   r11, 48(sp)
  54:	dac00c15 	stw	r11,48(sp)
        stw   r12, 52(sp)
  58:	db000d15 	stw	r12,52(sp)
        stw   r13, 56(sp)
  5c:	db400e15 	stw	r13,56(sp)
        stw   r14, 60(sp)
  60:	db800f15 	stw	r14,60(sp)
        stw   r15, 64(sp)
  64:	dbc01015 	stw	r15,64(sp)
        /*
         * ea-4 contains the address of the instruction being executed
         * when the exception occured. For interrupt exceptions, we will
         * will be re-issue the isntruction. Store it in 72(sp)
         */
        stw   r5,  68(sp)  /* estatus */
  68:	d9401115 	stw	r5,68(sp)
        addi  r15, ea, -4  /* instruction that caused exception */
  6c:	ebffff04 	addi	r15,ea,-4
        stw   r15,  72(sp)
  70:	dbc01215 	stw	r15,72(sp)
#else
        /*
         * Test to see if the exception was a software exception or caused 
         * by an external interrupt, and vector accordingly.
         */
        rdctl r4, ipending
  74:	0009313a 	rdctl	r4,ipending
        andi  r2, r5, 1
  78:	2880004c 	andi	r2,r5,1
        beq   r2, zero, .Lnot_irq
  7c:	10000326 	beq	r2,zero,8c <alt_exception+0x6c>
        beq   r4, zero, .Lnot_irq
  80:	20000226 	beq	r4,zero,8c <alt_exception+0x6c>
        /*
         * Now that all necessary registers have been preserved, call 
         * alt_irq_handler() to process the interrupts.
         */

        call alt_irq_handler
  84:	00000ec0 	call	ec <alt_irq_handler>

        .section .exceptions.irqreturn, "xa"

        br    .Lexception_exit
  88:	00000306 	br	98 <alt_exception+0x78>
         * upon completion, so we write ea (address of instruction *after*
         * the one where the exception occured) into 72(sp). The actual
         * instruction that caused the exception is written in r2, which these
         * handlers will utilize.
         */
        stw   ea,  72(sp)  /* Don't re-issue */
  8c:	df401215 	stw	ea,72(sp)
        ldw   r2, -4(ea)   /* Instruction that caused exception */
  90:	e8bfff17 	ldw	r2,-4(ea)
#ifdef NIOS2_HAS_DEBUG_STUB
       /*
        *  Either tell the user now (if there is a debugger attached) or go into
        *  the debug monitor which will loop until a debugger is attached.
        */
        break
  94:	003da03a 	break	0
        /* 
         * Restore the saved registers, so that all general purpose registers 
         * have been restored to their state at the time the interrupt occured.
         */

        ldw   r5,  68(sp)
  98:	d9401117 	ldw	r5,68(sp)
        ldw   ea,  72(sp)  /* This becomes the PC once eret is executed */
  9c:	df401217 	ldw	ea,72(sp)
        ldw   ra,   0(sp)
  a0:	dfc00017 	ldw	ra,0(sp)

        wrctl estatus, r5
  a4:	2801707a 	wrctl	estatus,r5

        ldw   r1,   8(sp)
  a8:	d8400217 	ldw	at,8(sp)
        ldw   r2,  12(sp)
  ac:	d8800317 	ldw	r2,12(sp)
        ldw   r3,  16(sp)
  b0:	d8c00417 	ldw	r3,16(sp)
        ldw   r4,  20(sp)
  b4:	d9000517 	ldw	r4,20(sp)
        ldw   r5,  24(sp)
  b8:	d9400617 	ldw	r5,24(sp)
        ldw   r6,  28(sp)
  bc:	d9800717 	ldw	r6,28(sp)
        ldw   r7,  32(sp)
  c0:	d9c00817 	ldw	r7,32(sp)
#ifdef ALT_STACK_CHECK
        ldw   et, %gprel(alt_exception_old_stack_limit)(gp)
#endif
#endif

        ldw   r8,  36(sp)
  c4:	da000917 	ldw	r8,36(sp)
        ldw   r9,  40(sp)
  c8:	da400a17 	ldw	r9,40(sp)
        ldw   r10, 44(sp)
  cc:	da800b17 	ldw	r10,44(sp)
        ldw   r11, 48(sp)
  d0:	dac00c17 	ldw	r11,48(sp)
        ldw   r12, 52(sp)
  d4:	db000d17 	ldw	r12,52(sp)
        ldw   r13, 56(sp)
  d8:	db400e17 	ldw	r13,56(sp)
        ldw   r14, 60(sp)
  dc:	db800f17 	ldw	r14,60(sp)
        ldw   r15, 64(sp)
  e0:	dbc01017 	ldw	r15,64(sp)
#endif

        ldw   sp,  76(sp)

#else
        addi  sp, sp, 76
  e4:	dec01304 	addi	sp,sp,76

        /*
         * Return to the interrupted instruction.
         */

        eret
  e8:	ef80083a 	eret

000000ec <alt_irq_handler>:
 * instruction is present if the macro ALT_CI_INTERRUPT_VECTOR defined.
 */

void alt_irq_handler (void) __attribute__ ((section (".exceptions")));
void alt_irq_handler (void)
{
  ec:	defff904 	addi	sp,sp,-28
  f0:	dfc00615 	stw	ra,24(sp)
  f4:	df000515 	stw	fp,20(sp)
  f8:	df000504 	addi	fp,sp,20
#ifndef NIOS2_EIC_PRESENT
static ALT_INLINE alt_u32 ALT_ALWAYS_INLINE alt_irq_pending (void)
{
  alt_u32 active;

  NIOS2_READ_IPENDING (active);
  fc:	0005313a 	rdctl	r2,ipending
 100:	e0bffc15 	stw	r2,-16(fp)

  return active;
 104:	e0bffc17 	ldw	r2,-16(fp)
   * Consider the case where the high priority interupt is asserted during
   * the interrupt entry sequence for a lower priority interrupt to see why
   * this is the case.
   */

  active = alt_irq_pending ();
 108:	e0bfff15 	stw	r2,-4(fp)

  do
  {
    i = 0;
 10c:	e03ffd15 	stw	zero,-12(fp)
    mask = 1;
 110:	00800044 	movi	r2,1
 114:	e0bffe15 	stw	r2,-8(fp)
     * called to clear the interrupt condition.
     */

    do
    {
      if (active & mask)
 118:	e0ffff17 	ldw	r3,-4(fp)
 11c:	e0bffe17 	ldw	r2,-8(fp)
 120:	1884703a 	and	r2,r3,r2
 124:	1005003a 	cmpeq	r2,r2,zero
 128:	1000161e 	bne	r2,zero,184 <alt_irq_handler+0x98>
      { 
#ifdef ALT_ENHANCED_INTERRUPT_API_PRESENT
        alt_irq[i].handler(alt_irq[i].context); 
 12c:	e0bffd17 	ldw	r2,-12(fp)
 130:	00c00074 	movhi	r3,1
 134:	18d67104 	addi	r3,r3,22980
 138:	100490fa 	slli	r2,r2,3
 13c:	10c5883a 	add	r2,r2,r3
 140:	11400017 	ldw	r5,0(r2)
 144:	e0bffd17 	ldw	r2,-12(fp)
 148:	00c00074 	movhi	r3,1
 14c:	18d67104 	addi	r3,r3,22980
 150:	100490fa 	slli	r2,r2,3
 154:	10c5883a 	add	r2,r2,r3
 158:	10800104 	addi	r2,r2,4
 15c:	11000017 	ldw	r4,0(r2)
 160:	283ee83a 	callr	r5
#ifndef NIOS2_EIC_PRESENT
static ALT_INLINE alt_u32 ALT_ALWAYS_INLINE alt_irq_pending (void)
{
  alt_u32 active;

  NIOS2_READ_IPENDING (active);
 164:	0005313a 	rdctl	r2,ipending
 168:	e0bffb15 	stw	r2,-20(fp)

  return active;
 16c:	e0bffb17 	ldw	r2,-20(fp)
      mask <<= 1;
      i++;

    } while (1);

    active = alt_irq_pending ();
 170:	e0bfff15 	stw	r2,-4(fp)
    
  } while (active);
 174:	e0bfff17 	ldw	r2,-4(fp)
 178:	1004c03a 	cmpne	r2,r2,zero
 17c:	103fe31e 	bne	r2,zero,10c <alt_irq_handler+0x20>
 180:	00000706 	br	1a0 <alt_irq_handler+0xb4>
#else
        alt_irq[i].handler(alt_irq[i].context, i); 
#endif
        break;
      }
      mask <<= 1;
 184:	e0bffe17 	ldw	r2,-8(fp)
 188:	1085883a 	add	r2,r2,r2
 18c:	e0bffe15 	stw	r2,-8(fp)
      i++;
 190:	e0bffd17 	ldw	r2,-12(fp)
 194:	10800044 	addi	r2,r2,1
 198:	e0bffd15 	stw	r2,-12(fp)

    } while (1);
 19c:	003fde06 	br	118 <alt_irq_handler+0x2c>
  /*
   * Notify the operating system that interrupt processing is complete.
   */ 

  ALT_OS_INT_EXIT();
}
 1a0:	e037883a 	mov	sp,fp
 1a4:	dfc00117 	ldw	ra,4(sp)
 1a8:	df000017 	ldw	fp,0(sp)
 1ac:	dec00204 	addi	sp,sp,8
 1b0:	f800283a 	ret

Disassembly of section .text:

000001b4 <_start>:

    /* Assume the data cache size is always a power of two. */
#if NIOS2_DCACHE_SIZE > 0x8000
    movhi r2, %hi(NIOS2_DCACHE_SIZE)
#else
    movui r2, NIOS2_DCACHE_SIZE
     1b4:	00820014 	movui	r2,2048
#endif

0:
    initd 0(r2)
     1b8:	10000033 	initd	0(r2)
    addi r2, r2, -NIOS2_DCACHE_LINE_SIZE
     1bc:	10bff804 	addi	r2,r2,-32
    bgt r2, zero, 0b
     1c0:	00bffd16 	blt	zero,r2,1b8 <_start+0x4>
#if (NIOS2_NUM_OF_SHADOW_REG_SETS == 0)    
    /*
     * Now that the caches are initialized, set up the stack pointer.
     * The value provided by the linker is assumed to be correctly aligned.
     */
    movhi sp, %hi(__alt_stack_pointer)
     1c4:	06c02034 	movhi	sp,128
    ori sp, sp, %lo(__alt_stack_pointer)
     1c8:	dec00014 	ori	sp,sp,0

    /* Set up the global pointer. */
    movhi gp, %hi(_gp)
     1cc:	06800074 	movhi	gp,1
    ori gp, gp, %lo(_gp)
     1d0:	d6af6714 	ori	gp,gp,48540
 */
#ifndef ALT_SIM_OPTIMIZE
    /* Log that the BSS is about to be cleared. */
    ALT_LOG_PUTS(alt_log_msg_bss)

    movhi r2, %hi(__bss_start)
     1d4:	00800074 	movhi	r2,1
    ori r2, r2, %lo(__bss_start)
     1d8:	10961a14 	ori	r2,r2,22632

    movhi r3, %hi(__bss_end)
     1dc:	00c00074 	movhi	r3,1
    ori r3, r3, %lo(__bss_end)
     1e0:	18d71514 	ori	r3,r3,23636

    beq r2, r3, 1f
     1e4:	10c00326 	beq	r2,r3,1f4 <_start+0x40>

0:
    stw zero, (r2)
     1e8:	10000015 	stw	zero,0(r2)
    addi r2, r2, 4
     1ec:	10800104 	addi	r2,r2,4
    bltu r2, r3, 0b
     1f0:	10fffd36 	bltu	r2,r3,1e8 <_start+0x34>
     * section aren't defined until alt_load() has been called).
     */
    mov   et, zero
#endif

    call alt_load
     1f4:	000f6480 	call	f648 <alt_load>

    /* Log that alt_main is about to be called. */
    ALT_LOG_PUTS(alt_log_msg_alt_main)

    /* Call the C entry point. It should never return. */
    call alt_main
     1f8:	000f8840 	call	f884 <alt_main>

000001fc <alt_after_alt_main>:

    /* Wait in infinite loop in case alt_main does return. */
alt_after_alt_main:
    br alt_after_alt_main
     1fc:	003fff06 	br	1fc <alt_after_alt_main>

00000200 <PWM_setDutyCycle_A>:
 * @param dutyPercent Duty cycle, given as a percent from 0 to 100. (anything
 *        lower or higher will be ignored and no change will occur to register
 * @return Either a 0 if there was no error (Bad input) or a EOF (-1) if the
 *         input was out of bounds.
 */
int PWM_setDutyCycle_A(int dutyCycle){
     200:	defffc04 	addi	sp,sp,-16
     204:	df000315 	stw	fp,12(sp)
     208:	df000304 	addi	fp,sp,12
     20c:	e13ffe15 	stw	r4,-8(fp)
	if((dutyCycle <= 100) && (dutyCycle >= 0)){
     210:	e0bffe17 	ldw	r2,-8(fp)
     214:	10801948 	cmpgei	r2,r2,101
     218:	1000121e 	bne	r2,zero,264 <PWM_setDutyCycle_A+0x64>
     21c:	e0bffe17 	ldw	r2,-8(fp)
     220:	1004803a 	cmplt	r2,r2,zero
     224:	10000f1e 	bne	r2,zero,264 <PWM_setDutyCycle_A+0x64>
		//Convert from percent to the acceptable OCR value with max 20000
		int duty = dutyCycle * (MAX_OCR_VALUE / 100);
     228:	e0bffe17 	ldw	r2,-8(fp)
     22c:	10803224 	muli	r2,r2,200
     230:	e0bffd15 	stw	r2,-12(fp)
		//We can never actually get to 20000 based on my CE2800 notes
		if(duty == MAX_OCR_VALUE)
     234:	e0bffd17 	ldw	r2,-12(fp)
     238:	10938818 	cmpnei	r2,r2,20000
     23c:	1000031e 	bne	r2,zero,24c <PWM_setDutyCycle_A+0x4c>
			duty--;
     240:	e0bffd17 	ldw	r2,-12(fp)
     244:	10bfffc4 	addi	r2,r2,-1
     248:	e0bffd15 	stw	r2,-12(fp)
		//set register
		*OCRA = duty;
     24c:	00a02034 	movhi	r2,32896
     250:	10880a04 	addi	r2,r2,8232
     254:	e0fffd17 	ldw	r3,-12(fp)
     258:	10c0000d 	sth	r3,0(r2)
	} else {
		return -1; // return an error
	}
	// no error
	return 0;
     25c:	e03fff15 	stw	zero,-4(fp)
     260:	00000206 	br	26c <PWM_setDutyCycle_A+0x6c>
		if(duty == MAX_OCR_VALUE)
			duty--;
		//set register
		*OCRA = duty;
	} else {
		return -1; // return an error
     264:	00bfffc4 	movi	r2,-1
     268:	e0bfff15 	stw	r2,-4(fp)
     26c:	e0bfff17 	ldw	r2,-4(fp)
	}
	// no error
	return 0;
}
     270:	e037883a 	mov	sp,fp
     274:	df000017 	ldw	fp,0(sp)
     278:	dec00104 	addi	sp,sp,4
     27c:	f800283a 	ret

00000280 <PWM_setDutyCycle_B>:
 * @param dutyPercent Duty cycle, given as a percent from 0 to 100. (anything
 *        lower or higher will be ignored and no change will occur to register
 * @return Either a 0 if there was no error (Bad input) or a EOF (-1) if the
 *         input was out of bounds.
 */
int PWM_setDutyCycle_B(int dutyCycle){
     280:	defffc04 	addi	sp,sp,-16
     284:	df000315 	stw	fp,12(sp)
     288:	df000304 	addi	fp,sp,12
     28c:	e13ffe15 	stw	r4,-8(fp)
	if((dutyCycle <= 100) && (dutyCycle >= 0)){
     290:	e0bffe17 	ldw	r2,-8(fp)
     294:	10801948 	cmpgei	r2,r2,101
     298:	1000121e 	bne	r2,zero,2e4 <PWM_setDutyCycle_B+0x64>
     29c:	e0bffe17 	ldw	r2,-8(fp)
     2a0:	1004803a 	cmplt	r2,r2,zero
     2a4:	10000f1e 	bne	r2,zero,2e4 <PWM_setDutyCycle_B+0x64>
		//Convert from percent to the acceptable OCR value with max 20000
		int duty = dutyCycle * (MAX_OCR_VALUE / 100);
     2a8:	e0bffe17 	ldw	r2,-8(fp)
     2ac:	10803224 	muli	r2,r2,200
     2b0:	e0bffd15 	stw	r2,-12(fp)
		//We can never actually get to 20000 based on my CE2800 notes
		if(duty == MAX_OCR_VALUE)
     2b4:	e0bffd17 	ldw	r2,-12(fp)
     2b8:	10938818 	cmpnei	r2,r2,20000
     2bc:	1000031e 	bne	r2,zero,2cc <PWM_setDutyCycle_B+0x4c>
			duty--;
     2c0:	e0bffd17 	ldw	r2,-12(fp)
     2c4:	10bfffc4 	addi	r2,r2,-1
     2c8:	e0bffd15 	stw	r2,-12(fp)
		//set register
		*OCRB = duty;
     2cc:	00a02034 	movhi	r2,32896
     2d0:	10880a84 	addi	r2,r2,8234
     2d4:	e0fffd17 	ldw	r3,-12(fp)
     2d8:	10c0000d 	sth	r3,0(r2)
	} else {
		return -1;
	}
	return 0;
     2dc:	e03fff15 	stw	zero,-4(fp)
     2e0:	00000206 	br	2ec <PWM_setDutyCycle_B+0x6c>
		if(duty == MAX_OCR_VALUE)
			duty--;
		//set register
		*OCRB = duty;
	} else {
		return -1;
     2e4:	00bfffc4 	movi	r2,-1
     2e8:	e0bfff15 	stw	r2,-4(fp)
     2ec:	e0bfff17 	ldw	r2,-4(fp)
	}
	return 0;
}
     2f0:	e037883a 	mov	sp,fp
     2f4:	df000017 	ldw	fp,0(sp)
     2f8:	dec00104 	addi	sp,sp,4
     2fc:	f800283a 	ret

00000300 <PWM_writeOCRA>:
 * Writes a value to the PWM register. Note that the function will only
 * write out valid ranged values.
 * @param value place number directly into register
 * @return -1 if invalid data, 0 otherwise
 */
int PWM_writeOCRA(unsigned int value){
     300:	defffd04 	addi	sp,sp,-12
     304:	df000215 	stw	fp,8(sp)
     308:	df000204 	addi	fp,sp,8
     30c:	e13ffe15 	stw	r4,-8(fp)
	if(value > MAX_OCR_VALUE){
     310:	e0bffe17 	ldw	r2,-8(fp)
     314:	10938870 	cmpltui	r2,r2,20001
     318:	1000031e 	bne	r2,zero,328 <PWM_writeOCRA+0x28>
		return -1;
     31c:	00bfffc4 	movi	r2,-1
     320:	e0bfff15 	stw	r2,-4(fp)
     324:	00000506 	br	33c <PWM_writeOCRA+0x3c>
	}
	*OCRA = value;
     328:	00a02034 	movhi	r2,32896
     32c:	10880a04 	addi	r2,r2,8232
     330:	e0fffe17 	ldw	r3,-8(fp)
     334:	10c0000d 	sth	r3,0(r2)
	return 0;
     338:	e03fff15 	stw	zero,-4(fp)
     33c:	e0bfff17 	ldw	r2,-4(fp)
}
     340:	e037883a 	mov	sp,fp
     344:	df000017 	ldw	fp,0(sp)
     348:	dec00104 	addi	sp,sp,4
     34c:	f800283a 	ret

00000350 <PWM_writeOCRB>:
 * Writes a value to the PWM register. Note that the function will only
 * write out valid ranged values.
 * @param value place number directly into register
 * @return -1 if invalid data, 0 otherwise
 */
int PWM_writeOCRB(unsigned int value){
     350:	defffd04 	addi	sp,sp,-12
     354:	df000215 	stw	fp,8(sp)
     358:	df000204 	addi	fp,sp,8
     35c:	e13ffe15 	stw	r4,-8(fp)
	if(value > MAX_OCR_VALUE){
     360:	e0bffe17 	ldw	r2,-8(fp)
     364:	10938870 	cmpltui	r2,r2,20001
     368:	1000031e 	bne	r2,zero,378 <PWM_writeOCRB+0x28>
		return -1;
     36c:	00bfffc4 	movi	r2,-1
     370:	e0bfff15 	stw	r2,-4(fp)
     374:	00000506 	br	38c <PWM_writeOCRB+0x3c>
	}
	*OCRB = value;
     378:	00a02034 	movhi	r2,32896
     37c:	10880a84 	addi	r2,r2,8234
     380:	e0fffe17 	ldw	r3,-8(fp)
     384:	10c0000d 	sth	r3,0(r2)
	return 0;
     388:	e03fff15 	stw	zero,-4(fp)
     38c:	e0bfff17 	ldw	r2,-4(fp)
}
     390:	e037883a 	mov	sp,fp
     394:	df000017 	ldw	fp,0(sp)
     398:	dec00104 	addi	sp,sp,4
     39c:	f800283a 	ret

000003a0 <PWM_readOCRA>:

/**
 * Reads from the OCRA register in counts.
 * @return count value.
 */
int PWM_readOCRA(){
     3a0:	deffff04 	addi	sp,sp,-4
     3a4:	df000015 	stw	fp,0(sp)
     3a8:	d839883a 	mov	fp,sp
	return *OCRA;
     3ac:	00a02034 	movhi	r2,32896
     3b0:	10880a04 	addi	r2,r2,8232
     3b4:	1080000b 	ldhu	r2,0(r2)
     3b8:	10bfffcc 	andi	r2,r2,65535
}
     3bc:	e037883a 	mov	sp,fp
     3c0:	df000017 	ldw	fp,0(sp)
     3c4:	dec00104 	addi	sp,sp,4
     3c8:	f800283a 	ret

000003cc <PWM_readOCRB>:

/**
 * Reads from the OCRB register in counts.
 * @return count value.
 */
int PWM_readOCRB(){
     3cc:	deffff04 	addi	sp,sp,-4
     3d0:	df000015 	stw	fp,0(sp)
     3d4:	d839883a 	mov	fp,sp
	return *OCRB;
     3d8:	00a02034 	movhi	r2,32896
     3dc:	10880a84 	addi	r2,r2,8234
     3e0:	1080000b 	ldhu	r2,0(r2)
     3e4:	10bfffcc 	andi	r2,r2,65535
}
     3e8:	e037883a 	mov	sp,fp
     3ec:	df000017 	ldw	fp,0(sp)
     3f0:	dec00104 	addi	sp,sp,4
     3f4:	f800283a 	ret

000003f8 <main>:
#include "PWM.h"

#include <stdio.h>
#include <system.h>

int main(){
     3f8:	deffe804 	addi	sp,sp,-96
     3fc:	dfc01715 	stw	ra,92(sp)
     400:	df001615 	stw	fp,88(sp)
     404:	df001604 	addi	fp,sp,88

	char inputStr[80];
	unsigned int value;

	PWM_writeOCRA(1400);
     408:	01015e04 	movi	r4,1400
     40c:	00003000 	call	300 <PWM_writeOCRA>
	PWM_writeOCRA(1400);
     410:	01015e04 	movi	r4,1400
     414:	00003000 	call	300 <PWM_writeOCRA>

	while(1){

		printf("Enter OCR Value:\n");
     418:	01000074 	movhi	r4,1
     41c:	21073f04 	addi	r4,r4,7420
     420:	00014340 	call	1434 <puts>

		if(fgets(inputStr,sizeof inputStr, stdin) != NULL){
     424:	00800074 	movhi	r2,1
     428:	108f6704 	addi	r2,r2,15772
     42c:	10800017 	ldw	r2,0(r2)
     430:	11800117 	ldw	r6,4(r2)
     434:	e13feb04 	addi	r4,fp,-84
     438:	01401404 	movi	r5,80
     43c:	00005d40 	call	5d4 <fgets>
     440:	1005003a 	cmpeq	r2,r2,zero
     444:	1000091e 	bne	r2,zero,46c <main+0x74>
			char* newline = strchr(inputStr,'\n');
     448:	e13feb04 	addi	r4,fp,-84
     44c:	01400284 	movi	r5,10
     450:	00018f80 	call	18f8 <strchr>
     454:	e0bfea15 	stw	r2,-88(fp)
			if(newline != NULL){
     458:	e0bfea17 	ldw	r2,-88(fp)
     45c:	1005003a 	cmpeq	r2,r2,zero
     460:	1000021e 	bne	r2,zero,46c <main+0x74>
				*newline = '\0';
     464:	e0bfea17 	ldw	r2,-88(fp)
     468:	10000005 	stb	zero,0(r2)
			}
		}

		sscanf(inputStr,"%d",&value);
     46c:	e13feb04 	addi	r4,fp,-84
     470:	e1bfff04 	addi	r6,fp,-4
     474:	01400074 	movhi	r5,1
     478:	29474404 	addi	r5,r5,7440
     47c:	00017280 	call	1728 <sscanf>
		PWM_writeOCRA(value);
     480:	e13fff17 	ldw	r4,-4(fp)
     484:	00003000 	call	300 <PWM_writeOCRA>
	}
     488:	003fe306 	br	418 <main+0x20>

0000048c <_fgets_r>:
     48c:	defff804 	addi	sp,sp,-32
     490:	00800044 	movi	r2,1
     494:	dd800615 	stw	r22,24(sp)
     498:	dd400515 	stw	r21,20(sp)
     49c:	dc400115 	stw	r17,4(sp)
     4a0:	dc000015 	stw	r16,0(sp)
     4a4:	dfc00715 	stw	ra,28(sp)
     4a8:	dd000415 	stw	r20,16(sp)
     4ac:	dcc00315 	stw	r19,12(sp)
     4b0:	dc800215 	stw	r18,8(sp)
     4b4:	3021883a 	mov	r16,r6
     4b8:	282d883a 	mov	r22,r5
     4bc:	3823883a 	mov	r17,r7
     4c0:	202b883a 	mov	r21,r4
     4c4:	1180410e 	bge	r2,r6,5cc <_fgets_r+0x140>
     4c8:	20000226 	beq	r4,zero,4d4 <_fgets_r+0x48>
     4cc:	20800e17 	ldw	r2,56(r4)
     4d0:	10002e26 	beq	r2,zero,58c <_fgets_r+0x100>
     4d4:	853fffc4 	addi	r20,r16,-1
     4d8:	b027883a 	mov	r19,r22
     4dc:	88800117 	ldw	r2,4(r17)
     4e0:	a809883a 	mov	r4,r21
     4e4:	880b883a 	mov	r5,r17
     4e8:	100d883a 	mov	r6,r2
     4ec:	1000031e 	bne	r2,zero,4fc <_fgets_r+0x70>
     4f0:	00014480 	call	1448 <__srefill_r>
     4f4:	1000341e 	bne	r2,zero,5c8 <_fgets_r+0x13c>
     4f8:	89800117 	ldw	r6,4(r17)
     4fc:	01400284 	movi	r5,10
     500:	3021883a 	mov	r16,r6
     504:	8c800017 	ldw	r18,0(r17)
     508:	a180012e 	bgeu	r20,r6,510 <_fgets_r+0x84>
     50c:	a021883a 	mov	r16,r20
     510:	9009883a 	mov	r4,r18
     514:	800d883a 	mov	r6,r16
     518:	00011780 	call	1178 <memchr>
     51c:	1007883a 	mov	r3,r2
     520:	900b883a 	mov	r5,r18
     524:	9809883a 	mov	r4,r19
     528:	800d883a 	mov	r6,r16
     52c:	1000191e 	bne	r2,zero,594 <_fgets_r+0x108>
     530:	88800117 	ldw	r2,4(r17)
     534:	88c00017 	ldw	r3,0(r17)
     538:	9c27883a 	add	r19,r19,r16
     53c:	1405c83a 	sub	r2,r2,r16
     540:	1c07883a 	add	r3,r3,r16
     544:	88c00015 	stw	r3,0(r17)
     548:	88800115 	stw	r2,4(r17)
     54c:	000125c0 	call	125c <memcpy>
     550:	a407c83a 	sub	r3,r20,r16
     554:	1829883a 	mov	r20,r3
     558:	183fe01e 	bne	r3,zero,4dc <_fgets_r+0x50>
     55c:	98000005 	stb	zero,0(r19)
     560:	b005883a 	mov	r2,r22
     564:	dfc00717 	ldw	ra,28(sp)
     568:	dd800617 	ldw	r22,24(sp)
     56c:	dd400517 	ldw	r21,20(sp)
     570:	dd000417 	ldw	r20,16(sp)
     574:	dcc00317 	ldw	r19,12(sp)
     578:	dc800217 	ldw	r18,8(sp)
     57c:	dc400117 	ldw	r17,4(sp)
     580:	dc000017 	ldw	r16,0(sp)
     584:	dec00804 	addi	sp,sp,32
     588:	f800283a 	ret
     58c:	00006600 	call	660 <__sinit>
     590:	003fd006 	br	4d4 <_fgets_r+0x48>
     594:	88800117 	ldw	r2,4(r17)
     598:	18c00044 	addi	r3,r3,1
     59c:	1ca1c83a 	sub	r16,r3,r18
     5a0:	1405c83a 	sub	r2,r2,r16
     5a4:	800d883a 	mov	r6,r16
     5a8:	88c00015 	stw	r3,0(r17)
     5ac:	88800115 	stw	r2,4(r17)
     5b0:	900b883a 	mov	r5,r18
     5b4:	9809883a 	mov	r4,r19
     5b8:	000125c0 	call	125c <memcpy>
     5bc:	9c21883a 	add	r16,r19,r16
     5c0:	80000005 	stb	zero,0(r16)
     5c4:	003fe606 	br	560 <_fgets_r+0xd4>
     5c8:	9dbfe41e 	bne	r19,r22,55c <_fgets_r+0xd0>
     5cc:	002d883a 	mov	r22,zero
     5d0:	003fe306 	br	560 <_fgets_r+0xd4>

000005d4 <fgets>:
     5d4:	00800074 	movhi	r2,1
     5d8:	108f6704 	addi	r2,r2,15772
     5dc:	2013883a 	mov	r9,r4
     5e0:	11000017 	ldw	r4,0(r2)
     5e4:	2805883a 	mov	r2,r5
     5e8:	300f883a 	mov	r7,r6
     5ec:	480b883a 	mov	r5,r9
     5f0:	100d883a 	mov	r6,r2
     5f4:	000048c1 	jmpi	48c <_fgets_r>

000005f8 <std>:
     5f8:	00800034 	movhi	r2,0
     5fc:	1085eb04 	addi	r2,r2,6060
     600:	20800b15 	stw	r2,44(r4)
     604:	00800034 	movhi	r2,0
     608:	10862604 	addi	r2,r2,6296
     60c:	20800815 	stw	r2,32(r4)
     610:	00c00034 	movhi	r3,0
     614:	18c60704 	addi	r3,r3,6172
     618:	00800034 	movhi	r2,0
     61c:	1085ed04 	addi	r2,r2,6068
     620:	2140030d 	sth	r5,12(r4)
     624:	2180038d 	sth	r6,14(r4)
     628:	20c00915 	stw	r3,36(r4)
     62c:	20800a15 	stw	r2,40(r4)
     630:	20000015 	stw	zero,0(r4)
     634:	20000115 	stw	zero,4(r4)
     638:	20000215 	stw	zero,8(r4)
     63c:	20000415 	stw	zero,16(r4)
     640:	20000515 	stw	zero,20(r4)
     644:	20000615 	stw	zero,24(r4)
     648:	21000715 	stw	r4,28(r4)
     64c:	f800283a 	ret

00000650 <__sfp_lock_acquire>:
     650:	f800283a 	ret

00000654 <__sfp_lock_release>:
     654:	f800283a 	ret

00000658 <__sinit_lock_acquire>:
     658:	f800283a 	ret

0000065c <__sinit_lock_release>:
     65c:	f800283a 	ret

00000660 <__sinit>:
     660:	20800e17 	ldw	r2,56(r4)
     664:	defffd04 	addi	sp,sp,-12
     668:	dc400115 	stw	r17,4(sp)
     66c:	dc000015 	stw	r16,0(sp)
     670:	dfc00215 	stw	ra,8(sp)
     674:	04400044 	movi	r17,1
     678:	01400104 	movi	r5,4
     67c:	000d883a 	mov	r6,zero
     680:	2021883a 	mov	r16,r4
     684:	2200bb04 	addi	r8,r4,748
     688:	200f883a 	mov	r7,r4
     68c:	10000526 	beq	r2,zero,6a4 <__sinit+0x44>
     690:	dfc00217 	ldw	ra,8(sp)
     694:	dc400117 	ldw	r17,4(sp)
     698:	dc000017 	ldw	r16,0(sp)
     69c:	dec00304 	addi	sp,sp,12
     6a0:	f800283a 	ret
     6a4:	21000117 	ldw	r4,4(r4)
     6a8:	00800034 	movhi	r2,0
     6ac:	1081d104 	addi	r2,r2,1860
     6b0:	00c000c4 	movi	r3,3
     6b4:	80800f15 	stw	r2,60(r16)
     6b8:	80c0b915 	stw	r3,740(r16)
     6bc:	8200ba15 	stw	r8,744(r16)
     6c0:	84400e15 	stw	r17,56(r16)
     6c4:	8000b815 	stw	zero,736(r16)
     6c8:	00005f80 	call	5f8 <std>
     6cc:	81000217 	ldw	r4,8(r16)
     6d0:	880d883a 	mov	r6,r17
     6d4:	800f883a 	mov	r7,r16
     6d8:	01400284 	movi	r5,10
     6dc:	00005f80 	call	5f8 <std>
     6e0:	81000317 	ldw	r4,12(r16)
     6e4:	800f883a 	mov	r7,r16
     6e8:	01400484 	movi	r5,18
     6ec:	01800084 	movi	r6,2
     6f0:	dfc00217 	ldw	ra,8(sp)
     6f4:	dc400117 	ldw	r17,4(sp)
     6f8:	dc000017 	ldw	r16,0(sp)
     6fc:	dec00304 	addi	sp,sp,12
     700:	00005f81 	jmpi	5f8 <std>

00000704 <__fp_lock>:
     704:	0005883a 	mov	r2,zero
     708:	f800283a 	ret

0000070c <__fp_unlock>:
     70c:	0005883a 	mov	r2,zero
     710:	f800283a 	ret

00000714 <__fp_unlock_all>:
     714:	00800074 	movhi	r2,1
     718:	108f6704 	addi	r2,r2,15772
     71c:	11000017 	ldw	r4,0(r2)
     720:	01400034 	movhi	r5,0
     724:	2941c304 	addi	r5,r5,1804
     728:	00009801 	jmpi	980 <_fwalk>

0000072c <__fp_lock_all>:
     72c:	00800074 	movhi	r2,1
     730:	108f6704 	addi	r2,r2,15772
     734:	11000017 	ldw	r4,0(r2)
     738:	01400034 	movhi	r5,0
     73c:	2941c104 	addi	r5,r5,1796
     740:	00009801 	jmpi	980 <_fwalk>

00000744 <_cleanup_r>:
     744:	01400034 	movhi	r5,0
     748:	294cf104 	addi	r5,r5,13252
     74c:	00009801 	jmpi	980 <_fwalk>

00000750 <_cleanup>:
     750:	00800074 	movhi	r2,1
     754:	108f6804 	addi	r2,r2,15776
     758:	11000017 	ldw	r4,0(r2)
     75c:	00007441 	jmpi	744 <_cleanup_r>

00000760 <__sfmoreglue>:
     760:	defffc04 	addi	sp,sp,-16
     764:	dc400115 	stw	r17,4(sp)
     768:	2c401724 	muli	r17,r5,92
     76c:	dc800215 	stw	r18,8(sp)
     770:	2825883a 	mov	r18,r5
     774:	89400304 	addi	r5,r17,12
     778:	dc000015 	stw	r16,0(sp)
     77c:	dfc00315 	stw	ra,12(sp)
     780:	0000a380 	call	a38 <_malloc_r>
     784:	0021883a 	mov	r16,zero
     788:	880d883a 	mov	r6,r17
     78c:	000b883a 	mov	r5,zero
     790:	10000626 	beq	r2,zero,7ac <__sfmoreglue+0x4c>
     794:	11000304 	addi	r4,r2,12
     798:	14800115 	stw	r18,4(r2)
     79c:	10000015 	stw	zero,0(r2)
     7a0:	11000215 	stw	r4,8(r2)
     7a4:	1021883a 	mov	r16,r2
     7a8:	00012fc0 	call	12fc <memset>
     7ac:	8005883a 	mov	r2,r16
     7b0:	dfc00317 	ldw	ra,12(sp)
     7b4:	dc800217 	ldw	r18,8(sp)
     7b8:	dc400117 	ldw	r17,4(sp)
     7bc:	dc000017 	ldw	r16,0(sp)
     7c0:	dec00404 	addi	sp,sp,16
     7c4:	f800283a 	ret

000007c8 <__sfp>:
     7c8:	defffd04 	addi	sp,sp,-12
     7cc:	00800074 	movhi	r2,1
     7d0:	108f6804 	addi	r2,r2,15776
     7d4:	dc000015 	stw	r16,0(sp)
     7d8:	14000017 	ldw	r16,0(r2)
     7dc:	dc400115 	stw	r17,4(sp)
     7e0:	dfc00215 	stw	ra,8(sp)
     7e4:	80800e17 	ldw	r2,56(r16)
     7e8:	2023883a 	mov	r17,r4
     7ec:	10002626 	beq	r2,zero,888 <__sfp+0xc0>
     7f0:	8400b804 	addi	r16,r16,736
     7f4:	80800117 	ldw	r2,4(r16)
     7f8:	81000217 	ldw	r4,8(r16)
     7fc:	10ffffc4 	addi	r3,r2,-1
     800:	18000916 	blt	r3,zero,828 <__sfp+0x60>
     804:	2080030f 	ldh	r2,12(r4)
     808:	10000b26 	beq	r2,zero,838 <__sfp+0x70>
     80c:	017fffc4 	movi	r5,-1
     810:	00000206 	br	81c <__sfp+0x54>
     814:	2080030f 	ldh	r2,12(r4)
     818:	10000726 	beq	r2,zero,838 <__sfp+0x70>
     81c:	18ffffc4 	addi	r3,r3,-1
     820:	21001704 	addi	r4,r4,92
     824:	197ffb1e 	bne	r3,r5,814 <__sfp+0x4c>
     828:	80800017 	ldw	r2,0(r16)
     82c:	10001926 	beq	r2,zero,894 <__sfp+0xcc>
     830:	1021883a 	mov	r16,r2
     834:	003fef06 	br	7f4 <__sfp+0x2c>
     838:	00bfffc4 	movi	r2,-1
     83c:	00c00044 	movi	r3,1
     840:	2080038d 	sth	r2,14(r4)
     844:	20c0030d 	sth	r3,12(r4)
     848:	20000015 	stw	zero,0(r4)
     84c:	20000215 	stw	zero,8(r4)
     850:	20000115 	stw	zero,4(r4)
     854:	20000415 	stw	zero,16(r4)
     858:	20000515 	stw	zero,20(r4)
     85c:	20000615 	stw	zero,24(r4)
     860:	20000c15 	stw	zero,48(r4)
     864:	20000d15 	stw	zero,52(r4)
     868:	20001115 	stw	zero,68(r4)
     86c:	20001215 	stw	zero,72(r4)
     870:	2005883a 	mov	r2,r4
     874:	dfc00217 	ldw	ra,8(sp)
     878:	dc400117 	ldw	r17,4(sp)
     87c:	dc000017 	ldw	r16,0(sp)
     880:	dec00304 	addi	sp,sp,12
     884:	f800283a 	ret
     888:	8009883a 	mov	r4,r16
     88c:	00006600 	call	660 <__sinit>
     890:	003fd706 	br	7f0 <__sfp+0x28>
     894:	8809883a 	mov	r4,r17
     898:	01400104 	movi	r5,4
     89c:	00007600 	call	760 <__sfmoreglue>
     8a0:	80800015 	stw	r2,0(r16)
     8a4:	103fe21e 	bne	r2,zero,830 <__sfp+0x68>
     8a8:	00800304 	movi	r2,12
     8ac:	0009883a 	mov	r4,zero
     8b0:	88800015 	stw	r2,0(r17)
     8b4:	003fee06 	br	870 <__sfp+0xa8>

000008b8 <_fwalk_reent>:
     8b8:	defff704 	addi	sp,sp,-36
     8bc:	dcc00315 	stw	r19,12(sp)
     8c0:	24c0b804 	addi	r19,r4,736
     8c4:	dd800615 	stw	r22,24(sp)
     8c8:	dd400515 	stw	r21,20(sp)
     8cc:	dfc00815 	stw	ra,32(sp)
     8d0:	ddc00715 	stw	r23,28(sp)
     8d4:	dd000415 	stw	r20,16(sp)
     8d8:	dc800215 	stw	r18,8(sp)
     8dc:	dc400115 	stw	r17,4(sp)
     8e0:	dc000015 	stw	r16,0(sp)
     8e4:	202b883a 	mov	r21,r4
     8e8:	282d883a 	mov	r22,r5
     8ec:	00006500 	call	650 <__sfp_lock_acquire>
     8f0:	98002126 	beq	r19,zero,978 <_fwalk_reent+0xc0>
     8f4:	002f883a 	mov	r23,zero
     8f8:	9c800117 	ldw	r18,4(r19)
     8fc:	9c000217 	ldw	r16,8(r19)
     900:	90bfffc4 	addi	r2,r18,-1
     904:	10000d16 	blt	r2,zero,93c <_fwalk_reent+0x84>
     908:	0023883a 	mov	r17,zero
     90c:	053fffc4 	movi	r20,-1
     910:	8080030f 	ldh	r2,12(r16)
     914:	8c400044 	addi	r17,r17,1
     918:	10000626 	beq	r2,zero,934 <_fwalk_reent+0x7c>
     91c:	8080038f 	ldh	r2,14(r16)
     920:	800b883a 	mov	r5,r16
     924:	a809883a 	mov	r4,r21
     928:	15000226 	beq	r2,r20,934 <_fwalk_reent+0x7c>
     92c:	b03ee83a 	callr	r22
     930:	b8aeb03a 	or	r23,r23,r2
     934:	84001704 	addi	r16,r16,92
     938:	947ff51e 	bne	r18,r17,910 <_fwalk_reent+0x58>
     93c:	9cc00017 	ldw	r19,0(r19)
     940:	983fed1e 	bne	r19,zero,8f8 <_fwalk_reent+0x40>
     944:	00006540 	call	654 <__sfp_lock_release>
     948:	b805883a 	mov	r2,r23
     94c:	dfc00817 	ldw	ra,32(sp)
     950:	ddc00717 	ldw	r23,28(sp)
     954:	dd800617 	ldw	r22,24(sp)
     958:	dd400517 	ldw	r21,20(sp)
     95c:	dd000417 	ldw	r20,16(sp)
     960:	dcc00317 	ldw	r19,12(sp)
     964:	dc800217 	ldw	r18,8(sp)
     968:	dc400117 	ldw	r17,4(sp)
     96c:	dc000017 	ldw	r16,0(sp)
     970:	dec00904 	addi	sp,sp,36
     974:	f800283a 	ret
     978:	002f883a 	mov	r23,zero
     97c:	003ff106 	br	944 <_fwalk_reent+0x8c>

00000980 <_fwalk>:
     980:	defff804 	addi	sp,sp,-32
     984:	dcc00315 	stw	r19,12(sp)
     988:	24c0b804 	addi	r19,r4,736
     98c:	dd400515 	stw	r21,20(sp)
     990:	dfc00715 	stw	ra,28(sp)
     994:	dd800615 	stw	r22,24(sp)
     998:	dd000415 	stw	r20,16(sp)
     99c:	dc800215 	stw	r18,8(sp)
     9a0:	dc400115 	stw	r17,4(sp)
     9a4:	dc000015 	stw	r16,0(sp)
     9a8:	282b883a 	mov	r21,r5
     9ac:	00006500 	call	650 <__sfp_lock_acquire>
     9b0:	98001f26 	beq	r19,zero,a30 <_fwalk+0xb0>
     9b4:	002d883a 	mov	r22,zero
     9b8:	9c800117 	ldw	r18,4(r19)
     9bc:	9c000217 	ldw	r16,8(r19)
     9c0:	90bfffc4 	addi	r2,r18,-1
     9c4:	10000c16 	blt	r2,zero,9f8 <_fwalk+0x78>
     9c8:	0023883a 	mov	r17,zero
     9cc:	053fffc4 	movi	r20,-1
     9d0:	8080030f 	ldh	r2,12(r16)
     9d4:	8c400044 	addi	r17,r17,1
     9d8:	10000526 	beq	r2,zero,9f0 <_fwalk+0x70>
     9dc:	8080038f 	ldh	r2,14(r16)
     9e0:	8009883a 	mov	r4,r16
     9e4:	15000226 	beq	r2,r20,9f0 <_fwalk+0x70>
     9e8:	a83ee83a 	callr	r21
     9ec:	b0acb03a 	or	r22,r22,r2
     9f0:	84001704 	addi	r16,r16,92
     9f4:	947ff61e 	bne	r18,r17,9d0 <_fwalk+0x50>
     9f8:	9cc00017 	ldw	r19,0(r19)
     9fc:	983fee1e 	bne	r19,zero,9b8 <_fwalk+0x38>
     a00:	00006540 	call	654 <__sfp_lock_release>
     a04:	b005883a 	mov	r2,r22
     a08:	dfc00717 	ldw	ra,28(sp)
     a0c:	dd800617 	ldw	r22,24(sp)
     a10:	dd400517 	ldw	r21,20(sp)
     a14:	dd000417 	ldw	r20,16(sp)
     a18:	dcc00317 	ldw	r19,12(sp)
     a1c:	dc800217 	ldw	r18,8(sp)
     a20:	dc400117 	ldw	r17,4(sp)
     a24:	dc000017 	ldw	r16,0(sp)
     a28:	dec00804 	addi	sp,sp,32
     a2c:	f800283a 	ret
     a30:	002d883a 	mov	r22,zero
     a34:	003ff206 	br	a00 <_fwalk+0x80>

00000a38 <_malloc_r>:
     a38:	defff604 	addi	sp,sp,-40
     a3c:	28c002c4 	addi	r3,r5,11
     a40:	00800584 	movi	r2,22
     a44:	dc800215 	stw	r18,8(sp)
     a48:	dfc00915 	stw	ra,36(sp)
     a4c:	df000815 	stw	fp,32(sp)
     a50:	ddc00715 	stw	r23,28(sp)
     a54:	dd800615 	stw	r22,24(sp)
     a58:	dd400515 	stw	r21,20(sp)
     a5c:	dd000415 	stw	r20,16(sp)
     a60:	dcc00315 	stw	r19,12(sp)
     a64:	dc400115 	stw	r17,4(sp)
     a68:	dc000015 	stw	r16,0(sp)
     a6c:	2025883a 	mov	r18,r4
     a70:	10c01236 	bltu	r2,r3,abc <_malloc_r+0x84>
     a74:	04400404 	movi	r17,16
     a78:	8940142e 	bgeu	r17,r5,acc <_malloc_r+0x94>
     a7c:	00800304 	movi	r2,12
     a80:	0007883a 	mov	r3,zero
     a84:	90800015 	stw	r2,0(r18)
     a88:	1805883a 	mov	r2,r3
     a8c:	dfc00917 	ldw	ra,36(sp)
     a90:	df000817 	ldw	fp,32(sp)
     a94:	ddc00717 	ldw	r23,28(sp)
     a98:	dd800617 	ldw	r22,24(sp)
     a9c:	dd400517 	ldw	r21,20(sp)
     aa0:	dd000417 	ldw	r20,16(sp)
     aa4:	dcc00317 	ldw	r19,12(sp)
     aa8:	dc800217 	ldw	r18,8(sp)
     aac:	dc400117 	ldw	r17,4(sp)
     ab0:	dc000017 	ldw	r16,0(sp)
     ab4:	dec00a04 	addi	sp,sp,40
     ab8:	f800283a 	ret
     abc:	00bffe04 	movi	r2,-8
     ac0:	18a2703a 	and	r17,r3,r2
     ac4:	883fed16 	blt	r17,zero,a7c <_malloc_r+0x44>
     ac8:	897fec36 	bltu	r17,r5,a7c <_malloc_r+0x44>
     acc:	9009883a 	mov	r4,r18
     ad0:	000f8f00 	call	f8f0 <__malloc_lock>
     ad4:	00807dc4 	movi	r2,503
     ad8:	14402b2e 	bgeu	r2,r17,b88 <_malloc_r+0x150>
     adc:	8806d27a 	srli	r3,r17,9
     ae0:	18003f1e 	bne	r3,zero,be0 <_malloc_r+0x1a8>
     ae4:	880cd0fa 	srli	r6,r17,3
     ae8:	300490fa 	slli	r2,r6,3
     aec:	02c00074 	movhi	r11,1
     af0:	5ac9d604 	addi	r11,r11,10072
     af4:	12cb883a 	add	r5,r2,r11
     af8:	2c000317 	ldw	r16,12(r5)
     afc:	580f883a 	mov	r7,r11
     b00:	2c00041e 	bne	r5,r16,b14 <_malloc_r+0xdc>
     b04:	00000a06 	br	b30 <_malloc_r+0xf8>
     b08:	1800860e 	bge	r3,zero,d24 <_malloc_r+0x2ec>
     b0c:	84000317 	ldw	r16,12(r16)
     b10:	2c000726 	beq	r5,r16,b30 <_malloc_r+0xf8>
     b14:	80800117 	ldw	r2,4(r16)
     b18:	00ffff04 	movi	r3,-4
     b1c:	10c8703a 	and	r4,r2,r3
     b20:	2447c83a 	sub	r3,r4,r17
     b24:	008003c4 	movi	r2,15
     b28:	10fff70e 	bge	r2,r3,b08 <_malloc_r+0xd0>
     b2c:	31bfffc4 	addi	r6,r6,-1
     b30:	32400044 	addi	r9,r6,1
     b34:	02800074 	movhi	r10,1
     b38:	5289d804 	addi	r10,r10,10080
     b3c:	54000217 	ldw	r16,8(r10)
     b40:	8280a026 	beq	r16,r10,dc4 <_malloc_r+0x38c>
     b44:	80800117 	ldw	r2,4(r16)
     b48:	00ffff04 	movi	r3,-4
     b4c:	10ca703a 	and	r5,r2,r3
     b50:	2c4dc83a 	sub	r6,r5,r17
     b54:	008003c4 	movi	r2,15
     b58:	11808316 	blt	r2,r6,d68 <_malloc_r+0x330>
     b5c:	52800315 	stw	r10,12(r10)
     b60:	52800215 	stw	r10,8(r10)
     b64:	30002916 	blt	r6,zero,c0c <_malloc_r+0x1d4>
     b68:	8147883a 	add	r3,r16,r5
     b6c:	18800117 	ldw	r2,4(r3)
     b70:	9009883a 	mov	r4,r18
     b74:	10800054 	ori	r2,r2,1
     b78:	18800115 	stw	r2,4(r3)
     b7c:	000f9100 	call	f910 <__malloc_unlock>
     b80:	80c00204 	addi	r3,r16,8
     b84:	003fc006 	br	a88 <_malloc_r+0x50>
     b88:	02c00074 	movhi	r11,1
     b8c:	5ac9d604 	addi	r11,r11,10072
     b90:	8ac5883a 	add	r2,r17,r11
     b94:	14000317 	ldw	r16,12(r2)
     b98:	580f883a 	mov	r7,r11
     b9c:	8806d0fa 	srli	r3,r17,3
     ba0:	14006c26 	beq	r2,r16,d54 <_malloc_r+0x31c>
     ba4:	80c00117 	ldw	r3,4(r16)
     ba8:	00bfff04 	movi	r2,-4
     bac:	81800317 	ldw	r6,12(r16)
     bb0:	1886703a 	and	r3,r3,r2
     bb4:	80c7883a 	add	r3,r16,r3
     bb8:	18800117 	ldw	r2,4(r3)
     bbc:	81400217 	ldw	r5,8(r16)
     bc0:	9009883a 	mov	r4,r18
     bc4:	10800054 	ori	r2,r2,1
     bc8:	18800115 	stw	r2,4(r3)
     bcc:	31400215 	stw	r5,8(r6)
     bd0:	29800315 	stw	r6,12(r5)
     bd4:	000f9100 	call	f910 <__malloc_unlock>
     bd8:	80c00204 	addi	r3,r16,8
     bdc:	003faa06 	br	a88 <_malloc_r+0x50>
     be0:	00800104 	movi	r2,4
     be4:	10c0052e 	bgeu	r2,r3,bfc <_malloc_r+0x1c4>
     be8:	00800504 	movi	r2,20
     bec:	10c07836 	bltu	r2,r3,dd0 <_malloc_r+0x398>
     bf0:	198016c4 	addi	r6,r3,91
     bf4:	300490fa 	slli	r2,r6,3
     bf8:	003fbc06 	br	aec <_malloc_r+0xb4>
     bfc:	8804d1ba 	srli	r2,r17,6
     c00:	11800e04 	addi	r6,r2,56
     c04:	300490fa 	slli	r2,r6,3
     c08:	003fb806 	br	aec <_malloc_r+0xb4>
     c0c:	00807fc4 	movi	r2,511
     c10:	1140bb36 	bltu	r2,r5,f00 <_malloc_r+0x4c8>
     c14:	2806d0fa 	srli	r3,r5,3
     c18:	573ffe04 	addi	fp,r10,-8
     c1c:	00800044 	movi	r2,1
     c20:	180890fa 	slli	r4,r3,3
     c24:	1807d0ba 	srai	r3,r3,2
     c28:	e1c00117 	ldw	r7,4(fp)
     c2c:	5909883a 	add	r4,r11,r4
     c30:	21400217 	ldw	r5,8(r4)
     c34:	10c4983a 	sll	r2,r2,r3
     c38:	81000315 	stw	r4,12(r16)
     c3c:	81400215 	stw	r5,8(r16)
     c40:	388eb03a 	or	r7,r7,r2
     c44:	2c000315 	stw	r16,12(r5)
     c48:	24000215 	stw	r16,8(r4)
     c4c:	e1c00115 	stw	r7,4(fp)
     c50:	4807883a 	mov	r3,r9
     c54:	4800cd16 	blt	r9,zero,f8c <_malloc_r+0x554>
     c58:	1807d0ba 	srai	r3,r3,2
     c5c:	00800044 	movi	r2,1
     c60:	10c8983a 	sll	r4,r2,r3
     c64:	39004436 	bltu	r7,r4,d78 <_malloc_r+0x340>
     c68:	21c4703a 	and	r2,r4,r7
     c6c:	10000a1e 	bne	r2,zero,c98 <_malloc_r+0x260>
     c70:	2109883a 	add	r4,r4,r4
     c74:	00bfff04 	movi	r2,-4
     c78:	4884703a 	and	r2,r9,r2
     c7c:	3906703a 	and	r3,r7,r4
     c80:	12400104 	addi	r9,r2,4
     c84:	1800041e 	bne	r3,zero,c98 <_malloc_r+0x260>
     c88:	2109883a 	add	r4,r4,r4
     c8c:	3904703a 	and	r2,r7,r4
     c90:	4a400104 	addi	r9,r9,4
     c94:	103ffc26 	beq	r2,zero,c88 <_malloc_r+0x250>
     c98:	480490fa 	slli	r2,r9,3
     c9c:	4819883a 	mov	r12,r9
     ca0:	023fff04 	movi	r8,-4
     ca4:	589b883a 	add	r13,r11,r2
     ca8:	6807883a 	mov	r3,r13
     cac:	014003c4 	movi	r5,15
     cb0:	1c000317 	ldw	r16,12(r3)
     cb4:	1c00041e 	bne	r3,r16,cc8 <_malloc_r+0x290>
     cb8:	0000a706 	br	f58 <_malloc_r+0x520>
     cbc:	3000ab0e 	bge	r6,zero,f6c <_malloc_r+0x534>
     cc0:	84000317 	ldw	r16,12(r16)
     cc4:	1c00a426 	beq	r3,r16,f58 <_malloc_r+0x520>
     cc8:	80800117 	ldw	r2,4(r16)
     ccc:	1204703a 	and	r2,r2,r8
     cd0:	144dc83a 	sub	r6,r2,r17
     cd4:	29bff90e 	bge	r5,r6,cbc <_malloc_r+0x284>
     cd8:	81000317 	ldw	r4,12(r16)
     cdc:	80c00217 	ldw	r3,8(r16)
     ce0:	89400054 	ori	r5,r17,1
     ce4:	8445883a 	add	r2,r16,r17
     ce8:	20c00215 	stw	r3,8(r4)
     cec:	19000315 	stw	r4,12(r3)
     cf0:	81400115 	stw	r5,4(r16)
     cf4:	1187883a 	add	r3,r2,r6
     cf8:	31000054 	ori	r4,r6,1
     cfc:	50800315 	stw	r2,12(r10)
     d00:	50800215 	stw	r2,8(r10)
     d04:	19800015 	stw	r6,0(r3)
     d08:	11000115 	stw	r4,4(r2)
     d0c:	12800215 	stw	r10,8(r2)
     d10:	12800315 	stw	r10,12(r2)
     d14:	9009883a 	mov	r4,r18
     d18:	000f9100 	call	f910 <__malloc_unlock>
     d1c:	80c00204 	addi	r3,r16,8
     d20:	003f5906 	br	a88 <_malloc_r+0x50>
     d24:	8109883a 	add	r4,r16,r4
     d28:	20800117 	ldw	r2,4(r4)
     d2c:	80c00217 	ldw	r3,8(r16)
     d30:	81400317 	ldw	r5,12(r16)
     d34:	10800054 	ori	r2,r2,1
     d38:	20800115 	stw	r2,4(r4)
     d3c:	28c00215 	stw	r3,8(r5)
     d40:	19400315 	stw	r5,12(r3)
     d44:	9009883a 	mov	r4,r18
     d48:	000f9100 	call	f910 <__malloc_unlock>
     d4c:	80c00204 	addi	r3,r16,8
     d50:	003f4d06 	br	a88 <_malloc_r+0x50>
     d54:	80800204 	addi	r2,r16,8
     d58:	14000317 	ldw	r16,12(r2)
     d5c:	143f911e 	bne	r2,r16,ba4 <_malloc_r+0x16c>
     d60:	1a400084 	addi	r9,r3,2
     d64:	003f7306 	br	b34 <_malloc_r+0xfc>
     d68:	88c00054 	ori	r3,r17,1
     d6c:	8445883a 	add	r2,r16,r17
     d70:	80c00115 	stw	r3,4(r16)
     d74:	003fdf06 	br	cf4 <_malloc_r+0x2bc>
     d78:	e4000217 	ldw	r16,8(fp)
     d7c:	00bfff04 	movi	r2,-4
     d80:	80c00117 	ldw	r3,4(r16)
     d84:	802d883a 	mov	r22,r16
     d88:	18aa703a 	and	r21,r3,r2
     d8c:	ac401636 	bltu	r21,r17,de8 <_malloc_r+0x3b0>
     d90:	ac49c83a 	sub	r4,r21,r17
     d94:	008003c4 	movi	r2,15
     d98:	1100130e 	bge	r2,r4,de8 <_malloc_r+0x3b0>
     d9c:	88800054 	ori	r2,r17,1
     da0:	8447883a 	add	r3,r16,r17
     da4:	80800115 	stw	r2,4(r16)
     da8:	20800054 	ori	r2,r4,1
     dac:	18800115 	stw	r2,4(r3)
     db0:	e0c00215 	stw	r3,8(fp)
     db4:	9009883a 	mov	r4,r18
     db8:	000f9100 	call	f910 <__malloc_unlock>
     dbc:	80c00204 	addi	r3,r16,8
     dc0:	003f3106 	br	a88 <_malloc_r+0x50>
     dc4:	39c00117 	ldw	r7,4(r7)
     dc8:	573ffe04 	addi	fp,r10,-8
     dcc:	003fa006 	br	c50 <_malloc_r+0x218>
     dd0:	00801504 	movi	r2,84
     dd4:	10c06736 	bltu	r2,r3,f74 <_malloc_r+0x53c>
     dd8:	8804d33a 	srli	r2,r17,12
     ddc:	11801b84 	addi	r6,r2,110
     de0:	300490fa 	slli	r2,r6,3
     de4:	003f4106 	br	aec <_malloc_r+0xb4>
     de8:	d0a6b317 	ldw	r2,-25908(gp)
     dec:	d0e00317 	ldw	r3,-32756(gp)
     df0:	053fffc4 	movi	r20,-1
     df4:	10800404 	addi	r2,r2,16
     df8:	88a7883a 	add	r19,r17,r2
     dfc:	1d000326 	beq	r3,r20,e0c <_malloc_r+0x3d4>
     e00:	98c3ffc4 	addi	r3,r19,4095
     e04:	00bc0004 	movi	r2,-4096
     e08:	18a6703a 	and	r19,r3,r2
     e0c:	9009883a 	mov	r4,r18
     e10:	980b883a 	mov	r5,r19
     e14:	00016280 	call	1628 <_sbrk_r>
     e18:	1009883a 	mov	r4,r2
     e1c:	15000426 	beq	r2,r20,e30 <_malloc_r+0x3f8>
     e20:	854b883a 	add	r5,r16,r21
     e24:	1029883a 	mov	r20,r2
     e28:	11405a2e 	bgeu	r2,r5,f94 <_malloc_r+0x55c>
     e2c:	87000c26 	beq	r16,fp,e60 <_malloc_r+0x428>
     e30:	e4000217 	ldw	r16,8(fp)
     e34:	80c00117 	ldw	r3,4(r16)
     e38:	00bfff04 	movi	r2,-4
     e3c:	1884703a 	and	r2,r3,r2
     e40:	14400336 	bltu	r2,r17,e50 <_malloc_r+0x418>
     e44:	1449c83a 	sub	r4,r2,r17
     e48:	008003c4 	movi	r2,15
     e4c:	113fd316 	blt	r2,r4,d9c <_malloc_r+0x364>
     e50:	9009883a 	mov	r4,r18
     e54:	000f9100 	call	f910 <__malloc_unlock>
     e58:	0007883a 	mov	r3,zero
     e5c:	003f0a06 	br	a88 <_malloc_r+0x50>
     e60:	05c00074 	movhi	r23,1
     e64:	bdd62704 	addi	r23,r23,22684
     e68:	b8800017 	ldw	r2,0(r23)
     e6c:	988d883a 	add	r6,r19,r2
     e70:	b9800015 	stw	r6,0(r23)
     e74:	d0e00317 	ldw	r3,-32756(gp)
     e78:	00bfffc4 	movi	r2,-1
     e7c:	18808e26 	beq	r3,r2,10b8 <_malloc_r+0x680>
     e80:	2145c83a 	sub	r2,r4,r5
     e84:	3085883a 	add	r2,r6,r2
     e88:	b8800015 	stw	r2,0(r23)
     e8c:	20c001cc 	andi	r3,r4,7
     e90:	18005f1e 	bne	r3,zero,1010 <_malloc_r+0x5d8>
     e94:	000b883a 	mov	r5,zero
     e98:	a4c5883a 	add	r2,r20,r19
     e9c:	1083ffcc 	andi	r2,r2,4095
     ea0:	00c40004 	movi	r3,4096
     ea4:	1887c83a 	sub	r3,r3,r2
     ea8:	28e7883a 	add	r19,r5,r3
     eac:	9009883a 	mov	r4,r18
     eb0:	980b883a 	mov	r5,r19
     eb4:	00016280 	call	1628 <_sbrk_r>
     eb8:	1007883a 	mov	r3,r2
     ebc:	00bfffc4 	movi	r2,-1
     ec0:	18807a26 	beq	r3,r2,10ac <_malloc_r+0x674>
     ec4:	1d05c83a 	sub	r2,r3,r20
     ec8:	9885883a 	add	r2,r19,r2
     ecc:	10c00054 	ori	r3,r2,1
     ed0:	b8800017 	ldw	r2,0(r23)
     ed4:	a021883a 	mov	r16,r20
     ed8:	a0c00115 	stw	r3,4(r20)
     edc:	9885883a 	add	r2,r19,r2
     ee0:	b8800015 	stw	r2,0(r23)
     ee4:	e5000215 	stw	r20,8(fp)
     ee8:	b7003626 	beq	r22,fp,fc4 <_malloc_r+0x58c>
     eec:	018003c4 	movi	r6,15
     ef0:	35404b36 	bltu	r6,r21,1020 <_malloc_r+0x5e8>
     ef4:	00800044 	movi	r2,1
     ef8:	a0800115 	stw	r2,4(r20)
     efc:	003fcd06 	br	e34 <_malloc_r+0x3fc>
     f00:	2808d27a 	srli	r4,r5,9
     f04:	2000371e 	bne	r4,zero,fe4 <_malloc_r+0x5ac>
     f08:	2808d0fa 	srli	r4,r5,3
     f0c:	200690fa 	slli	r3,r4,3
     f10:	1ad1883a 	add	r8,r3,r11
     f14:	41800217 	ldw	r6,8(r8)
     f18:	41805b26 	beq	r8,r6,1088 <_malloc_r+0x650>
     f1c:	30800117 	ldw	r2,4(r6)
     f20:	00ffff04 	movi	r3,-4
     f24:	10c4703a 	and	r2,r2,r3
     f28:	2880022e 	bgeu	r5,r2,f34 <_malloc_r+0x4fc>
     f2c:	31800217 	ldw	r6,8(r6)
     f30:	41bffa1e 	bne	r8,r6,f1c <_malloc_r+0x4e4>
     f34:	32000317 	ldw	r8,12(r6)
     f38:	39c00117 	ldw	r7,4(r7)
     f3c:	82000315 	stw	r8,12(r16)
     f40:	81800215 	stw	r6,8(r16)
     f44:	07000074 	movhi	fp,1
     f48:	e709d604 	addi	fp,fp,10072
     f4c:	34000315 	stw	r16,12(r6)
     f50:	44000215 	stw	r16,8(r8)
     f54:	003f3e06 	br	c50 <_malloc_r+0x218>
     f58:	63000044 	addi	r12,r12,1
     f5c:	608000cc 	andi	r2,r12,3
     f60:	10005d26 	beq	r2,zero,10d8 <_malloc_r+0x6a0>
     f64:	18c00204 	addi	r3,r3,8
     f68:	003f5106 	br	cb0 <_malloc_r+0x278>
     f6c:	8089883a 	add	r4,r16,r2
     f70:	003f6d06 	br	d28 <_malloc_r+0x2f0>
     f74:	00805504 	movi	r2,340
     f78:	10c02036 	bltu	r2,r3,ffc <_malloc_r+0x5c4>
     f7c:	8804d3fa 	srli	r2,r17,15
     f80:	11801dc4 	addi	r6,r2,119
     f84:	300490fa 	slli	r2,r6,3
     f88:	003ed806 	br	aec <_malloc_r+0xb4>
     f8c:	48c000c4 	addi	r3,r9,3
     f90:	003f3106 	br	c58 <_malloc_r+0x220>
     f94:	05c00074 	movhi	r23,1
     f98:	bdd62704 	addi	r23,r23,22684
     f9c:	b8800017 	ldw	r2,0(r23)
     fa0:	988d883a 	add	r6,r19,r2
     fa4:	b9800015 	stw	r6,0(r23)
     fa8:	293fb21e 	bne	r5,r4,e74 <_malloc_r+0x43c>
     fac:	2083ffcc 	andi	r2,r4,4095
     fb0:	103fb01e 	bne	r2,zero,e74 <_malloc_r+0x43c>
     fb4:	e4000217 	ldw	r16,8(fp)
     fb8:	9d45883a 	add	r2,r19,r21
     fbc:	10800054 	ori	r2,r2,1
     fc0:	80800115 	stw	r2,4(r16)
     fc4:	b8c00017 	ldw	r3,0(r23)
     fc8:	d0a6b417 	ldw	r2,-25904(gp)
     fcc:	10c0012e 	bgeu	r2,r3,fd4 <_malloc_r+0x59c>
     fd0:	d0e6b415 	stw	r3,-25904(gp)
     fd4:	d0a6b517 	ldw	r2,-25900(gp)
     fd8:	10ff962e 	bgeu	r2,r3,e34 <_malloc_r+0x3fc>
     fdc:	d0e6b515 	stw	r3,-25900(gp)
     fe0:	003f9406 	br	e34 <_malloc_r+0x3fc>
     fe4:	00800104 	movi	r2,4
     fe8:	11001e36 	bltu	r2,r4,1064 <_malloc_r+0x62c>
     fec:	2804d1ba 	srli	r2,r5,6
     ff0:	11000e04 	addi	r4,r2,56
     ff4:	200690fa 	slli	r3,r4,3
     ff8:	003fc506 	br	f10 <_malloc_r+0x4d8>
     ffc:	00815504 	movi	r2,1364
    1000:	10c01d2e 	bgeu	r2,r3,1078 <_malloc_r+0x640>
    1004:	01801f84 	movi	r6,126
    1008:	0080fc04 	movi	r2,1008
    100c:	003eb706 	br	aec <_malloc_r+0xb4>
    1010:	00800204 	movi	r2,8
    1014:	10cbc83a 	sub	r5,r2,r3
    1018:	2169883a 	add	r20,r4,r5
    101c:	003f9e06 	br	e98 <_malloc_r+0x460>
    1020:	00bffe04 	movi	r2,-8
    1024:	a93ffd04 	addi	r4,r21,-12
    1028:	2088703a 	and	r4,r4,r2
    102c:	b10b883a 	add	r5,r22,r4
    1030:	00c00144 	movi	r3,5
    1034:	28c00215 	stw	r3,8(r5)
    1038:	28c00115 	stw	r3,4(r5)
    103c:	b0800117 	ldw	r2,4(r22)
    1040:	1080004c 	andi	r2,r2,1
    1044:	2084b03a 	or	r2,r4,r2
    1048:	b0800115 	stw	r2,4(r22)
    104c:	313fdd2e 	bgeu	r6,r4,fc4 <_malloc_r+0x58c>
    1050:	b1400204 	addi	r5,r22,8
    1054:	9009883a 	mov	r4,r18
    1058:	00039700 	call	3970 <_free_r>
    105c:	e4000217 	ldw	r16,8(fp)
    1060:	003fd806 	br	fc4 <_malloc_r+0x58c>
    1064:	00800504 	movi	r2,20
    1068:	11001536 	bltu	r2,r4,10c0 <_malloc_r+0x688>
    106c:	210016c4 	addi	r4,r4,91
    1070:	200690fa 	slli	r3,r4,3
    1074:	003fa606 	br	f10 <_malloc_r+0x4d8>
    1078:	8804d4ba 	srli	r2,r17,18
    107c:	11801f04 	addi	r6,r2,124
    1080:	300490fa 	slli	r2,r6,3
    1084:	003e9906 	br	aec <_malloc_r+0xb4>
    1088:	2009d0ba 	srai	r4,r4,2
    108c:	01400074 	movhi	r5,1
    1090:	2949d604 	addi	r5,r5,10072
    1094:	00c00044 	movi	r3,1
    1098:	28800117 	ldw	r2,4(r5)
    109c:	1906983a 	sll	r3,r3,r4
    10a0:	10c4b03a 	or	r2,r2,r3
    10a4:	28800115 	stw	r2,4(r5)
    10a8:	003fa306 	br	f38 <_malloc_r+0x500>
    10ac:	0027883a 	mov	r19,zero
    10b0:	00c00044 	movi	r3,1
    10b4:	003f8606 	br	ed0 <_malloc_r+0x498>
    10b8:	d1200315 	stw	r4,-32756(gp)
    10bc:	003f7306 	br	e8c <_malloc_r+0x454>
    10c0:	00801504 	movi	r2,84
    10c4:	11001936 	bltu	r2,r4,112c <_malloc_r+0x6f4>
    10c8:	2804d33a 	srli	r2,r5,12
    10cc:	11001b84 	addi	r4,r2,110
    10d0:	200690fa 	slli	r3,r4,3
    10d4:	003f8e06 	br	f10 <_malloc_r+0x4d8>
    10d8:	480b883a 	mov	r5,r9
    10dc:	6807883a 	mov	r3,r13
    10e0:	288000cc 	andi	r2,r5,3
    10e4:	18fffe04 	addi	r3,r3,-8
    10e8:	297fffc4 	addi	r5,r5,-1
    10ec:	10001526 	beq	r2,zero,1144 <_malloc_r+0x70c>
    10f0:	18800217 	ldw	r2,8(r3)
    10f4:	10fffa26 	beq	r2,r3,10e0 <_malloc_r+0x6a8>
    10f8:	2109883a 	add	r4,r4,r4
    10fc:	393f1e36 	bltu	r7,r4,d78 <_malloc_r+0x340>
    1100:	203f1d26 	beq	r4,zero,d78 <_malloc_r+0x340>
    1104:	21c4703a 	and	r2,r4,r7
    1108:	10000226 	beq	r2,zero,1114 <_malloc_r+0x6dc>
    110c:	6013883a 	mov	r9,r12
    1110:	003ee106 	br	c98 <_malloc_r+0x260>
    1114:	2109883a 	add	r4,r4,r4
    1118:	3904703a 	and	r2,r7,r4
    111c:	63000104 	addi	r12,r12,4
    1120:	103ffc26 	beq	r2,zero,1114 <_malloc_r+0x6dc>
    1124:	6013883a 	mov	r9,r12
    1128:	003edb06 	br	c98 <_malloc_r+0x260>
    112c:	00805504 	movi	r2,340
    1130:	11000836 	bltu	r2,r4,1154 <_malloc_r+0x71c>
    1134:	2804d3fa 	srli	r2,r5,15
    1138:	11001dc4 	addi	r4,r2,119
    113c:	200690fa 	slli	r3,r4,3
    1140:	003f7306 	br	f10 <_malloc_r+0x4d8>
    1144:	0104303a 	nor	r2,zero,r4
    1148:	388e703a 	and	r7,r7,r2
    114c:	e1c00115 	stw	r7,4(fp)
    1150:	003fe906 	br	10f8 <_malloc_r+0x6c0>
    1154:	00815504 	movi	r2,1364
    1158:	1100032e 	bgeu	r2,r4,1168 <_malloc_r+0x730>
    115c:	01001f84 	movi	r4,126
    1160:	00c0fc04 	movi	r3,1008
    1164:	003f6a06 	br	f10 <_malloc_r+0x4d8>
    1168:	2804d4ba 	srli	r2,r5,18
    116c:	11001f04 	addi	r4,r2,124
    1170:	200690fa 	slli	r3,r4,3
    1174:	003f6606 	br	f10 <_malloc_r+0x4d8>

00001178 <memchr>:
    1178:	008000c4 	movi	r2,3
    117c:	29403fcc 	andi	r5,r5,255
    1180:	2007883a 	mov	r3,r4
    1184:	1180022e 	bgeu	r2,r6,1190 <memchr+0x18>
    1188:	2084703a 	and	r2,r4,r2
    118c:	10000b26 	beq	r2,zero,11bc <memchr+0x44>
    1190:	313fffc4 	addi	r4,r6,-1
    1194:	3000051e 	bne	r6,zero,11ac <memchr+0x34>
    1198:	00002c06 	br	124c <memchr+0xd4>
    119c:	213fffc4 	addi	r4,r4,-1
    11a0:	00bfffc4 	movi	r2,-1
    11a4:	18c00044 	addi	r3,r3,1
    11a8:	20802826 	beq	r4,r2,124c <memchr+0xd4>
    11ac:	18800003 	ldbu	r2,0(r3)
    11b0:	28bffa1e 	bne	r5,r2,119c <memchr+0x24>
    11b4:	1805883a 	mov	r2,r3
    11b8:	f800283a 	ret
    11bc:	0011883a 	mov	r8,zero
    11c0:	0007883a 	mov	r3,zero
    11c4:	01c00104 	movi	r7,4
    11c8:	4004923a 	slli	r2,r8,8
    11cc:	18c00044 	addi	r3,r3,1
    11d0:	1151883a 	add	r8,r2,r5
    11d4:	19fffc1e 	bne	r3,r7,11c8 <memchr+0x50>
    11d8:	02bfbff4 	movhi	r10,65279
    11dc:	52bfbfc4 	addi	r10,r10,-257
    11e0:	02602074 	movhi	r9,32897
    11e4:	4a602004 	addi	r9,r9,-32640
    11e8:	02c000c4 	movi	r11,3
    11ec:	20800017 	ldw	r2,0(r4)
    11f0:	31bfff04 	addi	r6,r6,-4
    11f4:	200f883a 	mov	r7,r4
    11f8:	1204f03a 	xor	r2,r2,r8
    11fc:	1287883a 	add	r3,r2,r10
    1200:	1a46703a 	and	r3,r3,r9
    1204:	0084303a 	nor	r2,zero,r2
    1208:	10c4703a 	and	r2,r2,r3
    120c:	10000b26 	beq	r2,zero,123c <memchr+0xc4>
    1210:	20800003 	ldbu	r2,0(r4)
    1214:	28800f26 	beq	r5,r2,1254 <memchr+0xdc>
    1218:	20800043 	ldbu	r2,1(r4)
    121c:	21c00044 	addi	r7,r4,1
    1220:	28800c26 	beq	r5,r2,1254 <memchr+0xdc>
    1224:	20800083 	ldbu	r2,2(r4)
    1228:	21c00084 	addi	r7,r4,2
    122c:	28800926 	beq	r5,r2,1254 <memchr+0xdc>
    1230:	208000c3 	ldbu	r2,3(r4)
    1234:	21c000c4 	addi	r7,r4,3
    1238:	28800626 	beq	r5,r2,1254 <memchr+0xdc>
    123c:	21000104 	addi	r4,r4,4
    1240:	59bfea36 	bltu	r11,r6,11ec <memchr+0x74>
    1244:	2007883a 	mov	r3,r4
    1248:	003fd106 	br	1190 <memchr+0x18>
    124c:	0005883a 	mov	r2,zero
    1250:	f800283a 	ret
    1254:	3805883a 	mov	r2,r7
    1258:	f800283a 	ret

0000125c <memcpy>:
    125c:	01c003c4 	movi	r7,15
    1260:	2007883a 	mov	r3,r4
    1264:	3980032e 	bgeu	r7,r6,1274 <memcpy+0x18>
    1268:	2904b03a 	or	r2,r5,r4
    126c:	108000cc 	andi	r2,r2,3
    1270:	10000926 	beq	r2,zero,1298 <memcpy+0x3c>
    1274:	30000626 	beq	r6,zero,1290 <memcpy+0x34>
    1278:	30cd883a 	add	r6,r6,r3
    127c:	28800003 	ldbu	r2,0(r5)
    1280:	29400044 	addi	r5,r5,1
    1284:	18800005 	stb	r2,0(r3)
    1288:	18c00044 	addi	r3,r3,1
    128c:	30fffb1e 	bne	r6,r3,127c <memcpy+0x20>
    1290:	2005883a 	mov	r2,r4
    1294:	f800283a 	ret
    1298:	3811883a 	mov	r8,r7
    129c:	200f883a 	mov	r7,r4
    12a0:	28c00017 	ldw	r3,0(r5)
    12a4:	31bffc04 	addi	r6,r6,-16
    12a8:	38c00015 	stw	r3,0(r7)
    12ac:	28800117 	ldw	r2,4(r5)
    12b0:	38800115 	stw	r2,4(r7)
    12b4:	28c00217 	ldw	r3,8(r5)
    12b8:	38c00215 	stw	r3,8(r7)
    12bc:	28800317 	ldw	r2,12(r5)
    12c0:	29400404 	addi	r5,r5,16
    12c4:	38800315 	stw	r2,12(r7)
    12c8:	39c00404 	addi	r7,r7,16
    12cc:	41bff436 	bltu	r8,r6,12a0 <memcpy+0x44>
    12d0:	008000c4 	movi	r2,3
    12d4:	1180072e 	bgeu	r2,r6,12f4 <memcpy+0x98>
    12d8:	1007883a 	mov	r3,r2
    12dc:	28800017 	ldw	r2,0(r5)
    12e0:	31bfff04 	addi	r6,r6,-4
    12e4:	29400104 	addi	r5,r5,4
    12e8:	38800015 	stw	r2,0(r7)
    12ec:	39c00104 	addi	r7,r7,4
    12f0:	19bffa36 	bltu	r3,r6,12dc <memcpy+0x80>
    12f4:	3807883a 	mov	r3,r7
    12f8:	003fde06 	br	1274 <memcpy+0x18>

000012fc <memset>:
    12fc:	008000c4 	movi	r2,3
    1300:	29403fcc 	andi	r5,r5,255
    1304:	2007883a 	mov	r3,r4
    1308:	1180022e 	bgeu	r2,r6,1314 <memset+0x18>
    130c:	2084703a 	and	r2,r4,r2
    1310:	10000826 	beq	r2,zero,1334 <memset+0x38>
    1314:	30000526 	beq	r6,zero,132c <memset+0x30>
    1318:	2805883a 	mov	r2,r5
    131c:	30cd883a 	add	r6,r6,r3
    1320:	18800005 	stb	r2,0(r3)
    1324:	18c00044 	addi	r3,r3,1
    1328:	19bffd1e 	bne	r3,r6,1320 <memset+0x24>
    132c:	2005883a 	mov	r2,r4
    1330:	f800283a 	ret
    1334:	2804923a 	slli	r2,r5,8
    1338:	020003c4 	movi	r8,15
    133c:	200f883a 	mov	r7,r4
    1340:	2884b03a 	or	r2,r5,r2
    1344:	1006943a 	slli	r3,r2,16
    1348:	10c6b03a 	or	r3,r2,r3
    134c:	41800a2e 	bgeu	r8,r6,1378 <memset+0x7c>
    1350:	4005883a 	mov	r2,r8
    1354:	31bffc04 	addi	r6,r6,-16
    1358:	38c00015 	stw	r3,0(r7)
    135c:	38c00115 	stw	r3,4(r7)
    1360:	38c00215 	stw	r3,8(r7)
    1364:	38c00315 	stw	r3,12(r7)
    1368:	39c00404 	addi	r7,r7,16
    136c:	11bff936 	bltu	r2,r6,1354 <memset+0x58>
    1370:	008000c4 	movi	r2,3
    1374:	1180052e 	bgeu	r2,r6,138c <memset+0x90>
    1378:	31bfff04 	addi	r6,r6,-4
    137c:	008000c4 	movi	r2,3
    1380:	38c00015 	stw	r3,0(r7)
    1384:	39c00104 	addi	r7,r7,4
    1388:	11bffb36 	bltu	r2,r6,1378 <memset+0x7c>
    138c:	3807883a 	mov	r3,r7
    1390:	003fe006 	br	1314 <memset+0x18>

00001394 <_puts_r>:
    1394:	defff604 	addi	sp,sp,-40
    1398:	dc400715 	stw	r17,28(sp)
    139c:	2023883a 	mov	r17,r4
    13a0:	2809883a 	mov	r4,r5
    13a4:	dfc00915 	stw	ra,36(sp)
    13a8:	dcc00815 	stw	r19,32(sp)
    13ac:	2827883a 	mov	r19,r5
    13b0:	00019d80 	call	19d8 <strlen>
    13b4:	89400217 	ldw	r5,8(r17)
    13b8:	00c00074 	movhi	r3,1
    13bc:	18c74604 	addi	r3,r3,7448
    13c0:	01c00044 	movi	r7,1
    13c4:	12000044 	addi	r8,r2,1
    13c8:	d8c00515 	stw	r3,20(sp)
    13cc:	d9c00615 	stw	r7,24(sp)
    13d0:	d8c00304 	addi	r3,sp,12
    13d4:	01c00084 	movi	r7,2
    13d8:	8809883a 	mov	r4,r17
    13dc:	d80d883a 	mov	r6,sp
    13e0:	d8c00015 	stw	r3,0(sp)
    13e4:	dcc00315 	stw	r19,12(sp)
    13e8:	da000215 	stw	r8,8(sp)
    13ec:	d9c00115 	stw	r7,4(sp)
    13f0:	d8800415 	stw	r2,16(sp)
    13f4:	0003c840 	call	3c84 <__sfvwrite_r>
    13f8:	00ffffc4 	movi	r3,-1
    13fc:	10000626 	beq	r2,zero,1418 <_puts_r+0x84>
    1400:	1805883a 	mov	r2,r3
    1404:	dfc00917 	ldw	ra,36(sp)
    1408:	dcc00817 	ldw	r19,32(sp)
    140c:	dc400717 	ldw	r17,28(sp)
    1410:	dec00a04 	addi	sp,sp,40
    1414:	f800283a 	ret
    1418:	00c00284 	movi	r3,10
    141c:	1805883a 	mov	r2,r3
    1420:	dfc00917 	ldw	ra,36(sp)
    1424:	dcc00817 	ldw	r19,32(sp)
    1428:	dc400717 	ldw	r17,28(sp)
    142c:	dec00a04 	addi	sp,sp,40
    1430:	f800283a 	ret

00001434 <puts>:
    1434:	00800074 	movhi	r2,1
    1438:	108f6704 	addi	r2,r2,15772
    143c:	200b883a 	mov	r5,r4
    1440:	11000017 	ldw	r4,0(r2)
    1444:	00013941 	jmpi	1394 <_puts_r>

00001448 <__srefill_r>:
    1448:	defffd04 	addi	sp,sp,-12
    144c:	dc400115 	stw	r17,4(sp)
    1450:	dc000015 	stw	r16,0(sp)
    1454:	dfc00215 	stw	ra,8(sp)
    1458:	2023883a 	mov	r17,r4
    145c:	2821883a 	mov	r16,r5
    1460:	20000226 	beq	r4,zero,146c <__srefill_r+0x24>
    1464:	20800e17 	ldw	r2,56(r4)
    1468:	10004126 	beq	r2,zero,1570 <__srefill_r+0x128>
    146c:	80c0030b 	ldhu	r3,12(r16)
    1470:	80000115 	stw	zero,4(r16)
    1474:	1880080c 	andi	r2,r3,32
    1478:	1000361e 	bne	r2,zero,1554 <__srefill_r+0x10c>
    147c:	1880010c 	andi	r2,r3,4
    1480:	1000211e 	bne	r2,zero,1508 <__srefill_r+0xc0>
    1484:	1880040c 	andi	r2,r3,16
    1488:	10005026 	beq	r2,zero,15cc <__srefill_r+0x184>
    148c:	1880020c 	andi	r2,r3,8
    1490:	1000541e 	bne	r2,zero,15e4 <__srefill_r+0x19c>
    1494:	8080030b 	ldhu	r2,12(r16)
    1498:	10800114 	ori	r2,r2,4
    149c:	8080030d 	sth	r2,12(r16)
    14a0:	80800417 	ldw	r2,16(r16)
    14a4:	10004526 	beq	r2,zero,15bc <__srefill_r+0x174>
    14a8:	8080030b 	ldhu	r2,12(r16)
    14ac:	108000cc 	andi	r2,r2,3
    14b0:	1000361e 	bne	r2,zero,158c <__srefill_r+0x144>
    14b4:	81800417 	ldw	r6,16(r16)
    14b8:	80c00817 	ldw	r3,32(r16)
    14bc:	81400717 	ldw	r5,28(r16)
    14c0:	81c00517 	ldw	r7,20(r16)
    14c4:	8809883a 	mov	r4,r17
    14c8:	81800015 	stw	r6,0(r16)
    14cc:	183ee83a 	callr	r3
    14d0:	80c0030b 	ldhu	r3,12(r16)
    14d4:	1009883a 	mov	r4,r2
    14d8:	80800115 	stw	r2,4(r16)
    14dc:	00b7ffc4 	movi	r2,-8193
    14e0:	1884703a 	and	r2,r3,r2
    14e4:	8080030d 	sth	r2,12(r16)
    14e8:	0100230e 	bge	zero,r4,1578 <__srefill_r+0x130>
    14ec:	0009883a 	mov	r4,zero
    14f0:	2005883a 	mov	r2,r4
    14f4:	dfc00217 	ldw	ra,8(sp)
    14f8:	dc400117 	ldw	r17,4(sp)
    14fc:	dc000017 	ldw	r16,0(sp)
    1500:	dec00304 	addi	sp,sp,12
    1504:	f800283a 	ret
    1508:	81400c17 	ldw	r5,48(r16)
    150c:	283fe426 	beq	r5,zero,14a0 <__srefill_r+0x58>
    1510:	80801004 	addi	r2,r16,64
    1514:	28800226 	beq	r5,r2,1520 <__srefill_r+0xd8>
    1518:	8809883a 	mov	r4,r17
    151c:	00039700 	call	3970 <_free_r>
    1520:	80800f17 	ldw	r2,60(r16)
    1524:	80000c15 	stw	zero,48(r16)
    1528:	80800115 	stw	r2,4(r16)
    152c:	103fdc26 	beq	r2,zero,14a0 <__srefill_r+0x58>
    1530:	80800e17 	ldw	r2,56(r16)
    1534:	0009883a 	mov	r4,zero
    1538:	80800015 	stw	r2,0(r16)
    153c:	2005883a 	mov	r2,r4
    1540:	dfc00217 	ldw	ra,8(sp)
    1544:	dc400117 	ldw	r17,4(sp)
    1548:	dc000017 	ldw	r16,0(sp)
    154c:	dec00304 	addi	sp,sp,12
    1550:	f800283a 	ret
    1554:	013fffc4 	movi	r4,-1
    1558:	2005883a 	mov	r2,r4
    155c:	dfc00217 	ldw	ra,8(sp)
    1560:	dc400117 	ldw	r17,4(sp)
    1564:	dc000017 	ldw	r16,0(sp)
    1568:	dec00304 	addi	sp,sp,12
    156c:	f800283a 	ret
    1570:	00006600 	call	660 <__sinit>
    1574:	003fbd06 	br	146c <__srefill_r+0x24>
    1578:	20000b1e 	bne	r4,zero,15a8 <__srefill_r+0x160>
    157c:	10800814 	ori	r2,r2,32
    1580:	013fffc4 	movi	r4,-1
    1584:	8080030d 	sth	r2,12(r16)
    1588:	003fd906 	br	14f0 <__srefill_r+0xa8>
    158c:	00800074 	movhi	r2,1
    1590:	108f6804 	addi	r2,r2,15776
    1594:	11000017 	ldw	r4,0(r2)
    1598:	01400034 	movhi	r5,0
    159c:	29458304 	addi	r5,r5,5644
    15a0:	00009800 	call	980 <_fwalk>
    15a4:	003fc306 	br	14b4 <__srefill_r+0x6c>
    15a8:	10801014 	ori	r2,r2,64
    15ac:	013fffc4 	movi	r4,-1
    15b0:	8080030d 	sth	r2,12(r16)
    15b4:	80000115 	stw	zero,4(r16)
    15b8:	003fcd06 	br	14f0 <__srefill_r+0xa8>
    15bc:	8809883a 	mov	r4,r17
    15c0:	800b883a 	mov	r5,r16
    15c4:	00042880 	call	4288 <__smakebuf_r>
    15c8:	003fb706 	br	14a8 <__srefill_r+0x60>
    15cc:	18c01014 	ori	r3,r3,64
    15d0:	00800244 	movi	r2,9
    15d4:	013fffc4 	movi	r4,-1
    15d8:	88800015 	stw	r2,0(r17)
    15dc:	80c0030d 	sth	r3,12(r16)
    15e0:	003fc306 	br	14f0 <__srefill_r+0xa8>
    15e4:	8809883a 	mov	r4,r17
    15e8:	800b883a 	mov	r5,r16
    15ec:	00033d80 	call	33d8 <_fflush_r>
    15f0:	103fd81e 	bne	r2,zero,1554 <__srefill_r+0x10c>
    15f4:	8080030b 	ldhu	r2,12(r16)
    15f8:	80000215 	stw	zero,8(r16)
    15fc:	80000615 	stw	zero,24(r16)
    1600:	10bffdcc 	andi	r2,r2,65527
    1604:	8080030d 	sth	r2,12(r16)
    1608:	003fa206 	br	1494 <__srefill_r+0x4c>

0000160c <lflush>:
    160c:	20c0030b 	ldhu	r3,12(r4)
    1610:	01400244 	movi	r5,9
    1614:	0005883a 	mov	r2,zero
    1618:	18c0024c 	andi	r3,r3,9
    161c:	19400126 	beq	r3,r5,1624 <lflush+0x18>
    1620:	f800283a 	ret
    1624:	00035d41 	jmpi	35d4 <fflush>

00001628 <_sbrk_r>:
    1628:	defffd04 	addi	sp,sp,-12
    162c:	dc000015 	stw	r16,0(sp)
    1630:	04000074 	movhi	r16,1
    1634:	84161d04 	addi	r16,r16,22644
    1638:	dc400115 	stw	r17,4(sp)
    163c:	80000015 	stw	zero,0(r16)
    1640:	2023883a 	mov	r17,r4
    1644:	2809883a 	mov	r4,r5
    1648:	dfc00215 	stw	ra,8(sp)
    164c:	000fb100 	call	fb10 <sbrk>
    1650:	1007883a 	mov	r3,r2
    1654:	00bfffc4 	movi	r2,-1
    1658:	18800626 	beq	r3,r2,1674 <_sbrk_r+0x4c>
    165c:	1805883a 	mov	r2,r3
    1660:	dfc00217 	ldw	ra,8(sp)
    1664:	dc400117 	ldw	r17,4(sp)
    1668:	dc000017 	ldw	r16,0(sp)
    166c:	dec00304 	addi	sp,sp,12
    1670:	f800283a 	ret
    1674:	80800017 	ldw	r2,0(r16)
    1678:	103ff826 	beq	r2,zero,165c <_sbrk_r+0x34>
    167c:	88800015 	stw	r2,0(r17)
    1680:	1805883a 	mov	r2,r3
    1684:	dfc00217 	ldw	ra,8(sp)
    1688:	dc400117 	ldw	r17,4(sp)
    168c:	dc000017 	ldw	r16,0(sp)
    1690:	dec00304 	addi	sp,sp,12
    1694:	f800283a 	ret

00001698 <eofread>:
    1698:	0005883a 	mov	r2,zero
    169c:	f800283a 	ret

000016a0 <_sscanf_r>:
    16a0:	deffe404 	addi	sp,sp,-112
    16a4:	dcc01915 	stw	r19,100(sp)
    16a8:	2027883a 	mov	r19,r4
    16ac:	dfc01a15 	stw	ra,104(sp)
    16b0:	dc401815 	stw	r17,96(sp)
    16b4:	d9c01b15 	stw	r7,108(sp)
    16b8:	00808104 	movi	r2,516
    16bc:	2809883a 	mov	r4,r5
    16c0:	3023883a 	mov	r17,r6
    16c4:	d9400115 	stw	r5,4(sp)
    16c8:	d9400515 	stw	r5,20(sp)
    16cc:	d880040d 	sth	r2,16(sp)
    16d0:	00019d80 	call	19d8 <strlen>
    16d4:	d8c01b04 	addi	r3,sp,108
    16d8:	d8c00015 	stw	r3,0(sp)
    16dc:	180f883a 	mov	r7,r3
    16e0:	023fffc4 	movi	r8,-1
    16e4:	00c00034 	movhi	r3,0
    16e8:	18c5a604 	addi	r3,r3,5784
    16ec:	9809883a 	mov	r4,r19
    16f0:	880d883a 	mov	r6,r17
    16f4:	d9400104 	addi	r5,sp,4
    16f8:	d8800615 	stw	r2,24(sp)
    16fc:	d8c00915 	stw	r3,36(sp)
    1700:	da00048d 	sth	r8,18(sp)
    1704:	d8800215 	stw	r2,8(sp)
    1708:	d8000d15 	stw	zero,52(sp)
    170c:	d8001215 	stw	zero,72(sp)
    1710:	0001a4c0 	call	1a4c <__svfscanf_r>
    1714:	dfc01a17 	ldw	ra,104(sp)
    1718:	dcc01917 	ldw	r19,100(sp)
    171c:	dc401817 	ldw	r17,96(sp)
    1720:	dec01c04 	addi	sp,sp,112
    1724:	f800283a 	ret

00001728 <sscanf>:
    1728:	deffe404 	addi	sp,sp,-112
    172c:	dfc01915 	stw	ra,100(sp)
    1730:	dc401815 	stw	r17,96(sp)
    1734:	d9801a15 	stw	r6,104(sp)
    1738:	d9c01b15 	stw	r7,108(sp)
    173c:	00808104 	movi	r2,516
    1740:	2823883a 	mov	r17,r5
    1744:	d9000515 	stw	r4,20(sp)
    1748:	d9000115 	stw	r4,4(sp)
    174c:	d880040d 	sth	r2,16(sp)
    1750:	00019d80 	call	19d8 <strlen>
    1754:	d8c01a04 	addi	r3,sp,104
    1758:	d8c00015 	stw	r3,0(sp)
    175c:	00c00074 	movhi	r3,1
    1760:	18cf6704 	addi	r3,r3,15772
    1764:	19000017 	ldw	r4,0(r3)
    1768:	d9c00017 	ldw	r7,0(sp)
    176c:	00c00034 	movhi	r3,0
    1770:	18c5a604 	addi	r3,r3,5784
    1774:	023fffc4 	movi	r8,-1
    1778:	880d883a 	mov	r6,r17
    177c:	d9400104 	addi	r5,sp,4
    1780:	d8800615 	stw	r2,24(sp)
    1784:	d8c00915 	stw	r3,36(sp)
    1788:	da00048d 	sth	r8,18(sp)
    178c:	d8800215 	stw	r2,8(sp)
    1790:	d8000d15 	stw	zero,52(sp)
    1794:	d8001215 	stw	zero,72(sp)
    1798:	0001a4c0 	call	1a4c <__svfscanf_r>
    179c:	dfc01917 	ldw	ra,100(sp)
    17a0:	dc401817 	ldw	r17,96(sp)
    17a4:	dec01c04 	addi	sp,sp,112
    17a8:	f800283a 	ret

000017ac <__sclose>:
    17ac:	2940038f 	ldh	r5,14(r5)
    17b0:	00032441 	jmpi	3244 <_close_r>

000017b4 <__sseek>:
    17b4:	defffe04 	addi	sp,sp,-8
    17b8:	dc000015 	stw	r16,0(sp)
    17bc:	2821883a 	mov	r16,r5
    17c0:	2940038f 	ldh	r5,14(r5)
    17c4:	dfc00115 	stw	ra,4(sp)
    17c8:	00042100 	call	4210 <_lseek_r>
    17cc:	1007883a 	mov	r3,r2
    17d0:	00bfffc4 	movi	r2,-1
    17d4:	18800926 	beq	r3,r2,17fc <__sseek+0x48>
    17d8:	8080030b 	ldhu	r2,12(r16)
    17dc:	80c01415 	stw	r3,80(r16)
    17e0:	10840014 	ori	r2,r2,4096
    17e4:	8080030d 	sth	r2,12(r16)
    17e8:	1805883a 	mov	r2,r3
    17ec:	dfc00117 	ldw	ra,4(sp)
    17f0:	dc000017 	ldw	r16,0(sp)
    17f4:	dec00204 	addi	sp,sp,8
    17f8:	f800283a 	ret
    17fc:	8080030b 	ldhu	r2,12(r16)
    1800:	10bbffcc 	andi	r2,r2,61439
    1804:	8080030d 	sth	r2,12(r16)
    1808:	1805883a 	mov	r2,r3
    180c:	dfc00117 	ldw	ra,4(sp)
    1810:	dc000017 	ldw	r16,0(sp)
    1814:	dec00204 	addi	sp,sp,8
    1818:	f800283a 	ret

0000181c <__swrite>:
    181c:	2880030b 	ldhu	r2,12(r5)
    1820:	defffb04 	addi	sp,sp,-20
    1824:	dcc00315 	stw	r19,12(sp)
    1828:	1080400c 	andi	r2,r2,256
    182c:	dc800215 	stw	r18,8(sp)
    1830:	dc400115 	stw	r17,4(sp)
    1834:	dc000015 	stw	r16,0(sp)
    1838:	3027883a 	mov	r19,r6
    183c:	3825883a 	mov	r18,r7
    1840:	dfc00415 	stw	ra,16(sp)
    1844:	2821883a 	mov	r16,r5
    1848:	000d883a 	mov	r6,zero
    184c:	01c00084 	movi	r7,2
    1850:	2023883a 	mov	r17,r4
    1854:	10000226 	beq	r2,zero,1860 <__swrite+0x44>
    1858:	2940038f 	ldh	r5,14(r5)
    185c:	00042100 	call	4210 <_lseek_r>
    1860:	8080030b 	ldhu	r2,12(r16)
    1864:	8140038f 	ldh	r5,14(r16)
    1868:	8809883a 	mov	r4,r17
    186c:	10bbffcc 	andi	r2,r2,61439
    1870:	980d883a 	mov	r6,r19
    1874:	900f883a 	mov	r7,r18
    1878:	8080030d 	sth	r2,12(r16)
    187c:	dfc00417 	ldw	ra,16(sp)
    1880:	dcc00317 	ldw	r19,12(sp)
    1884:	dc800217 	ldw	r18,8(sp)
    1888:	dc400117 	ldw	r17,4(sp)
    188c:	dc000017 	ldw	r16,0(sp)
    1890:	dec00504 	addi	sp,sp,20
    1894:	00031cc1 	jmpi	31cc <_write_r>

00001898 <__sread>:
    1898:	defffe04 	addi	sp,sp,-8
    189c:	dc000015 	stw	r16,0(sp)
    18a0:	2821883a 	mov	r16,r5
    18a4:	2940038f 	ldh	r5,14(r5)
    18a8:	dfc00115 	stw	ra,4(sp)
    18ac:	00045fc0 	call	45fc <_read_r>
    18b0:	1007883a 	mov	r3,r2
    18b4:	10000816 	blt	r2,zero,18d8 <__sread+0x40>
    18b8:	80801417 	ldw	r2,80(r16)
    18bc:	10c5883a 	add	r2,r2,r3
    18c0:	80801415 	stw	r2,80(r16)
    18c4:	1805883a 	mov	r2,r3
    18c8:	dfc00117 	ldw	ra,4(sp)
    18cc:	dc000017 	ldw	r16,0(sp)
    18d0:	dec00204 	addi	sp,sp,8
    18d4:	f800283a 	ret
    18d8:	8080030b 	ldhu	r2,12(r16)
    18dc:	10bbffcc 	andi	r2,r2,61439
    18e0:	8080030d 	sth	r2,12(r16)
    18e4:	1805883a 	mov	r2,r3
    18e8:	dfc00117 	ldw	ra,4(sp)
    18ec:	dc000017 	ldw	r16,0(sp)
    18f0:	dec00204 	addi	sp,sp,8
    18f4:	f800283a 	ret

000018f8 <strchr>:
    18f8:	208000cc 	andi	r2,r4,3
    18fc:	2007883a 	mov	r3,r4
    1900:	1000311e 	bne	r2,zero,19c8 <strchr+0xd0>
    1904:	29c03fcc 	andi	r7,r5,255
    1908:	0015883a 	mov	r10,zero
    190c:	0007883a 	mov	r3,zero
    1910:	01400104 	movi	r5,4
    1914:	5004923a 	slli	r2,r10,8
    1918:	18c00044 	addi	r3,r3,1
    191c:	3894b03a 	or	r10,r7,r2
    1920:	197ffc1e 	bne	r3,r5,1914 <strchr+0x1c>
    1924:	200d883a 	mov	r6,r4
    1928:	21000017 	ldw	r4,0(r4)
    192c:	017fbff4 	movhi	r5,65279
    1930:	297fbfc4 	addi	r5,r5,-257
    1934:	02202074 	movhi	r8,32897
    1938:	42202004 	addi	r8,r8,-32640
    193c:	2145883a 	add	r2,r4,r5
    1940:	1204703a 	and	r2,r2,r8
    1944:	0106303a 	nor	r3,zero,r4
    1948:	10c4703a 	and	r2,r2,r3
    194c:	1000151e 	bne	r2,zero,19a4 <strchr+0xac>
    1950:	2284f03a 	xor	r2,r4,r10
    1954:	1147883a 	add	r3,r2,r5
    1958:	1a06703a 	and	r3,r3,r8
    195c:	0084303a 	nor	r2,zero,r2
    1960:	10c4703a 	and	r2,r2,r3
    1964:	10000f1e 	bne	r2,zero,19a4 <strchr+0xac>
    1968:	2813883a 	mov	r9,r5
    196c:	00000106 	br	1974 <strchr+0x7c>
    1970:	18000c1e 	bne	r3,zero,19a4 <strchr+0xac>
    1974:	31800104 	addi	r6,r6,4
    1978:	30800017 	ldw	r2,0(r6)
    197c:	1286f03a 	xor	r3,r2,r10
    1980:	124b883a 	add	r5,r2,r9
    1984:	1a49883a 	add	r4,r3,r9
    1988:	2a0a703a 	and	r5,r5,r8
    198c:	0084303a 	nor	r2,zero,r2
    1990:	2208703a 	and	r4,r4,r8
    1994:	00c6303a 	nor	r3,zero,r3
    1998:	1144703a 	and	r2,r2,r5
    199c:	1906703a 	and	r3,r3,r4
    19a0:	103ff326 	beq	r2,zero,1970 <strchr+0x78>
    19a4:	3007883a 	mov	r3,r6
    19a8:	00000206 	br	19b4 <strchr+0xbc>
    19ac:	38800426 	beq	r7,r2,19c0 <strchr+0xc8>
    19b0:	18c00044 	addi	r3,r3,1
    19b4:	18800003 	ldbu	r2,0(r3)
    19b8:	103ffc1e 	bne	r2,zero,19ac <strchr+0xb4>
    19bc:	3800041e 	bne	r7,zero,19d0 <strchr+0xd8>
    19c0:	1805883a 	mov	r2,r3
    19c4:	f800283a 	ret
    19c8:	29c03fcc 	andi	r7,r5,255
    19cc:	003ff906 	br	19b4 <strchr+0xbc>
    19d0:	0005883a 	mov	r2,zero
    19d4:	f800283a 	ret

000019d8 <strlen>:
    19d8:	208000cc 	andi	r2,r4,3
    19dc:	2011883a 	mov	r8,r4
    19e0:	1000161e 	bne	r2,zero,1a3c <strlen+0x64>
    19e4:	20c00017 	ldw	r3,0(r4)
    19e8:	017fbff4 	movhi	r5,65279
    19ec:	297fbfc4 	addi	r5,r5,-257
    19f0:	01e02074 	movhi	r7,32897
    19f4:	39e02004 	addi	r7,r7,-32640
    19f8:	1945883a 	add	r2,r3,r5
    19fc:	11c4703a 	and	r2,r2,r7
    1a00:	00c6303a 	nor	r3,zero,r3
    1a04:	1886703a 	and	r3,r3,r2
    1a08:	18000c1e 	bne	r3,zero,1a3c <strlen+0x64>
    1a0c:	280d883a 	mov	r6,r5
    1a10:	380b883a 	mov	r5,r7
    1a14:	21000104 	addi	r4,r4,4
    1a18:	20800017 	ldw	r2,0(r4)
    1a1c:	1187883a 	add	r3,r2,r6
    1a20:	1946703a 	and	r3,r3,r5
    1a24:	0084303a 	nor	r2,zero,r2
    1a28:	10c4703a 	and	r2,r2,r3
    1a2c:	103ff926 	beq	r2,zero,1a14 <strlen+0x3c>
    1a30:	20800007 	ldb	r2,0(r4)
    1a34:	10000326 	beq	r2,zero,1a44 <strlen+0x6c>
    1a38:	21000044 	addi	r4,r4,1
    1a3c:	20800007 	ldb	r2,0(r4)
    1a40:	103ffd1e 	bne	r2,zero,1a38 <strlen+0x60>
    1a44:	2205c83a 	sub	r2,r4,r8
    1a48:	f800283a 	ret

00001a4c <__svfscanf_r>:
    1a4c:	deff4e04 	addi	sp,sp,-712
    1a50:	dd80ae15 	stw	r22,696(sp)
    1a54:	dd00ac15 	stw	r20,688(sp)
    1a58:	dc40a915 	stw	r17,676(sp)
    1a5c:	dc00a815 	stw	r16,672(sp)
    1a60:	dfc0b115 	stw	ra,708(sp)
    1a64:	df00b015 	stw	fp,704(sp)
    1a68:	ddc0af15 	stw	r23,700(sp)
    1a6c:	dd40ad15 	stw	r21,692(sp)
    1a70:	dcc0ab15 	stw	r19,684(sp)
    1a74:	dc80aa15 	stw	r18,680(sp)
    1a78:	202d883a 	mov	r22,r4
    1a7c:	2821883a 	mov	r16,r5
    1a80:	d9c0a415 	stw	r7,656(sp)
    1a84:	3029883a 	mov	r20,r6
    1a88:	d800a215 	stw	zero,648(sp)
    1a8c:	0023883a 	mov	r17,zero
    1a90:	d800a115 	stw	zero,644(sp)
    1a94:	d800a015 	stw	zero,640(sp)
    1a98:	a1000007 	ldb	r4,0(r20)
    1a9c:	d9000115 	stw	r4,4(sp)
    1aa0:	20001f26 	beq	r4,zero,1b20 <__svfscanf_r+0xd4>
    1aa4:	04800074 	movhi	r18,1
    1aa8:	948f6b04 	addi	r18,r18,15788
    1aac:	91800017 	ldw	r6,0(r18)
    1ab0:	a5000044 	addi	r20,r20,1
    1ab4:	3107883a 	add	r3,r6,r4
    1ab8:	18800003 	ldbu	r2,0(r3)
    1abc:	1080020c 	andi	r2,r2,8
    1ac0:	10002426 	beq	r2,zero,1b54 <__svfscanf_r+0x108>
    1ac4:	80c00117 	ldw	r3,4(r16)
    1ac8:	00c00e0e 	bge	zero,r3,1b04 <__svfscanf_r+0xb8>
    1acc:	81400017 	ldw	r5,0(r16)
    1ad0:	90800017 	ldw	r2,0(r18)
    1ad4:	28c00003 	ldbu	r3,0(r5)
    1ad8:	1887883a 	add	r3,r3,r2
    1adc:	19000003 	ldbu	r4,0(r3)
    1ae0:	2100020c 	andi	r4,r4,8
    1ae4:	203fec26 	beq	r4,zero,1a98 <__svfscanf_r+0x4c>
    1ae8:	80c00117 	ldw	r3,4(r16)
    1aec:	29800044 	addi	r6,r5,1
    1af0:	8c400044 	addi	r17,r17,1
    1af4:	18ffffc4 	addi	r3,r3,-1
    1af8:	81800015 	stw	r6,0(r16)
    1afc:	80c00115 	stw	r3,4(r16)
    1b00:	00fff216 	blt	zero,r3,1acc <__svfscanf_r+0x80>
    1b04:	b009883a 	mov	r4,r22
    1b08:	800b883a 	mov	r5,r16
    1b0c:	00014480 	call	1448 <__srefill_r>
    1b10:	103fee26 	beq	r2,zero,1acc <__svfscanf_r+0x80>
    1b14:	a1000007 	ldb	r4,0(r20)
    1b18:	d9000115 	stw	r4,4(sp)
    1b1c:	203fe11e 	bne	r4,zero,1aa4 <__svfscanf_r+0x58>
    1b20:	d880a217 	ldw	r2,648(sp)
    1b24:	dfc0b117 	ldw	ra,708(sp)
    1b28:	df00b017 	ldw	fp,704(sp)
    1b2c:	ddc0af17 	ldw	r23,700(sp)
    1b30:	dd80ae17 	ldw	r22,696(sp)
    1b34:	dd40ad17 	ldw	r21,692(sp)
    1b38:	dd00ac17 	ldw	r20,688(sp)
    1b3c:	dcc0ab17 	ldw	r19,684(sp)
    1b40:	dc80aa17 	ldw	r18,680(sp)
    1b44:	dc40a917 	ldw	r17,676(sp)
    1b48:	dc00a817 	ldw	r16,672(sp)
    1b4c:	dec0b204 	addi	sp,sp,712
    1b50:	f800283a 	ret
    1b54:	00800944 	movi	r2,37
    1b58:	20801626 	beq	r4,r2,1bb4 <__svfscanf_r+0x168>
    1b5c:	80800117 	ldw	r2,4(r16)
    1b60:	00800b0e 	bge	zero,r2,1b90 <__svfscanf_r+0x144>
    1b64:	81000017 	ldw	r4,0(r16)
    1b68:	a0ffffc7 	ldb	r3,-1(r20)
    1b6c:	20800003 	ldbu	r2,0(r4)
    1b70:	10ffeb1e 	bne	r2,r3,1b20 <__svfscanf_r+0xd4>
    1b74:	80c00117 	ldw	r3,4(r16)
    1b78:	21800044 	addi	r6,r4,1
    1b7c:	8c400044 	addi	r17,r17,1
    1b80:	18ffffc4 	addi	r3,r3,-1
    1b84:	80c00115 	stw	r3,4(r16)
    1b88:	81800015 	stw	r6,0(r16)
    1b8c:	003fc206 	br	1a98 <__svfscanf_r+0x4c>
    1b90:	b009883a 	mov	r4,r22
    1b94:	800b883a 	mov	r5,r16
    1b98:	00014480 	call	1448 <__srefill_r>
    1b9c:	103ff126 	beq	r2,zero,1b64 <__svfscanf_r+0x118>
    1ba0:	d900a217 	ldw	r4,648(sp)
    1ba4:	2004c91e 	bne	r4,zero,2ecc <__svfscanf_r+0x1480>
    1ba8:	00bfffc4 	movi	r2,-1
    1bac:	d880a215 	stw	r2,648(sp)
    1bb0:	003fdb06 	br	1b20 <__svfscanf_r+0xd4>
    1bb4:	d800a315 	stw	zero,652(sp)
    1bb8:	0027883a 	mov	r19,zero
    1bbc:	a0c00003 	ldbu	r3,0(r20)
    1bc0:	00801e04 	movi	r2,120
    1bc4:	a5000044 	addi	r20,r20,1
    1bc8:	19403fcc 	andi	r5,r3,255
    1bcc:	2940201c 	xori	r5,r5,128
    1bd0:	297fe004 	addi	r5,r5,-128
    1bd4:	10c08036 	bltu	r2,r3,1dd8 <__svfscanf_r+0x38c>
    1bd8:	18c5883a 	add	r2,r3,r3
    1bdc:	1085883a 	add	r2,r2,r2
    1be0:	00c00034 	movhi	r3,0
    1be4:	18c6fd04 	addi	r3,r3,7156
    1be8:	10c5883a 	add	r2,r2,r3
    1bec:	11000017 	ldw	r4,0(r2)
    1bf0:	2000683a 	jmp	r4
    1bf4:	00001ba8 	cmpgeui	zero,zero,110
    1bf8:	00001dd8 	cmpnei	zero,zero,119
    1bfc:	00001dd8 	cmpnei	zero,zero,119
    1c00:	00001dd8 	cmpnei	zero,zero,119
    1c04:	00001dd8 	cmpnei	zero,zero,119
    1c08:	00001dd8 	cmpnei	zero,zero,119
    1c0c:	00001dd8 	cmpnei	zero,zero,119
    1c10:	00001dd8 	cmpnei	zero,zero,119
    1c14:	00001dd8 	cmpnei	zero,zero,119
    1c18:	00001dd8 	cmpnei	zero,zero,119
    1c1c:	00001dd8 	cmpnei	zero,zero,119
    1c20:	00001dd8 	cmpnei	zero,zero,119
    1c24:	00001dd8 	cmpnei	zero,zero,119
    1c28:	00001dd8 	cmpnei	zero,zero,119
    1c2c:	00001dd8 	cmpnei	zero,zero,119
    1c30:	00001dd8 	cmpnei	zero,zero,119
    1c34:	00001dd8 	cmpnei	zero,zero,119
    1c38:	00001dd8 	cmpnei	zero,zero,119
    1c3c:	00001dd8 	cmpnei	zero,zero,119
    1c40:	00001dd8 	cmpnei	zero,zero,119
    1c44:	00001dd8 	cmpnei	zero,zero,119
    1c48:	00001dd8 	cmpnei	zero,zero,119
    1c4c:	00001dd8 	cmpnei	zero,zero,119
    1c50:	00001dd8 	cmpnei	zero,zero,119
    1c54:	00001dd8 	cmpnei	zero,zero,119
    1c58:	00001dd8 	cmpnei	zero,zero,119
    1c5c:	00001dd8 	cmpnei	zero,zero,119
    1c60:	00001dd8 	cmpnei	zero,zero,119
    1c64:	00001dd8 	cmpnei	zero,zero,119
    1c68:	00001dd8 	cmpnei	zero,zero,119
    1c6c:	00001dd8 	cmpnei	zero,zero,119
    1c70:	00001dd8 	cmpnei	zero,zero,119
    1c74:	00001dd8 	cmpnei	zero,zero,119
    1c78:	00001dd8 	cmpnei	zero,zero,119
    1c7c:	00001dd8 	cmpnei	zero,zero,119
    1c80:	00001dd8 	cmpnei	zero,zero,119
    1c84:	00001dd8 	cmpnei	zero,zero,119
    1c88:	00001b5c 	xori	zero,zero,109
    1c8c:	00001dd8 	cmpnei	zero,zero,119
    1c90:	00001dd8 	cmpnei	zero,zero,119
    1c94:	00001dd8 	cmpnei	zero,zero,119
    1c98:	00001dd8 	cmpnei	zero,zero,119
    1c9c:	00002dfc 	xorhi	zero,zero,183
    1ca0:	00001dd8 	cmpnei	zero,zero,119
    1ca4:	00001dd8 	cmpnei	zero,zero,119
    1ca8:	00001dd8 	cmpnei	zero,zero,119
    1cac:	00001dd8 	cmpnei	zero,zero,119
    1cb0:	00001dd8 	cmpnei	zero,zero,119
    1cb4:	000027f8 	rdprs	zero,zero,159
    1cb8:	000027f8 	rdprs	zero,zero,159
    1cbc:	000027f8 	rdprs	zero,zero,159
    1cc0:	000027f8 	rdprs	zero,zero,159
    1cc4:	000027f8 	rdprs	zero,zero,159
    1cc8:	000027f8 	rdprs	zero,zero,159
    1ccc:	000027f8 	rdprs	zero,zero,159
    1cd0:	000027f8 	rdprs	zero,zero,159
    1cd4:	000027f8 	rdprs	zero,zero,159
    1cd8:	000027f8 	rdprs	zero,zero,159
    1cdc:	00001dd8 	cmpnei	zero,zero,119
    1ce0:	00001dd8 	cmpnei	zero,zero,119
    1ce4:	00001dd8 	cmpnei	zero,zero,119
    1ce8:	00001dd8 	cmpnei	zero,zero,119
    1cec:	00001dd8 	cmpnei	zero,zero,119
    1cf0:	00001dd8 	cmpnei	zero,zero,119
    1cf4:	00001dd8 	cmpnei	zero,zero,119
    1cf8:	00001dd8 	cmpnei	zero,zero,119
    1cfc:	00001dd8 	cmpnei	zero,zero,119
    1d00:	00001dd8 	cmpnei	zero,zero,119
    1d04:	00002f78 	rdprs	zero,zero,189
    1d08:	00002f70 	cmpltui	zero,zero,189
    1d0c:	00001dd8 	cmpnei	zero,zero,119
    1d10:	00002f70 	cmpltui	zero,zero,189
    1d14:	00001dd8 	cmpnei	zero,zero,119
    1d18:	00001dd8 	cmpnei	zero,zero,119
    1d1c:	00001dd8 	cmpnei	zero,zero,119
    1d20:	00001dd8 	cmpnei	zero,zero,119
    1d24:	00003008 	cmpgei	zero,zero,192
    1d28:	00001dd8 	cmpnei	zero,zero,119
    1d2c:	00001dd8 	cmpnei	zero,zero,119
    1d30:	00002fc0 	call	2fc <PWM_setDutyCycle_B+0x7c>
    1d34:	00001dd8 	cmpnei	zero,zero,119
    1d38:	00001dd8 	cmpnei	zero,zero,119
    1d3c:	00001dd8 	cmpnei	zero,zero,119
    1d40:	00001dd8 	cmpnei	zero,zero,119
    1d44:	00001dd8 	cmpnei	zero,zero,119
    1d48:	00001dd8 	cmpnei	zero,zero,119
    1d4c:	00001dd8 	cmpnei	zero,zero,119
    1d50:	00001dd8 	cmpnei	zero,zero,119
    1d54:	00002e04 	movi	zero,184
    1d58:	00001dd8 	cmpnei	zero,zero,119
    1d5c:	00001dd8 	cmpnei	zero,zero,119
    1d60:	00002fa4 	muli	zero,zero,190
    1d64:	00001dd8 	cmpnei	zero,zero,119
    1d68:	00001dd8 	cmpnei	zero,zero,119
    1d6c:	00001dd8 	cmpnei	zero,zero,119
    1d70:	00001dd8 	cmpnei	zero,zero,119
    1d74:	00001dd8 	cmpnei	zero,zero,119
    1d78:	00001dd8 	cmpnei	zero,zero,119
    1d7c:	00001dd8 	cmpnei	zero,zero,119
    1d80:	00002f98 	cmpnei	zero,zero,190
    1d84:	00002f7c 	xorhi	zero,zero,189
    1d88:	00002f70 	cmpltui	zero,zero,189
    1d8c:	00002f70 	cmpltui	zero,zero,189
    1d90:	00002f70 	cmpltui	zero,zero,189
    1d94:	00002f68 	cmpgeui	zero,zero,189
    1d98:	0000305c 	xori	zero,zero,193
    1d9c:	00001dd8 	cmpnei	zero,zero,119
    1da0:	00001dd8 	cmpnei	zero,zero,119
    1da4:	00003048 	cmpgei	zero,zero,193
    1da8:	00001dd8 	cmpnei	zero,zero,119
    1dac:	00002fe0 	cmpeqi	zero,zero,191
    1db0:	00002fc4 	movi	zero,191
    1db4:	00003018 	cmpnei	zero,zero,192
    1db8:	00001dd8 	cmpnei	zero,zero,119
    1dbc:	00001dd8 	cmpnei	zero,zero,119
    1dc0:	00003010 	cmplti	zero,zero,192
    1dc4:	00001dd8 	cmpnei	zero,zero,119
    1dc8:	00002348 	cmpgei	zero,zero,141
    1dcc:	00001dd8 	cmpnei	zero,zero,119
    1dd0:	00001dd8 	cmpnei	zero,zero,119
    1dd4:	00002e04 	movi	zero,184
    1dd8:	2987883a 	add	r3,r5,r6
    1ddc:	18800003 	ldbu	r2,0(r3)
    1de0:	1080004c 	andi	r2,r2,1
    1de4:	1005003a 	cmpeq	r2,r2,zero
    1de8:	10002c26 	beq	r2,zero,1e9c <__svfscanf_r+0x450>
    1dec:	01000034 	movhi	r4,0
    1df0:	21195704 	addi	r4,r4,25948
    1df4:	00800284 	movi	r2,10
    1df8:	d900a015 	stw	r4,640(sp)
    1dfc:	054000c4 	movi	r21,3
    1e00:	d880a115 	stw	r2,644(sp)
    1e04:	80c00117 	ldw	r3,4(r16)
    1e08:	00c14a0e 	bge	zero,r3,2334 <__svfscanf_r+0x8e8>
    1e0c:	9880100c 	andi	r2,r19,64
    1e10:	10001326 	beq	r2,zero,1e60 <__svfscanf_r+0x414>
    1e14:	00800104 	movi	r2,4
    1e18:	157f1f36 	bltu	r2,r21,1a98 <__svfscanf_r+0x4c>
    1e1c:	ad45883a 	add	r2,r21,r21
    1e20:	1085883a 	add	r2,r2,r2
    1e24:	00c00034 	movhi	r3,0
    1e28:	18c78e04 	addi	r3,r3,7736
    1e2c:	10c5883a 	add	r2,r2,r3
    1e30:	11000017 	ldw	r4,0(r2)
    1e34:	2000683a 	jmp	r4
    1e38:	00001ea4 	muli	zero,zero,122
    1e3c:	00001fb0 	cmpltui	zero,zero,126
    1e40:	00002024 	muli	zero,zero,128
    1e44:	00002310 	cmplti	zero,zero,140
    1e48:	0000215c 	xori	zero,zero,133
    1e4c:	b009883a 	mov	r4,r22
    1e50:	800b883a 	mov	r5,r16
    1e54:	00014480 	call	1448 <__srefill_r>
    1e58:	103f511e 	bne	r2,zero,1ba0 <__svfscanf_r+0x154>
    1e5c:	8c400044 	addi	r17,r17,1
    1e60:	81400017 	ldw	r5,0(r16)
    1e64:	90800017 	ldw	r2,0(r18)
    1e68:	28c00003 	ldbu	r3,0(r5)
    1e6c:	1887883a 	add	r3,r3,r2
    1e70:	19000003 	ldbu	r4,0(r3)
    1e74:	2100020c 	andi	r4,r4,8
    1e78:	203fe626 	beq	r4,zero,1e14 <__svfscanf_r+0x3c8>
    1e7c:	80c00117 	ldw	r3,4(r16)
    1e80:	18ffffc4 	addi	r3,r3,-1
    1e84:	80c00115 	stw	r3,4(r16)
    1e88:	00fff00e 	bge	zero,r3,1e4c <__svfscanf_r+0x400>
    1e8c:	29800044 	addi	r6,r5,1
    1e90:	8c400044 	addi	r17,r17,1
    1e94:	81800015 	stw	r6,0(r16)
    1e98:	003ff106 	br	1e60 <__svfscanf_r+0x414>
    1e9c:	9cc00054 	ori	r19,r19,1
    1ea0:	003fd206 	br	1dec <__svfscanf_r+0x3a0>
    1ea4:	d8c0a317 	ldw	r3,652(sp)
    1ea8:	1800021e 	bne	r3,zero,1eb4 <__svfscanf_r+0x468>
    1eac:	01000044 	movi	r4,1
    1eb0:	d900a315 	stw	r4,652(sp)
    1eb4:	9880004c 	andi	r2,r19,1
    1eb8:	1005003a 	cmpeq	r2,r2,zero
    1ebc:	1003d91e 	bne	r2,zero,2e24 <__svfscanf_r+0x13d8>
    1ec0:	9d40040c 	andi	r21,r19,16
    1ec4:	a839003a 	cmpeq	fp,r21,zero
    1ec8:	e0042526 	beq	fp,zero,2f60 <__svfscanf_r+0x1514>
    1ecc:	d880a417 	ldw	r2,656(sp)
    1ed0:	14c00017 	ldw	r19,0(r2)
    1ed4:	10800104 	addi	r2,r2,4
    1ed8:	d880a415 	stw	r2,656(sp)
    1edc:	d8c0a317 	ldw	r3,652(sp)
    1ee0:	18041a26 	beq	r3,zero,2f4c <__svfscanf_r+0x1500>
    1ee4:	01000074 	movhi	r4,1
    1ee8:	210f6c04 	addi	r4,r4,15792
    1eec:	20800017 	ldw	r2,0(r4)
    1ef0:	103f2b26 	beq	r2,zero,1ba0 <__svfscanf_r+0x154>
    1ef4:	d8804404 	addi	r2,sp,272
    1ef8:	0025883a 	mov	r18,zero
    1efc:	d880a615 	stw	r2,664(sp)
    1f00:	05ffffc4 	movi	r23,-1
    1f04:	80800017 	ldw	r2,0(r16)
    1f08:	80c00117 	ldw	r3,4(r16)
    1f0c:	d900a617 	ldw	r4,664(sp)
    1f10:	12000003 	ldbu	r8,0(r2)
    1f14:	18ffffc4 	addi	r3,r3,-1
    1f18:	11800044 	addi	r6,r2,1
    1f1c:	248f883a 	add	r7,r4,r18
    1f20:	80c00115 	stw	r3,4(r16)
    1f24:	81800015 	stw	r6,0(r16)
    1f28:	3a000005 	stb	r8,0(r7)
    1f2c:	d9000204 	addi	r4,sp,8
    1f30:	000b883a 	mov	r5,zero
    1f34:	01800204 	movi	r6,8
    1f38:	00012fc0 	call	12fc <memset>
    1f3c:	d980a617 	ldw	r6,664(sp)
    1f40:	94800044 	addi	r18,r18,1
    1f44:	d8800204 	addi	r2,sp,8
    1f48:	b009883a 	mov	r4,r22
    1f4c:	980b883a 	mov	r5,r19
    1f50:	900f883a 	mov	r7,r18
    1f54:	d8800015 	stw	r2,0(sp)
    1f58:	000441c0 	call	441c <_mbrtowc_r>
    1f5c:	1007883a 	mov	r3,r2
    1f60:	15ff0f26 	beq	r2,r23,1ba0 <__svfscanf_r+0x154>
    1f64:	1003f11e 	bne	r2,zero,2f2c <__svfscanf_r+0x14e0>
    1f68:	a800011e 	bne	r21,zero,1f70 <__svfscanf_r+0x524>
    1f6c:	98000015 	stw	zero,0(r19)
    1f70:	d8c0a317 	ldw	r3,652(sp)
    1f74:	8ca3883a 	add	r17,r17,r18
    1f78:	18ffffc4 	addi	r3,r3,-1
    1f7c:	d8c0a315 	stw	r3,652(sp)
    1f80:	e0000126 	beq	fp,zero,1f88 <__svfscanf_r+0x53c>
    1f84:	9cc00104 	addi	r19,r19,4
    1f88:	0025883a 	mov	r18,zero
    1f8c:	80c00117 	ldw	r3,4(r16)
    1f90:	00c3e90e 	bge	zero,r3,2f38 <__svfscanf_r+0x14ec>
    1f94:	d900a317 	ldw	r4,652(sp)
    1f98:	2003ec26 	beq	r4,zero,2f4c <__svfscanf_r+0x1500>
    1f9c:	00c00074 	movhi	r3,1
    1fa0:	18cf6c04 	addi	r3,r3,15792
    1fa4:	18800017 	ldw	r2,0(r3)
    1fa8:	90bfd61e 	bne	r18,r2,1f04 <__svfscanf_r+0x4b8>
    1fac:	003efc06 	br	1ba0 <__svfscanf_r+0x154>
    1fb0:	d880a317 	ldw	r2,652(sp)
    1fb4:	1000021e 	bne	r2,zero,1fc0 <__svfscanf_r+0x574>
    1fb8:	00ffffc4 	movi	r3,-1
    1fbc:	d8c0a315 	stw	r3,652(sp)
    1fc0:	9880040c 	andi	r2,r19,16
    1fc4:	10036526 	beq	r2,zero,2d5c <__svfscanf_r+0x1310>
    1fc8:	0027883a 	mov	r19,zero
    1fcc:	dd400404 	addi	r21,sp,16
    1fd0:	81000017 	ldw	r4,0(r16)
    1fd4:	20800003 	ldbu	r2,0(r4)
    1fd8:	a885883a 	add	r2,r21,r2
    1fdc:	10c00007 	ldb	r3,0(r2)
    1fe0:	1803be26 	beq	r3,zero,2edc <__svfscanf_r+0x1490>
    1fe4:	80c00117 	ldw	r3,4(r16)
    1fe8:	21800044 	addi	r6,r4,1
    1fec:	d900a317 	ldw	r4,652(sp)
    1ff0:	18ffffc4 	addi	r3,r3,-1
    1ff4:	9cc00044 	addi	r19,r19,1
    1ff8:	81800015 	stw	r6,0(r16)
    1ffc:	80c00115 	stw	r3,4(r16)
    2000:	24c3b626 	beq	r4,r19,2edc <__svfscanf_r+0x1490>
    2004:	00fff216 	blt	zero,r3,1fd0 <__svfscanf_r+0x584>
    2008:	b009883a 	mov	r4,r22
    200c:	800b883a 	mov	r5,r16
    2010:	00014480 	call	1448 <__srefill_r>
    2014:	103fee26 	beq	r2,zero,1fd0 <__svfscanf_r+0x584>
    2018:	983ee126 	beq	r19,zero,1ba0 <__svfscanf_r+0x154>
    201c:	8ce3883a 	add	r17,r17,r19
    2020:	003e9d06 	br	1a98 <__svfscanf_r+0x4c>
    2024:	d900a317 	ldw	r4,652(sp)
    2028:	2000021e 	bne	r4,zero,2034 <__svfscanf_r+0x5e8>
    202c:	00bfffc4 	movi	r2,-1
    2030:	d880a315 	stw	r2,652(sp)
    2034:	9880004c 	andi	r2,r19,1
    2038:	1005003a 	cmpeq	r2,r2,zero
    203c:	1001f41e 	bne	r2,zero,2810 <__svfscanf_r+0xdc4>
    2040:	9dc0040c 	andi	r23,r19,16
    2044:	b807003a 	cmpeq	r3,r23,zero
    2048:	d8c0a515 	stw	r3,660(sp)
    204c:	1803b21e 	bne	r3,zero,2f18 <__svfscanf_r+0x14cc>
    2050:	dd400104 	addi	r21,sp,4
    2054:	0027883a 	mov	r19,zero
    2058:	073fffc4 	movi	fp,-1
    205c:	81400017 	ldw	r5,0(r16)
    2060:	90800017 	ldw	r2,0(r18)
    2064:	29c00003 	ldbu	r7,0(r5)
    2068:	38c03fcc 	andi	r3,r7,255
    206c:	1887883a 	add	r3,r3,r2
    2070:	19000003 	ldbu	r4,0(r3)
    2074:	2100020c 	andi	r4,r4,8
    2078:	2000321e 	bne	r4,zero,2144 <__svfscanf_r+0x6f8>
    207c:	d8c0a317 	ldw	r3,652(sp)
    2080:	18003026 	beq	r3,zero,2144 <__svfscanf_r+0x6f8>
    2084:	00800074 	movhi	r2,1
    2088:	108f6c04 	addi	r2,r2,15792
    208c:	10c00017 	ldw	r3,0(r2)
    2090:	98fec326 	beq	r19,r3,1ba0 <__svfscanf_r+0x154>
    2094:	d8c04404 	addi	r3,sp,272
    2098:	80800117 	ldw	r2,4(r16)
    209c:	d8c0a615 	stw	r3,664(sp)
    20a0:	d900a617 	ldw	r4,664(sp)
    20a4:	10ffffc4 	addi	r3,r2,-1
    20a8:	29800044 	addi	r6,r5,1
    20ac:	80c00115 	stw	r3,4(r16)
    20b0:	24c5883a 	add	r2,r4,r19
    20b4:	81800015 	stw	r6,0(r16)
    20b8:	d9000204 	addi	r4,sp,8
    20bc:	000b883a 	mov	r5,zero
    20c0:	01800204 	movi	r6,8
    20c4:	11c00005 	stb	r7,0(r2)
    20c8:	00012fc0 	call	12fc <memset>
    20cc:	d980a617 	ldw	r6,664(sp)
    20d0:	9cc00044 	addi	r19,r19,1
    20d4:	d8800204 	addi	r2,sp,8
    20d8:	b009883a 	mov	r4,r22
    20dc:	a80b883a 	mov	r5,r21
    20e0:	980f883a 	mov	r7,r19
    20e4:	d8800015 	stw	r2,0(sp)
    20e8:	000441c0 	call	441c <_mbrtowc_r>
    20ec:	1007883a 	mov	r3,r2
    20f0:	173eab26 	beq	r2,fp,1ba0 <__svfscanf_r+0x154>
    20f4:	1003851e 	bne	r2,zero,2f0c <__svfscanf_r+0x14c0>
    20f8:	a8000015 	stw	zero,0(r21)
    20fc:	a9000017 	ldw	r4,0(r21)
    2100:	00041200 	call	4120 <iswspace>
    2104:	1003781e 	bne	r2,zero,2ee8 <__svfscanf_r+0x149c>
    2108:	d900a317 	ldw	r4,652(sp)
    210c:	d880a517 	ldw	r2,660(sp)
    2110:	8ce3883a 	add	r17,r17,r19
    2114:	213fffc4 	addi	r4,r4,-1
    2118:	d900a315 	stw	r4,652(sp)
    211c:	10000126 	beq	r2,zero,2124 <__svfscanf_r+0x6d8>
    2120:	ad400104 	addi	r21,r21,4
    2124:	0027883a 	mov	r19,zero
    2128:	80c00117 	ldw	r3,4(r16)
    212c:	00ffcb16 	blt	zero,r3,205c <__svfscanf_r+0x610>
    2130:	b009883a 	mov	r4,r22
    2134:	800b883a 	mov	r5,r16
    2138:	00014480 	call	1448 <__srefill_r>
    213c:	103fc726 	beq	r2,zero,205c <__svfscanf_r+0x610>
    2140:	983e971e 	bne	r19,zero,1ba0 <__svfscanf_r+0x154>
    2144:	b83e541e 	bne	r23,zero,1a98 <__svfscanf_r+0x4c>
    2148:	d900a217 	ldw	r4,648(sp)
    214c:	a8000015 	stw	zero,0(r21)
    2150:	21000044 	addi	r4,r4,1
    2154:	d900a215 	stw	r4,648(sp)
    2158:	003e4f06 	br	1a98 <__svfscanf_r+0x4c>
    215c:	d900a317 	ldw	r4,652(sp)
    2160:	00805704 	movi	r2,348
    2164:	20ffffc4 	addi	r3,r4,-1
    2168:	10c1ed2e 	bgeu	r2,r3,2920 <__svfscanf_r+0xed4>
    216c:	00805744 	movi	r2,349
    2170:	21bfa8c4 	addi	r6,r4,-349
    2174:	9d41e014 	ori	r21,r19,1920
    2178:	d880a315 	stw	r2,652(sp)
    217c:	d8c04404 	addi	r3,sp,272
    2180:	d8c0a615 	stw	r3,664(sp)
    2184:	182f883a 	mov	r23,r3
    2188:	d8009f15 	stw	zero,636(sp)
    218c:	d8009e15 	stw	zero,632(sp)
    2190:	d8009d15 	stw	zero,628(sp)
    2194:	d8009c15 	stw	zero,624(sp)
    2198:	0039883a 	mov	fp,zero
    219c:	0025883a 	mov	r18,zero
    21a0:	80800017 	ldw	r2,0(r16)
    21a4:	11400003 	ldbu	r5,0(r2)
    21a8:	00801384 	movi	r2,78
    21ac:	28fff544 	addi	r3,r5,-43
    21b0:	18c03fcc 	andi	r3,r3,255
    21b4:	10c07d36 	bltu	r2,r3,23ac <__svfscanf_r+0x960>
    21b8:	18c5883a 	add	r2,r3,r3
    21bc:	1085883a 	add	r2,r2,r2
    21c0:	00c00034 	movhi	r3,0
    21c4:	18c87504 	addi	r3,r3,8660
    21c8:	10c5883a 	add	r2,r2,r3
    21cc:	11000017 	ldw	r4,0(r2)
    21d0:	2000683a 	jmp	r4
    21d4:	00002364 	muli	zero,zero,141
    21d8:	000023ac 	andhi	zero,zero,142
    21dc:	00002364 	muli	zero,zero,141
    21e0:	000024f8 	rdprs	zero,zero,147
    21e4:	000023ac 	andhi	zero,zero,142
    21e8:	00002530 	cmpltui	zero,zero,148
    21ec:	00002564 	muli	zero,zero,149
    21f0:	00002564 	muli	zero,zero,149
    21f4:	00002564 	muli	zero,zero,149
    21f8:	00002564 	muli	zero,zero,149
    21fc:	00002564 	muli	zero,zero,149
    2200:	00002564 	muli	zero,zero,149
    2204:	00002564 	muli	zero,zero,149
    2208:	00002564 	muli	zero,zero,149
    220c:	00002564 	muli	zero,zero,149
    2210:	000023ac 	andhi	zero,zero,142
    2214:	000023ac 	andhi	zero,zero,142
    2218:	000023ac 	andhi	zero,zero,142
    221c:	000023ac 	andhi	zero,zero,142
    2220:	000023ac 	andhi	zero,zero,142
    2224:	000023ac 	andhi	zero,zero,142
    2228:	000023ac 	andhi	zero,zero,142
    222c:	00002584 	movi	zero,150
    2230:	000023ac 	andhi	zero,zero,142
    2234:	000023ac 	andhi	zero,zero,142
    2238:	000023ac 	andhi	zero,zero,142
    223c:	00002594 	movui	zero,150
    2240:	00002630 	cmpltui	zero,zero,152
    2244:	000023ac 	andhi	zero,zero,142
    2248:	000023ac 	andhi	zero,zero,142
    224c:	0000264c 	andi	zero,zero,153
    2250:	000023ac 	andhi	zero,zero,142
    2254:	000023ac 	andhi	zero,zero,142
    2258:	000023ac 	andhi	zero,zero,142
    225c:	000023ac 	andhi	zero,zero,142
    2260:	00002678 	rdprs	zero,zero,153
    2264:	000023ac 	andhi	zero,zero,142
    2268:	000023ac 	andhi	zero,zero,142
    226c:	000023ac 	andhi	zero,zero,142
    2270:	000023ac 	andhi	zero,zero,142
    2274:	000023ac 	andhi	zero,zero,142
    2278:	000026cc 	andi	zero,zero,155
    227c:	000023ac 	andhi	zero,zero,142
    2280:	000023ac 	andhi	zero,zero,142
    2284:	000023ac 	andhi	zero,zero,142
    2288:	000023ac 	andhi	zero,zero,142
    228c:	000027dc 	xori	zero,zero,159
    2290:	000023ac 	andhi	zero,zero,142
    2294:	000023ac 	andhi	zero,zero,142
    2298:	000023ac 	andhi	zero,zero,142
    229c:	000023ac 	andhi	zero,zero,142
    22a0:	000023ac 	andhi	zero,zero,142
    22a4:	000023ac 	andhi	zero,zero,142
    22a8:	000023ac 	andhi	zero,zero,142
    22ac:	00002584 	movi	zero,150
    22b0:	000023ac 	andhi	zero,zero,142
    22b4:	000023ac 	andhi	zero,zero,142
    22b8:	000023ac 	andhi	zero,zero,142
    22bc:	00002594 	movui	zero,150
    22c0:	00002630 	cmpltui	zero,zero,152
    22c4:	000023ac 	andhi	zero,zero,142
    22c8:	000023ac 	andhi	zero,zero,142
    22cc:	0000264c 	andi	zero,zero,153
    22d0:	000023ac 	andhi	zero,zero,142
    22d4:	000023ac 	andhi	zero,zero,142
    22d8:	000023ac 	andhi	zero,zero,142
    22dc:	000023ac 	andhi	zero,zero,142
    22e0:	00002678 	rdprs	zero,zero,153
    22e4:	000023ac 	andhi	zero,zero,142
    22e8:	000023ac 	andhi	zero,zero,142
    22ec:	000023ac 	andhi	zero,zero,142
    22f0:	000023ac 	andhi	zero,zero,142
    22f4:	000023ac 	andhi	zero,zero,142
    22f8:	000026cc 	andi	zero,zero,155
    22fc:	000023ac 	andhi	zero,zero,142
    2300:	000023ac 	andhi	zero,zero,142
    2304:	000023ac 	andhi	zero,zero,142
    2308:	000023ac 	andhi	zero,zero,142
    230c:	000027dc 	xori	zero,zero,159
    2310:	d900a317 	ldw	r4,652(sp)
    2314:	00805704 	movi	r2,348
    2318:	20ffffc4 	addi	r3,r4,-1
    231c:	10c18c2e 	bgeu	r2,r3,2950 <__svfscanf_r+0xf04>
    2320:	00805744 	movi	r2,349
    2324:	257fa8c4 	addi	r21,r4,-349
    2328:	9c836014 	ori	r18,r19,3456
    232c:	d880a315 	stw	r2,652(sp)
    2330:	0001a106 	br	29b8 <__svfscanf_r+0xf6c>
    2334:	b009883a 	mov	r4,r22
    2338:	800b883a 	mov	r5,r16
    233c:	00014480 	call	1448 <__srefill_r>
    2340:	103eb226 	beq	r2,zero,1e0c <__svfscanf_r+0x3c0>
    2344:	003e1606 	br	1ba0 <__svfscanf_r+0x154>
    2348:	01000284 	movi	r4,10
    234c:	00800034 	movhi	r2,0
    2350:	109ab704 	addi	r2,r2,27356
    2354:	054000c4 	movi	r21,3
    2358:	d900a115 	stw	r4,644(sp)
    235c:	d880a015 	stw	r2,640(sp)
    2360:	003ea806 	br	1e04 <__svfscanf_r+0x3b8>
    2364:	a880200c 	andi	r2,r21,128
    2368:	10001026 	beq	r2,zero,23ac <__svfscanf_r+0x960>
    236c:	00bfdfc4 	movi	r2,-129
    2370:	a8aa703a 	and	r21,r21,r2
    2374:	b9400005 	stb	r5,0(r23)
    2378:	bdc00044 	addi	r23,r23,1
    237c:	80c00117 	ldw	r3,4(r16)
    2380:	8c400044 	addi	r17,r17,1
    2384:	18bfffc4 	addi	r2,r3,-1
    2388:	80800115 	stw	r2,4(r16)
    238c:	0080610e 	bge	zero,r2,2514 <__svfscanf_r+0xac8>
    2390:	80800017 	ldw	r2,0(r16)
    2394:	10800044 	addi	r2,r2,1
    2398:	80800015 	stw	r2,0(r16)
    239c:	d880a317 	ldw	r2,652(sp)
    23a0:	10bfffc4 	addi	r2,r2,-1
    23a4:	d880a315 	stw	r2,652(sp)
    23a8:	103f7d1e 	bne	r2,zero,21a0 <__svfscanf_r+0x754>
    23ac:	d8c09e17 	ldw	r3,632(sp)
    23b0:	18000226 	beq	r3,zero,23bc <__svfscanf_r+0x970>
    23b4:	00bfbfc4 	movi	r2,-257
    23b8:	a8aa703a 	and	r21,r21,r2
    23bc:	90ffffc4 	addi	r3,r18,-1
    23c0:	00800044 	movi	r2,1
    23c4:	10c0cd2e 	bgeu	r2,r3,26fc <__svfscanf_r+0xcb0>
    23c8:	e1003fcc 	andi	r4,fp,255
    23cc:	2100201c 	xori	r4,r4,128
    23d0:	213fe004 	addi	r4,r4,-128
    23d4:	20ffffc4 	addi	r3,r4,-1
    23d8:	00800184 	movi	r2,6
    23dc:	10c01736 	bltu	r2,r3,243c <__svfscanf_r+0x9f0>
    23e0:	00c00084 	movi	r3,2
    23e4:	1900880e 	bge	r3,r4,2608 <__svfscanf_r+0xbbc>
    23e8:	008000c4 	movi	r2,3
    23ec:	1100130e 	bge	r2,r4,243c <__svfscanf_r+0x9f0>
    23f0:	e4ffffc4 	addi	r19,fp,-1
    23f4:	b825883a 	mov	r18,r23
    23f8:	94bfffc4 	addi	r18,r18,-1
    23fc:	91400007 	ldb	r5,0(r18)
    2400:	b009883a 	mov	r4,r22
    2404:	800d883a 	mov	r6,r16
    2408:	00070fc0 	call	70fc <_ungetc_r>
    240c:	9cffffc4 	addi	r19,r19,-1
    2410:	98c03fcc 	andi	r3,r19,255
    2414:	18c0201c 	xori	r3,r3,128
    2418:	18ffe004 	addi	r3,r3,-128
    241c:	00800084 	movi	r2,2
    2420:	18bff51e 	bne	r3,r2,23f8 <__svfscanf_r+0x9ac>
    2424:	e0bfff04 	addi	r2,fp,-4
    2428:	10803fcc 	andi	r2,r2,255
    242c:	b887c83a 	sub	r3,r23,r2
    2430:	8885c83a 	sub	r2,r17,r2
    2434:	147fffc4 	addi	r17,r2,-1
    2438:	1dffffc4 	addi	r23,r3,-1
    243c:	a880400c 	andi	r2,r21,256
    2440:	10001226 	beq	r2,zero,248c <__svfscanf_r+0xa40>
    2444:	a881000c 	andi	r2,r21,1024
    2448:	1000651e 	bne	r2,zero,25e0 <__svfscanf_r+0xb94>
    244c:	bdffffc4 	addi	r23,r23,-1
    2450:	b9400007 	ldb	r5,0(r23)
    2454:	00801944 	movi	r2,101
    2458:	8c7fffc4 	addi	r17,r17,-1
    245c:	28800826 	beq	r5,r2,2480 <__svfscanf_r+0xa34>
    2460:	00801144 	movi	r2,69
    2464:	28800626 	beq	r5,r2,2480 <__svfscanf_r+0xa34>
    2468:	bdffffc4 	addi	r23,r23,-1
    246c:	b009883a 	mov	r4,r22
    2470:	800d883a 	mov	r6,r16
    2474:	00070fc0 	call	70fc <_ungetc_r>
    2478:	b9400007 	ldb	r5,0(r23)
    247c:	8c7fffc4 	addi	r17,r17,-1
    2480:	b009883a 	mov	r4,r22
    2484:	800d883a 	mov	r6,r16
    2488:	00070fc0 	call	70fc <_ungetc_r>
    248c:	a880040c 	andi	r2,r21,16
    2490:	103d811e 	bne	r2,zero,1a98 <__svfscanf_r+0x4c>
    2494:	a8c1800c 	andi	r3,r21,1536
    2498:	00810004 	movi	r2,1024
    249c:	b8000005 	stb	zero,0(r23)
    24a0:	1880bb26 	beq	r3,r2,2790 <__svfscanf_r+0xd44>
    24a4:	d8809d17 	ldw	r2,628(sp)
    24a8:	1000a61e 	bne	r2,zero,2744 <__svfscanf_r+0xcf8>
    24ac:	d940a617 	ldw	r5,664(sp)
    24b0:	b009883a 	mov	r4,r22
    24b4:	000d883a 	mov	r6,zero
    24b8:	0004f380 	call	4f38 <_strtod_r>
    24bc:	a900004c 	andi	r4,r21,1
    24c0:	2009003a 	cmpeq	r4,r4,zero
    24c4:	1025883a 	mov	r18,r2
    24c8:	1827883a 	mov	r19,r3
    24cc:	2000951e 	bne	r4,zero,2724 <__svfscanf_r+0xcd8>
    24d0:	d8c0a417 	ldw	r3,656(sp)
    24d4:	18800017 	ldw	r2,0(r3)
    24d8:	1d400104 	addi	r21,r3,4
    24dc:	14c00115 	stw	r19,4(r2)
    24e0:	14800015 	stw	r18,0(r2)
    24e4:	d8c0a217 	ldw	r3,648(sp)
    24e8:	dd40a415 	stw	r21,656(sp)
    24ec:	18c00044 	addi	r3,r3,1
    24f0:	d8c0a215 	stw	r3,648(sp)
    24f4:	003d6806 	br	1a98 <__svfscanf_r+0x4c>
    24f8:	a880800c 	andi	r2,r21,512
    24fc:	103fab26 	beq	r2,zero,23ac <__svfscanf_r+0x960>
    2500:	d9009e17 	ldw	r4,632(sp)
    2504:	00bf5fc4 	movi	r2,-641
    2508:	a8aa703a 	and	r21,r21,r2
    250c:	d9009f15 	stw	r4,636(sp)
    2510:	003f9806 	br	2374 <__svfscanf_r+0x928>
    2514:	b009883a 	mov	r4,r22
    2518:	800b883a 	mov	r5,r16
    251c:	d980a715 	stw	r6,668(sp)
    2520:	00014480 	call	1448 <__srefill_r>
    2524:	d980a717 	ldw	r6,668(sp)
    2528:	103f9c26 	beq	r2,zero,239c <__svfscanf_r+0x950>
    252c:	003f9f06 	br	23ac <__svfscanf_r+0x960>
    2530:	a880400c 	andi	r2,r21,256
    2534:	10000b26 	beq	r2,zero,2564 <__svfscanf_r+0xb18>
    2538:	00bfdfc4 	movi	r2,-129
    253c:	a8aa703a 	and	r21,r21,r2
    2540:	d8809e17 	ldw	r2,632(sp)
    2544:	10800044 	addi	r2,r2,1
    2548:	d8809e15 	stw	r2,632(sp)
    254c:	303f8b26 	beq	r6,zero,237c <__svfscanf_r+0x930>
    2550:	d8c0a317 	ldw	r3,652(sp)
    2554:	31bfffc4 	addi	r6,r6,-1
    2558:	18c00044 	addi	r3,r3,1
    255c:	d8c0a315 	stw	r3,652(sp)
    2560:	003f8606 	br	237c <__svfscanf_r+0x930>
    2564:	e0803fcc 	andi	r2,fp,255
    2568:	1080201c 	xori	r2,r2,128
    256c:	10bfe004 	addi	r2,r2,-128
    2570:	9085883a 	add	r2,r18,r2
    2574:	103f8d1e 	bne	r2,zero,23ac <__svfscanf_r+0x960>
    2578:	00bf9fc4 	movi	r2,-385
    257c:	a8aa703a 	and	r21,r21,r2
    2580:	003f7c06 	br	2374 <__svfscanf_r+0x928>
    2584:	00800044 	movi	r2,1
    2588:	90bf881e 	bne	r18,r2,23ac <__svfscanf_r+0x960>
    258c:	04800084 	movi	r18,2
    2590:	003f7806 	br	2374 <__svfscanf_r+0x928>
    2594:	a8c1400c 	andi	r3,r21,1280
    2598:	00810004 	movi	r2,1024
    259c:	18800426 	beq	r3,r2,25b0 <__svfscanf_r+0xb64>
    25a0:	a884703a 	and	r2,r21,r2
    25a4:	103f8126 	beq	r2,zero,23ac <__svfscanf_r+0x960>
    25a8:	d8809e17 	ldw	r2,632(sp)
    25ac:	103f8326 	beq	r2,zero,23bc <__svfscanf_r+0x970>
    25b0:	a880800c 	andi	r2,r21,512
    25b4:	1000051e 	bne	r2,zero,25cc <__svfscanf_r+0xb80>
    25b8:	d8c09e17 	ldw	r3,632(sp)
    25bc:	d9009f17 	ldw	r4,636(sp)
    25c0:	ddc09c15 	stw	r23,624(sp)
    25c4:	1907c83a 	sub	r3,r3,r4
    25c8:	d8c09d15 	stw	r3,628(sp)
    25cc:	00be7fc4 	movi	r2,-1537
    25d0:	a884703a 	and	r2,r21,r2
    25d4:	15406014 	ori	r21,r2,384
    25d8:	d8009e15 	stw	zero,632(sp)
    25dc:	003f6506 	br	2374 <__svfscanf_r+0x928>
    25e0:	d900a617 	ldw	r4,664(sp)
    25e4:	25fd4e2e 	bgeu	r4,r23,1b20 <__svfscanf_r+0xd4>
    25e8:	bdffffc4 	addi	r23,r23,-1
    25ec:	b9400007 	ldb	r5,0(r23)
    25f0:	b009883a 	mov	r4,r22
    25f4:	800d883a 	mov	r6,r16
    25f8:	00070fc0 	call	70fc <_ungetc_r>
    25fc:	d880a617 	ldw	r2,664(sp)
    2600:	15fff936 	bltu	r2,r23,25e8 <__svfscanf_r+0xb9c>
    2604:	003d4606 	br	1b20 <__svfscanf_r+0xd4>
    2608:	d900a617 	ldw	r4,664(sp)
    260c:	25fd442e 	bgeu	r4,r23,1b20 <__svfscanf_r+0xd4>
    2610:	bdffffc4 	addi	r23,r23,-1
    2614:	b9400007 	ldb	r5,0(r23)
    2618:	b009883a 	mov	r4,r22
    261c:	800d883a 	mov	r6,r16
    2620:	00070fc0 	call	70fc <_ungetc_r>
    2624:	d8c0a617 	ldw	r3,664(sp)
    2628:	1dfff936 	bltu	r3,r23,2610 <__svfscanf_r+0xbc4>
    262c:	003d3c06 	br	1b20 <__svfscanf_r+0xd4>
    2630:	e0c03fcc 	andi	r3,fp,255
    2634:	18c0201c 	xori	r3,r3,128
    2638:	18ffe004 	addi	r3,r3,-128
    263c:	00800084 	movi	r2,2
    2640:	18bf5a1e 	bne	r3,r2,23ac <__svfscanf_r+0x960>
    2644:	070000c4 	movi	fp,3
    2648:	003f4a06 	br	2374 <__svfscanf_r+0x928>
    264c:	e0c03fcc 	andi	r3,fp,255
    2650:	18c0201c 	xori	r3,r3,128
    2654:	18ffe004 	addi	r3,r3,-128
    2658:	1800231e 	bne	r3,zero,26e8 <__svfscanf_r+0xc9c>
    265c:	a8c1c00c 	andi	r3,r21,1792
    2660:	0081c004 	movi	r2,1792
    2664:	18bf511e 	bne	r3,r2,23ac <__svfscanf_r+0x960>
    2668:	00be1fc4 	movi	r2,-1921
    266c:	a8aa703a 	and	r21,r21,r2
    2670:	07000044 	movi	fp,1
    2674:	003f3f06 	br	2374 <__svfscanf_r+0x928>
    2678:	9000101e 	bne	r18,zero,26bc <__svfscanf_r+0xc70>
    267c:	a8c1c00c 	andi	r3,r21,1792
    2680:	0081c004 	movi	r2,1792
    2684:	18800926 	beq	r3,r2,26ac <__svfscanf_r+0xc60>
    2688:	e0c03fcc 	andi	r3,fp,255
    268c:	18c0201c 	xori	r3,r3,128
    2690:	18ffe004 	addi	r3,r3,-128
    2694:	00800044 	movi	r2,1
    2698:	18800226 	beq	r3,r2,26a4 <__svfscanf_r+0xc58>
    269c:	00800104 	movi	r2,4
    26a0:	18bf421e 	bne	r3,r2,23ac <__svfscanf_r+0x960>
    26a4:	e7000044 	addi	fp,fp,1
    26a8:	003f3206 	br	2374 <__svfscanf_r+0x928>
    26ac:	00be1fc4 	movi	r2,-1921
    26b0:	a8aa703a 	and	r21,r21,r2
    26b4:	04800044 	movi	r18,1
    26b8:	003f2e06 	br	2374 <__svfscanf_r+0x928>
    26bc:	00800084 	movi	r2,2
    26c0:	90bff11e 	bne	r18,r2,2688 <__svfscanf_r+0xc3c>
    26c4:	048000c4 	movi	r18,3
    26c8:	003f2a06 	br	2374 <__svfscanf_r+0x928>
    26cc:	e0c03fcc 	andi	r3,fp,255
    26d0:	18c0201c 	xori	r3,r3,128
    26d4:	18ffe004 	addi	r3,r3,-128
    26d8:	00800184 	movi	r2,6
    26dc:	18bf331e 	bne	r3,r2,23ac <__svfscanf_r+0x960>
    26e0:	070001c4 	movi	fp,7
    26e4:	003f2306 	br	2374 <__svfscanf_r+0x928>
    26e8:	008000c4 	movi	r2,3
    26ec:	18bfed26 	beq	r3,r2,26a4 <__svfscanf_r+0xc58>
    26f0:	00800144 	movi	r2,5
    26f4:	18bfeb26 	beq	r3,r2,26a4 <__svfscanf_r+0xc58>
    26f8:	003f2c06 	br	23ac <__svfscanf_r+0x960>
    26fc:	d900a617 	ldw	r4,664(sp)
    2700:	25fd072e 	bgeu	r4,r23,1b20 <__svfscanf_r+0xd4>
    2704:	bdffffc4 	addi	r23,r23,-1
    2708:	b9400007 	ldb	r5,0(r23)
    270c:	b009883a 	mov	r4,r22
    2710:	800d883a 	mov	r6,r16
    2714:	00070fc0 	call	70fc <_ungetc_r>
    2718:	d880a617 	ldw	r2,664(sp)
    271c:	15fff936 	bltu	r2,r23,2704 <__svfscanf_r+0xcb8>
    2720:	003cff06 	br	1b20 <__svfscanf_r+0xd4>
    2724:	a880008c 	andi	r2,r21,2
    2728:	10002026 	beq	r2,zero,27ac <__svfscanf_r+0xd60>
    272c:	d900a417 	ldw	r4,656(sp)
    2730:	20800017 	ldw	r2,0(r4)
    2734:	25400104 	addi	r21,r4,4
    2738:	10c00115 	stw	r3,4(r2)
    273c:	14800015 	stw	r18,0(r2)
    2740:	003f6806 	br	24e4 <__svfscanf_r+0xa98>
    2744:	d8c09c17 	ldw	r3,624(sp)
    2748:	b009883a 	mov	r4,r22
    274c:	000d883a 	mov	r6,zero
    2750:	19400044 	addi	r5,r3,1
    2754:	01c00284 	movi	r7,10
    2758:	000655c0 	call	655c <_strtol_r>
    275c:	d9009d17 	ldw	r4,628(sp)
    2760:	110dc83a 	sub	r6,r2,r4
    2764:	d8c0a617 	ldw	r3,664(sp)
    2768:	d9009c17 	ldw	r4,624(sp)
    276c:	188054c4 	addi	r2,r3,339
    2770:	20800236 	bltu	r4,r2,277c <__svfscanf_r+0xd30>
    2774:	18805484 	addi	r2,r3,338
    2778:	d8809c15 	stw	r2,624(sp)
    277c:	d9009c17 	ldw	r4,624(sp)
    2780:	01400074 	movhi	r5,1
    2784:	29474704 	addi	r5,r5,7452
    2788:	0004d600 	call	4d60 <sprintf>
    278c:	003f4706 	br	24ac <__svfscanf_r+0xa60>
    2790:	d8c09e17 	ldw	r3,632(sp)
    2794:	d9009f17 	ldw	r4,636(sp)
    2798:	1905c83a 	sub	r2,r3,r4
    279c:	103f4326 	beq	r2,zero,24ac <__svfscanf_r+0xa60>
    27a0:	008dc83a 	sub	r6,zero,r2
    27a4:	ddc09c15 	stw	r23,624(sp)
    27a8:	003fee06 	br	2764 <__svfscanf_r+0xd18>
    27ac:	d880a417 	ldw	r2,656(sp)
    27b0:	9009883a 	mov	r4,r18
    27b4:	180b883a 	mov	r5,r3
    27b8:	15c00017 	ldw	r23,0(r2)
    27bc:	15400104 	addi	r21,r2,4
    27c0:	0004c680 	call	4c68 <__isnand>
    27c4:	10021c1e 	bne	r2,zero,3038 <__svfscanf_r+0x15ec>
    27c8:	980b883a 	mov	r5,r19
    27cc:	9009883a 	mov	r4,r18
    27d0:	000e6880 	call	e688 <__truncdfsf2>
    27d4:	b8800015 	stw	r2,0(r23)
    27d8:	003f4206 	br	24e4 <__svfscanf_r+0xa98>
    27dc:	e0c03fcc 	andi	r3,fp,255
    27e0:	18c0201c 	xori	r3,r3,128
    27e4:	18ffe004 	addi	r3,r3,-128
    27e8:	008001c4 	movi	r2,7
    27ec:	18beef1e 	bne	r3,r2,23ac <__svfscanf_r+0x960>
    27f0:	07000204 	movi	fp,8
    27f4:	003edf06 	br	2374 <__svfscanf_r+0x928>
    27f8:	d900a317 	ldw	r4,652(sp)
    27fc:	208002a4 	muli	r2,r4,10
    2800:	1145883a 	add	r2,r2,r5
    2804:	10bff404 	addi	r2,r2,-48
    2808:	d880a315 	stw	r2,652(sp)
    280c:	003ceb06 	br	1bbc <__svfscanf_r+0x170>
    2810:	9880040c 	andi	r2,r19,16
    2814:	10001426 	beq	r2,zero,2868 <__svfscanf_r+0xe1c>
    2818:	0027883a 	mov	r19,zero
    281c:	00000906 	br	2844 <__svfscanf_r+0xdf8>
    2820:	80c00117 	ldw	r3,4(r16)
    2824:	d880a317 	ldw	r2,652(sp)
    2828:	29800044 	addi	r6,r5,1
    282c:	18ffffc4 	addi	r3,r3,-1
    2830:	9cc00044 	addi	r19,r19,1
    2834:	81800015 	stw	r6,0(r16)
    2838:	80c00115 	stw	r3,4(r16)
    283c:	14fdf726 	beq	r2,r19,201c <__svfscanf_r+0x5d0>
    2840:	00c02c0e 	bge	zero,r3,28f4 <__svfscanf_r+0xea8>
    2844:	81400017 	ldw	r5,0(r16)
    2848:	90800017 	ldw	r2,0(r18)
    284c:	28c00003 	ldbu	r3,0(r5)
    2850:	1887883a 	add	r3,r3,r2
    2854:	19000003 	ldbu	r4,0(r3)
    2858:	2100020c 	andi	r4,r4,8
    285c:	203ff026 	beq	r4,zero,2820 <__svfscanf_r+0xdd4>
    2860:	8ce3883a 	add	r17,r17,r19
    2864:	003c8c06 	br	1a98 <__svfscanf_r+0x4c>
    2868:	d8c0a417 	ldw	r3,656(sp)
    286c:	1d400017 	ldw	r21,0(r3)
    2870:	a827883a 	mov	r19,r21
    2874:	00000e06 	br	28b0 <__svfscanf_r+0xe64>
    2878:	80800117 	ldw	r2,4(r16)
    287c:	d900a317 	ldw	r4,652(sp)
    2880:	29800044 	addi	r6,r5,1
    2884:	10ffffc4 	addi	r3,r2,-1
    2888:	213fffc4 	addi	r4,r4,-1
    288c:	d900a315 	stw	r4,652(sp)
    2890:	80c00115 	stw	r3,4(r16)
    2894:	28800003 	ldbu	r2,0(r5)
    2898:	98800005 	stb	r2,0(r19)
    289c:	81800015 	stw	r6,0(r16)
    28a0:	9cc00044 	addi	r19,r19,1
    28a4:	20000926 	beq	r4,zero,28cc <__svfscanf_r+0xe80>
    28a8:	80800117 	ldw	r2,4(r16)
    28ac:	0080170e 	bge	zero,r2,290c <__svfscanf_r+0xec0>
    28b0:	81400017 	ldw	r5,0(r16)
    28b4:	90800017 	ldw	r2,0(r18)
    28b8:	28c00003 	ldbu	r3,0(r5)
    28bc:	1887883a 	add	r3,r3,r2
    28c0:	19000003 	ldbu	r4,0(r3)
    28c4:	2100020c 	andi	r4,r4,8
    28c8:	203feb26 	beq	r4,zero,2878 <__svfscanf_r+0xe2c>
    28cc:	9d45c83a 	sub	r2,r19,r21
    28d0:	d8c0a217 	ldw	r3,648(sp)
    28d4:	88a3883a 	add	r17,r17,r2
    28d8:	d880a417 	ldw	r2,656(sp)
    28dc:	18c00044 	addi	r3,r3,1
    28e0:	d8c0a215 	stw	r3,648(sp)
    28e4:	10800104 	addi	r2,r2,4
    28e8:	d880a415 	stw	r2,656(sp)
    28ec:	98000005 	stb	zero,0(r19)
    28f0:	003c6906 	br	1a98 <__svfscanf_r+0x4c>
    28f4:	b009883a 	mov	r4,r22
    28f8:	800b883a 	mov	r5,r16
    28fc:	00014480 	call	1448 <__srefill_r>
    2900:	103fd026 	beq	r2,zero,2844 <__svfscanf_r+0xdf8>
    2904:	8ce3883a 	add	r17,r17,r19
    2908:	003c6306 	br	1a98 <__svfscanf_r+0x4c>
    290c:	b009883a 	mov	r4,r22
    2910:	800b883a 	mov	r5,r16
    2914:	00014480 	call	1448 <__srefill_r>
    2918:	103fe526 	beq	r2,zero,28b0 <__svfscanf_r+0xe64>
    291c:	003feb06 	br	28cc <__svfscanf_r+0xe80>
    2920:	d900a317 	ldw	r4,652(sp)
    2924:	9d41e014 	ori	r21,r19,1920
    2928:	2000821e 	bne	r4,zero,2b34 <__svfscanf_r+0x10e8>
    292c:	d8c04404 	addi	r3,sp,272
    2930:	182f883a 	mov	r23,r3
    2934:	0039883a 	mov	fp,zero
    2938:	d8c0a615 	stw	r3,664(sp)
    293c:	d8009c15 	stw	zero,624(sp)
    2940:	d8009d15 	stw	zero,628(sp)
    2944:	d8009f15 	stw	zero,636(sp)
    2948:	d8009e15 	stw	zero,632(sp)
    294c:	003e9e06 	br	23c8 <__svfscanf_r+0x97c>
    2950:	d900a317 	ldw	r4,652(sp)
    2954:	9c836014 	ori	r18,r19,3456
    2958:	2000161e 	bne	r4,zero,29b4 <__svfscanf_r+0xf68>
    295c:	d8804404 	addi	r2,sp,272
    2960:	d880a615 	stw	r2,664(sp)
    2964:	002f883a 	mov	r23,zero
    2968:	1027883a 	mov	r19,r2
    296c:	9080400c 	andi	r2,r18,256
    2970:	10000926 	beq	r2,zero,2998 <__svfscanf_r+0xf4c>
    2974:	d8c0a617 	ldw	r3,664(sp)
    2978:	1cc0052e 	bgeu	r3,r19,2990 <__svfscanf_r+0xf44>
    297c:	9cffffc4 	addi	r19,r19,-1
    2980:	99400007 	ldb	r5,0(r19)
    2984:	b009883a 	mov	r4,r22
    2988:	800d883a 	mov	r6,r16
    298c:	00070fc0 	call	70fc <_ungetc_r>
    2990:	d900a617 	ldw	r4,664(sp)
    2994:	24fc6226 	beq	r4,r19,1b20 <__svfscanf_r+0xd4>
    2998:	9080040c 	andi	r2,r18,16
    299c:	10006726 	beq	r2,zero,2b3c <__svfscanf_r+0x10f0>
    29a0:	d8c0a617 	ldw	r3,664(sp)
    29a4:	98c5c83a 	sub	r2,r19,r3
    29a8:	b885883a 	add	r2,r23,r2
    29ac:	88a3883a 	add	r17,r17,r2
    29b0:	003c3906 	br	1a98 <__svfscanf_r+0x4c>
    29b4:	002b883a 	mov	r21,zero
    29b8:	d8c04404 	addi	r3,sp,272
    29bc:	d8c0a615 	stw	r3,664(sp)
    29c0:	002f883a 	mov	r23,zero
    29c4:	1827883a 	mov	r19,r3
    29c8:	81800017 	ldw	r6,0(r16)
    29cc:	00c01344 	movi	r3,77
    29d0:	31400003 	ldbu	r5,0(r6)
    29d4:	28bff544 	addi	r2,r5,-43
    29d8:	10803fcc 	andi	r2,r2,255
    29dc:	18bfe336 	bltu	r3,r2,296c <__svfscanf_r+0xf20>
    29e0:	1085883a 	add	r2,r2,r2
    29e4:	1085883a 	add	r2,r2,r2
    29e8:	00c00034 	movhi	r3,0
    29ec:	18ca7f04 	addi	r3,r3,10748
    29f0:	10c5883a 	add	r2,r2,r3
    29f4:	11000017 	ldw	r4,0(r2)
    29f8:	2000683a 	jmp	r4
    29fc:	00002b90 	cmplti	zero,zero,174
    2a00:	0000296c 	andhi	zero,zero,165
    2a04:	00002b90 	cmplti	zero,zero,174
    2a08:	0000296c 	andhi	zero,zero,165
    2a0c:	0000296c 	andhi	zero,zero,165
    2a10:	00002bd4 	movui	zero,175
    2a14:	00002cd0 	cmplti	zero,zero,179
    2a18:	00002cd0 	cmplti	zero,zero,179
    2a1c:	00002cd0 	cmplti	zero,zero,179
    2a20:	00002cd0 	cmplti	zero,zero,179
    2a24:	00002cd0 	cmplti	zero,zero,179
    2a28:	00002cd0 	cmplti	zero,zero,179
    2a2c:	00002cd0 	cmplti	zero,zero,179
    2a30:	00002cf8 	rdprs	zero,zero,179
    2a34:	00002cf8 	rdprs	zero,zero,179
    2a38:	0000296c 	andhi	zero,zero,165
    2a3c:	0000296c 	andhi	zero,zero,165
    2a40:	0000296c 	andhi	zero,zero,165
    2a44:	0000296c 	andhi	zero,zero,165
    2a48:	0000296c 	andhi	zero,zero,165
    2a4c:	0000296c 	andhi	zero,zero,165
    2a50:	0000296c 	andhi	zero,zero,165
    2a54:	00002d28 	cmpgeui	zero,zero,180
    2a58:	00002d28 	cmpgeui	zero,zero,180
    2a5c:	00002d28 	cmpgeui	zero,zero,180
    2a60:	00002d28 	cmpgeui	zero,zero,180
    2a64:	00002d28 	cmpgeui	zero,zero,180
    2a68:	00002d28 	cmpgeui	zero,zero,180
    2a6c:	0000296c 	andhi	zero,zero,165
    2a70:	0000296c 	andhi	zero,zero,165
    2a74:	0000296c 	andhi	zero,zero,165
    2a78:	0000296c 	andhi	zero,zero,165
    2a7c:	0000296c 	andhi	zero,zero,165
    2a80:	0000296c 	andhi	zero,zero,165
    2a84:	0000296c 	andhi	zero,zero,165
    2a88:	0000296c 	andhi	zero,zero,165
    2a8c:	0000296c 	andhi	zero,zero,165
    2a90:	0000296c 	andhi	zero,zero,165
    2a94:	0000296c 	andhi	zero,zero,165
    2a98:	0000296c 	andhi	zero,zero,165
    2a9c:	0000296c 	andhi	zero,zero,165
    2aa0:	0000296c 	andhi	zero,zero,165
    2aa4:	0000296c 	andhi	zero,zero,165
    2aa8:	0000296c 	andhi	zero,zero,165
    2aac:	0000296c 	andhi	zero,zero,165
    2ab0:	00002d38 	rdprs	zero,zero,180
    2ab4:	0000296c 	andhi	zero,zero,165
    2ab8:	0000296c 	andhi	zero,zero,165
    2abc:	0000296c 	andhi	zero,zero,165
    2ac0:	0000296c 	andhi	zero,zero,165
    2ac4:	0000296c 	andhi	zero,zero,165
    2ac8:	0000296c 	andhi	zero,zero,165
    2acc:	0000296c 	andhi	zero,zero,165
    2ad0:	0000296c 	andhi	zero,zero,165
    2ad4:	00002d28 	cmpgeui	zero,zero,180
    2ad8:	00002d28 	cmpgeui	zero,zero,180
    2adc:	00002d28 	cmpgeui	zero,zero,180
    2ae0:	00002d28 	cmpgeui	zero,zero,180
    2ae4:	00002d28 	cmpgeui	zero,zero,180
    2ae8:	00002d28 	cmpgeui	zero,zero,180
    2aec:	0000296c 	andhi	zero,zero,165
    2af0:	0000296c 	andhi	zero,zero,165
    2af4:	0000296c 	andhi	zero,zero,165
    2af8:	0000296c 	andhi	zero,zero,165
    2afc:	0000296c 	andhi	zero,zero,165
    2b00:	0000296c 	andhi	zero,zero,165
    2b04:	0000296c 	andhi	zero,zero,165
    2b08:	0000296c 	andhi	zero,zero,165
    2b0c:	0000296c 	andhi	zero,zero,165
    2b10:	0000296c 	andhi	zero,zero,165
    2b14:	0000296c 	andhi	zero,zero,165
    2b18:	0000296c 	andhi	zero,zero,165
    2b1c:	0000296c 	andhi	zero,zero,165
    2b20:	0000296c 	andhi	zero,zero,165
    2b24:	0000296c 	andhi	zero,zero,165
    2b28:	0000296c 	andhi	zero,zero,165
    2b2c:	0000296c 	andhi	zero,zero,165
    2b30:	00002d38 	rdprs	zero,zero,180
    2b34:	000d883a 	mov	r6,zero
    2b38:	003d9006 	br	217c <__svfscanf_r+0x730>
    2b3c:	98000005 	stb	zero,0(r19)
    2b40:	d8c0a017 	ldw	r3,640(sp)
    2b44:	d940a617 	ldw	r5,664(sp)
    2b48:	d9c0a117 	ldw	r7,644(sp)
    2b4c:	b009883a 	mov	r4,r22
    2b50:	000d883a 	mov	r6,zero
    2b54:	183ee83a 	callr	r3
    2b58:	1007883a 	mov	r3,r2
    2b5c:	9080080c 	andi	r2,r18,32
    2b60:	10004d1e 	bne	r2,zero,2c98 <__svfscanf_r+0x124c>
    2b64:	9080010c 	andi	r2,r18,4
    2b68:	10003426 	beq	r2,zero,2c3c <__svfscanf_r+0x11f0>
    2b6c:	d900a417 	ldw	r4,656(sp)
    2b70:	20800017 	ldw	r2,0(r4)
    2b74:	21000104 	addi	r4,r4,4
    2b78:	d900a415 	stw	r4,656(sp)
    2b7c:	10c0000d 	sth	r3,0(r2)
    2b80:	d880a217 	ldw	r2,648(sp)
    2b84:	10800044 	addi	r2,r2,1
    2b88:	d880a215 	stw	r2,648(sp)
    2b8c:	003f8406 	br	29a0 <__svfscanf_r+0xf54>
    2b90:	9080200c 	andi	r2,r18,128
    2b94:	103f7526 	beq	r2,zero,296c <__svfscanf_r+0xf20>
    2b98:	00bfdfc4 	movi	r2,-129
    2b9c:	90a4703a 	and	r18,r18,r2
    2ba0:	99400005 	stb	r5,0(r19)
    2ba4:	9cc00044 	addi	r19,r19,1
    2ba8:	80c00117 	ldw	r3,4(r16)
    2bac:	18ffffc4 	addi	r3,r3,-1
    2bb0:	80c00115 	stw	r3,4(r16)
    2bb4:	00c0130e 	bge	zero,r3,2c04 <__svfscanf_r+0x11b8>
    2bb8:	31800044 	addi	r6,r6,1
    2bbc:	81800015 	stw	r6,0(r16)
    2bc0:	d880a317 	ldw	r2,652(sp)
    2bc4:	10bfffc4 	addi	r2,r2,-1
    2bc8:	d880a315 	stw	r2,652(sp)
    2bcc:	103f7e1e 	bne	r2,zero,29c8 <__svfscanf_r+0xf7c>
    2bd0:	003f6606 	br	296c <__svfscanf_r+0xf20>
    2bd4:	9082000c 	andi	r2,r18,2048
    2bd8:	103ff126 	beq	r2,zero,2ba0 <__svfscanf_r+0x1154>
    2bdc:	d8c0a117 	ldw	r3,644(sp)
    2be0:	1800031e 	bne	r3,zero,2bf0 <__svfscanf_r+0x11a4>
    2be4:	01000204 	movi	r4,8
    2be8:	94808014 	ori	r18,r18,512
    2bec:	d900a115 	stw	r4,644(sp)
    2bf0:	9081000c 	andi	r2,r18,1024
    2bf4:	10000826 	beq	r2,zero,2c18 <__svfscanf_r+0x11cc>
    2bf8:	00be9fc4 	movi	r2,-1409
    2bfc:	90a4703a 	and	r18,r18,r2
    2c00:	003fe706 	br	2ba0 <__svfscanf_r+0x1154>
    2c04:	b009883a 	mov	r4,r22
    2c08:	800b883a 	mov	r5,r16
    2c0c:	00014480 	call	1448 <__srefill_r>
    2c10:	103feb26 	beq	r2,zero,2bc0 <__svfscanf_r+0x1174>
    2c14:	003f5506 	br	296c <__svfscanf_r+0xf20>
    2c18:	a8000426 	beq	r21,zero,2c2c <__svfscanf_r+0x11e0>
    2c1c:	d880a317 	ldw	r2,652(sp)
    2c20:	ad7fffc4 	addi	r21,r21,-1
    2c24:	10800044 	addi	r2,r2,1
    2c28:	d880a315 	stw	r2,652(sp)
    2c2c:	00bf1fc4 	movi	r2,-897
    2c30:	90a4703a 	and	r18,r18,r2
    2c34:	bdc00044 	addi	r23,r23,1
    2c38:	003fdb06 	br	2ba8 <__svfscanf_r+0x115c>
    2c3c:	9080004c 	andi	r2,r18,1
    2c40:	1005003a 	cmpeq	r2,r2,zero
    2c44:	10001426 	beq	r2,zero,2c98 <__svfscanf_r+0x124c>
    2c48:	9080008c 	andi	r2,r18,2
    2c4c:	10001226 	beq	r2,zero,2c98 <__svfscanf_r+0x124c>
    2c50:	d8c0a017 	ldw	r3,640(sp)
    2c54:	00800034 	movhi	r2,0
    2c58:	109ab704 	addi	r2,r2,27356
    2c5c:	18801426 	beq	r3,r2,2cb0 <__svfscanf_r+0x1264>
    2c60:	d9c0a117 	ldw	r7,644(sp)
    2c64:	d940a617 	ldw	r5,664(sp)
    2c68:	000d883a 	mov	r6,zero
    2c6c:	b009883a 	mov	r4,r22
    2c70:	00067c40 	call	67c4 <_strtoll_r>
    2c74:	100d883a 	mov	r6,r2
    2c78:	180f883a 	mov	r7,r3
    2c7c:	d900a417 	ldw	r4,656(sp)
    2c80:	20800017 	ldw	r2,0(r4)
    2c84:	21000104 	addi	r4,r4,4
    2c88:	d900a415 	stw	r4,656(sp)
    2c8c:	11c00115 	stw	r7,4(r2)
    2c90:	11800015 	stw	r6,0(r2)
    2c94:	003fba06 	br	2b80 <__svfscanf_r+0x1134>
    2c98:	d900a417 	ldw	r4,656(sp)
    2c9c:	20800017 	ldw	r2,0(r4)
    2ca0:	21000104 	addi	r4,r4,4
    2ca4:	d900a415 	stw	r4,656(sp)
    2ca8:	10c00015 	stw	r3,0(r2)
    2cac:	003fb406 	br	2b80 <__svfscanf_r+0x1134>
    2cb0:	d9c0a117 	ldw	r7,644(sp)
    2cb4:	d940a617 	ldw	r5,664(sp)
    2cb8:	000d883a 	mov	r6,zero
    2cbc:	b009883a 	mov	r4,r22
    2cc0:	0006d300 	call	6d30 <_strtoull_r>
    2cc4:	100d883a 	mov	r6,r2
    2cc8:	180f883a 	mov	r7,r3
    2ccc:	003feb06 	br	2c7c <__svfscanf_r+0x1230>
    2cd0:	d8c0a117 	ldw	r3,644(sp)
    2cd4:	18c5883a 	add	r2,r3,r3
    2cd8:	00c00074 	movhi	r3,1
    2cdc:	18c74884 	addi	r3,r3,7458
    2ce0:	10c5883a 	add	r2,r2,r3
    2ce4:	1080000f 	ldh	r2,0(r2)
    2ce8:	00fd1fc4 	movi	r3,-2945
    2cec:	90e4703a 	and	r18,r18,r3
    2cf0:	d880a115 	stw	r2,644(sp)
    2cf4:	003faa06 	br	2ba0 <__svfscanf_r+0x1154>
    2cf8:	d900a117 	ldw	r4,644(sp)
    2cfc:	00c00074 	movhi	r3,1
    2d00:	18c74884 	addi	r3,r3,7458
    2d04:	2105883a 	add	r2,r4,r4
    2d08:	10c5883a 	add	r2,r2,r3
    2d0c:	1080000f 	ldh	r2,0(r2)
    2d10:	00c00204 	movi	r3,8
    2d14:	d880a115 	stw	r2,644(sp)
    2d18:	18bf140e 	bge	r3,r2,296c <__svfscanf_r+0xf20>
    2d1c:	00bd1fc4 	movi	r2,-2945
    2d20:	90a4703a 	and	r18,r18,r2
    2d24:	003f9e06 	br	2ba0 <__svfscanf_r+0x1154>
    2d28:	d8c0a117 	ldw	r3,644(sp)
    2d2c:	00800284 	movi	r2,10
    2d30:	10fffa16 	blt	r2,r3,2d1c <__svfscanf_r+0x12d0>
    2d34:	003f0d06 	br	296c <__svfscanf_r+0xf20>
    2d38:	90c1800c 	andi	r3,r18,1536
    2d3c:	00808004 	movi	r2,512
    2d40:	18bf0a1e 	bne	r3,r2,296c <__svfscanf_r+0xf20>
    2d44:	00bf7fc4 	movi	r2,-513
    2d48:	9084703a 	and	r2,r18,r2
    2d4c:	01000404 	movi	r4,16
    2d50:	14814014 	ori	r18,r2,1280
    2d54:	d900a115 	stw	r4,644(sp)
    2d58:	003f9106 	br	2ba0 <__svfscanf_r+0x1154>
    2d5c:	d880a417 	ldw	r2,656(sp)
    2d60:	dd400404 	addi	r21,sp,16
    2d64:	14800017 	ldw	r18,0(r2)
    2d68:	9027883a 	mov	r19,r18
    2d6c:	81000017 	ldw	r4,0(r16)
    2d70:	20800003 	ldbu	r2,0(r4)
    2d74:	a885883a 	add	r2,r21,r2
    2d78:	10c00007 	ldb	r3,0(r2)
    2d7c:	18001426 	beq	r3,zero,2dd0 <__svfscanf_r+0x1384>
    2d80:	d8c0a317 	ldw	r3,652(sp)
    2d84:	80800117 	ldw	r2,4(r16)
    2d88:	21800044 	addi	r6,r4,1
    2d8c:	18ffffc4 	addi	r3,r3,-1
    2d90:	d8c0a315 	stw	r3,652(sp)
    2d94:	10ffffc4 	addi	r3,r2,-1
    2d98:	80c00115 	stw	r3,4(r16)
    2d9c:	20800003 	ldbu	r2,0(r4)
    2da0:	90800005 	stb	r2,0(r18)
    2da4:	d900a317 	ldw	r4,652(sp)
    2da8:	81800015 	stw	r6,0(r16)
    2dac:	94800044 	addi	r18,r18,1
    2db0:	20000726 	beq	r4,zero,2dd0 <__svfscanf_r+0x1384>
    2db4:	80800117 	ldw	r2,4(r16)
    2db8:	00bfec16 	blt	zero,r2,2d6c <__svfscanf_r+0x1320>
    2dbc:	b009883a 	mov	r4,r22
    2dc0:	800b883a 	mov	r5,r16
    2dc4:	00014480 	call	1448 <__srefill_r>
    2dc8:	103fe826 	beq	r2,zero,2d6c <__svfscanf_r+0x1320>
    2dcc:	9cbb7426 	beq	r19,r18,1ba0 <__svfscanf_r+0x154>
    2dd0:	94e7c83a 	sub	r19,r18,r19
    2dd4:	983b5226 	beq	r19,zero,1b20 <__svfscanf_r+0xd4>
    2dd8:	90000005 	stb	zero,0(r18)
    2ddc:	d880a417 	ldw	r2,656(sp)
    2de0:	d8c0a217 	ldw	r3,648(sp)
    2de4:	8ce3883a 	add	r17,r17,r19
    2de8:	10800104 	addi	r2,r2,4
    2dec:	18c00044 	addi	r3,r3,1
    2df0:	d880a415 	stw	r2,656(sp)
    2df4:	d8c0a215 	stw	r3,648(sp)
    2df8:	003b2706 	br	1a98 <__svfscanf_r+0x4c>
    2dfc:	9cc00414 	ori	r19,r19,16
    2e00:	003b6e06 	br	1bbc <__svfscanf_r+0x170>
    2e04:	00c00404 	movi	r3,16
    2e08:	01000034 	movhi	r4,0
    2e0c:	211ab704 	addi	r4,r4,27356
    2e10:	9cc08014 	ori	r19,r19,512
    2e14:	054000c4 	movi	r21,3
    2e18:	d8c0a115 	stw	r3,644(sp)
    2e1c:	d900a015 	stw	r4,640(sp)
    2e20:	003bf806 	br	1e04 <__svfscanf_r+0x3b8>
    2e24:	9880040c 	andi	r2,r19,16
    2e28:	10001926 	beq	r2,zero,2e90 <__svfscanf_r+0x1444>
    2e2c:	0027883a 	mov	r19,zero
    2e30:	00000b06 	br	2e60 <__svfscanf_r+0x1414>
    2e34:	80800017 	ldw	r2,0(r16)
    2e38:	b009883a 	mov	r4,r22
    2e3c:	800b883a 	mov	r5,r16
    2e40:	148d883a 	add	r6,r2,r18
    2e44:	81800015 	stw	r6,0(r16)
    2e48:	9ca7883a 	add	r19,r19,r18
    2e4c:	00014480 	call	1448 <__srefill_r>
    2e50:	103c711e 	bne	r2,zero,2018 <__svfscanf_r+0x5cc>
    2e54:	d900a317 	ldw	r4,652(sp)
    2e58:	2489c83a 	sub	r4,r4,r18
    2e5c:	d900a315 	stw	r4,652(sp)
    2e60:	84800117 	ldw	r18,4(r16)
    2e64:	d8c0a317 	ldw	r3,652(sp)
    2e68:	90fff216 	blt	r18,r3,2e34 <__svfscanf_r+0x13e8>
    2e6c:	d900a317 	ldw	r4,652(sp)
    2e70:	80800017 	ldw	r2,0(r16)
    2e74:	9927883a 	add	r19,r19,r4
    2e78:	9107c83a 	sub	r3,r18,r4
    2e7c:	110d883a 	add	r6,r2,r4
    2e80:	8ce3883a 	add	r17,r17,r19
    2e84:	80c00115 	stw	r3,4(r16)
    2e88:	81800015 	stw	r6,0(r16)
    2e8c:	003b0206 	br	1a98 <__svfscanf_r+0x4c>
    2e90:	d880a417 	ldw	r2,656(sp)
    2e94:	d980a317 	ldw	r6,652(sp)
    2e98:	01400044 	movi	r5,1
    2e9c:	11000017 	ldw	r4,0(r2)
    2ea0:	800f883a 	mov	r7,r16
    2ea4:	00038040 	call	3804 <fread>
    2ea8:	103b3d26 	beq	r2,zero,1ba0 <__svfscanf_r+0x154>
    2eac:	d8c0a417 	ldw	r3,656(sp)
    2eb0:	d900a217 	ldw	r4,648(sp)
    2eb4:	88a3883a 	add	r17,r17,r2
    2eb8:	18c00104 	addi	r3,r3,4
    2ebc:	21000044 	addi	r4,r4,1
    2ec0:	d8c0a415 	stw	r3,656(sp)
    2ec4:	d900a215 	stw	r4,648(sp)
    2ec8:	003af306 	br	1a98 <__svfscanf_r+0x4c>
    2ecc:	8080030b 	ldhu	r2,12(r16)
    2ed0:	1080100c 	andi	r2,r2,64
    2ed4:	103b1226 	beq	r2,zero,1b20 <__svfscanf_r+0xd4>
    2ed8:	003b3306 	br	1ba8 <__svfscanf_r+0x15c>
    2edc:	983b1026 	beq	r19,zero,1b20 <__svfscanf_r+0xd4>
    2ee0:	8ce3883a 	add	r17,r17,r19
    2ee4:	003aec06 	br	1a98 <__svfscanf_r+0x4c>
    2ee8:	983c9626 	beq	r19,zero,2144 <__svfscanf_r+0x6f8>
    2eec:	9cffffc4 	addi	r19,r19,-1
    2ef0:	d8c04404 	addi	r3,sp,272
    2ef4:	1cc5883a 	add	r2,r3,r19
    2ef8:	11400003 	ldbu	r5,0(r2)
    2efc:	b009883a 	mov	r4,r22
    2f00:	800d883a 	mov	r6,r16
    2f04:	00070fc0 	call	70fc <_ungetc_r>
    2f08:	003ff706 	br	2ee8 <__svfscanf_r+0x149c>
    2f0c:	00bfff84 	movi	r2,-2
    2f10:	18bc7a1e 	bne	r3,r2,20fc <__svfscanf_r+0x6b0>
    2f14:	003c8406 	br	2128 <__svfscanf_r+0x6dc>
    2f18:	d900a417 	ldw	r4,656(sp)
    2f1c:	25400017 	ldw	r21,0(r4)
    2f20:	21000104 	addi	r4,r4,4
    2f24:	d900a415 	stw	r4,656(sp)
    2f28:	003c4a06 	br	2054 <__svfscanf_r+0x608>
    2f2c:	00bfff84 	movi	r2,-2
    2f30:	18bc0f1e 	bne	r3,r2,1f70 <__svfscanf_r+0x524>
    2f34:	003c1506 	br	1f8c <__svfscanf_r+0x540>
    2f38:	b009883a 	mov	r4,r22
    2f3c:	800b883a 	mov	r5,r16
    2f40:	00014480 	call	1448 <__srefill_r>
    2f44:	103c1326 	beq	r2,zero,1f94 <__svfscanf_r+0x548>
    2f48:	903b151e 	bne	r18,zero,1ba0 <__svfscanf_r+0x154>
    2f4c:	a83ad21e 	bne	r21,zero,1a98 <__svfscanf_r+0x4c>
    2f50:	d880a217 	ldw	r2,648(sp)
    2f54:	10800044 	addi	r2,r2,1
    2f58:	d880a215 	stw	r2,648(sp)
    2f5c:	003ace06 	br	1a98 <__svfscanf_r+0x4c>
    2f60:	0027883a 	mov	r19,zero
    2f64:	003bdd06 	br	1edc <__svfscanf_r+0x490>
    2f68:	9cc00114 	ori	r19,r19,4
    2f6c:	003b1306 	br	1bbc <__svfscanf_r+0x170>
    2f70:	05400104 	movi	r21,4
    2f74:	003ba306 	br	1e04 <__svfscanf_r+0x3b8>
    2f78:	9cc00054 	ori	r19,r19,1
    2f7c:	00800034 	movhi	r2,0
    2f80:	10995704 	addi	r2,r2,25948
    2f84:	00c00284 	movi	r3,10
    2f88:	054000c4 	movi	r21,3
    2f8c:	d880a015 	stw	r2,640(sp)
    2f90:	d8c0a115 	stw	r3,644(sp)
    2f94:	003b9b06 	br	1e04 <__svfscanf_r+0x3b8>
    2f98:	9cc01014 	ori	r19,r19,64
    2f9c:	002b883a 	mov	r21,zero
    2fa0:	003b9806 	br	1e04 <__svfscanf_r+0x3b8>
    2fa4:	a00b883a 	mov	r5,r20
    2fa8:	d9000404 	addi	r4,sp,16
    2fac:	0004c980 	call	4c98 <__sccl>
    2fb0:	1029883a 	mov	r20,r2
    2fb4:	9cc01014 	ori	r19,r19,64
    2fb8:	05400044 	movi	r21,1
    2fbc:	003b9106 	br	1e04 <__svfscanf_r+0x3b8>
    2fc0:	9cc00054 	ori	r19,r19,1
    2fc4:	00800204 	movi	r2,8
    2fc8:	00c00034 	movhi	r3,0
    2fcc:	18dab704 	addi	r3,r3,27356
    2fd0:	054000c4 	movi	r21,3
    2fd4:	d880a115 	stw	r2,644(sp)
    2fd8:	d8c0a015 	stw	r3,640(sp)
    2fdc:	003b8906 	br	1e04 <__svfscanf_r+0x3b8>
    2fe0:	9880040c 	andi	r2,r19,16
    2fe4:	103aac1e 	bne	r2,zero,1a98 <__svfscanf_r+0x4c>
    2fe8:	9880010c 	andi	r2,r19,4
    2fec:	10002426 	beq	r2,zero,3080 <__svfscanf_r+0x1634>
    2ff0:	d900a417 	ldw	r4,656(sp)
    2ff4:	20800017 	ldw	r2,0(r4)
    2ff8:	21000104 	addi	r4,r4,4
    2ffc:	d900a415 	stw	r4,656(sp)
    3000:	1440000d 	sth	r17,0(r2)
    3004:	003aa406 	br	1a98 <__svfscanf_r+0x4c>
    3008:	9cc00094 	ori	r19,r19,2
    300c:	003aeb06 	br	1bbc <__svfscanf_r+0x170>
    3010:	05400084 	movi	r21,2
    3014:	003b7b06 	br	1e04 <__svfscanf_r+0x3b8>
    3018:	00800404 	movi	r2,16
    301c:	00c00034 	movhi	r3,0
    3020:	18dab704 	addi	r3,r3,27356
    3024:	9cc08814 	ori	r19,r19,544
    3028:	054000c4 	movi	r21,3
    302c:	d880a115 	stw	r2,644(sp)
    3030:	d8c0a015 	stw	r3,640(sp)
    3034:	003b7306 	br	1e04 <__svfscanf_r+0x3b8>
    3038:	0009883a 	mov	r4,zero
    303c:	0004d580 	call	4d58 <nanf>
    3040:	b8800015 	stw	r2,0(r23)
    3044:	003d2706 	br	24e4 <__svfscanf_r+0xa98>
    3048:	a0c00007 	ldb	r3,0(r20)
    304c:	00801b04 	movi	r2,108
    3050:	18800826 	beq	r3,r2,3074 <__svfscanf_r+0x1628>
    3054:	9cc00054 	ori	r19,r19,1
    3058:	003ad806 	br	1bbc <__svfscanf_r+0x170>
    305c:	01000034 	movhi	r4,0
    3060:	21195704 	addi	r4,r4,25948
    3064:	054000c4 	movi	r21,3
    3068:	d900a015 	stw	r4,640(sp)
    306c:	d800a115 	stw	zero,644(sp)
    3070:	003b6406 	br	1e04 <__svfscanf_r+0x3b8>
    3074:	a5000044 	addi	r20,r20,1
    3078:	9cc00094 	ori	r19,r19,2
    307c:	003acf06 	br	1bbc <__svfscanf_r+0x170>
    3080:	9880004c 	andi	r2,r19,1
    3084:	1005003a 	cmpeq	r2,r2,zero
    3088:	10000a26 	beq	r2,zero,30b4 <__svfscanf_r+0x1668>
    308c:	9880008c 	andi	r2,r19,2
    3090:	10000826 	beq	r2,zero,30b4 <__svfscanf_r+0x1668>
    3094:	d900a417 	ldw	r4,656(sp)
    3098:	8807d7fa 	srai	r3,r17,31
    309c:	20800017 	ldw	r2,0(r4)
    30a0:	21000104 	addi	r4,r4,4
    30a4:	d900a415 	stw	r4,656(sp)
    30a8:	14400015 	stw	r17,0(r2)
    30ac:	10c00115 	stw	r3,4(r2)
    30b0:	003a7906 	br	1a98 <__svfscanf_r+0x4c>
    30b4:	d8c0a417 	ldw	r3,656(sp)
    30b8:	18800017 	ldw	r2,0(r3)
    30bc:	18c00104 	addi	r3,r3,4
    30c0:	d8c0a415 	stw	r3,656(sp)
    30c4:	14400015 	stw	r17,0(r2)
    30c8:	003a7306 	br	1a98 <__svfscanf_r+0x4c>

000030cc <__svfscanf>:
    30cc:	00800074 	movhi	r2,1
    30d0:	108f6704 	addi	r2,r2,15772
    30d4:	2013883a 	mov	r9,r4
    30d8:	11000017 	ldw	r4,0(r2)
    30dc:	2805883a 	mov	r2,r5
    30e0:	300f883a 	mov	r7,r6
    30e4:	480b883a 	mov	r5,r9
    30e8:	100d883a 	mov	r6,r2
    30ec:	0001a4c1 	jmpi	1a4c <__svfscanf_r>

000030f0 <_vfscanf_r>:
    30f0:	defffb04 	addi	sp,sp,-20
    30f4:	dcc00315 	stw	r19,12(sp)
    30f8:	dc800215 	stw	r18,8(sp)
    30fc:	dc400115 	stw	r17,4(sp)
    3100:	dc000015 	stw	r16,0(sp)
    3104:	dfc00415 	stw	ra,16(sp)
    3108:	2021883a 	mov	r16,r4
    310c:	2823883a 	mov	r17,r5
    3110:	3025883a 	mov	r18,r6
    3114:	3827883a 	mov	r19,r7
    3118:	20000226 	beq	r4,zero,3124 <_vfscanf_r+0x34>
    311c:	20800e17 	ldw	r2,56(r4)
    3120:	10000b26 	beq	r2,zero,3150 <_vfscanf_r+0x60>
    3124:	8009883a 	mov	r4,r16
    3128:	880b883a 	mov	r5,r17
    312c:	900d883a 	mov	r6,r18
    3130:	980f883a 	mov	r7,r19
    3134:	dfc00417 	ldw	ra,16(sp)
    3138:	dcc00317 	ldw	r19,12(sp)
    313c:	dc800217 	ldw	r18,8(sp)
    3140:	dc400117 	ldw	r17,4(sp)
    3144:	dc000017 	ldw	r16,0(sp)
    3148:	dec00504 	addi	sp,sp,20
    314c:	0001a4c1 	jmpi	1a4c <__svfscanf_r>
    3150:	00006600 	call	660 <__sinit>
    3154:	003ff306 	br	3124 <_vfscanf_r+0x34>

00003158 <vfscanf>:
    3158:	defffb04 	addi	sp,sp,-20
    315c:	dcc00315 	stw	r19,12(sp)
    3160:	04c00074 	movhi	r19,1
    3164:	9ccf6704 	addi	r19,r19,15772
    3168:	98c00017 	ldw	r3,0(r19)
    316c:	dc800215 	stw	r18,8(sp)
    3170:	dc400115 	stw	r17,4(sp)
    3174:	dc000015 	stw	r16,0(sp)
    3178:	dfc00415 	stw	ra,16(sp)
    317c:	2021883a 	mov	r16,r4
    3180:	2823883a 	mov	r17,r5
    3184:	3025883a 	mov	r18,r6
    3188:	18000326 	beq	r3,zero,3198 <vfscanf+0x40>
    318c:	18800e17 	ldw	r2,56(r3)
    3190:	1809883a 	mov	r4,r3
    3194:	10000b26 	beq	r2,zero,31c4 <vfscanf+0x6c>
    3198:	99000017 	ldw	r4,0(r19)
    319c:	800b883a 	mov	r5,r16
    31a0:	880d883a 	mov	r6,r17
    31a4:	900f883a 	mov	r7,r18
    31a8:	dfc00417 	ldw	ra,16(sp)
    31ac:	dcc00317 	ldw	r19,12(sp)
    31b0:	dc800217 	ldw	r18,8(sp)
    31b4:	dc400117 	ldw	r17,4(sp)
    31b8:	dc000017 	ldw	r16,0(sp)
    31bc:	dec00504 	addi	sp,sp,20
    31c0:	0001a4c1 	jmpi	1a4c <__svfscanf_r>
    31c4:	00006600 	call	660 <__sinit>
    31c8:	003ff306 	br	3198 <vfscanf+0x40>

000031cc <_write_r>:
    31cc:	defffd04 	addi	sp,sp,-12
    31d0:	dc000015 	stw	r16,0(sp)
    31d4:	04000074 	movhi	r16,1
    31d8:	84161d04 	addi	r16,r16,22644
    31dc:	dc400115 	stw	r17,4(sp)
    31e0:	80000015 	stw	zero,0(r16)
    31e4:	2023883a 	mov	r17,r4
    31e8:	2809883a 	mov	r4,r5
    31ec:	300b883a 	mov	r5,r6
    31f0:	380d883a 	mov	r6,r7
    31f4:	dfc00215 	stw	ra,8(sp)
    31f8:	000fbcc0 	call	fbcc <write>
    31fc:	1007883a 	mov	r3,r2
    3200:	00bfffc4 	movi	r2,-1
    3204:	18800626 	beq	r3,r2,3220 <_write_r+0x54>
    3208:	1805883a 	mov	r2,r3
    320c:	dfc00217 	ldw	ra,8(sp)
    3210:	dc400117 	ldw	r17,4(sp)
    3214:	dc000017 	ldw	r16,0(sp)
    3218:	dec00304 	addi	sp,sp,12
    321c:	f800283a 	ret
    3220:	80800017 	ldw	r2,0(r16)
    3224:	103ff826 	beq	r2,zero,3208 <_write_r+0x3c>
    3228:	88800015 	stw	r2,0(r17)
    322c:	1805883a 	mov	r2,r3
    3230:	dfc00217 	ldw	ra,8(sp)
    3234:	dc400117 	ldw	r17,4(sp)
    3238:	dc000017 	ldw	r16,0(sp)
    323c:	dec00304 	addi	sp,sp,12
    3240:	f800283a 	ret

00003244 <_close_r>:
    3244:	defffd04 	addi	sp,sp,-12
    3248:	dc000015 	stw	r16,0(sp)
    324c:	04000074 	movhi	r16,1
    3250:	84161d04 	addi	r16,r16,22644
    3254:	dc400115 	stw	r17,4(sp)
    3258:	80000015 	stw	zero,0(r16)
    325c:	2023883a 	mov	r17,r4
    3260:	2809883a 	mov	r4,r5
    3264:	dfc00215 	stw	ra,8(sp)
    3268:	000f26c0 	call	f26c <close>
    326c:	1007883a 	mov	r3,r2
    3270:	00bfffc4 	movi	r2,-1
    3274:	18800626 	beq	r3,r2,3290 <_close_r+0x4c>
    3278:	1805883a 	mov	r2,r3
    327c:	dfc00217 	ldw	ra,8(sp)
    3280:	dc400117 	ldw	r17,4(sp)
    3284:	dc000017 	ldw	r16,0(sp)
    3288:	dec00304 	addi	sp,sp,12
    328c:	f800283a 	ret
    3290:	80800017 	ldw	r2,0(r16)
    3294:	103ff826 	beq	r2,zero,3278 <_close_r+0x34>
    3298:	88800015 	stw	r2,0(r17)
    329c:	1805883a 	mov	r2,r3
    32a0:	dfc00217 	ldw	ra,8(sp)
    32a4:	dc400117 	ldw	r17,4(sp)
    32a8:	dc000017 	ldw	r16,0(sp)
    32ac:	dec00304 	addi	sp,sp,12
    32b0:	f800283a 	ret

000032b4 <_fclose_r>:
    32b4:	defffc04 	addi	sp,sp,-16
    32b8:	dc400115 	stw	r17,4(sp)
    32bc:	dc000015 	stw	r16,0(sp)
    32c0:	dfc00315 	stw	ra,12(sp)
    32c4:	dc800215 	stw	r18,8(sp)
    32c8:	2821883a 	mov	r16,r5
    32cc:	2023883a 	mov	r17,r4
    32d0:	28002926 	beq	r5,zero,3378 <_fclose_r+0xc4>
    32d4:	00006500 	call	650 <__sfp_lock_acquire>
    32d8:	88000226 	beq	r17,zero,32e4 <_fclose_r+0x30>
    32dc:	88800e17 	ldw	r2,56(r17)
    32e0:	10002d26 	beq	r2,zero,3398 <_fclose_r+0xe4>
    32e4:	8080030f 	ldh	r2,12(r16)
    32e8:	10002226 	beq	r2,zero,3374 <_fclose_r+0xc0>
    32ec:	8809883a 	mov	r4,r17
    32f0:	800b883a 	mov	r5,r16
    32f4:	00033d80 	call	33d8 <_fflush_r>
    32f8:	1025883a 	mov	r18,r2
    32fc:	80800b17 	ldw	r2,44(r16)
    3300:	10000426 	beq	r2,zero,3314 <_fclose_r+0x60>
    3304:	81400717 	ldw	r5,28(r16)
    3308:	8809883a 	mov	r4,r17
    330c:	103ee83a 	callr	r2
    3310:	10002a16 	blt	r2,zero,33bc <_fclose_r+0x108>
    3314:	8080030b 	ldhu	r2,12(r16)
    3318:	1080200c 	andi	r2,r2,128
    331c:	1000231e 	bne	r2,zero,33ac <_fclose_r+0xf8>
    3320:	81400c17 	ldw	r5,48(r16)
    3324:	28000526 	beq	r5,zero,333c <_fclose_r+0x88>
    3328:	80801004 	addi	r2,r16,64
    332c:	28800226 	beq	r5,r2,3338 <_fclose_r+0x84>
    3330:	8809883a 	mov	r4,r17
    3334:	00039700 	call	3970 <_free_r>
    3338:	80000c15 	stw	zero,48(r16)
    333c:	81401117 	ldw	r5,68(r16)
    3340:	28000326 	beq	r5,zero,3350 <_fclose_r+0x9c>
    3344:	8809883a 	mov	r4,r17
    3348:	00039700 	call	3970 <_free_r>
    334c:	80001115 	stw	zero,68(r16)
    3350:	8000030d 	sth	zero,12(r16)
    3354:	00006540 	call	654 <__sfp_lock_release>
    3358:	9005883a 	mov	r2,r18
    335c:	dfc00317 	ldw	ra,12(sp)
    3360:	dc800217 	ldw	r18,8(sp)
    3364:	dc400117 	ldw	r17,4(sp)
    3368:	dc000017 	ldw	r16,0(sp)
    336c:	dec00404 	addi	sp,sp,16
    3370:	f800283a 	ret
    3374:	00006540 	call	654 <__sfp_lock_release>
    3378:	0025883a 	mov	r18,zero
    337c:	9005883a 	mov	r2,r18
    3380:	dfc00317 	ldw	ra,12(sp)
    3384:	dc800217 	ldw	r18,8(sp)
    3388:	dc400117 	ldw	r17,4(sp)
    338c:	dc000017 	ldw	r16,0(sp)
    3390:	dec00404 	addi	sp,sp,16
    3394:	f800283a 	ret
    3398:	8809883a 	mov	r4,r17
    339c:	00006600 	call	660 <__sinit>
    33a0:	8080030f 	ldh	r2,12(r16)
    33a4:	103fd11e 	bne	r2,zero,32ec <_fclose_r+0x38>
    33a8:	003ff206 	br	3374 <_fclose_r+0xc0>
    33ac:	81400417 	ldw	r5,16(r16)
    33b0:	8809883a 	mov	r4,r17
    33b4:	00039700 	call	3970 <_free_r>
    33b8:	003fd906 	br	3320 <_fclose_r+0x6c>
    33bc:	04bfffc4 	movi	r18,-1
    33c0:	003fd406 	br	3314 <_fclose_r+0x60>

000033c4 <fclose>:
    33c4:	00800074 	movhi	r2,1
    33c8:	108f6704 	addi	r2,r2,15772
    33cc:	200b883a 	mov	r5,r4
    33d0:	11000017 	ldw	r4,0(r2)
    33d4:	00032b41 	jmpi	32b4 <_fclose_r>

000033d8 <_fflush_r>:
    33d8:	defffb04 	addi	sp,sp,-20
    33dc:	dcc00315 	stw	r19,12(sp)
    33e0:	dc800215 	stw	r18,8(sp)
    33e4:	dfc00415 	stw	ra,16(sp)
    33e8:	dc400115 	stw	r17,4(sp)
    33ec:	dc000015 	stw	r16,0(sp)
    33f0:	2027883a 	mov	r19,r4
    33f4:	2825883a 	mov	r18,r5
    33f8:	20000226 	beq	r4,zero,3404 <_fflush_r+0x2c>
    33fc:	20800e17 	ldw	r2,56(r4)
    3400:	10005626 	beq	r2,zero,355c <_fflush_r+0x184>
    3404:	9100030b 	ldhu	r4,12(r18)
    3408:	20ffffcc 	andi	r3,r4,65535
    340c:	18e0001c 	xori	r3,r3,32768
    3410:	18e00004 	addi	r3,r3,-32768
    3414:	1880020c 	andi	r2,r3,8
    3418:	1000261e 	bne	r2,zero,34b4 <_fflush_r+0xdc>
    341c:	90c00117 	ldw	r3,4(r18)
    3420:	20820014 	ori	r2,r4,2048
    3424:	9080030d 	sth	r2,12(r18)
    3428:	1009883a 	mov	r4,r2
    342c:	00c0400e 	bge	zero,r3,3530 <_fflush_r+0x158>
    3430:	92000a17 	ldw	r8,40(r18)
    3434:	40004026 	beq	r8,zero,3538 <_fflush_r+0x160>
    3438:	2084000c 	andi	r2,r4,4096
    343c:	10005326 	beq	r2,zero,358c <_fflush_r+0x1b4>
    3440:	94001417 	ldw	r16,80(r18)
    3444:	9080030b 	ldhu	r2,12(r18)
    3448:	1080010c 	andi	r2,r2,4
    344c:	1000481e 	bne	r2,zero,3570 <_fflush_r+0x198>
    3450:	91400717 	ldw	r5,28(r18)
    3454:	9809883a 	mov	r4,r19
    3458:	800d883a 	mov	r6,r16
    345c:	000f883a 	mov	r7,zero
    3460:	403ee83a 	callr	r8
    3464:	8080261e 	bne	r16,r2,3500 <_fflush_r+0x128>
    3468:	9080030b 	ldhu	r2,12(r18)
    346c:	91000417 	ldw	r4,16(r18)
    3470:	90000115 	stw	zero,4(r18)
    3474:	10bdffcc 	andi	r2,r2,63487
    3478:	10ffffcc 	andi	r3,r2,65535
    347c:	18c4000c 	andi	r3,r3,4096
    3480:	9080030d 	sth	r2,12(r18)
    3484:	91000015 	stw	r4,0(r18)
    3488:	18002b26 	beq	r3,zero,3538 <_fflush_r+0x160>
    348c:	0007883a 	mov	r3,zero
    3490:	1805883a 	mov	r2,r3
    3494:	94001415 	stw	r16,80(r18)
    3498:	dfc00417 	ldw	ra,16(sp)
    349c:	dcc00317 	ldw	r19,12(sp)
    34a0:	dc800217 	ldw	r18,8(sp)
    34a4:	dc400117 	ldw	r17,4(sp)
    34a8:	dc000017 	ldw	r16,0(sp)
    34ac:	dec00504 	addi	sp,sp,20
    34b0:	f800283a 	ret
    34b4:	94400417 	ldw	r17,16(r18)
    34b8:	88001f26 	beq	r17,zero,3538 <_fflush_r+0x160>
    34bc:	90800017 	ldw	r2,0(r18)
    34c0:	18c000cc 	andi	r3,r3,3
    34c4:	94400015 	stw	r17,0(r18)
    34c8:	1461c83a 	sub	r16,r2,r17
    34cc:	18002526 	beq	r3,zero,3564 <_fflush_r+0x18c>
    34d0:	0005883a 	mov	r2,zero
    34d4:	90800215 	stw	r2,8(r18)
    34d8:	0400170e 	bge	zero,r16,3538 <_fflush_r+0x160>
    34dc:	90c00917 	ldw	r3,36(r18)
    34e0:	91400717 	ldw	r5,28(r18)
    34e4:	880d883a 	mov	r6,r17
    34e8:	800f883a 	mov	r7,r16
    34ec:	9809883a 	mov	r4,r19
    34f0:	183ee83a 	callr	r3
    34f4:	88a3883a 	add	r17,r17,r2
    34f8:	80a1c83a 	sub	r16,r16,r2
    34fc:	00bff616 	blt	zero,r2,34d8 <_fflush_r+0x100>
    3500:	9080030b 	ldhu	r2,12(r18)
    3504:	00ffffc4 	movi	r3,-1
    3508:	10801014 	ori	r2,r2,64
    350c:	9080030d 	sth	r2,12(r18)
    3510:	1805883a 	mov	r2,r3
    3514:	dfc00417 	ldw	ra,16(sp)
    3518:	dcc00317 	ldw	r19,12(sp)
    351c:	dc800217 	ldw	r18,8(sp)
    3520:	dc400117 	ldw	r17,4(sp)
    3524:	dc000017 	ldw	r16,0(sp)
    3528:	dec00504 	addi	sp,sp,20
    352c:	f800283a 	ret
    3530:	90800f17 	ldw	r2,60(r18)
    3534:	00bfbe16 	blt	zero,r2,3430 <_fflush_r+0x58>
    3538:	0007883a 	mov	r3,zero
    353c:	1805883a 	mov	r2,r3
    3540:	dfc00417 	ldw	ra,16(sp)
    3544:	dcc00317 	ldw	r19,12(sp)
    3548:	dc800217 	ldw	r18,8(sp)
    354c:	dc400117 	ldw	r17,4(sp)
    3550:	dc000017 	ldw	r16,0(sp)
    3554:	dec00504 	addi	sp,sp,20
    3558:	f800283a 	ret
    355c:	00006600 	call	660 <__sinit>
    3560:	003fa806 	br	3404 <_fflush_r+0x2c>
    3564:	90800517 	ldw	r2,20(r18)
    3568:	90800215 	stw	r2,8(r18)
    356c:	003fda06 	br	34d8 <_fflush_r+0x100>
    3570:	90800117 	ldw	r2,4(r18)
    3574:	90c00c17 	ldw	r3,48(r18)
    3578:	80a1c83a 	sub	r16,r16,r2
    357c:	183fb426 	beq	r3,zero,3450 <_fflush_r+0x78>
    3580:	90800f17 	ldw	r2,60(r18)
    3584:	80a1c83a 	sub	r16,r16,r2
    3588:	003fb106 	br	3450 <_fflush_r+0x78>
    358c:	91400717 	ldw	r5,28(r18)
    3590:	9809883a 	mov	r4,r19
    3594:	000d883a 	mov	r6,zero
    3598:	01c00044 	movi	r7,1
    359c:	403ee83a 	callr	r8
    35a0:	1021883a 	mov	r16,r2
    35a4:	00bfffc4 	movi	r2,-1
    35a8:	80800226 	beq	r16,r2,35b4 <_fflush_r+0x1dc>
    35ac:	92000a17 	ldw	r8,40(r18)
    35b0:	003fa406 	br	3444 <_fflush_r+0x6c>
    35b4:	98c00017 	ldw	r3,0(r19)
    35b8:	00800744 	movi	r2,29
    35bc:	18bfde26 	beq	r3,r2,3538 <_fflush_r+0x160>
    35c0:	9080030b 	ldhu	r2,12(r18)
    35c4:	8007883a 	mov	r3,r16
    35c8:	10801014 	ori	r2,r2,64
    35cc:	9080030d 	sth	r2,12(r18)
    35d0:	003fcf06 	br	3510 <_fflush_r+0x138>

000035d4 <fflush>:
    35d4:	01400034 	movhi	r5,0
    35d8:	294cf604 	addi	r5,r5,13272
    35dc:	2007883a 	mov	r3,r4
    35e0:	20000526 	beq	r4,zero,35f8 <fflush+0x24>
    35e4:	00800074 	movhi	r2,1
    35e8:	108f6704 	addi	r2,r2,15772
    35ec:	11000017 	ldw	r4,0(r2)
    35f0:	180b883a 	mov	r5,r3
    35f4:	00033d81 	jmpi	33d8 <_fflush_r>
    35f8:	00800074 	movhi	r2,1
    35fc:	108f6804 	addi	r2,r2,15776
    3600:	11000017 	ldw	r4,0(r2)
    3604:	00008b81 	jmpi	8b8 <_fwalk_reent>

00003608 <_fread_r>:
    3608:	defff504 	addi	sp,sp,-44
    360c:	ddc00815 	stw	r23,32(sp)
    3610:	39af383a 	mul	r23,r7,r6
    3614:	df000915 	stw	fp,36(sp)
    3618:	dd800715 	stw	r22,28(sp)
    361c:	dcc00415 	stw	r19,16(sp)
    3620:	dc000115 	stw	r16,4(sp)
    3624:	dfc00a15 	stw	ra,40(sp)
    3628:	dd400615 	stw	r21,24(sp)
    362c:	dd000515 	stw	r20,20(sp)
    3630:	dc800315 	stw	r18,12(sp)
    3634:	dc400215 	stw	r17,8(sp)
    3638:	d9800015 	stw	r6,0(sp)
    363c:	3839883a 	mov	fp,r7
    3640:	2821883a 	mov	r16,r5
    3644:	202d883a 	mov	r22,r4
    3648:	dcc00b17 	ldw	r19,44(sp)
    364c:	b8005926 	beq	r23,zero,37b4 <_fread_r+0x1ac>
    3650:	20000226 	beq	r4,zero,365c <_fread_r+0x54>
    3654:	20800e17 	ldw	r2,56(r4)
    3658:	10005826 	beq	r2,zero,37bc <_fread_r+0x1b4>
    365c:	9c400117 	ldw	r17,4(r19)
    3660:	88005916 	blt	r17,zero,37c8 <_fread_r+0x1c0>
    3664:	9880030b 	ldhu	r2,12(r19)
    3668:	8029883a 	mov	r20,r16
    366c:	1080008c 	andi	r2,r2,2
    3670:	1000221e 	bne	r2,zero,36fc <_fread_r+0xf4>
    3674:	b825883a 	mov	r18,r23
    3678:	00000106 	br	3680 <_fread_r+0x78>
    367c:	9c400117 	ldw	r17,4(r19)
    3680:	a009883a 	mov	r4,r20
    3684:	880d883a 	mov	r6,r17
    3688:	8c80542e 	bgeu	r17,r18,37dc <_fread_r+0x1d4>
    368c:	99400017 	ldw	r5,0(r19)
    3690:	a469883a 	add	r20,r20,r17
    3694:	9465c83a 	sub	r18,r18,r17
    3698:	000125c0 	call	125c <memcpy>
    369c:	98800017 	ldw	r2,0(r19)
    36a0:	b009883a 	mov	r4,r22
    36a4:	980b883a 	mov	r5,r19
    36a8:	1461883a 	add	r16,r2,r17
    36ac:	9c000015 	stw	r16,0(r19)
    36b0:	00014480 	call	1448 <__srefill_r>
    36b4:	103ff126 	beq	r2,zero,367c <_fread_r+0x74>
    36b8:	d9400017 	ldw	r5,0(sp)
    36bc:	bc89c83a 	sub	r4,r23,r18
    36c0:	000e9cc0 	call	e9cc <__udivsi3>
    36c4:	1039883a 	mov	fp,r2
    36c8:	e005883a 	mov	r2,fp
    36cc:	dfc00a17 	ldw	ra,40(sp)
    36d0:	df000917 	ldw	fp,36(sp)
    36d4:	ddc00817 	ldw	r23,32(sp)
    36d8:	dd800717 	ldw	r22,28(sp)
    36dc:	dd400617 	ldw	r21,24(sp)
    36e0:	dd000517 	ldw	r20,20(sp)
    36e4:	dcc00417 	ldw	r19,16(sp)
    36e8:	dc800317 	ldw	r18,12(sp)
    36ec:	dc400217 	ldw	r17,8(sp)
    36f0:	dc000117 	ldw	r16,4(sp)
    36f4:	dec00b04 	addi	sp,sp,44
    36f8:	f800283a 	ret
    36fc:	b825883a 	mov	r18,r23
    3700:	8dc03436 	bltu	r17,r23,37d4 <_fread_r+0x1cc>
    3704:	99400017 	ldw	r5,0(r19)
    3708:	a009883a 	mov	r4,r20
    370c:	900d883a 	mov	r6,r18
    3710:	000125c0 	call	125c <memcpy>
    3714:	9c000017 	ldw	r16,0(r19)
    3718:	98800117 	ldw	r2,4(r19)
    371c:	99400c17 	ldw	r5,48(r19)
    3720:	84a1883a 	add	r16,r16,r18
    3724:	14a3c83a 	sub	r17,r2,r18
    3728:	a4ab883a 	add	r21,r20,r18
    372c:	9c400115 	stw	r17,4(r19)
    3730:	9c000015 	stw	r16,0(r19)
    3734:	bca9c83a 	sub	r20,r23,r18
    3738:	28000826 	beq	r5,zero,375c <_fread_r+0x154>
    373c:	a03fe226 	beq	r20,zero,36c8 <_fread_r+0xc0>
    3740:	98801004 	addi	r2,r19,64
    3744:	28800326 	beq	r5,r2,3754 <_fread_r+0x14c>
    3748:	b009883a 	mov	r4,r22
    374c:	00039700 	call	3970 <_free_r>
    3750:	9c000017 	ldw	r16,0(r19)
    3754:	98000c15 	stw	zero,48(r19)
    3758:	00000106 	br	3760 <_fread_r+0x158>
    375c:	a03fda26 	beq	r20,zero,36c8 <_fread_r+0xc0>
    3760:	9c800417 	ldw	r18,16(r19)
    3764:	9c400517 	ldw	r17,20(r19)
    3768:	9d400015 	stw	r21,0(r19)
    376c:	9d400415 	stw	r21,16(r19)
    3770:	9d000515 	stw	r20,20(r19)
    3774:	b009883a 	mov	r4,r22
    3778:	980b883a 	mov	r5,r19
    377c:	00014480 	call	1448 <__srefill_r>
    3780:	98c00117 	ldw	r3,4(r19)
    3784:	9c800415 	stw	r18,16(r19)
    3788:	9c400515 	stw	r17,20(r19)
    378c:	a8eb883a 	add	r21,r21,r3
    3790:	9c000015 	stw	r16,0(r19)
    3794:	a0e9c83a 	sub	r20,r20,r3
    3798:	98000115 	stw	zero,4(r19)
    379c:	103fef26 	beq	r2,zero,375c <_fread_r+0x154>
    37a0:	d9400017 	ldw	r5,0(sp)
    37a4:	bd09c83a 	sub	r4,r23,r20
    37a8:	000e9cc0 	call	e9cc <__udivsi3>
    37ac:	1039883a 	mov	fp,r2
    37b0:	003fc506 	br	36c8 <_fread_r+0xc0>
    37b4:	0039883a 	mov	fp,zero
    37b8:	003fc306 	br	36c8 <_fread_r+0xc0>
    37bc:	00006600 	call	660 <__sinit>
    37c0:	9c400117 	ldw	r17,4(r19)
    37c4:	883fa70e 	bge	r17,zero,3664 <_fread_r+0x5c>
    37c8:	0023883a 	mov	r17,zero
    37cc:	98000115 	stw	zero,4(r19)
    37d0:	003fa406 	br	3664 <_fread_r+0x5c>
    37d4:	8825883a 	mov	r18,r17
    37d8:	003fca06 	br	3704 <_fread_r+0xfc>
    37dc:	99400017 	ldw	r5,0(r19)
    37e0:	900d883a 	mov	r6,r18
    37e4:	000125c0 	call	125c <memcpy>
    37e8:	98c00117 	ldw	r3,4(r19)
    37ec:	98800017 	ldw	r2,0(r19)
    37f0:	1c87c83a 	sub	r3,r3,r18
    37f4:	1485883a 	add	r2,r2,r18
    37f8:	98800015 	stw	r2,0(r19)
    37fc:	98c00115 	stw	r3,4(r19)
    3800:	003fb106 	br	36c8 <_fread_r+0xc0>

00003804 <fread>:
    3804:	00800074 	movhi	r2,1
    3808:	108f6704 	addi	r2,r2,15772
    380c:	2017883a 	mov	r11,r4
    3810:	11000017 	ldw	r4,0(r2)
    3814:	defffe04 	addi	sp,sp,-8
    3818:	3013883a 	mov	r9,r6
    381c:	2805883a 	mov	r2,r5
    3820:	d9c00015 	stw	r7,0(sp)
    3824:	580b883a 	mov	r5,r11
    3828:	100d883a 	mov	r6,r2
    382c:	480f883a 	mov	r7,r9
    3830:	dfc00115 	stw	ra,4(sp)
    3834:	00036080 	call	3608 <_fread_r>
    3838:	dfc00117 	ldw	ra,4(sp)
    383c:	dec00204 	addi	sp,sp,8
    3840:	f800283a 	ret

00003844 <_malloc_trim_r>:
    3844:	defffb04 	addi	sp,sp,-20
    3848:	dcc00315 	stw	r19,12(sp)
    384c:	04c00074 	movhi	r19,1
    3850:	9cc9d604 	addi	r19,r19,10072
    3854:	dc800215 	stw	r18,8(sp)
    3858:	dc400115 	stw	r17,4(sp)
    385c:	dc000015 	stw	r16,0(sp)
    3860:	2823883a 	mov	r17,r5
    3864:	2025883a 	mov	r18,r4
    3868:	dfc00415 	stw	ra,16(sp)
    386c:	000f8f00 	call	f8f0 <__malloc_lock>
    3870:	98800217 	ldw	r2,8(r19)
    3874:	9009883a 	mov	r4,r18
    3878:	000b883a 	mov	r5,zero
    387c:	10c00117 	ldw	r3,4(r2)
    3880:	00bfff04 	movi	r2,-4
    3884:	18a0703a 	and	r16,r3,r2
    3888:	8463c83a 	sub	r17,r16,r17
    388c:	8c43fbc4 	addi	r17,r17,4079
    3890:	8822d33a 	srli	r17,r17,12
    3894:	0083ffc4 	movi	r2,4095
    3898:	8c7fffc4 	addi	r17,r17,-1
    389c:	8822933a 	slli	r17,r17,12
    38a0:	1440060e 	bge	r2,r17,38bc <_malloc_trim_r+0x78>
    38a4:	00016280 	call	1628 <_sbrk_r>
    38a8:	98c00217 	ldw	r3,8(r19)
    38ac:	9009883a 	mov	r4,r18
    38b0:	044bc83a 	sub	r5,zero,r17
    38b4:	80c7883a 	add	r3,r16,r3
    38b8:	10c00926 	beq	r2,r3,38e0 <_malloc_trim_r+0x9c>
    38bc:	000f9100 	call	f910 <__malloc_unlock>
    38c0:	0005883a 	mov	r2,zero
    38c4:	dfc00417 	ldw	ra,16(sp)
    38c8:	dcc00317 	ldw	r19,12(sp)
    38cc:	dc800217 	ldw	r18,8(sp)
    38d0:	dc400117 	ldw	r17,4(sp)
    38d4:	dc000017 	ldw	r16,0(sp)
    38d8:	dec00504 	addi	sp,sp,20
    38dc:	f800283a 	ret
    38e0:	9009883a 	mov	r4,r18
    38e4:	00016280 	call	1628 <_sbrk_r>
    38e8:	844dc83a 	sub	r6,r16,r17
    38ec:	00ffffc4 	movi	r3,-1
    38f0:	9009883a 	mov	r4,r18
    38f4:	000b883a 	mov	r5,zero
    38f8:	01c00074 	movhi	r7,1
    38fc:	39d62704 	addi	r7,r7,22684
    3900:	31800054 	ori	r6,r6,1
    3904:	10c00926 	beq	r2,r3,392c <_malloc_trim_r+0xe8>
    3908:	38800017 	ldw	r2,0(r7)
    390c:	98c00217 	ldw	r3,8(r19)
    3910:	9009883a 	mov	r4,r18
    3914:	1445c83a 	sub	r2,r2,r17
    3918:	38800015 	stw	r2,0(r7)
    391c:	19800115 	stw	r6,4(r3)
    3920:	000f9100 	call	f910 <__malloc_unlock>
    3924:	00800044 	movi	r2,1
    3928:	003fe606 	br	38c4 <_malloc_trim_r+0x80>
    392c:	00016280 	call	1628 <_sbrk_r>
    3930:	99800217 	ldw	r6,8(r19)
    3934:	100f883a 	mov	r7,r2
    3938:	9009883a 	mov	r4,r18
    393c:	1187c83a 	sub	r3,r2,r6
    3940:	008003c4 	movi	r2,15
    3944:	19400054 	ori	r5,r3,1
    3948:	10ffdc0e 	bge	r2,r3,38bc <_malloc_trim_r+0x78>
    394c:	00800074 	movhi	r2,1
    3950:	108f6a04 	addi	r2,r2,15784
    3954:	10c00017 	ldw	r3,0(r2)
    3958:	00800074 	movhi	r2,1
    395c:	10962704 	addi	r2,r2,22684
    3960:	31400115 	stw	r5,4(r6)
    3964:	38c7c83a 	sub	r3,r7,r3
    3968:	10c00015 	stw	r3,0(r2)
    396c:	003fd306 	br	38bc <_malloc_trim_r+0x78>

00003970 <_free_r>:
    3970:	defffd04 	addi	sp,sp,-12
    3974:	dc400115 	stw	r17,4(sp)
    3978:	dc000015 	stw	r16,0(sp)
    397c:	dfc00215 	stw	ra,8(sp)
    3980:	2821883a 	mov	r16,r5
    3984:	2023883a 	mov	r17,r4
    3988:	28005a26 	beq	r5,zero,3af4 <_free_r+0x184>
    398c:	000f8f00 	call	f8f0 <__malloc_lock>
    3990:	823ffe04 	addi	r8,r16,-8
    3994:	41400117 	ldw	r5,4(r8)
    3998:	00bfff84 	movi	r2,-2
    399c:	02800074 	movhi	r10,1
    39a0:	5289d604 	addi	r10,r10,10072
    39a4:	288e703a 	and	r7,r5,r2
    39a8:	41cd883a 	add	r6,r8,r7
    39ac:	30c00117 	ldw	r3,4(r6)
    39b0:	51000217 	ldw	r4,8(r10)
    39b4:	00bfff04 	movi	r2,-4
    39b8:	1892703a 	and	r9,r3,r2
    39bc:	5017883a 	mov	r11,r10
    39c0:	31006726 	beq	r6,r4,3b60 <_free_r+0x1f0>
    39c4:	2880004c 	andi	r2,r5,1
    39c8:	1005003a 	cmpeq	r2,r2,zero
    39cc:	32400115 	stw	r9,4(r6)
    39d0:	10001a1e 	bne	r2,zero,3a3c <_free_r+0xcc>
    39d4:	000b883a 	mov	r5,zero
    39d8:	3247883a 	add	r3,r6,r9
    39dc:	18800117 	ldw	r2,4(r3)
    39e0:	1080004c 	andi	r2,r2,1
    39e4:	1000231e 	bne	r2,zero,3a74 <_free_r+0x104>
    39e8:	280ac03a 	cmpne	r5,r5,zero
    39ec:	3a4f883a 	add	r7,r7,r9
    39f0:	2800451e 	bne	r5,zero,3b08 <_free_r+0x198>
    39f4:	31000217 	ldw	r4,8(r6)
    39f8:	00800074 	movhi	r2,1
    39fc:	1089d804 	addi	r2,r2,10080
    3a00:	20807b26 	beq	r4,r2,3bf0 <_free_r+0x280>
    3a04:	30800317 	ldw	r2,12(r6)
    3a08:	3a07883a 	add	r3,r7,r8
    3a0c:	19c00015 	stw	r7,0(r3)
    3a10:	11000215 	stw	r4,8(r2)
    3a14:	20800315 	stw	r2,12(r4)
    3a18:	38800054 	ori	r2,r7,1
    3a1c:	40800115 	stw	r2,4(r8)
    3a20:	28001a26 	beq	r5,zero,3a8c <_free_r+0x11c>
    3a24:	8809883a 	mov	r4,r17
    3a28:	dfc00217 	ldw	ra,8(sp)
    3a2c:	dc400117 	ldw	r17,4(sp)
    3a30:	dc000017 	ldw	r16,0(sp)
    3a34:	dec00304 	addi	sp,sp,12
    3a38:	000f9101 	jmpi	f910 <__malloc_unlock>
    3a3c:	80bffe17 	ldw	r2,-8(r16)
    3a40:	50c00204 	addi	r3,r10,8
    3a44:	4091c83a 	sub	r8,r8,r2
    3a48:	41000217 	ldw	r4,8(r8)
    3a4c:	388f883a 	add	r7,r7,r2
    3a50:	20c06126 	beq	r4,r3,3bd8 <_free_r+0x268>
    3a54:	40800317 	ldw	r2,12(r8)
    3a58:	3247883a 	add	r3,r6,r9
    3a5c:	000b883a 	mov	r5,zero
    3a60:	11000215 	stw	r4,8(r2)
    3a64:	20800315 	stw	r2,12(r4)
    3a68:	18800117 	ldw	r2,4(r3)
    3a6c:	1080004c 	andi	r2,r2,1
    3a70:	103fdd26 	beq	r2,zero,39e8 <_free_r+0x78>
    3a74:	38800054 	ori	r2,r7,1
    3a78:	3a07883a 	add	r3,r7,r8
    3a7c:	280ac03a 	cmpne	r5,r5,zero
    3a80:	40800115 	stw	r2,4(r8)
    3a84:	19c00015 	stw	r7,0(r3)
    3a88:	283fe61e 	bne	r5,zero,3a24 <_free_r+0xb4>
    3a8c:	00807fc4 	movi	r2,511
    3a90:	11c01f2e 	bgeu	r2,r7,3b10 <_free_r+0x1a0>
    3a94:	3806d27a 	srli	r3,r7,9
    3a98:	1800481e 	bne	r3,zero,3bbc <_free_r+0x24c>
    3a9c:	3804d0fa 	srli	r2,r7,3
    3aa0:	100690fa 	slli	r3,r2,3
    3aa4:	1acd883a 	add	r6,r3,r11
    3aa8:	31400217 	ldw	r5,8(r6)
    3aac:	31405926 	beq	r6,r5,3c14 <_free_r+0x2a4>
    3ab0:	28800117 	ldw	r2,4(r5)
    3ab4:	00ffff04 	movi	r3,-4
    3ab8:	10c4703a 	and	r2,r2,r3
    3abc:	3880022e 	bgeu	r7,r2,3ac8 <_free_r+0x158>
    3ac0:	29400217 	ldw	r5,8(r5)
    3ac4:	317ffa1e 	bne	r6,r5,3ab0 <_free_r+0x140>
    3ac8:	29800317 	ldw	r6,12(r5)
    3acc:	41800315 	stw	r6,12(r8)
    3ad0:	41400215 	stw	r5,8(r8)
    3ad4:	8809883a 	mov	r4,r17
    3ad8:	2a000315 	stw	r8,12(r5)
    3adc:	32000215 	stw	r8,8(r6)
    3ae0:	dfc00217 	ldw	ra,8(sp)
    3ae4:	dc400117 	ldw	r17,4(sp)
    3ae8:	dc000017 	ldw	r16,0(sp)
    3aec:	dec00304 	addi	sp,sp,12
    3af0:	000f9101 	jmpi	f910 <__malloc_unlock>
    3af4:	dfc00217 	ldw	ra,8(sp)
    3af8:	dc400117 	ldw	r17,4(sp)
    3afc:	dc000017 	ldw	r16,0(sp)
    3b00:	dec00304 	addi	sp,sp,12
    3b04:	f800283a 	ret
    3b08:	31000217 	ldw	r4,8(r6)
    3b0c:	003fbd06 	br	3a04 <_free_r+0x94>
    3b10:	3806d0fa 	srli	r3,r7,3
    3b14:	00800044 	movi	r2,1
    3b18:	51400117 	ldw	r5,4(r10)
    3b1c:	180890fa 	slli	r4,r3,3
    3b20:	1807d0ba 	srai	r3,r3,2
    3b24:	22c9883a 	add	r4,r4,r11
    3b28:	21800217 	ldw	r6,8(r4)
    3b2c:	10c4983a 	sll	r2,r2,r3
    3b30:	41000315 	stw	r4,12(r8)
    3b34:	41800215 	stw	r6,8(r8)
    3b38:	288ab03a 	or	r5,r5,r2
    3b3c:	22000215 	stw	r8,8(r4)
    3b40:	8809883a 	mov	r4,r17
    3b44:	51400115 	stw	r5,4(r10)
    3b48:	32000315 	stw	r8,12(r6)
    3b4c:	dfc00217 	ldw	ra,8(sp)
    3b50:	dc400117 	ldw	r17,4(sp)
    3b54:	dc000017 	ldw	r16,0(sp)
    3b58:	dec00304 	addi	sp,sp,12
    3b5c:	000f9101 	jmpi	f910 <__malloc_unlock>
    3b60:	2880004c 	andi	r2,r5,1
    3b64:	3a4d883a 	add	r6,r7,r9
    3b68:	1000071e 	bne	r2,zero,3b88 <_free_r+0x218>
    3b6c:	80bffe17 	ldw	r2,-8(r16)
    3b70:	4091c83a 	sub	r8,r8,r2
    3b74:	41000317 	ldw	r4,12(r8)
    3b78:	40c00217 	ldw	r3,8(r8)
    3b7c:	308d883a 	add	r6,r6,r2
    3b80:	20c00215 	stw	r3,8(r4)
    3b84:	19000315 	stw	r4,12(r3)
    3b88:	00800074 	movhi	r2,1
    3b8c:	108f6904 	addi	r2,r2,15780
    3b90:	11000017 	ldw	r4,0(r2)
    3b94:	30c00054 	ori	r3,r6,1
    3b98:	52000215 	stw	r8,8(r10)
    3b9c:	40c00115 	stw	r3,4(r8)
    3ba0:	313fa036 	bltu	r6,r4,3a24 <_free_r+0xb4>
    3ba4:	00800074 	movhi	r2,1
    3ba8:	10961a04 	addi	r2,r2,22632
    3bac:	11400017 	ldw	r5,0(r2)
    3bb0:	8809883a 	mov	r4,r17
    3bb4:	00038440 	call	3844 <_malloc_trim_r>
    3bb8:	003f9a06 	br	3a24 <_free_r+0xb4>
    3bbc:	00800104 	movi	r2,4
    3bc0:	10c0072e 	bgeu	r2,r3,3be0 <_free_r+0x270>
    3bc4:	00800504 	movi	r2,20
    3bc8:	10c01936 	bltu	r2,r3,3c30 <_free_r+0x2c0>
    3bcc:	188016c4 	addi	r2,r3,91
    3bd0:	100690fa 	slli	r3,r2,3
    3bd4:	003fb306 	br	3aa4 <_free_r+0x134>
    3bd8:	01400044 	movi	r5,1
    3bdc:	003f7e06 	br	39d8 <_free_r+0x68>
    3be0:	3804d1ba 	srli	r2,r7,6
    3be4:	10800e04 	addi	r2,r2,56
    3be8:	100690fa 	slli	r3,r2,3
    3bec:	003fad06 	br	3aa4 <_free_r+0x134>
    3bf0:	22000315 	stw	r8,12(r4)
    3bf4:	22000215 	stw	r8,8(r4)
    3bf8:	3a05883a 	add	r2,r7,r8
    3bfc:	38c00054 	ori	r3,r7,1
    3c00:	11c00015 	stw	r7,0(r2)
    3c04:	41000215 	stw	r4,8(r8)
    3c08:	40c00115 	stw	r3,4(r8)
    3c0c:	41000315 	stw	r4,12(r8)
    3c10:	003f8406 	br	3a24 <_free_r+0xb4>
    3c14:	1005d0ba 	srai	r2,r2,2
    3c18:	00c00044 	movi	r3,1
    3c1c:	51000117 	ldw	r4,4(r10)
    3c20:	1886983a 	sll	r3,r3,r2
    3c24:	20c8b03a 	or	r4,r4,r3
    3c28:	51000115 	stw	r4,4(r10)
    3c2c:	003fa706 	br	3acc <_free_r+0x15c>
    3c30:	00801504 	movi	r2,84
    3c34:	10c00436 	bltu	r2,r3,3c48 <_free_r+0x2d8>
    3c38:	3804d33a 	srli	r2,r7,12
    3c3c:	10801b84 	addi	r2,r2,110
    3c40:	100690fa 	slli	r3,r2,3
    3c44:	003f9706 	br	3aa4 <_free_r+0x134>
    3c48:	00805504 	movi	r2,340
    3c4c:	10c00436 	bltu	r2,r3,3c60 <_free_r+0x2f0>
    3c50:	3804d3fa 	srli	r2,r7,15
    3c54:	10801dc4 	addi	r2,r2,119
    3c58:	100690fa 	slli	r3,r2,3
    3c5c:	003f9106 	br	3aa4 <_free_r+0x134>
    3c60:	00815504 	movi	r2,1364
    3c64:	10c0032e 	bgeu	r2,r3,3c74 <_free_r+0x304>
    3c68:	00801f84 	movi	r2,126
    3c6c:	00c0fc04 	movi	r3,1008
    3c70:	003f8c06 	br	3aa4 <_free_r+0x134>
    3c74:	3804d4ba 	srli	r2,r7,18
    3c78:	10801f04 	addi	r2,r2,124
    3c7c:	100690fa 	slli	r3,r2,3
    3c80:	003f8806 	br	3aa4 <_free_r+0x134>

00003c84 <__sfvwrite_r>:
    3c84:	30800217 	ldw	r2,8(r6)
    3c88:	defff504 	addi	sp,sp,-44
    3c8c:	df000915 	stw	fp,36(sp)
    3c90:	dd800715 	stw	r22,28(sp)
    3c94:	dc800315 	stw	r18,12(sp)
    3c98:	dfc00a15 	stw	ra,40(sp)
    3c9c:	ddc00815 	stw	r23,32(sp)
    3ca0:	dd400615 	stw	r21,24(sp)
    3ca4:	dd000515 	stw	r20,20(sp)
    3ca8:	dcc00415 	stw	r19,16(sp)
    3cac:	dc400215 	stw	r17,8(sp)
    3cb0:	dc000115 	stw	r16,4(sp)
    3cb4:	302d883a 	mov	r22,r6
    3cb8:	2039883a 	mov	fp,r4
    3cbc:	2825883a 	mov	r18,r5
    3cc0:	10001c26 	beq	r2,zero,3d34 <__sfvwrite_r+0xb0>
    3cc4:	29c0030b 	ldhu	r7,12(r5)
    3cc8:	3880020c 	andi	r2,r7,8
    3ccc:	10002726 	beq	r2,zero,3d6c <__sfvwrite_r+0xe8>
    3cd0:	28800417 	ldw	r2,16(r5)
    3cd4:	10002526 	beq	r2,zero,3d6c <__sfvwrite_r+0xe8>
    3cd8:	3880008c 	andi	r2,r7,2
    3cdc:	b5400017 	ldw	r21,0(r22)
    3ce0:	10002826 	beq	r2,zero,3d84 <__sfvwrite_r+0x100>
    3ce4:	0021883a 	mov	r16,zero
    3ce8:	0023883a 	mov	r17,zero
    3cec:	880d883a 	mov	r6,r17
    3cf0:	e009883a 	mov	r4,fp
    3cf4:	00810004 	movi	r2,1024
    3cf8:	80006e26 	beq	r16,zero,3eb4 <__sfvwrite_r+0x230>
    3cfc:	800f883a 	mov	r7,r16
    3d00:	91400717 	ldw	r5,28(r18)
    3d04:	1400012e 	bgeu	r2,r16,3d0c <__sfvwrite_r+0x88>
    3d08:	100f883a 	mov	r7,r2
    3d0c:	90c00917 	ldw	r3,36(r18)
    3d10:	183ee83a 	callr	r3
    3d14:	1007883a 	mov	r3,r2
    3d18:	80a1c83a 	sub	r16,r16,r2
    3d1c:	88a3883a 	add	r17,r17,r2
    3d20:	00806d0e 	bge	zero,r2,3ed8 <__sfvwrite_r+0x254>
    3d24:	b0800217 	ldw	r2,8(r22)
    3d28:	10c5c83a 	sub	r2,r2,r3
    3d2c:	b0800215 	stw	r2,8(r22)
    3d30:	103fee1e 	bne	r2,zero,3cec <__sfvwrite_r+0x68>
    3d34:	0009883a 	mov	r4,zero
    3d38:	2005883a 	mov	r2,r4
    3d3c:	dfc00a17 	ldw	ra,40(sp)
    3d40:	df000917 	ldw	fp,36(sp)
    3d44:	ddc00817 	ldw	r23,32(sp)
    3d48:	dd800717 	ldw	r22,28(sp)
    3d4c:	dd400617 	ldw	r21,24(sp)
    3d50:	dd000517 	ldw	r20,20(sp)
    3d54:	dcc00417 	ldw	r19,16(sp)
    3d58:	dc800317 	ldw	r18,12(sp)
    3d5c:	dc400217 	ldw	r17,8(sp)
    3d60:	dc000117 	ldw	r16,4(sp)
    3d64:	dec00b04 	addi	sp,sp,44
    3d68:	f800283a 	ret
    3d6c:	00091dc0 	call	91dc <__swsetup_r>
    3d70:	1000e41e 	bne	r2,zero,4104 <__sfvwrite_r+0x480>
    3d74:	91c0030b 	ldhu	r7,12(r18)
    3d78:	b5400017 	ldw	r21,0(r22)
    3d7c:	3880008c 	andi	r2,r7,2
    3d80:	103fd81e 	bne	r2,zero,3ce4 <__sfvwrite_r+0x60>
    3d84:	3880004c 	andi	r2,r7,1
    3d88:	1005003a 	cmpeq	r2,r2,zero
    3d8c:	10005726 	beq	r2,zero,3eec <__sfvwrite_r+0x268>
    3d90:	0029883a 	mov	r20,zero
    3d94:	002f883a 	mov	r23,zero
    3d98:	a0004226 	beq	r20,zero,3ea4 <__sfvwrite_r+0x220>
    3d9c:	3880800c 	andi	r2,r7,512
    3da0:	94000217 	ldw	r16,8(r18)
    3da4:	10008b26 	beq	r2,zero,3fd4 <__sfvwrite_r+0x350>
    3da8:	800d883a 	mov	r6,r16
    3dac:	a400a536 	bltu	r20,r16,4044 <__sfvwrite_r+0x3c0>
    3db0:	3881200c 	andi	r2,r7,1152
    3db4:	10002726 	beq	r2,zero,3e54 <__sfvwrite_r+0x1d0>
    3db8:	90800517 	ldw	r2,20(r18)
    3dbc:	92000417 	ldw	r8,16(r18)
    3dc0:	91400017 	ldw	r5,0(r18)
    3dc4:	1087883a 	add	r3,r2,r2
    3dc8:	1887883a 	add	r3,r3,r2
    3dcc:	1808d7fa 	srli	r4,r3,31
    3dd0:	2a21c83a 	sub	r16,r5,r8
    3dd4:	80800044 	addi	r2,r16,1
    3dd8:	20c9883a 	add	r4,r4,r3
    3ddc:	2027d07a 	srai	r19,r4,1
    3de0:	a085883a 	add	r2,r20,r2
    3de4:	980d883a 	mov	r6,r19
    3de8:	9880022e 	bgeu	r19,r2,3df4 <__sfvwrite_r+0x170>
    3dec:	1027883a 	mov	r19,r2
    3df0:	100d883a 	mov	r6,r2
    3df4:	3881000c 	andi	r2,r7,1024
    3df8:	1000b826 	beq	r2,zero,40dc <__sfvwrite_r+0x458>
    3dfc:	300b883a 	mov	r5,r6
    3e00:	e009883a 	mov	r4,fp
    3e04:	0000a380 	call	a38 <_malloc_r>
    3e08:	10003126 	beq	r2,zero,3ed0 <__sfvwrite_r+0x24c>
    3e0c:	91400417 	ldw	r5,16(r18)
    3e10:	1009883a 	mov	r4,r2
    3e14:	800d883a 	mov	r6,r16
    3e18:	1023883a 	mov	r17,r2
    3e1c:	000125c0 	call	125c <memcpy>
    3e20:	90c0030b 	ldhu	r3,12(r18)
    3e24:	00beffc4 	movi	r2,-1025
    3e28:	1886703a 	and	r3,r3,r2
    3e2c:	18c02014 	ori	r3,r3,128
    3e30:	90c0030d 	sth	r3,12(r18)
    3e34:	9c07c83a 	sub	r3,r19,r16
    3e38:	8c05883a 	add	r2,r17,r16
    3e3c:	a00d883a 	mov	r6,r20
    3e40:	a021883a 	mov	r16,r20
    3e44:	90800015 	stw	r2,0(r18)
    3e48:	90c00215 	stw	r3,8(r18)
    3e4c:	94400415 	stw	r17,16(r18)
    3e50:	94c00515 	stw	r19,20(r18)
    3e54:	91000017 	ldw	r4,0(r18)
    3e58:	b80b883a 	mov	r5,r23
    3e5c:	a023883a 	mov	r17,r20
    3e60:	000451c0 	call	451c <memmove>
    3e64:	90c00217 	ldw	r3,8(r18)
    3e68:	90800017 	ldw	r2,0(r18)
    3e6c:	a027883a 	mov	r19,r20
    3e70:	1c07c83a 	sub	r3,r3,r16
    3e74:	1405883a 	add	r2,r2,r16
    3e78:	90c00215 	stw	r3,8(r18)
    3e7c:	a021883a 	mov	r16,r20
    3e80:	90800015 	stw	r2,0(r18)
    3e84:	b0800217 	ldw	r2,8(r22)
    3e88:	1405c83a 	sub	r2,r2,r16
    3e8c:	b0800215 	stw	r2,8(r22)
    3e90:	103fa826 	beq	r2,zero,3d34 <__sfvwrite_r+0xb0>
    3e94:	a469c83a 	sub	r20,r20,r17
    3e98:	91c0030b 	ldhu	r7,12(r18)
    3e9c:	bcef883a 	add	r23,r23,r19
    3ea0:	a03fbe1e 	bne	r20,zero,3d9c <__sfvwrite_r+0x118>
    3ea4:	adc00017 	ldw	r23,0(r21)
    3ea8:	ad000117 	ldw	r20,4(r21)
    3eac:	ad400204 	addi	r21,r21,8
    3eb0:	003fb906 	br	3d98 <__sfvwrite_r+0x114>
    3eb4:	ac400017 	ldw	r17,0(r21)
    3eb8:	ac000117 	ldw	r16,4(r21)
    3ebc:	ad400204 	addi	r21,r21,8
    3ec0:	003f8a06 	br	3cec <__sfvwrite_r+0x68>
    3ec4:	91400417 	ldw	r5,16(r18)
    3ec8:	e009883a 	mov	r4,fp
    3ecc:	00039700 	call	3970 <_free_r>
    3ed0:	00800304 	movi	r2,12
    3ed4:	e0800015 	stw	r2,0(fp)
    3ed8:	9080030b 	ldhu	r2,12(r18)
    3edc:	013fffc4 	movi	r4,-1
    3ee0:	10801014 	ori	r2,r2,64
    3ee4:	9080030d 	sth	r2,12(r18)
    3ee8:	003f9306 	br	3d38 <__sfvwrite_r+0xb4>
    3eec:	0027883a 	mov	r19,zero
    3ef0:	002f883a 	mov	r23,zero
    3ef4:	d8000015 	stw	zero,0(sp)
    3ef8:	0029883a 	mov	r20,zero
    3efc:	98001e26 	beq	r19,zero,3f78 <__sfvwrite_r+0x2f4>
    3f00:	d8c00017 	ldw	r3,0(sp)
    3f04:	1804c03a 	cmpne	r2,r3,zero
    3f08:	10005e26 	beq	r2,zero,4084 <__sfvwrite_r+0x400>
    3f0c:	9821883a 	mov	r16,r19
    3f10:	a4c0012e 	bgeu	r20,r19,3f18 <__sfvwrite_r+0x294>
    3f14:	a021883a 	mov	r16,r20
    3f18:	91000017 	ldw	r4,0(r18)
    3f1c:	90800417 	ldw	r2,16(r18)
    3f20:	91800217 	ldw	r6,8(r18)
    3f24:	91c00517 	ldw	r7,20(r18)
    3f28:	1100022e 	bgeu	r2,r4,3f34 <__sfvwrite_r+0x2b0>
    3f2c:	31e3883a 	add	r17,r6,r7
    3f30:	8c001616 	blt	r17,r16,3f8c <__sfvwrite_r+0x308>
    3f34:	81c03816 	blt	r16,r7,4018 <__sfvwrite_r+0x394>
    3f38:	90c00917 	ldw	r3,36(r18)
    3f3c:	91400717 	ldw	r5,28(r18)
    3f40:	e009883a 	mov	r4,fp
    3f44:	b80d883a 	mov	r6,r23
    3f48:	183ee83a 	callr	r3
    3f4c:	1023883a 	mov	r17,r2
    3f50:	00bfe10e 	bge	zero,r2,3ed8 <__sfvwrite_r+0x254>
    3f54:	a469c83a 	sub	r20,r20,r17
    3f58:	a0001826 	beq	r20,zero,3fbc <__sfvwrite_r+0x338>
    3f5c:	b0800217 	ldw	r2,8(r22)
    3f60:	1445c83a 	sub	r2,r2,r17
    3f64:	b0800215 	stw	r2,8(r22)
    3f68:	103f7226 	beq	r2,zero,3d34 <__sfvwrite_r+0xb0>
    3f6c:	9c67c83a 	sub	r19,r19,r17
    3f70:	bc6f883a 	add	r23,r23,r17
    3f74:	983fe21e 	bne	r19,zero,3f00 <__sfvwrite_r+0x27c>
    3f78:	adc00017 	ldw	r23,0(r21)
    3f7c:	acc00117 	ldw	r19,4(r21)
    3f80:	ad400204 	addi	r21,r21,8
    3f84:	d8000015 	stw	zero,0(sp)
    3f88:	003fdc06 	br	3efc <__sfvwrite_r+0x278>
    3f8c:	b80b883a 	mov	r5,r23
    3f90:	880d883a 	mov	r6,r17
    3f94:	000451c0 	call	451c <memmove>
    3f98:	90c00017 	ldw	r3,0(r18)
    3f9c:	e009883a 	mov	r4,fp
    3fa0:	900b883a 	mov	r5,r18
    3fa4:	1c47883a 	add	r3,r3,r17
    3fa8:	90c00015 	stw	r3,0(r18)
    3fac:	00033d80 	call	33d8 <_fflush_r>
    3fb0:	103fc91e 	bne	r2,zero,3ed8 <__sfvwrite_r+0x254>
    3fb4:	a469c83a 	sub	r20,r20,r17
    3fb8:	a03fe81e 	bne	r20,zero,3f5c <__sfvwrite_r+0x2d8>
    3fbc:	e009883a 	mov	r4,fp
    3fc0:	900b883a 	mov	r5,r18
    3fc4:	00033d80 	call	33d8 <_fflush_r>
    3fc8:	103fc31e 	bne	r2,zero,3ed8 <__sfvwrite_r+0x254>
    3fcc:	d8000015 	stw	zero,0(sp)
    3fd0:	003fe206 	br	3f5c <__sfvwrite_r+0x2d8>
    3fd4:	91000017 	ldw	r4,0(r18)
    3fd8:	90800417 	ldw	r2,16(r18)
    3fdc:	1100022e 	bgeu	r2,r4,3fe8 <__sfvwrite_r+0x364>
    3fe0:	8023883a 	mov	r17,r16
    3fe4:	85003136 	bltu	r16,r20,40ac <__sfvwrite_r+0x428>
    3fe8:	91c00517 	ldw	r7,20(r18)
    3fec:	a1c01836 	bltu	r20,r7,4050 <__sfvwrite_r+0x3cc>
    3ff0:	90c00917 	ldw	r3,36(r18)
    3ff4:	91400717 	ldw	r5,28(r18)
    3ff8:	e009883a 	mov	r4,fp
    3ffc:	b80d883a 	mov	r6,r23
    4000:	183ee83a 	callr	r3
    4004:	1021883a 	mov	r16,r2
    4008:	00bfb30e 	bge	zero,r2,3ed8 <__sfvwrite_r+0x254>
    400c:	1023883a 	mov	r17,r2
    4010:	1027883a 	mov	r19,r2
    4014:	003f9b06 	br	3e84 <__sfvwrite_r+0x200>
    4018:	b80b883a 	mov	r5,r23
    401c:	800d883a 	mov	r6,r16
    4020:	000451c0 	call	451c <memmove>
    4024:	90c00217 	ldw	r3,8(r18)
    4028:	90800017 	ldw	r2,0(r18)
    402c:	8023883a 	mov	r17,r16
    4030:	1c07c83a 	sub	r3,r3,r16
    4034:	1405883a 	add	r2,r2,r16
    4038:	90c00215 	stw	r3,8(r18)
    403c:	90800015 	stw	r2,0(r18)
    4040:	003fc406 	br	3f54 <__sfvwrite_r+0x2d0>
    4044:	a00d883a 	mov	r6,r20
    4048:	a021883a 	mov	r16,r20
    404c:	003f8106 	br	3e54 <__sfvwrite_r+0x1d0>
    4050:	b80b883a 	mov	r5,r23
    4054:	a00d883a 	mov	r6,r20
    4058:	000451c0 	call	451c <memmove>
    405c:	90c00217 	ldw	r3,8(r18)
    4060:	90800017 	ldw	r2,0(r18)
    4064:	a021883a 	mov	r16,r20
    4068:	1d07c83a 	sub	r3,r3,r20
    406c:	1505883a 	add	r2,r2,r20
    4070:	a023883a 	mov	r17,r20
    4074:	a027883a 	mov	r19,r20
    4078:	90c00215 	stw	r3,8(r18)
    407c:	90800015 	stw	r2,0(r18)
    4080:	003f8006 	br	3e84 <__sfvwrite_r+0x200>
    4084:	b809883a 	mov	r4,r23
    4088:	01400284 	movi	r5,10
    408c:	980d883a 	mov	r6,r19
    4090:	00011780 	call	1178 <memchr>
    4094:	10001726 	beq	r2,zero,40f4 <__sfvwrite_r+0x470>
    4098:	15c5c83a 	sub	r2,r2,r23
    409c:	15000044 	addi	r20,r2,1
    40a0:	00800044 	movi	r2,1
    40a4:	d8800015 	stw	r2,0(sp)
    40a8:	003f9806 	br	3f0c <__sfvwrite_r+0x288>
    40ac:	b80b883a 	mov	r5,r23
    40b0:	800d883a 	mov	r6,r16
    40b4:	000451c0 	call	451c <memmove>
    40b8:	90c00017 	ldw	r3,0(r18)
    40bc:	e009883a 	mov	r4,fp
    40c0:	900b883a 	mov	r5,r18
    40c4:	1c07883a 	add	r3,r3,r16
    40c8:	90c00015 	stw	r3,0(r18)
    40cc:	8027883a 	mov	r19,r16
    40d0:	00033d80 	call	33d8 <_fflush_r>
    40d4:	103f6b26 	beq	r2,zero,3e84 <__sfvwrite_r+0x200>
    40d8:	003f7f06 	br	3ed8 <__sfvwrite_r+0x254>
    40dc:	400b883a 	mov	r5,r8
    40e0:	e009883a 	mov	r4,fp
    40e4:	00046740 	call	4674 <_realloc_r>
    40e8:	103f7626 	beq	r2,zero,3ec4 <__sfvwrite_r+0x240>
    40ec:	1023883a 	mov	r17,r2
    40f0:	003f5006 	br	3e34 <__sfvwrite_r+0x1b0>
    40f4:	00c00044 	movi	r3,1
    40f8:	9d000044 	addi	r20,r19,1
    40fc:	d8c00015 	stw	r3,0(sp)
    4100:	003f8206 	br	3f0c <__sfvwrite_r+0x288>
    4104:	9080030b 	ldhu	r2,12(r18)
    4108:	00c00244 	movi	r3,9
    410c:	013fffc4 	movi	r4,-1
    4110:	10801014 	ori	r2,r2,64
    4114:	9080030d 	sth	r2,12(r18)
    4118:	e0c00015 	stw	r3,0(fp)
    411c:	003f0606 	br	3d38 <__sfvwrite_r+0xb4>

00004120 <iswspace>:
    4120:	00803fc4 	movi	r2,255
    4124:	0007883a 	mov	r3,zero
    4128:	11000636 	bltu	r2,r4,4144 <iswspace+0x24>
    412c:	00800074 	movhi	r2,1
    4130:	108f6b04 	addi	r2,r2,15788
    4134:	10c00017 	ldw	r3,0(r2)
    4138:	1907883a 	add	r3,r3,r4
    413c:	18800003 	ldbu	r2,0(r3)
    4140:	10c0020c 	andi	r3,r2,8
    4144:	1805883a 	mov	r2,r3
    4148:	f800283a 	ret

0000414c <__locale_charset>:
    414c:	d0a00617 	ldw	r2,-32744(gp)
    4150:	f800283a 	ret

00004154 <_localeconv_r>:
    4154:	00800074 	movhi	r2,1
    4158:	1087f604 	addi	r2,r2,8152
    415c:	f800283a 	ret

00004160 <localeconv>:
    4160:	00800074 	movhi	r2,1
    4164:	108f6704 	addi	r2,r2,15772
    4168:	11000017 	ldw	r4,0(r2)
    416c:	00041541 	jmpi	4154 <_localeconv_r>

00004170 <_setlocale_r>:
    4170:	defffc04 	addi	sp,sp,-16
    4174:	00c00074 	movhi	r3,1
    4178:	18c74504 	addi	r3,r3,7444
    417c:	dc800215 	stw	r18,8(sp)
    4180:	dc400115 	stw	r17,4(sp)
    4184:	dc000015 	stw	r16,0(sp)
    4188:	2023883a 	mov	r17,r4
    418c:	2825883a 	mov	r18,r5
    4190:	dfc00315 	stw	ra,12(sp)
    4194:	3021883a 	mov	r16,r6
    4198:	3009883a 	mov	r4,r6
    419c:	180b883a 	mov	r5,r3
    41a0:	30000926 	beq	r6,zero,41c8 <_setlocale_r+0x58>
    41a4:	0004e340 	call	4e34 <strcmp>
    41a8:	8009883a 	mov	r4,r16
    41ac:	01400074 	movhi	r5,1
    41b0:	29481f04 	addi	r5,r5,8316
    41b4:	10000b1e 	bne	r2,zero,41e4 <_setlocale_r+0x74>
    41b8:	8c000d15 	stw	r16,52(r17)
    41bc:	8c800c15 	stw	r18,48(r17)
    41c0:	00c00074 	movhi	r3,1
    41c4:	18c74504 	addi	r3,r3,7444
    41c8:	1805883a 	mov	r2,r3
    41cc:	dfc00317 	ldw	ra,12(sp)
    41d0:	dc800217 	ldw	r18,8(sp)
    41d4:	dc400117 	ldw	r17,4(sp)
    41d8:	dc000017 	ldw	r16,0(sp)
    41dc:	dec00404 	addi	sp,sp,16
    41e0:	f800283a 	ret
    41e4:	0004e340 	call	4e34 <strcmp>
    41e8:	0007883a 	mov	r3,zero
    41ec:	103ff226 	beq	r2,zero,41b8 <_setlocale_r+0x48>
    41f0:	003ff506 	br	41c8 <_setlocale_r+0x58>

000041f4 <setlocale>:
    41f4:	01800074 	movhi	r6,1
    41f8:	318f6704 	addi	r6,r6,15772
    41fc:	2007883a 	mov	r3,r4
    4200:	31000017 	ldw	r4,0(r6)
    4204:	280d883a 	mov	r6,r5
    4208:	180b883a 	mov	r5,r3
    420c:	00041701 	jmpi	4170 <_setlocale_r>

00004210 <_lseek_r>:
    4210:	defffd04 	addi	sp,sp,-12
    4214:	dc000015 	stw	r16,0(sp)
    4218:	04000074 	movhi	r16,1
    421c:	84161d04 	addi	r16,r16,22644
    4220:	dc400115 	stw	r17,4(sp)
    4224:	80000015 	stw	zero,0(r16)
    4228:	2023883a 	mov	r17,r4
    422c:	2809883a 	mov	r4,r5
    4230:	300b883a 	mov	r5,r6
    4234:	380d883a 	mov	r6,r7
    4238:	dfc00215 	stw	ra,8(sp)
    423c:	000f7340 	call	f734 <lseek>
    4240:	1007883a 	mov	r3,r2
    4244:	00bfffc4 	movi	r2,-1
    4248:	18800626 	beq	r3,r2,4264 <_lseek_r+0x54>
    424c:	1805883a 	mov	r2,r3
    4250:	dfc00217 	ldw	ra,8(sp)
    4254:	dc400117 	ldw	r17,4(sp)
    4258:	dc000017 	ldw	r16,0(sp)
    425c:	dec00304 	addi	sp,sp,12
    4260:	f800283a 	ret
    4264:	80800017 	ldw	r2,0(r16)
    4268:	103ff826 	beq	r2,zero,424c <_lseek_r+0x3c>
    426c:	88800015 	stw	r2,0(r17)
    4270:	1805883a 	mov	r2,r3
    4274:	dfc00217 	ldw	ra,8(sp)
    4278:	dc400117 	ldw	r17,4(sp)
    427c:	dc000017 	ldw	r16,0(sp)
    4280:	dec00304 	addi	sp,sp,12
    4284:	f800283a 	ret

00004288 <__smakebuf_r>:
    4288:	2880030b 	ldhu	r2,12(r5)
    428c:	deffed04 	addi	sp,sp,-76
    4290:	dc401015 	stw	r17,64(sp)
    4294:	1080008c 	andi	r2,r2,2
    4298:	dc000f15 	stw	r16,60(sp)
    429c:	dfc01215 	stw	ra,72(sp)
    42a0:	dc801115 	stw	r18,68(sp)
    42a4:	2821883a 	mov	r16,r5
    42a8:	2023883a 	mov	r17,r4
    42ac:	10000b26 	beq	r2,zero,42dc <__smakebuf_r+0x54>
    42b0:	28c010c4 	addi	r3,r5,67
    42b4:	00800044 	movi	r2,1
    42b8:	28800515 	stw	r2,20(r5)
    42bc:	28c00415 	stw	r3,16(r5)
    42c0:	28c00015 	stw	r3,0(r5)
    42c4:	dfc01217 	ldw	ra,72(sp)
    42c8:	dc801117 	ldw	r18,68(sp)
    42cc:	dc401017 	ldw	r17,64(sp)
    42d0:	dc000f17 	ldw	r16,60(sp)
    42d4:	dec01304 	addi	sp,sp,76
    42d8:	f800283a 	ret
    42dc:	2940038f 	ldh	r5,14(r5)
    42e0:	28002116 	blt	r5,zero,4368 <__smakebuf_r+0xe0>
    42e4:	d80d883a 	mov	r6,sp
    42e8:	000aae40 	call	aae4 <_fstat_r>
    42ec:	10001e16 	blt	r2,zero,4368 <__smakebuf_r+0xe0>
    42f0:	d8800117 	ldw	r2,4(sp)
    42f4:	00e00014 	movui	r3,32768
    42f8:	113c000c 	andi	r4,r2,61440
    42fc:	20c03126 	beq	r4,r3,43c4 <__smakebuf_r+0x13c>
    4300:	8080030b 	ldhu	r2,12(r16)
    4304:	00c80004 	movi	r3,8192
    4308:	10820014 	ori	r2,r2,2048
    430c:	8080030d 	sth	r2,12(r16)
    4310:	20c01e26 	beq	r4,r3,438c <__smakebuf_r+0x104>
    4314:	04810004 	movi	r18,1024
    4318:	8809883a 	mov	r4,r17
    431c:	900b883a 	mov	r5,r18
    4320:	0000a380 	call	a38 <_malloc_r>
    4324:	1009883a 	mov	r4,r2
    4328:	10003126 	beq	r2,zero,43f0 <__smakebuf_r+0x168>
    432c:	80c0030b 	ldhu	r3,12(r16)
    4330:	00800034 	movhi	r2,0
    4334:	1081d104 	addi	r2,r2,1860
    4338:	88800f15 	stw	r2,60(r17)
    433c:	18c02014 	ori	r3,r3,128
    4340:	84800515 	stw	r18,20(r16)
    4344:	80c0030d 	sth	r3,12(r16)
    4348:	81000415 	stw	r4,16(r16)
    434c:	81000015 	stw	r4,0(r16)
    4350:	dfc01217 	ldw	ra,72(sp)
    4354:	dc801117 	ldw	r18,68(sp)
    4358:	dc401017 	ldw	r17,64(sp)
    435c:	dc000f17 	ldw	r16,60(sp)
    4360:	dec01304 	addi	sp,sp,76
    4364:	f800283a 	ret
    4368:	80c0030b 	ldhu	r3,12(r16)
    436c:	1880200c 	andi	r2,r3,128
    4370:	10000426 	beq	r2,zero,4384 <__smakebuf_r+0xfc>
    4374:	04801004 	movi	r18,64
    4378:	18820014 	ori	r2,r3,2048
    437c:	8080030d 	sth	r2,12(r16)
    4380:	003fe506 	br	4318 <__smakebuf_r+0x90>
    4384:	04810004 	movi	r18,1024
    4388:	003ffb06 	br	4378 <__smakebuf_r+0xf0>
    438c:	8140038f 	ldh	r5,14(r16)
    4390:	8809883a 	mov	r4,r17
    4394:	000b6e00 	call	b6e0 <_isatty_r>
    4398:	103fde26 	beq	r2,zero,4314 <__smakebuf_r+0x8c>
    439c:	8080030b 	ldhu	r2,12(r16)
    43a0:	80c010c4 	addi	r3,r16,67
    43a4:	04810004 	movi	r18,1024
    43a8:	10800054 	ori	r2,r2,1
    43ac:	8080030d 	sth	r2,12(r16)
    43b0:	00800044 	movi	r2,1
    43b4:	80c00415 	stw	r3,16(r16)
    43b8:	80800515 	stw	r2,20(r16)
    43bc:	80c00015 	stw	r3,0(r16)
    43c0:	003fd506 	br	4318 <__smakebuf_r+0x90>
    43c4:	80c00a17 	ldw	r3,40(r16)
    43c8:	00800034 	movhi	r2,0
    43cc:	1085ed04 	addi	r2,r2,6068
    43d0:	18bfcb1e 	bne	r3,r2,4300 <__smakebuf_r+0x78>
    43d4:	8080030b 	ldhu	r2,12(r16)
    43d8:	00c10004 	movi	r3,1024
    43dc:	1825883a 	mov	r18,r3
    43e0:	10c4b03a 	or	r2,r2,r3
    43e4:	8080030d 	sth	r2,12(r16)
    43e8:	80c01315 	stw	r3,76(r16)
    43ec:	003fca06 	br	4318 <__smakebuf_r+0x90>
    43f0:	8100030b 	ldhu	r4,12(r16)
    43f4:	2080800c 	andi	r2,r4,512
    43f8:	103fb21e 	bne	r2,zero,42c4 <__smakebuf_r+0x3c>
    43fc:	80c010c4 	addi	r3,r16,67
    4400:	21000094 	ori	r4,r4,2
    4404:	00800044 	movi	r2,1
    4408:	80800515 	stw	r2,20(r16)
    440c:	8100030d 	sth	r4,12(r16)
    4410:	80c00415 	stw	r3,16(r16)
    4414:	80c00015 	stw	r3,0(r16)
    4418:	003faa06 	br	42c4 <__smakebuf_r+0x3c>

0000441c <_mbrtowc_r>:
    441c:	defffc04 	addi	sp,sp,-16
    4420:	dc400215 	stw	r17,8(sp)
    4424:	dc000115 	stw	r16,4(sp)
    4428:	dfc00315 	stw	ra,12(sp)
    442c:	dc000417 	ldw	r16,16(sp)
    4430:	2023883a 	mov	r17,r4
    4434:	30000f26 	beq	r6,zero,4474 <_mbrtowc_r+0x58>
    4438:	dc000015 	stw	r16,0(sp)
    443c:	00044dc0 	call	44dc <_mbtowc_r>
    4440:	1007883a 	mov	r3,r2
    4444:	00bfffc4 	movi	r2,-1
    4448:	1809883a 	mov	r4,r3
    444c:	1880111e 	bne	r3,r2,4494 <_mbrtowc_r+0x78>
    4450:	80000015 	stw	zero,0(r16)
    4454:	00802284 	movi	r2,138
    4458:	88800015 	stw	r2,0(r17)
    445c:	2005883a 	mov	r2,r4
    4460:	dfc00317 	ldw	ra,12(sp)
    4464:	dc400217 	ldw	r17,8(sp)
    4468:	dc000117 	ldw	r16,4(sp)
    446c:	dec00404 	addi	sp,sp,16
    4470:	f800283a 	ret
    4474:	000b883a 	mov	r5,zero
    4478:	01800074 	movhi	r6,1
    447c:	31881f04 	addi	r6,r6,8316
    4480:	01c00044 	movi	r7,1
    4484:	dc000015 	stw	r16,0(sp)
    4488:	00044dc0 	call	44dc <_mbtowc_r>
    448c:	1007883a 	mov	r3,r2
    4490:	003fec06 	br	4444 <_mbrtowc_r+0x28>
    4494:	1809883a 	mov	r4,r3
    4498:	003ff006 	br	445c <_mbrtowc_r+0x40>

0000449c <mbrtowc>:
    449c:	00800074 	movhi	r2,1
    44a0:	108f6704 	addi	r2,r2,15772
    44a4:	2017883a 	mov	r11,r4
    44a8:	11000017 	ldw	r4,0(r2)
    44ac:	defffe04 	addi	sp,sp,-8
    44b0:	3013883a 	mov	r9,r6
    44b4:	2805883a 	mov	r2,r5
    44b8:	d9c00015 	stw	r7,0(sp)
    44bc:	580b883a 	mov	r5,r11
    44c0:	100d883a 	mov	r6,r2
    44c4:	480f883a 	mov	r7,r9
    44c8:	dfc00115 	stw	ra,4(sp)
    44cc:	000441c0 	call	441c <_mbrtowc_r>
    44d0:	dfc00117 	ldw	ra,4(sp)
    44d4:	dec00204 	addi	sp,sp,8
    44d8:	f800283a 	ret

000044dc <_mbtowc_r>:
    44dc:	deffff04 	addi	sp,sp,-4
    44e0:	0005883a 	mov	r2,zero
    44e4:	28000326 	beq	r5,zero,44f4 <_mbtowc_r+0x18>
    44e8:	3000041e 	bne	r6,zero,44fc <_mbtowc_r+0x20>
    44ec:	dec00104 	addi	sp,sp,4
    44f0:	f800283a 	ret
    44f4:	d80b883a 	mov	r5,sp
    44f8:	303ffc26 	beq	r6,zero,44ec <_mbtowc_r+0x10>
    44fc:	00bfff84 	movi	r2,-2
    4500:	383ffa26 	beq	r7,zero,44ec <_mbtowc_r+0x10>
    4504:	30800003 	ldbu	r2,0(r6)
    4508:	28800015 	stw	r2,0(r5)
    450c:	30c00003 	ldbu	r3,0(r6)
    4510:	1804c03a 	cmpne	r2,r3,zero
    4514:	dec00104 	addi	sp,sp,4
    4518:	f800283a 	ret

0000451c <memmove>:
    451c:	2807883a 	mov	r3,r5
    4520:	2011883a 	mov	r8,r4
    4524:	29000c2e 	bgeu	r5,r4,4558 <memmove+0x3c>
    4528:	298f883a 	add	r7,r5,r6
    452c:	21c00a2e 	bgeu	r4,r7,4558 <memmove+0x3c>
    4530:	30000726 	beq	r6,zero,4550 <memmove+0x34>
    4534:	2187883a 	add	r3,r4,r6
    4538:	198dc83a 	sub	r6,r3,r6
    453c:	39ffffc4 	addi	r7,r7,-1
    4540:	38800003 	ldbu	r2,0(r7)
    4544:	18ffffc4 	addi	r3,r3,-1
    4548:	18800005 	stb	r2,0(r3)
    454c:	19bffb1e 	bne	r3,r6,453c <memmove+0x20>
    4550:	2005883a 	mov	r2,r4
    4554:	f800283a 	ret
    4558:	01c003c4 	movi	r7,15
    455c:	39800a36 	bltu	r7,r6,4588 <memmove+0x6c>
    4560:	303ffb26 	beq	r6,zero,4550 <memmove+0x34>
    4564:	400f883a 	mov	r7,r8
    4568:	320d883a 	add	r6,r6,r8
    456c:	28800003 	ldbu	r2,0(r5)
    4570:	29400044 	addi	r5,r5,1
    4574:	38800005 	stb	r2,0(r7)
    4578:	39c00044 	addi	r7,r7,1
    457c:	39bffb1e 	bne	r7,r6,456c <memmove+0x50>
    4580:	2005883a 	mov	r2,r4
    4584:	f800283a 	ret
    4588:	1904b03a 	or	r2,r3,r4
    458c:	108000cc 	andi	r2,r2,3
    4590:	103ff31e 	bne	r2,zero,4560 <memmove+0x44>
    4594:	3811883a 	mov	r8,r7
    4598:	180b883a 	mov	r5,r3
    459c:	200f883a 	mov	r7,r4
    45a0:	28c00017 	ldw	r3,0(r5)
    45a4:	31bffc04 	addi	r6,r6,-16
    45a8:	38c00015 	stw	r3,0(r7)
    45ac:	28800117 	ldw	r2,4(r5)
    45b0:	38800115 	stw	r2,4(r7)
    45b4:	28c00217 	ldw	r3,8(r5)
    45b8:	38c00215 	stw	r3,8(r7)
    45bc:	28800317 	ldw	r2,12(r5)
    45c0:	29400404 	addi	r5,r5,16
    45c4:	38800315 	stw	r2,12(r7)
    45c8:	39c00404 	addi	r7,r7,16
    45cc:	41bff436 	bltu	r8,r6,45a0 <memmove+0x84>
    45d0:	008000c4 	movi	r2,3
    45d4:	1180072e 	bgeu	r2,r6,45f4 <memmove+0xd8>
    45d8:	1007883a 	mov	r3,r2
    45dc:	28800017 	ldw	r2,0(r5)
    45e0:	31bfff04 	addi	r6,r6,-4
    45e4:	29400104 	addi	r5,r5,4
    45e8:	38800015 	stw	r2,0(r7)
    45ec:	39c00104 	addi	r7,r7,4
    45f0:	19bffa36 	bltu	r3,r6,45dc <memmove+0xc0>
    45f4:	3811883a 	mov	r8,r7
    45f8:	003fd906 	br	4560 <memmove+0x44>

000045fc <_read_r>:
    45fc:	defffd04 	addi	sp,sp,-12
    4600:	dc000015 	stw	r16,0(sp)
    4604:	04000074 	movhi	r16,1
    4608:	84161d04 	addi	r16,r16,22644
    460c:	dc400115 	stw	r17,4(sp)
    4610:	80000015 	stw	zero,0(r16)
    4614:	2023883a 	mov	r17,r4
    4618:	2809883a 	mov	r4,r5
    461c:	300b883a 	mov	r5,r6
    4620:	380d883a 	mov	r6,r7
    4624:	dfc00215 	stw	ra,8(sp)
    4628:	000f9300 	call	f930 <read>
    462c:	1007883a 	mov	r3,r2
    4630:	00bfffc4 	movi	r2,-1
    4634:	18800626 	beq	r3,r2,4650 <_read_r+0x54>
    4638:	1805883a 	mov	r2,r3
    463c:	dfc00217 	ldw	ra,8(sp)
    4640:	dc400117 	ldw	r17,4(sp)
    4644:	dc000017 	ldw	r16,0(sp)
    4648:	dec00304 	addi	sp,sp,12
    464c:	f800283a 	ret
    4650:	80800017 	ldw	r2,0(r16)
    4654:	103ff826 	beq	r2,zero,4638 <_read_r+0x3c>
    4658:	88800015 	stw	r2,0(r17)
    465c:	1805883a 	mov	r2,r3
    4660:	dfc00217 	ldw	ra,8(sp)
    4664:	dc400117 	ldw	r17,4(sp)
    4668:	dc000017 	ldw	r16,0(sp)
    466c:	dec00304 	addi	sp,sp,12
    4670:	f800283a 	ret

00004674 <_realloc_r>:
    4674:	defff404 	addi	sp,sp,-48
    4678:	dd800815 	stw	r22,32(sp)
    467c:	dc800415 	stw	r18,16(sp)
    4680:	dc400315 	stw	r17,12(sp)
    4684:	dfc00b15 	stw	ra,44(sp)
    4688:	df000a15 	stw	fp,40(sp)
    468c:	ddc00915 	stw	r23,36(sp)
    4690:	dd400715 	stw	r21,28(sp)
    4694:	dd000615 	stw	r20,24(sp)
    4698:	dcc00515 	stw	r19,20(sp)
    469c:	dc000215 	stw	r16,8(sp)
    46a0:	2825883a 	mov	r18,r5
    46a4:	3023883a 	mov	r17,r6
    46a8:	202d883a 	mov	r22,r4
    46ac:	2800c926 	beq	r5,zero,49d4 <_realloc_r+0x360>
    46b0:	000f8f00 	call	f8f0 <__malloc_lock>
    46b4:	943ffe04 	addi	r16,r18,-8
    46b8:	88c002c4 	addi	r3,r17,11
    46bc:	00800584 	movi	r2,22
    46c0:	82000117 	ldw	r8,4(r16)
    46c4:	10c01b2e 	bgeu	r2,r3,4734 <_realloc_r+0xc0>
    46c8:	00bffe04 	movi	r2,-8
    46cc:	188e703a 	and	r7,r3,r2
    46d0:	3839883a 	mov	fp,r7
    46d4:	38001a16 	blt	r7,zero,4740 <_realloc_r+0xcc>
    46d8:	e4401936 	bltu	fp,r17,4740 <_realloc_r+0xcc>
    46dc:	013fff04 	movi	r4,-4
    46e0:	4126703a 	and	r19,r8,r4
    46e4:	99c02616 	blt	r19,r7,4780 <_realloc_r+0x10c>
    46e8:	802b883a 	mov	r21,r16
    46ec:	9829883a 	mov	r20,r19
    46f0:	84000204 	addi	r16,r16,8
    46f4:	a80f883a 	mov	r7,r21
    46f8:	a70dc83a 	sub	r6,r20,fp
    46fc:	008003c4 	movi	r2,15
    4700:	1180c136 	bltu	r2,r6,4a08 <_realloc_r+0x394>
    4704:	38800117 	ldw	r2,4(r7)
    4708:	a549883a 	add	r4,r20,r21
    470c:	1080004c 	andi	r2,r2,1
    4710:	a084b03a 	or	r2,r20,r2
    4714:	38800115 	stw	r2,4(r7)
    4718:	20c00117 	ldw	r3,4(r4)
    471c:	18c00054 	ori	r3,r3,1
    4720:	20c00115 	stw	r3,4(r4)
    4724:	b009883a 	mov	r4,r22
    4728:	000f9100 	call	f910 <__malloc_unlock>
    472c:	8023883a 	mov	r17,r16
    4730:	00000606 	br	474c <_realloc_r+0xd8>
    4734:	01c00404 	movi	r7,16
    4738:	3839883a 	mov	fp,r7
    473c:	e47fe72e 	bgeu	fp,r17,46dc <_realloc_r+0x68>
    4740:	00800304 	movi	r2,12
    4744:	0023883a 	mov	r17,zero
    4748:	b0800015 	stw	r2,0(r22)
    474c:	8805883a 	mov	r2,r17
    4750:	dfc00b17 	ldw	ra,44(sp)
    4754:	df000a17 	ldw	fp,40(sp)
    4758:	ddc00917 	ldw	r23,36(sp)
    475c:	dd800817 	ldw	r22,32(sp)
    4760:	dd400717 	ldw	r21,28(sp)
    4764:	dd000617 	ldw	r20,24(sp)
    4768:	dcc00517 	ldw	r19,20(sp)
    476c:	dc800417 	ldw	r18,16(sp)
    4770:	dc400317 	ldw	r17,12(sp)
    4774:	dc000217 	ldw	r16,8(sp)
    4778:	dec00c04 	addi	sp,sp,48
    477c:	f800283a 	ret
    4780:	00800074 	movhi	r2,1
    4784:	1089d604 	addi	r2,r2,10072
    4788:	12400217 	ldw	r9,8(r2)
    478c:	84cd883a 	add	r6,r16,r19
    4790:	802b883a 	mov	r21,r16
    4794:	3240b926 	beq	r6,r9,4a7c <_realloc_r+0x408>
    4798:	31400117 	ldw	r5,4(r6)
    479c:	00bfff84 	movi	r2,-2
    47a0:	2884703a 	and	r2,r5,r2
    47a4:	1185883a 	add	r2,r2,r6
    47a8:	10c00117 	ldw	r3,4(r2)
    47ac:	18c0004c 	andi	r3,r3,1
    47b0:	1807003a 	cmpeq	r3,r3,zero
    47b4:	1800a326 	beq	r3,zero,4a44 <_realloc_r+0x3d0>
    47b8:	2908703a 	and	r4,r5,r4
    47bc:	9929883a 	add	r20,r19,r4
    47c0:	a1c0a30e 	bge	r20,r7,4a50 <_realloc_r+0x3dc>
    47c4:	4080004c 	andi	r2,r8,1
    47c8:	1000551e 	bne	r2,zero,4920 <_realloc_r+0x2ac>
    47cc:	80800017 	ldw	r2,0(r16)
    47d0:	80afc83a 	sub	r23,r16,r2
    47d4:	b8c00117 	ldw	r3,4(r23)
    47d8:	00bfff04 	movi	r2,-4
    47dc:	1884703a 	and	r2,r3,r2
    47e0:	30002e26 	beq	r6,zero,489c <_realloc_r+0x228>
    47e4:	3240b926 	beq	r6,r9,4acc <_realloc_r+0x458>
    47e8:	98a9883a 	add	r20,r19,r2
    47ec:	2509883a 	add	r4,r4,r20
    47f0:	d9000015 	stw	r4,0(sp)
    47f4:	21c02a16 	blt	r4,r7,48a0 <_realloc_r+0x22c>
    47f8:	30800317 	ldw	r2,12(r6)
    47fc:	30c00217 	ldw	r3,8(r6)
    4800:	01400904 	movi	r5,36
    4804:	99bfff04 	addi	r6,r19,-4
    4808:	18800315 	stw	r2,12(r3)
    480c:	10c00215 	stw	r3,8(r2)
    4810:	b9000317 	ldw	r4,12(r23)
    4814:	b8800217 	ldw	r2,8(r23)
    4818:	b82b883a 	mov	r21,r23
    481c:	bc000204 	addi	r16,r23,8
    4820:	20800215 	stw	r2,8(r4)
    4824:	11000315 	stw	r4,12(r2)
    4828:	2980e436 	bltu	r5,r6,4bbc <_realloc_r+0x548>
    482c:	008004c4 	movi	r2,19
    4830:	9009883a 	mov	r4,r18
    4834:	8011883a 	mov	r8,r16
    4838:	11800f2e 	bgeu	r2,r6,4878 <_realloc_r+0x204>
    483c:	90800017 	ldw	r2,0(r18)
    4840:	ba000404 	addi	r8,r23,16
    4844:	91000204 	addi	r4,r18,8
    4848:	b8800215 	stw	r2,8(r23)
    484c:	90c00117 	ldw	r3,4(r18)
    4850:	008006c4 	movi	r2,27
    4854:	b8c00315 	stw	r3,12(r23)
    4858:	1180072e 	bgeu	r2,r6,4878 <_realloc_r+0x204>
    485c:	90c00217 	ldw	r3,8(r18)
    4860:	ba000604 	addi	r8,r23,24
    4864:	91000404 	addi	r4,r18,16
    4868:	b8c00415 	stw	r3,16(r23)
    486c:	90800317 	ldw	r2,12(r18)
    4870:	b8800515 	stw	r2,20(r23)
    4874:	3140e726 	beq	r6,r5,4c14 <_realloc_r+0x5a0>
    4878:	20800017 	ldw	r2,0(r4)
    487c:	dd000017 	ldw	r20,0(sp)
    4880:	b80f883a 	mov	r7,r23
    4884:	40800015 	stw	r2,0(r8)
    4888:	20c00117 	ldw	r3,4(r4)
    488c:	40c00115 	stw	r3,4(r8)
    4890:	20800217 	ldw	r2,8(r4)
    4894:	40800215 	stw	r2,8(r8)
    4898:	003f9706 	br	46f8 <_realloc_r+0x84>
    489c:	98a9883a 	add	r20,r19,r2
    48a0:	a1c01f16 	blt	r20,r7,4920 <_realloc_r+0x2ac>
    48a4:	b8c00317 	ldw	r3,12(r23)
    48a8:	b8800217 	ldw	r2,8(r23)
    48ac:	99bfff04 	addi	r6,r19,-4
    48b0:	01400904 	movi	r5,36
    48b4:	b82b883a 	mov	r21,r23
    48b8:	18800215 	stw	r2,8(r3)
    48bc:	10c00315 	stw	r3,12(r2)
    48c0:	bc000204 	addi	r16,r23,8
    48c4:	2980c336 	bltu	r5,r6,4bd4 <_realloc_r+0x560>
    48c8:	008004c4 	movi	r2,19
    48cc:	9009883a 	mov	r4,r18
    48d0:	8011883a 	mov	r8,r16
    48d4:	11800f2e 	bgeu	r2,r6,4914 <_realloc_r+0x2a0>
    48d8:	90800017 	ldw	r2,0(r18)
    48dc:	ba000404 	addi	r8,r23,16
    48e0:	91000204 	addi	r4,r18,8
    48e4:	b8800215 	stw	r2,8(r23)
    48e8:	90c00117 	ldw	r3,4(r18)
    48ec:	008006c4 	movi	r2,27
    48f0:	b8c00315 	stw	r3,12(r23)
    48f4:	1180072e 	bgeu	r2,r6,4914 <_realloc_r+0x2a0>
    48f8:	90c00217 	ldw	r3,8(r18)
    48fc:	ba000604 	addi	r8,r23,24
    4900:	91000404 	addi	r4,r18,16
    4904:	b8c00415 	stw	r3,16(r23)
    4908:	90800317 	ldw	r2,12(r18)
    490c:	b8800515 	stw	r2,20(r23)
    4910:	3140c726 	beq	r6,r5,4c30 <_realloc_r+0x5bc>
    4914:	20800017 	ldw	r2,0(r4)
    4918:	b80f883a 	mov	r7,r23
    491c:	003fd906 	br	4884 <_realloc_r+0x210>
    4920:	880b883a 	mov	r5,r17
    4924:	b009883a 	mov	r4,r22
    4928:	0000a380 	call	a38 <_malloc_r>
    492c:	1023883a 	mov	r17,r2
    4930:	10002526 	beq	r2,zero,49c8 <_realloc_r+0x354>
    4934:	80800117 	ldw	r2,4(r16)
    4938:	00ffff84 	movi	r3,-2
    493c:	893ffe04 	addi	r4,r17,-8
    4940:	10c4703a 	and	r2,r2,r3
    4944:	8085883a 	add	r2,r16,r2
    4948:	20809526 	beq	r4,r2,4ba0 <_realloc_r+0x52c>
    494c:	99bfff04 	addi	r6,r19,-4
    4950:	01c00904 	movi	r7,36
    4954:	39804536 	bltu	r7,r6,4a6c <_realloc_r+0x3f8>
    4958:	008004c4 	movi	r2,19
    495c:	9009883a 	mov	r4,r18
    4960:	880b883a 	mov	r5,r17
    4964:	11800f2e 	bgeu	r2,r6,49a4 <_realloc_r+0x330>
    4968:	90800017 	ldw	r2,0(r18)
    496c:	89400204 	addi	r5,r17,8
    4970:	91000204 	addi	r4,r18,8
    4974:	88800015 	stw	r2,0(r17)
    4978:	90c00117 	ldw	r3,4(r18)
    497c:	008006c4 	movi	r2,27
    4980:	88c00115 	stw	r3,4(r17)
    4984:	1180072e 	bgeu	r2,r6,49a4 <_realloc_r+0x330>
    4988:	90c00217 	ldw	r3,8(r18)
    498c:	89400404 	addi	r5,r17,16
    4990:	91000404 	addi	r4,r18,16
    4994:	88c00215 	stw	r3,8(r17)
    4998:	90800317 	ldw	r2,12(r18)
    499c:	88800315 	stw	r2,12(r17)
    49a0:	31c09126 	beq	r6,r7,4be8 <_realloc_r+0x574>
    49a4:	20800017 	ldw	r2,0(r4)
    49a8:	28800015 	stw	r2,0(r5)
    49ac:	20c00117 	ldw	r3,4(r4)
    49b0:	28c00115 	stw	r3,4(r5)
    49b4:	20800217 	ldw	r2,8(r4)
    49b8:	28800215 	stw	r2,8(r5)
    49bc:	900b883a 	mov	r5,r18
    49c0:	b009883a 	mov	r4,r22
    49c4:	00039700 	call	3970 <_free_r>
    49c8:	b009883a 	mov	r4,r22
    49cc:	000f9100 	call	f910 <__malloc_unlock>
    49d0:	003f5e06 	br	474c <_realloc_r+0xd8>
    49d4:	300b883a 	mov	r5,r6
    49d8:	dfc00b17 	ldw	ra,44(sp)
    49dc:	df000a17 	ldw	fp,40(sp)
    49e0:	ddc00917 	ldw	r23,36(sp)
    49e4:	dd800817 	ldw	r22,32(sp)
    49e8:	dd400717 	ldw	r21,28(sp)
    49ec:	dd000617 	ldw	r20,24(sp)
    49f0:	dcc00517 	ldw	r19,20(sp)
    49f4:	dc800417 	ldw	r18,16(sp)
    49f8:	dc400317 	ldw	r17,12(sp)
    49fc:	dc000217 	ldw	r16,8(sp)
    4a00:	dec00c04 	addi	sp,sp,48
    4a04:	0000a381 	jmpi	a38 <_malloc_r>
    4a08:	38800117 	ldw	r2,4(r7)
    4a0c:	e54b883a 	add	r5,fp,r21
    4a10:	31000054 	ori	r4,r6,1
    4a14:	1080004c 	andi	r2,r2,1
    4a18:	1704b03a 	or	r2,r2,fp
    4a1c:	38800115 	stw	r2,4(r7)
    4a20:	29000115 	stw	r4,4(r5)
    4a24:	2987883a 	add	r3,r5,r6
    4a28:	18800117 	ldw	r2,4(r3)
    4a2c:	29400204 	addi	r5,r5,8
    4a30:	b009883a 	mov	r4,r22
    4a34:	10800054 	ori	r2,r2,1
    4a38:	18800115 	stw	r2,4(r3)
    4a3c:	00039700 	call	3970 <_free_r>
    4a40:	003f3806 	br	4724 <_realloc_r+0xb0>
    4a44:	000d883a 	mov	r6,zero
    4a48:	0009883a 	mov	r4,zero
    4a4c:	003f5d06 	br	47c4 <_realloc_r+0x150>
    4a50:	30c00217 	ldw	r3,8(r6)
    4a54:	30800317 	ldw	r2,12(r6)
    4a58:	800f883a 	mov	r7,r16
    4a5c:	84000204 	addi	r16,r16,8
    4a60:	10c00215 	stw	r3,8(r2)
    4a64:	18800315 	stw	r2,12(r3)
    4a68:	003f2306 	br	46f8 <_realloc_r+0x84>
    4a6c:	8809883a 	mov	r4,r17
    4a70:	900b883a 	mov	r5,r18
    4a74:	000451c0 	call	451c <memmove>
    4a78:	003fd006 	br	49bc <_realloc_r+0x348>
    4a7c:	30800117 	ldw	r2,4(r6)
    4a80:	e0c00404 	addi	r3,fp,16
    4a84:	1108703a 	and	r4,r2,r4
    4a88:	9905883a 	add	r2,r19,r4
    4a8c:	10ff4d16 	blt	r2,r3,47c4 <_realloc_r+0x150>
    4a90:	1705c83a 	sub	r2,r2,fp
    4a94:	870b883a 	add	r5,r16,fp
    4a98:	10800054 	ori	r2,r2,1
    4a9c:	28800115 	stw	r2,4(r5)
    4aa0:	80c00117 	ldw	r3,4(r16)
    4aa4:	00800074 	movhi	r2,1
    4aa8:	1089d604 	addi	r2,r2,10072
    4aac:	b009883a 	mov	r4,r22
    4ab0:	18c0004c 	andi	r3,r3,1
    4ab4:	e0c6b03a 	or	r3,fp,r3
    4ab8:	11400215 	stw	r5,8(r2)
    4abc:	80c00115 	stw	r3,4(r16)
    4ac0:	000f9100 	call	f910 <__malloc_unlock>
    4ac4:	84400204 	addi	r17,r16,8
    4ac8:	003f2006 	br	474c <_realloc_r+0xd8>
    4acc:	98a9883a 	add	r20,r19,r2
    4ad0:	2509883a 	add	r4,r4,r20
    4ad4:	e0800404 	addi	r2,fp,16
    4ad8:	d9000115 	stw	r4,4(sp)
    4adc:	20bf7016 	blt	r4,r2,48a0 <_realloc_r+0x22c>
    4ae0:	b8c00317 	ldw	r3,12(r23)
    4ae4:	b8800217 	ldw	r2,8(r23)
    4ae8:	99bfff04 	addi	r6,r19,-4
    4aec:	01400904 	movi	r5,36
    4af0:	18800215 	stw	r2,8(r3)
    4af4:	10c00315 	stw	r3,12(r2)
    4af8:	bc400204 	addi	r17,r23,8
    4afc:	29804136 	bltu	r5,r6,4c04 <_realloc_r+0x590>
    4b00:	008004c4 	movi	r2,19
    4b04:	9009883a 	mov	r4,r18
    4b08:	880f883a 	mov	r7,r17
    4b0c:	11800f2e 	bgeu	r2,r6,4b4c <_realloc_r+0x4d8>
    4b10:	90800017 	ldw	r2,0(r18)
    4b14:	b9c00404 	addi	r7,r23,16
    4b18:	91000204 	addi	r4,r18,8
    4b1c:	b8800215 	stw	r2,8(r23)
    4b20:	90c00117 	ldw	r3,4(r18)
    4b24:	008006c4 	movi	r2,27
    4b28:	b8c00315 	stw	r3,12(r23)
    4b2c:	1180072e 	bgeu	r2,r6,4b4c <_realloc_r+0x4d8>
    4b30:	90c00217 	ldw	r3,8(r18)
    4b34:	b9c00604 	addi	r7,r23,24
    4b38:	91000404 	addi	r4,r18,16
    4b3c:	b8c00415 	stw	r3,16(r23)
    4b40:	90800317 	ldw	r2,12(r18)
    4b44:	b8800515 	stw	r2,20(r23)
    4b48:	31404026 	beq	r6,r5,4c4c <_realloc_r+0x5d8>
    4b4c:	20800017 	ldw	r2,0(r4)
    4b50:	38800015 	stw	r2,0(r7)
    4b54:	20c00117 	ldw	r3,4(r4)
    4b58:	38c00115 	stw	r3,4(r7)
    4b5c:	20800217 	ldw	r2,8(r4)
    4b60:	38800215 	stw	r2,8(r7)
    4b64:	d8c00117 	ldw	r3,4(sp)
    4b68:	bf0b883a 	add	r5,r23,fp
    4b6c:	b009883a 	mov	r4,r22
    4b70:	1f05c83a 	sub	r2,r3,fp
    4b74:	10800054 	ori	r2,r2,1
    4b78:	28800115 	stw	r2,4(r5)
    4b7c:	b8c00117 	ldw	r3,4(r23)
    4b80:	00800074 	movhi	r2,1
    4b84:	1089d604 	addi	r2,r2,10072
    4b88:	11400215 	stw	r5,8(r2)
    4b8c:	18c0004c 	andi	r3,r3,1
    4b90:	e0c6b03a 	or	r3,fp,r3
    4b94:	b8c00115 	stw	r3,4(r23)
    4b98:	000f9100 	call	f910 <__malloc_unlock>
    4b9c:	003eeb06 	br	474c <_realloc_r+0xd8>
    4ba0:	20800117 	ldw	r2,4(r4)
    4ba4:	00ffff04 	movi	r3,-4
    4ba8:	800f883a 	mov	r7,r16
    4bac:	10c4703a 	and	r2,r2,r3
    4bb0:	98a9883a 	add	r20,r19,r2
    4bb4:	84000204 	addi	r16,r16,8
    4bb8:	003ecf06 	br	46f8 <_realloc_r+0x84>
    4bbc:	900b883a 	mov	r5,r18
    4bc0:	8009883a 	mov	r4,r16
    4bc4:	000451c0 	call	451c <memmove>
    4bc8:	dd000017 	ldw	r20,0(sp)
    4bcc:	b80f883a 	mov	r7,r23
    4bd0:	003ec906 	br	46f8 <_realloc_r+0x84>
    4bd4:	900b883a 	mov	r5,r18
    4bd8:	8009883a 	mov	r4,r16
    4bdc:	000451c0 	call	451c <memmove>
    4be0:	b80f883a 	mov	r7,r23
    4be4:	003ec406 	br	46f8 <_realloc_r+0x84>
    4be8:	90c00417 	ldw	r3,16(r18)
    4bec:	89400604 	addi	r5,r17,24
    4bf0:	91000604 	addi	r4,r18,24
    4bf4:	88c00415 	stw	r3,16(r17)
    4bf8:	90800517 	ldw	r2,20(r18)
    4bfc:	88800515 	stw	r2,20(r17)
    4c00:	003f6806 	br	49a4 <_realloc_r+0x330>
    4c04:	900b883a 	mov	r5,r18
    4c08:	8809883a 	mov	r4,r17
    4c0c:	000451c0 	call	451c <memmove>
    4c10:	003fd406 	br	4b64 <_realloc_r+0x4f0>
    4c14:	90c00417 	ldw	r3,16(r18)
    4c18:	91000604 	addi	r4,r18,24
    4c1c:	ba000804 	addi	r8,r23,32
    4c20:	b8c00615 	stw	r3,24(r23)
    4c24:	90800517 	ldw	r2,20(r18)
    4c28:	b8800715 	stw	r2,28(r23)
    4c2c:	003f1206 	br	4878 <_realloc_r+0x204>
    4c30:	90c00417 	ldw	r3,16(r18)
    4c34:	91000604 	addi	r4,r18,24
    4c38:	ba000804 	addi	r8,r23,32
    4c3c:	b8c00615 	stw	r3,24(r23)
    4c40:	90800517 	ldw	r2,20(r18)
    4c44:	b8800715 	stw	r2,28(r23)
    4c48:	003f3206 	br	4914 <_realloc_r+0x2a0>
    4c4c:	90c00417 	ldw	r3,16(r18)
    4c50:	91000604 	addi	r4,r18,24
    4c54:	b9c00804 	addi	r7,r23,32
    4c58:	b8c00615 	stw	r3,24(r23)
    4c5c:	90800517 	ldw	r2,20(r18)
    4c60:	b8800715 	stw	r2,28(r23)
    4c64:	003fb906 	br	4b4c <_realloc_r+0x4d8>

00004c68 <__isnand>:
    4c68:	200d883a 	mov	r6,r4
    4c6c:	0109c83a 	sub	r4,zero,r4
    4c70:	2188b03a 	or	r4,r4,r6
    4c74:	2008d7fa 	srli	r4,r4,31
    4c78:	00a00034 	movhi	r2,32768
    4c7c:	10bfffc4 	addi	r2,r2,-1
    4c80:	1144703a 	and	r2,r2,r5
    4c84:	2088b03a 	or	r4,r4,r2
    4c88:	009ffc34 	movhi	r2,32752
    4c8c:	1105c83a 	sub	r2,r2,r4
    4c90:	1004d7fa 	srli	r2,r2,31
    4c94:	f800283a 	ret

00004c98 <__sccl>:
    4c98:	28c00003 	ldbu	r3,0(r5)
    4c9c:	00801784 	movi	r2,94
    4ca0:	2a000044 	addi	r8,r5,1
    4ca4:	18802526 	beq	r3,r2,4d3c <__sccl+0xa4>
    4ca8:	180f883a 	mov	r7,r3
    4cac:	0013883a 	mov	r9,zero
    4cb0:	000d883a 	mov	r6,zero
    4cb4:	0007883a 	mov	r3,zero
    4cb8:	01404004 	movi	r5,256
    4cbc:	1905883a 	add	r2,r3,r4
    4cc0:	18c00044 	addi	r3,r3,1
    4cc4:	11800005 	stb	r6,0(r2)
    4cc8:	197ffc1e 	bne	r3,r5,4cbc <__sccl+0x24>
    4ccc:	38000c26 	beq	r7,zero,4d00 <__sccl+0x68>
    4cd0:	00800044 	movi	r2,1
    4cd4:	124dc83a 	sub	r6,r2,r9
    4cd8:	3905883a 	add	r2,r7,r4
    4cdc:	11800005 	stb	r6,0(r2)
    4ce0:	41400044 	addi	r5,r8,1
    4ce4:	02400b44 	movi	r9,45
    4ce8:	02801744 	movi	r10,93
    4cec:	28bfffc3 	ldbu	r2,-1(r5)
    4cf0:	2811883a 	mov	r8,r5
    4cf4:	12400726 	beq	r2,r9,4d14 <__sccl+0x7c>
    4cf8:	12800226 	beq	r2,r10,4d04 <__sccl+0x6c>
    4cfc:	1000031e 	bne	r2,zero,4d0c <__sccl+0x74>
    4d00:	423fffc4 	addi	r8,r8,-1
    4d04:	4005883a 	mov	r2,r8
    4d08:	f800283a 	ret
    4d0c:	100f883a 	mov	r7,r2
    4d10:	003ff106 	br	4cd8 <__sccl+0x40>
    4d14:	28c00003 	ldbu	r3,0(r5)
    4d18:	1a800d26 	beq	r3,r10,4d50 <__sccl+0xb8>
    4d1c:	19c00c16 	blt	r3,r7,4d50 <__sccl+0xb8>
    4d20:	21c5883a 	add	r2,r4,r7
    4d24:	39c00044 	addi	r7,r7,1
    4d28:	11800045 	stb	r6,1(r2)
    4d2c:	10800044 	addi	r2,r2,1
    4d30:	38fffc16 	blt	r7,r3,4d24 <__sccl+0x8c>
    4d34:	29400084 	addi	r5,r5,2
    4d38:	003fec06 	br	4cec <__sccl+0x54>
    4d3c:	29c00043 	ldbu	r7,1(r5)
    4d40:	02400044 	movi	r9,1
    4d44:	2a000084 	addi	r8,r5,2
    4d48:	480d883a 	mov	r6,r9
    4d4c:	003fd906 	br	4cb4 <__sccl+0x1c>
    4d50:	01c00b44 	movi	r7,45
    4d54:	003fe006 	br	4cd8 <__sccl+0x40>

00004d58 <nanf>:
    4d58:	009ff034 	movhi	r2,32704
    4d5c:	f800283a 	ret

00004d60 <sprintf>:
    4d60:	deffe504 	addi	sp,sp,-108
    4d64:	2013883a 	mov	r9,r4
    4d68:	dfc01815 	stw	ra,96(sp)
    4d6c:	d9801915 	stw	r6,100(sp)
    4d70:	d9c01a15 	stw	r7,104(sp)
    4d74:	d8801904 	addi	r2,sp,100
    4d78:	d8800015 	stw	r2,0(sp)
    4d7c:	00800074 	movhi	r2,1
    4d80:	108f6704 	addi	r2,r2,15772
    4d84:	11000017 	ldw	r4,0(r2)
    4d88:	d9c00017 	ldw	r7,0(sp)
    4d8c:	00808204 	movi	r2,520
    4d90:	00e00034 	movhi	r3,32768
    4d94:	18ffffc4 	addi	r3,r3,-1
    4d98:	280d883a 	mov	r6,r5
    4d9c:	d880040d 	sth	r2,16(sp)
    4da0:	d9400104 	addi	r5,sp,4
    4da4:	00bfffc4 	movi	r2,-1
    4da8:	d8c00615 	stw	r3,24(sp)
    4dac:	d8c00315 	stw	r3,12(sp)
    4db0:	da400515 	stw	r9,20(sp)
    4db4:	d880048d 	sth	r2,18(sp)
    4db8:	da400115 	stw	r9,4(sp)
    4dbc:	000730c0 	call	730c <___vfprintf_internal_r>
    4dc0:	d8c00117 	ldw	r3,4(sp)
    4dc4:	18000005 	stb	zero,0(r3)
    4dc8:	dfc01817 	ldw	ra,96(sp)
    4dcc:	dec01b04 	addi	sp,sp,108
    4dd0:	f800283a 	ret

00004dd4 <_sprintf_r>:
    4dd4:	deffe604 	addi	sp,sp,-104
    4dd8:	2813883a 	mov	r9,r5
    4ddc:	dfc01815 	stw	ra,96(sp)
    4de0:	d9c01915 	stw	r7,100(sp)
    4de4:	d8801904 	addi	r2,sp,100
    4de8:	d8800015 	stw	r2,0(sp)
    4dec:	100f883a 	mov	r7,r2
    4df0:	00808204 	movi	r2,520
    4df4:	00e00034 	movhi	r3,32768
    4df8:	18ffffc4 	addi	r3,r3,-1
    4dfc:	d880040d 	sth	r2,16(sp)
    4e00:	d9400104 	addi	r5,sp,4
    4e04:	00bfffc4 	movi	r2,-1
    4e08:	d8c00615 	stw	r3,24(sp)
    4e0c:	d8c00315 	stw	r3,12(sp)
    4e10:	da400515 	stw	r9,20(sp)
    4e14:	d880048d 	sth	r2,18(sp)
    4e18:	da400115 	stw	r9,4(sp)
    4e1c:	000730c0 	call	730c <___vfprintf_internal_r>
    4e20:	d8c00117 	ldw	r3,4(sp)
    4e24:	18000005 	stb	zero,0(r3)
    4e28:	dfc01817 	ldw	ra,96(sp)
    4e2c:	dec01a04 	addi	sp,sp,104
    4e30:	f800283a 	ret

00004e34 <strcmp>:
    4e34:	2144b03a 	or	r2,r4,r5
    4e38:	108000cc 	andi	r2,r2,3
    4e3c:	10001d1e 	bne	r2,zero,4eb4 <strcmp+0x80>
    4e40:	200f883a 	mov	r7,r4
    4e44:	28800017 	ldw	r2,0(r5)
    4e48:	21000017 	ldw	r4,0(r4)
    4e4c:	280d883a 	mov	r6,r5
    4e50:	2080161e 	bne	r4,r2,4eac <strcmp+0x78>
    4e54:	023fbff4 	movhi	r8,65279
    4e58:	423fbfc4 	addi	r8,r8,-257
    4e5c:	2207883a 	add	r3,r4,r8
    4e60:	01602074 	movhi	r5,32897
    4e64:	29602004 	addi	r5,r5,-32640
    4e68:	1946703a 	and	r3,r3,r5
    4e6c:	0104303a 	nor	r2,zero,r4
    4e70:	10c4703a 	and	r2,r2,r3
    4e74:	10001c1e 	bne	r2,zero,4ee8 <strcmp+0xb4>
    4e78:	4013883a 	mov	r9,r8
    4e7c:	2811883a 	mov	r8,r5
    4e80:	00000106 	br	4e88 <strcmp+0x54>
    4e84:	1800181e 	bne	r3,zero,4ee8 <strcmp+0xb4>
    4e88:	39c00104 	addi	r7,r7,4
    4e8c:	39000017 	ldw	r4,0(r7)
    4e90:	31800104 	addi	r6,r6,4
    4e94:	31400017 	ldw	r5,0(r6)
    4e98:	2245883a 	add	r2,r4,r9
    4e9c:	1204703a 	and	r2,r2,r8
    4ea0:	0106303a 	nor	r3,zero,r4
    4ea4:	1886703a 	and	r3,r3,r2
    4ea8:	217ff626 	beq	r4,r5,4e84 <strcmp+0x50>
    4eac:	3809883a 	mov	r4,r7
    4eb0:	300b883a 	mov	r5,r6
    4eb4:	20c00007 	ldb	r3,0(r4)
    4eb8:	1800051e 	bne	r3,zero,4ed0 <strcmp+0x9c>
    4ebc:	00000606 	br	4ed8 <strcmp+0xa4>
    4ec0:	21000044 	addi	r4,r4,1
    4ec4:	20c00007 	ldb	r3,0(r4)
    4ec8:	29400044 	addi	r5,r5,1
    4ecc:	18000226 	beq	r3,zero,4ed8 <strcmp+0xa4>
    4ed0:	28800007 	ldb	r2,0(r5)
    4ed4:	18bffa26 	beq	r3,r2,4ec0 <strcmp+0x8c>
    4ed8:	20c00003 	ldbu	r3,0(r4)
    4edc:	28800003 	ldbu	r2,0(r5)
    4ee0:	1885c83a 	sub	r2,r3,r2
    4ee4:	f800283a 	ret
    4ee8:	0005883a 	mov	r2,zero
    4eec:	f800283a 	ret

00004ef0 <match>:
    4ef0:	21800017 	ldw	r6,0(r4)
    4ef4:	01c01004 	movi	r7,64
    4ef8:	02001684 	movi	r8,90
    4efc:	28800007 	ldb	r2,0(r5)
    4f00:	29400044 	addi	r5,r5,1
    4f04:	10000826 	beq	r2,zero,4f28 <match+0x38>
    4f08:	31800044 	addi	r6,r6,1
    4f0c:	30c00007 	ldb	r3,0(r6)
    4f10:	38c0020e 	bge	r7,r3,4f1c <match+0x2c>
    4f14:	40c00116 	blt	r8,r3,4f1c <match+0x2c>
    4f18:	18c00804 	addi	r3,r3,32
    4f1c:	18bff726 	beq	r3,r2,4efc <match+0xc>
    4f20:	0005883a 	mov	r2,zero
    4f24:	f800283a 	ret
    4f28:	30800044 	addi	r2,r6,1
    4f2c:	20800015 	stw	r2,0(r4)
    4f30:	00800044 	movi	r2,1
    4f34:	f800283a 	ret

00004f38 <_strtod_r>:
    4f38:	deffde04 	addi	sp,sp,-136
    4f3c:	df002015 	stw	fp,128(sp)
    4f40:	dd401d15 	stw	r21,116(sp)
    4f44:	dc401915 	stw	r17,100(sp)
    4f48:	dfc02115 	stw	ra,132(sp)
    4f4c:	ddc01f15 	stw	r23,124(sp)
    4f50:	dd801e15 	stw	r22,120(sp)
    4f54:	dd001c15 	stw	r20,112(sp)
    4f58:	dcc01b15 	stw	r19,108(sp)
    4f5c:	dc801a15 	stw	r18,104(sp)
    4f60:	dc001815 	stw	r16,96(sp)
    4f64:	2823883a 	mov	r17,r5
    4f68:	202b883a 	mov	r21,r4
    4f6c:	d9801515 	stw	r6,84(sp)
    4f70:	d8000915 	stw	zero,36(sp)
    4f74:	d8000a15 	stw	zero,40(sp)
    4f78:	d9400415 	stw	r5,16(sp)
    4f7c:	df000904 	addi	fp,sp,36
    4f80:	da000417 	ldw	r8,16(sp)
    4f84:	00800b44 	movi	r2,45
    4f88:	40c00003 	ldbu	r3,0(r8)
    4f8c:	10c03536 	bltu	r2,r3,5064 <_strtod_r+0x12c>
    4f90:	18c5883a 	add	r2,r3,r3
    4f94:	1085883a 	add	r2,r2,r2
    4f98:	00c00034 	movhi	r3,0
    4f9c:	18d3eb04 	addi	r3,r3,20396
    4fa0:	10c5883a 	add	r2,r2,r3
    4fa4:	11000017 	ldw	r4,0(r2)
    4fa8:	2000683a 	jmp	r4
    4fac:	000051a0 	cmpeqi	zero,zero,326
    4fb0:	00005064 	muli	zero,zero,321
    4fb4:	00005064 	muli	zero,zero,321
    4fb8:	00005064 	muli	zero,zero,321
    4fbc:	00005064 	muli	zero,zero,321
    4fc0:	00005064 	muli	zero,zero,321
    4fc4:	00005064 	muli	zero,zero,321
    4fc8:	00005064 	muli	zero,zero,321
    4fcc:	00005064 	muli	zero,zero,321
    4fd0:	000054b8 	rdprs	zero,zero,338
    4fd4:	000054b8 	rdprs	zero,zero,338
    4fd8:	000054b8 	rdprs	zero,zero,338
    4fdc:	000054b8 	rdprs	zero,zero,338
    4fe0:	000054b8 	rdprs	zero,zero,338
    4fe4:	00005064 	muli	zero,zero,321
    4fe8:	00005064 	muli	zero,zero,321
    4fec:	00005064 	muli	zero,zero,321
    4ff0:	00005064 	muli	zero,zero,321
    4ff4:	00005064 	muli	zero,zero,321
    4ff8:	00005064 	muli	zero,zero,321
    4ffc:	00005064 	muli	zero,zero,321
    5000:	00005064 	muli	zero,zero,321
    5004:	00005064 	muli	zero,zero,321
    5008:	00005064 	muli	zero,zero,321
    500c:	00005064 	muli	zero,zero,321
    5010:	00005064 	muli	zero,zero,321
    5014:	00005064 	muli	zero,zero,321
    5018:	00005064 	muli	zero,zero,321
    501c:	00005064 	muli	zero,zero,321
    5020:	00005064 	muli	zero,zero,321
    5024:	00005064 	muli	zero,zero,321
    5028:	00005064 	muli	zero,zero,321
    502c:	000054b8 	rdprs	zero,zero,338
    5030:	00005064 	muli	zero,zero,321
    5034:	00005064 	muli	zero,zero,321
    5038:	00005064 	muli	zero,zero,321
    503c:	00005064 	muli	zero,zero,321
    5040:	00005064 	muli	zero,zero,321
    5044:	00005064 	muli	zero,zero,321
    5048:	00005064 	muli	zero,zero,321
    504c:	00005064 	muli	zero,zero,321
    5050:	00005064 	muli	zero,zero,321
    5054:	00005064 	muli	zero,zero,321
    5058:	00005498 	cmpnei	zero,zero,338
    505c:	00005064 	muli	zero,zero,321
    5060:	000054c4 	movi	zero,339
    5064:	d8001115 	stw	zero,68(sp)
    5068:	40c00007 	ldb	r3,0(r8)
    506c:	00800c04 	movi	r2,48
    5070:	1880d026 	beq	r3,r2,53b4 <_strtod_r+0x47c>
    5074:	001f883a 	mov	r15,zero
    5078:	41000007 	ldb	r4,0(r8)
    507c:	00c00bc4 	movi	r3,47
    5080:	402d883a 	mov	r22,r8
    5084:	1903470e 	bge	r3,r4,5da4 <_strtod_r+0xe6c>
    5088:	00800e44 	movi	r2,57
    508c:	11034516 	blt	r2,r4,5da4 <_strtod_r+0xe6c>
    5090:	180f883a 	mov	r7,r3
    5094:	1013883a 	mov	r9,r2
    5098:	4007883a 	mov	r3,r8
    509c:	000d883a 	mov	r6,zero
    50a0:	0029883a 	mov	r20,zero
    50a4:	0021883a 	mov	r16,zero
    50a8:	01400204 	movi	r5,8
    50ac:	028003c4 	movi	r10,15
    50b0:	29803116 	blt	r5,r6,5178 <_strtod_r+0x240>
    50b4:	a08002a4 	muli	r2,r20,10
    50b8:	1105883a 	add	r2,r2,r4
    50bc:	153ff404 	addi	r20,r2,-48
    50c0:	1a000044 	addi	r8,r3,1
    50c4:	da000415 	stw	r8,16(sp)
    50c8:	41000007 	ldb	r4,0(r8)
    50cc:	31800044 	addi	r6,r6,1
    50d0:	4007883a 	mov	r3,r8
    50d4:	3900010e 	bge	r7,r4,50dc <_strtod_r+0x1a4>
    50d8:	493ff50e 	bge	r9,r4,50b0 <_strtod_r+0x178>
    50dc:	00800b84 	movi	r2,46
    50e0:	2080c126 	beq	r4,r2,53e8 <_strtod_r+0x4b0>
    50e4:	3027883a 	mov	r19,r6
    50e8:	0025883a 	mov	r18,zero
    50ec:	0015883a 	mov	r10,zero
    50f0:	000f883a 	mov	r7,zero
    50f4:	00801944 	movi	r2,101
    50f8:	20802426 	beq	r4,r2,518c <_strtod_r+0x254>
    50fc:	00801144 	movi	r2,69
    5100:	20802226 	beq	r4,r2,518c <_strtod_r+0x254>
    5104:	9816c03a 	cmpne	r11,r19,zero
    5108:	000b883a 	mov	r5,zero
    510c:	5800631e 	bne	r11,zero,529c <_strtod_r+0x364>
    5110:	3800c126 	beq	r7,zero,5418 <_strtod_r+0x4e0>
    5114:	d8c01517 	ldw	r3,84(sp)
    5118:	18000226 	beq	r3,zero,5124 <_strtod_r+0x1ec>
    511c:	d8800417 	ldw	r2,16(sp)
    5120:	18800015 	stw	r2,0(r3)
    5124:	d9001117 	ldw	r4,68(sp)
    5128:	2005003a 	cmpeq	r2,r4,zero
    512c:	10001f1e 	bne	r2,zero,51ac <_strtod_r+0x274>
    5130:	e0800017 	ldw	r2,0(fp)
    5134:	e0c00117 	ldw	r3,4(fp)
    5138:	1009883a 	mov	r4,r2
    513c:	1960003c 	xorhi	r5,r3,32768
    5140:	2005883a 	mov	r2,r4
    5144:	2807883a 	mov	r3,r5
    5148:	dfc02117 	ldw	ra,132(sp)
    514c:	df002017 	ldw	fp,128(sp)
    5150:	ddc01f17 	ldw	r23,124(sp)
    5154:	dd801e17 	ldw	r22,120(sp)
    5158:	dd401d17 	ldw	r21,116(sp)
    515c:	dd001c17 	ldw	r20,112(sp)
    5160:	dcc01b17 	ldw	r19,108(sp)
    5164:	dc801a17 	ldw	r18,104(sp)
    5168:	dc401917 	ldw	r17,100(sp)
    516c:	dc001817 	ldw	r16,96(sp)
    5170:	dec02204 	addi	sp,sp,136
    5174:	f800283a 	ret
    5178:	51bfd116 	blt	r10,r6,50c0 <_strtod_r+0x188>
    517c:	808002a4 	muli	r2,r16,10
    5180:	1105883a 	add	r2,r2,r4
    5184:	143ff404 	addi	r16,r2,-48
    5188:	003fcd06 	br	50c0 <_strtod_r+0x188>
    518c:	9816c03a 	cmpne	r11,r19,zero
    5190:	5800091e 	bne	r11,zero,51b8 <_strtod_r+0x280>
    5194:	3800081e 	bne	r7,zero,51b8 <_strtod_r+0x280>
    5198:	7805003a 	cmpeq	r2,r15,zero
    519c:	10000626 	beq	r2,zero,51b8 <_strtod_r+0x280>
    51a0:	d8001115 	stw	zero,68(sp)
    51a4:	dc400415 	stw	r17,16(sp)
    51a8:	003fda06 	br	5114 <_strtod_r+0x1dc>
    51ac:	e1000017 	ldw	r4,0(fp)
    51b0:	e1400117 	ldw	r5,4(fp)
    51b4:	003fe206 	br	5140 <_strtod_r+0x208>
    51b8:	dc400417 	ldw	r17,16(sp)
    51bc:	00800ac4 	movi	r2,43
    51c0:	8a000044 	addi	r8,r17,1
    51c4:	da000415 	stw	r8,16(sp)
    51c8:	88c00047 	ldb	r3,1(r17)
    51cc:	4009883a 	mov	r4,r8
    51d0:	1880bf26 	beq	r3,r2,54d0 <_strtod_r+0x598>
    51d4:	00800b44 	movi	r2,45
    51d8:	18834526 	beq	r3,r2,5ef0 <_strtod_r+0xfb8>
    51dc:	1809883a 	mov	r4,r3
    51e0:	20fff404 	addi	r3,r4,-48
    51e4:	00800244 	movi	r2,9
    51e8:	001d883a 	mov	r14,zero
    51ec:	10c0bf36 	bltu	r2,r3,54ec <_strtod_r+0x5b4>
    51f0:	00800c04 	movi	r2,48
    51f4:	2080061e 	bne	r4,r2,5210 <_strtod_r+0x2d8>
    51f8:	da000417 	ldw	r8,16(sp)
    51fc:	2005883a 	mov	r2,r4
    5200:	42000044 	addi	r8,r8,1
    5204:	da000415 	stw	r8,16(sp)
    5208:	41000007 	ldb	r4,0(r8)
    520c:	20bffc26 	beq	r4,r2,5200 <_strtod_r+0x2c8>
    5210:	20fff3c4 	addi	r3,r4,-49
    5214:	00800204 	movi	r2,8
    5218:	10ffbb36 	bltu	r2,r3,5108 <_strtod_r+0x1d0>
    521c:	da000417 	ldw	r8,16(sp)
    5220:	227ff404 	addi	r9,r4,-48
    5224:	03000bc4 	movi	r12,47
    5228:	4007883a 	mov	r3,r8
    522c:	42000044 	addi	r8,r8,1
    5230:	da000415 	stw	r8,16(sp)
    5234:	41000007 	ldb	r4,0(r8)
    5238:	61000d0e 	bge	r12,r4,5270 <_strtod_r+0x338>
    523c:	00800e44 	movi	r2,57
    5240:	11000b16 	blt	r2,r4,5270 <_strtod_r+0x338>
    5244:	601b883a 	mov	r13,r12
    5248:	1019883a 	mov	r12,r2
    524c:	00000106 	br	5254 <_strtod_r+0x31c>
    5250:	61000716 	blt	r12,r4,5270 <_strtod_r+0x338>
    5254:	488002a4 	muli	r2,r9,10
    5258:	42000044 	addi	r8,r8,1
    525c:	da000415 	stw	r8,16(sp)
    5260:	2085883a 	add	r2,r4,r2
    5264:	41000007 	ldb	r4,0(r8)
    5268:	127ff404 	addi	r9,r2,-48
    526c:	693ff816 	blt	r13,r4,5250 <_strtod_r+0x318>
    5270:	40c7c83a 	sub	r3,r8,r3
    5274:	00800204 	movi	r2,8
    5278:	10c2e416 	blt	r2,r3,5e0c <_strtod_r+0xed4>
    527c:	009387c4 	movi	r2,19999
    5280:	480b883a 	mov	r5,r9
    5284:	1240010e 	bge	r2,r9,528c <_strtod_r+0x354>
    5288:	100b883a 	mov	r5,r2
    528c:	7005003a 	cmpeq	r2,r14,zero
    5290:	103f9e1e 	bne	r2,zero,510c <_strtod_r+0x1d4>
    5294:	014bc83a 	sub	r5,zero,r5
    5298:	583f9d26 	beq	r11,zero,5110 <_strtod_r+0x1d8>
    529c:	2a8bc83a 	sub	r5,r5,r10
    52a0:	d9400f15 	stw	r5,60(sp)
    52a4:	30007a1e 	bne	r6,zero,5490 <_strtod_r+0x558>
    52a8:	dcc01215 	stw	r19,72(sp)
    52ac:	00800404 	movi	r2,16
    52b0:	9825883a 	mov	r18,r19
    52b4:	14c0010e 	bge	r2,r19,52bc <_strtod_r+0x384>
    52b8:	1025883a 	mov	r18,r2
    52bc:	a009883a 	mov	r4,r20
    52c0:	000e6fc0 	call	e6fc <__floatunsidf>
    52c4:	100f883a 	mov	r7,r2
    52c8:	e0800015 	stw	r2,0(fp)
    52cc:	00800244 	movi	r2,9
    52d0:	e0c00115 	stw	r3,4(fp)
    52d4:	1480160e 	bge	r2,r18,5330 <_strtod_r+0x3f8>
    52d8:	900c90fa 	slli	r6,r18,3
    52dc:	01000074 	movhi	r4,1
    52e0:	21083b04 	addi	r4,r4,8428
    52e4:	180b883a 	mov	r5,r3
    52e8:	310d883a 	add	r6,r6,r4
    52ec:	30ffef17 	ldw	r3,-68(r6)
    52f0:	30bfee17 	ldw	r2,-72(r6)
    52f4:	3809883a 	mov	r4,r7
    52f8:	180f883a 	mov	r7,r3
    52fc:	100d883a 	mov	r6,r2
    5300:	000db6c0 	call	db6c <__muldf3>
    5304:	8009883a 	mov	r4,r16
    5308:	1823883a 	mov	r17,r3
    530c:	1021883a 	mov	r16,r2
    5310:	000e6fc0 	call	e6fc <__floatunsidf>
    5314:	880b883a 	mov	r5,r17
    5318:	180f883a 	mov	r7,r3
    531c:	8009883a 	mov	r4,r16
    5320:	100d883a 	mov	r6,r2
    5324:	000daf80 	call	daf8 <__adddf3>
    5328:	e0c00115 	stw	r3,4(fp)
    532c:	e0800015 	stw	r2,0(fp)
    5330:	010003c4 	movi	r4,15
    5334:	24c09816 	blt	r4,r19,5598 <_strtod_r+0x660>
    5338:	d9800f17 	ldw	r6,60(sp)
    533c:	303f7526 	beq	r6,zero,5114 <_strtod_r+0x1dc>
    5340:	0183be0e 	bge	zero,r6,623c <_strtod_r+0x1304>
    5344:	00800584 	movi	r2,22
    5348:	1182b20e 	bge	r2,r6,5e14 <_strtod_r+0xedc>
    534c:	d8c00f17 	ldw	r3,60(sp)
    5350:	24e3c83a 	sub	r17,r4,r19
    5354:	88800584 	addi	r2,r17,22
    5358:	10c08f16 	blt	r2,r3,5598 <_strtod_r+0x660>
    535c:	880890fa 	slli	r4,r17,3
    5360:	04000074 	movhi	r16,1
    5364:	84083b04 	addi	r16,r16,8428
    5368:	e0800017 	ldw	r2,0(fp)
    536c:	2409883a 	add	r4,r4,r16
    5370:	22000017 	ldw	r8,0(r4)
    5374:	22400117 	ldw	r9,4(r4)
    5378:	e0c00117 	ldw	r3,4(fp)
    537c:	1009883a 	mov	r4,r2
    5380:	480f883a 	mov	r7,r9
    5384:	180b883a 	mov	r5,r3
    5388:	400d883a 	mov	r6,r8
    538c:	000db6c0 	call	db6c <__muldf3>
    5390:	d9000f17 	ldw	r4,60(sp)
    5394:	180b883a 	mov	r5,r3
    5398:	2455c83a 	sub	r10,r4,r17
    539c:	501490fa 	slli	r10,r10,3
    53a0:	1009883a 	mov	r4,r2
    53a4:	5415883a 	add	r10,r10,r16
    53a8:	52000017 	ldw	r8,0(r10)
    53ac:	52400117 	ldw	r9,4(r10)
    53b0:	0002a206 	br	5e3c <_strtod_r+0xf04>
    53b4:	40c00047 	ldb	r3,1(r8)
    53b8:	00801604 	movi	r2,88
    53bc:	18804e26 	beq	r3,r2,54f8 <_strtod_r+0x5c0>
    53c0:	00801e04 	movi	r2,120
    53c4:	18804c26 	beq	r3,r2,54f8 <_strtod_r+0x5c0>
    53c8:	42000044 	addi	r8,r8,1
    53cc:	da000415 	stw	r8,16(sp)
    53d0:	40c00007 	ldb	r3,0(r8)
    53d4:	00800c04 	movi	r2,48
    53d8:	18bffb26 	beq	r3,r2,53c8 <_strtod_r+0x490>
    53dc:	183f4d26 	beq	r3,zero,5114 <_strtod_r+0x1dc>
    53e0:	03c00044 	movi	r15,1
    53e4:	003f2406 	br	5078 <_strtod_r+0x140>
    53e8:	42000044 	addi	r8,r8,1
    53ec:	da000415 	stw	r8,16(sp)
    53f0:	19000047 	ldb	r4,1(r3)
    53f4:	3000b726 	beq	r6,zero,56d4 <_strtod_r+0x79c>
    53f8:	3027883a 	mov	r19,r6
    53fc:	0015883a 	mov	r10,zero
    5400:	000f883a 	mov	r7,zero
    5404:	227ff404 	addi	r9,r4,-48
    5408:	00800244 	movi	r2,9
    540c:	1242592e 	bgeu	r2,r9,5d74 <_strtod_r+0xe3c>
    5410:	04800044 	movi	r18,1
    5414:	003f3706 	br	50f4 <_strtod_r+0x1bc>
    5418:	7804c03a 	cmpne	r2,r15,zero
    541c:	103f3d1e 	bne	r2,zero,5114 <_strtod_r+0x1dc>
    5420:	9004c03a 	cmpne	r2,r18,zero
    5424:	103f5e1e 	bne	r2,zero,51a0 <_strtod_r+0x268>
    5428:	00801384 	movi	r2,78
    542c:	2083a226 	beq	r4,r2,62b8 <_strtod_r+0x1380>
    5430:	11039d16 	blt	r2,r4,62a8 <_strtod_r+0x1370>
    5434:	00801244 	movi	r2,73
    5438:	20bf591e 	bne	r4,r2,51a0 <_strtod_r+0x268>
    543c:	dc000404 	addi	r16,sp,16
    5440:	8009883a 	mov	r4,r16
    5444:	01400074 	movhi	r5,1
    5448:	29480204 	addi	r5,r5,8200
    544c:	0004ef00 	call	4ef0 <match>
    5450:	103f5326 	beq	r2,zero,51a0 <_strtod_r+0x268>
    5454:	d8800417 	ldw	r2,16(sp)
    5458:	8009883a 	mov	r4,r16
    545c:	01400074 	movhi	r5,1
    5460:	29480304 	addi	r5,r5,8204
    5464:	123fffc4 	addi	r8,r2,-1
    5468:	da000415 	stw	r8,16(sp)
    546c:	0004ef00 	call	4ef0 <match>
    5470:	1000031e 	bne	r2,zero,5480 <_strtod_r+0x548>
    5474:	d8800417 	ldw	r2,16(sp)
    5478:	12000044 	addi	r8,r2,1
    547c:	da000415 	stw	r8,16(sp)
    5480:	019ffc34 	movhi	r6,32752
    5484:	e1800115 	stw	r6,4(fp)
    5488:	e0000015 	stw	zero,0(fp)
    548c:	003f2106 	br	5114 <_strtod_r+0x1dc>
    5490:	d9801215 	stw	r6,72(sp)
    5494:	003f8506 	br	52ac <_strtod_r+0x374>
    5498:	d8001115 	stw	zero,68(sp)
    549c:	42000044 	addi	r8,r8,1
    54a0:	da000415 	stw	r8,16(sp)
    54a4:	40800007 	ldb	r2,0(r8)
    54a8:	103eef1e 	bne	r2,zero,5068 <_strtod_r+0x130>
    54ac:	d8001115 	stw	zero,68(sp)
    54b0:	dc400415 	stw	r17,16(sp)
    54b4:	003f1706 	br	5114 <_strtod_r+0x1dc>
    54b8:	42000044 	addi	r8,r8,1
    54bc:	da000415 	stw	r8,16(sp)
    54c0:	003eaf06 	br	4f80 <_strtod_r+0x48>
    54c4:	00800044 	movi	r2,1
    54c8:	d8801115 	stw	r2,68(sp)
    54cc:	003ff306 	br	549c <_strtod_r+0x564>
    54d0:	001d883a 	mov	r14,zero
    54d4:	42000044 	addi	r8,r8,1
    54d8:	da000415 	stw	r8,16(sp)
    54dc:	21000047 	ldb	r4,1(r4)
    54e0:	00800244 	movi	r2,9
    54e4:	20fff404 	addi	r3,r4,-48
    54e8:	10ff412e 	bgeu	r2,r3,51f0 <_strtod_r+0x2b8>
    54ec:	000b883a 	mov	r5,zero
    54f0:	dc400415 	stw	r17,16(sp)
    54f4:	003f0506 	br	510c <_strtod_r+0x1d4>
    54f8:	d8c01117 	ldw	r3,68(sp)
    54fc:	04800074 	movhi	r18,1
    5500:	948ae004 	addi	r18,r18,11136
    5504:	d8800504 	addi	r2,sp,20
    5508:	a809883a 	mov	r4,r21
    550c:	d9400404 	addi	r5,sp,16
    5510:	900d883a 	mov	r6,r18
    5514:	d9c00604 	addi	r7,sp,24
    5518:	d8800015 	stw	r2,0(sp)
    551c:	d8c00115 	stw	r3,4(sp)
    5520:	000ac940 	call	ac94 <__gethex>
    5524:	140001cc 	andi	r16,r2,7
    5528:	1027883a 	mov	r19,r2
    552c:	803ef926 	beq	r16,zero,5114 <_strtod_r+0x1dc>
    5530:	05000184 	movi	r20,6
    5534:	853f1a26 	beq	r16,r20,51a0 <_strtod_r+0x268>
    5538:	d9800517 	ldw	r6,20(sp)
    553c:	30000626 	beq	r6,zero,5558 <_strtod_r+0x620>
    5540:	91400017 	ldw	r5,0(r18)
    5544:	d9000d04 	addi	r4,sp,52
    5548:	000bbf00 	call	bbf0 <__copybits>
    554c:	d9400517 	ldw	r5,20(sp)
    5550:	a809883a 	mov	r4,r21
    5554:	000b7500 	call	b750 <_Bfree>
    5558:	d9400617 	ldw	r5,24(sp)
    555c:	a4024136 	bltu	r20,r16,5e64 <_strtod_r+0xf2c>
    5560:	8405883a 	add	r2,r16,r16
    5564:	1085883a 	add	r2,r2,r2
    5568:	00c00034 	movhi	r3,0
    556c:	18d55f04 	addi	r3,r3,21884
    5570:	10c5883a 	add	r2,r2,r3
    5574:	11000017 	ldw	r4,0(r2)
    5578:	2000683a 	jmp	r4
    557c:	00005ea4 	muli	zero,zero,378
    5580:	00005eb0 	cmpltui	zero,zero,378
    5584:	00005e54 	movui	zero,377
    5588:	00005e7c 	xorhi	zero,zero,377
    558c:	00005e8c 	andi	zero,zero,378
    5590:	00005eb0 	cmpltui	zero,zero,378
    5594:	00005ea4 	muli	zero,zero,378
    5598:	d8c00f17 	ldw	r3,60(sp)
    559c:	9c85c83a 	sub	r2,r19,r18
    55a0:	18a1883a 	add	r16,r3,r2
    55a4:	0402d00e 	bge	zero,r16,60e8 <_strtod_r+0x11b0>
    55a8:	814003cc 	andi	r5,r16,15
    55ac:	28000f26 	beq	r5,zero,55ec <_strtod_r+0x6b4>
    55b0:	280a90fa 	slli	r5,r5,3
    55b4:	01000074 	movhi	r4,1
    55b8:	21083b04 	addi	r4,r4,8428
    55bc:	e0800017 	ldw	r2,0(fp)
    55c0:	290b883a 	add	r5,r5,r4
    55c4:	2a000017 	ldw	r8,0(r5)
    55c8:	e0c00117 	ldw	r3,4(fp)
    55cc:	2a400117 	ldw	r9,4(r5)
    55d0:	1009883a 	mov	r4,r2
    55d4:	180b883a 	mov	r5,r3
    55d8:	480f883a 	mov	r7,r9
    55dc:	400d883a 	mov	r6,r8
    55e0:	000db6c0 	call	db6c <__muldf3>
    55e4:	e0c00115 	stw	r3,4(fp)
    55e8:	e0800015 	stw	r2,0(fp)
    55ec:	00bffc04 	movi	r2,-16
    55f0:	808c703a 	and	r6,r16,r2
    55f4:	30005b26 	beq	r6,zero,5764 <_strtod_r+0x82c>
    55f8:	00804d04 	movi	r2,308
    55fc:	1181fd16 	blt	r2,r6,5df4 <_strtod_r+0xebc>
    5600:	3021d13a 	srai	r16,r6,4
    5604:	00800044 	movi	r2,1
    5608:	1403610e 	bge	r2,r16,6390 <_strtod_r+0x1458>
    560c:	102f883a 	mov	r23,r2
    5610:	0025883a 	mov	r18,zero
    5614:	04400074 	movhi	r17,1
    5618:	8c486d04 	addi	r17,r17,8628
    561c:	8080004c 	andi	r2,r16,1
    5620:	1005003a 	cmpeq	r2,r2,zero
    5624:	1000091e 	bne	r2,zero,564c <_strtod_r+0x714>
    5628:	e0800017 	ldw	r2,0(fp)
    562c:	e0c00117 	ldw	r3,4(fp)
    5630:	89800017 	ldw	r6,0(r17)
    5634:	89c00117 	ldw	r7,4(r17)
    5638:	180b883a 	mov	r5,r3
    563c:	1009883a 	mov	r4,r2
    5640:	000db6c0 	call	db6c <__muldf3>
    5644:	e0c00115 	stw	r3,4(fp)
    5648:	e0800015 	stw	r2,0(fp)
    564c:	8021d07a 	srai	r16,r16,1
    5650:	94800044 	addi	r18,r18,1
    5654:	8c400204 	addi	r17,r17,8
    5658:	bc3ff016 	blt	r23,r16,561c <_strtod_r+0x6e4>
    565c:	900e90fa 	slli	r7,r18,3
    5660:	01800074 	movhi	r6,1
    5664:	31886d04 	addi	r6,r6,8628
    5668:	e2000117 	ldw	r8,4(fp)
    566c:	398f883a 	add	r7,r7,r6
    5670:	38800017 	ldw	r2,0(r7)
    5674:	38c00117 	ldw	r3,4(r7)
    5678:	e1000017 	ldw	r4,0(fp)
    567c:	01bf2c34 	movhi	r6,64688
    5680:	418d883a 	add	r6,r8,r6
    5684:	300b883a 	mov	r5,r6
    5688:	180f883a 	mov	r7,r3
    568c:	100d883a 	mov	r6,r2
    5690:	000db6c0 	call	db6c <__muldf3>
    5694:	1009883a 	mov	r4,r2
    5698:	180b883a 	mov	r5,r3
    569c:	199ffc2c 	andhi	r6,r3,32752
    56a0:	009f2834 	movhi	r2,31904
    56a4:	e1000015 	stw	r4,0(fp)
    56a8:	e1400115 	stw	r5,4(fp)
    56ac:	1181d136 	bltu	r2,r6,5df4 <_strtod_r+0xebc>
    56b0:	009f2434 	movhi	r2,31888
    56b4:	1183202e 	bgeu	r2,r6,6338 <_strtod_r+0x1400>
    56b8:	d8001415 	stw	zero,80(sp)
    56bc:	019ffc34 	movhi	r6,32752
    56c0:	31bfffc4 	addi	r6,r6,-1
    56c4:	01ffffc4 	movi	r7,-1
    56c8:	e1800115 	stw	r6,4(fp)
    56cc:	e1c00015 	stw	r7,0(fp)
    56d0:	00002506 	br	5768 <_strtod_r+0x830>
    56d4:	00800c04 	movi	r2,48
    56d8:	2083151e 	bne	r4,r2,6330 <_strtod_r+0x13f8>
    56dc:	2005883a 	mov	r2,r4
    56e0:	000f883a 	mov	r7,zero
    56e4:	42000044 	addi	r8,r8,1
    56e8:	da000415 	stw	r8,16(sp)
    56ec:	41000007 	ldb	r4,0(r8)
    56f0:	39c00044 	addi	r7,r7,1
    56f4:	20bffb26 	beq	r4,r2,56e4 <_strtod_r+0x7ac>
    56f8:	20fff3c4 	addi	r3,r4,-49
    56fc:	00800204 	movi	r2,8
    5700:	10c1b836 	bltu	r2,r3,5de4 <_strtod_r+0xeac>
    5704:	dd800417 	ldw	r22,16(sp)
    5708:	3815883a 	mov	r10,r7
    570c:	227ff404 	addi	r9,r4,-48
    5710:	b011883a 	mov	r8,r22
    5714:	0027883a 	mov	r19,zero
    5718:	01c00044 	movi	r7,1
    571c:	4801fe26 	beq	r9,zero,5f18 <_strtod_r+0xfe0>
    5720:	00800044 	movi	r2,1
    5724:	51d5883a 	add	r10,r10,r7
    5728:	11c31f0e 	bge	r2,r7,63a8 <_strtod_r+0x1470>
    572c:	1009883a 	mov	r4,r2
    5730:	9807883a 	mov	r3,r19
    5734:	02c00204 	movi	r11,8
    5738:	03000404 	movi	r12,16
    573c:	00000306 	br	574c <_strtod_r+0x814>
    5740:	a50002a4 	muli	r20,r20,10
    5744:	21000044 	addi	r4,r4,1
    5748:	21c1eb26 	beq	r4,r7,5ef8 <_strtod_r+0xfc0>
    574c:	18c00044 	addi	r3,r3,1
    5750:	18bfffc4 	addi	r2,r3,-1
    5754:	58bffa0e 	bge	r11,r2,5740 <_strtod_r+0x808>
    5758:	60fffa16 	blt	r12,r3,5744 <_strtod_r+0x80c>
    575c:	840002a4 	muli	r16,r16,10
    5760:	003ff806 	br	5744 <_strtod_r+0x80c>
    5764:	d8001415 	stw	zero,80(sp)
    5768:	d9801217 	ldw	r6,72(sp)
    576c:	a809883a 	mov	r4,r21
    5770:	b00b883a 	mov	r5,r22
    5774:	980f883a 	mov	r7,r19
    5778:	dd000015 	stw	r20,0(sp)
    577c:	000c6240 	call	c624 <__s2b>
    5780:	d9800f17 	ldw	r6,60(sp)
    5784:	11000304 	addi	r4,r2,12
    5788:	d8801015 	stw	r2,64(sp)
    578c:	300c803a 	cmplt	r6,r6,zero
    5790:	d9001715 	stw	r4,92(sp)
    5794:	d9801615 	stw	r6,88(sp)
    5798:	d8801017 	ldw	r2,64(sp)
    579c:	a809883a 	mov	r4,r21
    57a0:	11400117 	ldw	r5,4(r2)
    57a4:	000bcd00 	call	bcd0 <_Balloc>
    57a8:	d8c01017 	ldw	r3,64(sp)
    57ac:	d9401717 	ldw	r5,92(sp)
    57b0:	11000304 	addi	r4,r2,12
    57b4:	19800417 	ldw	r6,16(r3)
    57b8:	102f883a 	mov	r23,r2
    57bc:	318d883a 	add	r6,r6,r6
    57c0:	318d883a 	add	r6,r6,r6
    57c4:	31800204 	addi	r6,r6,8
    57c8:	000125c0 	call	125c <memcpy>
    57cc:	e2000017 	ldw	r8,0(fp)
    57d0:	e2400117 	ldw	r9,4(fp)
    57d4:	d9800304 	addi	r6,sp,12
    57d8:	400b883a 	mov	r5,r8
    57dc:	a809883a 	mov	r4,r21
    57e0:	d9c00204 	addi	r7,sp,8
    57e4:	d9800015 	stw	r6,0(sp)
    57e8:	480d883a 	mov	r6,r9
    57ec:	000bd8c0 	call	bd8c <__d2b>
    57f0:	a809883a 	mov	r4,r21
    57f4:	01400044 	movi	r5,1
    57f8:	d8800515 	stw	r2,20(sp)
    57fc:	000c3c80 	call	c3c8 <__i2b>
    5800:	102d883a 	mov	r22,r2
    5804:	d8801617 	ldw	r2,88(sp)
    5808:	1001051e 	bne	r2,zero,5c20 <_strtod_r+0xce8>
    580c:	dd000f17 	ldw	r20,60(sp)
    5810:	000f883a 	mov	r7,zero
    5814:	0013883a 	mov	r9,zero
    5818:	a011883a 	mov	r8,r20
    581c:	d8800217 	ldw	r2,8(sp)
    5820:	1000fd16 	blt	r2,zero,5c18 <_strtod_r+0xce0>
    5824:	388f883a 	add	r7,r7,r2
    5828:	d9801417 	ldw	r6,80(sp)
    582c:	d9400317 	ldw	r5,12(sp)
    5830:	00ff0084 	movi	r3,-1022
    5834:	1189c83a 	sub	r4,r2,r6
    5838:	2145883a 	add	r2,r4,r5
    583c:	10bfffc4 	addi	r2,r2,-1
    5840:	10c09f0e 	bge	r2,r3,5ac0 <_strtod_r+0xb88>
    5844:	21810cc4 	addi	r6,r4,1075
    5848:	d8c01417 	ldw	r3,80(sp)
    584c:	4185883a 	add	r2,r8,r6
    5850:	39a1883a 	add	r16,r7,r6
    5854:	18a5883a 	add	r18,r3,r2
    5858:	3807883a 	mov	r3,r7
    585c:	81c0010e 	bge	r16,r7,5864 <_strtod_r+0x92c>
    5860:	8007883a 	mov	r3,r16
    5864:	9005883a 	mov	r2,r18
    5868:	1c80010e 	bge	r3,r18,5870 <_strtod_r+0x938>
    586c:	1805883a 	mov	r2,r3
    5870:	0080e70e 	bge	zero,r2,5c10 <_strtod_r+0xcd8>
    5874:	38a7c83a 	sub	r19,r7,r2
    5878:	80a1c83a 	sub	r16,r16,r2
    587c:	90a5c83a 	sub	r18,r18,r2
    5880:	02400e0e 	bge	zero,r9,58bc <_strtod_r+0x984>
    5884:	480d883a 	mov	r6,r9
    5888:	b00b883a 	mov	r5,r22
    588c:	a809883a 	mov	r4,r21
    5890:	000c5040 	call	c504 <__pow5mult>
    5894:	d9800517 	ldw	r6,20(sp)
    5898:	a809883a 	mov	r4,r21
    589c:	100b883a 	mov	r5,r2
    58a0:	102d883a 	mov	r22,r2
    58a4:	000c1e00 	call	c1e0 <__multiply>
    58a8:	d9400517 	ldw	r5,20(sp)
    58ac:	1023883a 	mov	r17,r2
    58b0:	a809883a 	mov	r4,r21
    58b4:	000b7500 	call	b750 <_Bfree>
    58b8:	dc400515 	stw	r17,20(sp)
    58bc:	0400050e 	bge	zero,r16,58d4 <_strtod_r+0x99c>
    58c0:	d9400517 	ldw	r5,20(sp)
    58c4:	800d883a 	mov	r6,r16
    58c8:	a809883a 	mov	r4,r21
    58cc:	000c0940 	call	c094 <__lshift>
    58d0:	d8800515 	stw	r2,20(sp)
    58d4:	a000741e 	bne	r20,zero,5aa8 <_strtod_r+0xb70>
    58d8:	0480050e 	bge	zero,r18,58f0 <_strtod_r+0x9b8>
    58dc:	b80b883a 	mov	r5,r23
    58e0:	900d883a 	mov	r6,r18
    58e4:	a809883a 	mov	r4,r21
    58e8:	000c0940 	call	c094 <__lshift>
    58ec:	102f883a 	mov	r23,r2
    58f0:	04c0050e 	bge	zero,r19,5908 <_strtod_r+0x9d0>
    58f4:	b00b883a 	mov	r5,r22
    58f8:	980d883a 	mov	r6,r19
    58fc:	a809883a 	mov	r4,r21
    5900:	000c0940 	call	c094 <__lshift>
    5904:	102d883a 	mov	r22,r2
    5908:	d9400517 	ldw	r5,20(sp)
    590c:	a809883a 	mov	r4,r21
    5910:	b80d883a 	mov	r6,r23
    5914:	000bf080 	call	bf08 <__mdiff>
    5918:	11000317 	ldw	r4,12(r2)
    591c:	b00b883a 	mov	r5,r22
    5920:	10000315 	stw	zero,12(r2)
    5924:	d9001315 	stw	r4,76(sp)
    5928:	1009883a 	mov	r4,r2
    592c:	1029883a 	mov	r20,r2
    5930:	000b8ac0 	call	b8ac <__mcmp>
    5934:	10017c16 	blt	r2,zero,5f28 <_strtod_r+0xff0>
    5938:	1001af26 	beq	r2,zero,5ff8 <_strtod_r+0x10c0>
    593c:	a009883a 	mov	r4,r20
    5940:	b00b883a 	mov	r5,r22
    5944:	000baac0 	call	baac <__ratio>
    5948:	0011883a 	mov	r8,zero
    594c:	02500034 	movhi	r9,16384
    5950:	480f883a 	mov	r7,r9
    5954:	1009883a 	mov	r4,r2
    5958:	180b883a 	mov	r5,r3
    595c:	400d883a 	mov	r6,r8
    5960:	1021883a 	mov	r16,r2
    5964:	1823883a 	mov	r17,r3
    5968:	000e4300 	call	e430 <__ledf2>
    596c:	00805716 	blt	zero,r2,5acc <_strtod_r+0xb94>
    5970:	d9801317 	ldw	r6,76(sp)
    5974:	3025003a 	cmpeq	r18,r6,zero
    5978:	90008b1e 	bne	r18,zero,5ba8 <_strtod_r+0xc70>
    597c:	008ffc34 	movhi	r2,16368
    5980:	0021883a 	mov	r16,zero
    5984:	1023883a 	mov	r17,r2
    5988:	d8000715 	stw	zero,28(sp)
    598c:	d8800815 	stw	r2,32(sp)
    5990:	e1c00117 	ldw	r7,4(fp)
    5994:	009ff834 	movhi	r2,32736
    5998:	3cdffc2c 	andhi	r19,r7,32752
    599c:	98805e26 	beq	r19,r2,5b18 <_strtod_r+0xbe0>
    59a0:	d8801417 	ldw	r2,80(sp)
    59a4:	10001b26 	beq	r2,zero,5a14 <_strtod_r+0xadc>
    59a8:	0081a834 	movhi	r2,1696
    59ac:	14c01936 	bltu	r2,r19,5a14 <_strtod_r+0xadc>
    59b0:	00bff034 	movhi	r2,65472
    59b4:	00d07834 	movhi	r3,16864
    59b8:	18ffffc4 	addi	r3,r3,-1
    59bc:	180f883a 	mov	r7,r3
    59c0:	8009883a 	mov	r4,r16
    59c4:	880b883a 	mov	r5,r17
    59c8:	100d883a 	mov	r6,r2
    59cc:	000e4300 	call	e430 <__ledf2>
    59d0:	00800b16 	blt	zero,r2,5a00 <_strtod_r+0xac8>
    59d4:	880b883a 	mov	r5,r17
    59d8:	8009883a 	mov	r4,r16
    59dc:	000c8d00 	call	c8d0 <__fixunsdfsi>
    59e0:	1000df1e 	bne	r2,zero,5d60 <_strtod_r+0xe28>
    59e4:	0021883a 	mov	r16,zero
    59e8:	044ffc34 	movhi	r17,16368
    59ec:	9000d91e 	bne	r18,zero,5d54 <_strtod_r+0xe1c>
    59f0:	8005883a 	mov	r2,r16
    59f4:	8807883a 	mov	r3,r17
    59f8:	d8c00815 	stw	r3,32(sp)
    59fc:	d8800715 	stw	r2,28(sp)
    5a00:	d8800817 	ldw	r2,32(sp)
    5a04:	00c1ac34 	movhi	r3,1712
    5a08:	14c5c83a 	sub	r2,r2,r19
    5a0c:	10c5883a 	add	r2,r2,r3
    5a10:	d8800815 	stw	r2,32(sp)
    5a14:	e0800017 	ldw	r2,0(fp)
    5a18:	e0c00117 	ldw	r3,4(fp)
    5a1c:	1009883a 	mov	r4,r2
    5a20:	180b883a 	mov	r5,r3
    5a24:	000b90c0 	call	b90c <__ulp>
    5a28:	d9800717 	ldw	r6,28(sp)
    5a2c:	d9c00817 	ldw	r7,32(sp)
    5a30:	180b883a 	mov	r5,r3
    5a34:	1009883a 	mov	r4,r2
    5a38:	000db6c0 	call	db6c <__muldf3>
    5a3c:	e2000017 	ldw	r8,0(fp)
    5a40:	e2400117 	ldw	r9,4(fp)
    5a44:	180b883a 	mov	r5,r3
    5a48:	1009883a 	mov	r4,r2
    5a4c:	480f883a 	mov	r7,r9
    5a50:	400d883a 	mov	r6,r8
    5a54:	000daf80 	call	daf8 <__adddf3>
    5a58:	e0c00115 	stw	r3,4(fp)
    5a5c:	e0800015 	stw	r2,0(fp)
    5a60:	d8c01417 	ldw	r3,80(sp)
    5a64:	e4800117 	ldw	r18,4(fp)
    5a68:	1800021e 	bne	r3,zero,5a74 <_strtod_r+0xb3c>
    5a6c:	909ffc2c 	andhi	r2,r18,32752
    5a70:	98807b26 	beq	r19,r2,5c60 <_strtod_r+0xd28>
    5a74:	d9400517 	ldw	r5,20(sp)
    5a78:	a809883a 	mov	r4,r21
    5a7c:	000b7500 	call	b750 <_Bfree>
    5a80:	a809883a 	mov	r4,r21
    5a84:	b80b883a 	mov	r5,r23
    5a88:	000b7500 	call	b750 <_Bfree>
    5a8c:	a809883a 	mov	r4,r21
    5a90:	b00b883a 	mov	r5,r22
    5a94:	000b7500 	call	b750 <_Bfree>
    5a98:	a809883a 	mov	r4,r21
    5a9c:	a00b883a 	mov	r5,r20
    5aa0:	000b7500 	call	b750 <_Bfree>
    5aa4:	003f3c06 	br	5798 <_strtod_r+0x860>
