ARM GAS  C:\Users\HENRIC~1\AppData\Local\Temp\ccxfh9yc.s 			page 1


   1              		.syntax unified
   2              		.cpu cortex-m3
   3              		.fpu softvfp
   4              		.eabi_attribute 20, 1
   5              		.eabi_attribute 21, 1
   6              		.eabi_attribute 23, 3
   7              		.eabi_attribute 24, 1
   8              		.eabi_attribute 25, 1
   9              		.eabi_attribute 26, 1
  10              		.eabi_attribute 30, 1
  11              		.eabi_attribute 34, 1
  12              		.eabi_attribute 18, 4
  13              		.thumb
  14              		.syntax unified
  15              		.file	"CapSense_CSHL.c"
  16              		.text
  17              	.Ltext0:
  18              		.cfi_sections	.debug_frame
  19              		.section	.text.CapSense_BaseInit,"ax",%progbits
  20              		.align	2
  21              		.global	CapSense_BaseInit
  22              		.thumb
  23              		.thumb_func
  24              		.type	CapSense_BaseInit, %function
  25              	CapSense_BaseInit:
  26              	.LFB0:
  27              		.file 1 "Generated_Source\\PSoC5\\CapSense_CSHL.c"
   1:Generated_Source\PSoC5/CapSense_CSHL.c **** /*******************************************************************************
   2:Generated_Source\PSoC5/CapSense_CSHL.c **** * File Name: CapSense_CSHL.c
   3:Generated_Source\PSoC5/CapSense_CSHL.c **** * Version 3.50
   4:Generated_Source\PSoC5/CapSense_CSHL.c **** *
   5:Generated_Source\PSoC5/CapSense_CSHL.c **** * Description:
   6:Generated_Source\PSoC5/CapSense_CSHL.c **** *  This file provides the source code to the High Level APIs for the CapSesne
   7:Generated_Source\PSoC5/CapSense_CSHL.c **** *  CSD component.
   8:Generated_Source\PSoC5/CapSense_CSHL.c **** *
   9:Generated_Source\PSoC5/CapSense_CSHL.c **** * Note:
  10:Generated_Source\PSoC5/CapSense_CSHL.c **** *
  11:Generated_Source\PSoC5/CapSense_CSHL.c **** ********************************************************************************
  12:Generated_Source\PSoC5/CapSense_CSHL.c **** * Copyright 2008-2013, Cypress Semiconductor Corporation.  All rights reserved.
  13:Generated_Source\PSoC5/CapSense_CSHL.c **** * You may use this file only in accordance with the license, terms, conditions,
  14:Generated_Source\PSoC5/CapSense_CSHL.c **** * disclaimers, and limitations in the end user license agreement accompanying
  15:Generated_Source\PSoC5/CapSense_CSHL.c **** * the software package with which this file was provided.
  16:Generated_Source\PSoC5/CapSense_CSHL.c **** *******************************************************************************/
  17:Generated_Source\PSoC5/CapSense_CSHL.c **** 
  18:Generated_Source\PSoC5/CapSense_CSHL.c **** #include "CapSense_CSHL.h"
  19:Generated_Source\PSoC5/CapSense_CSHL.c **** 
  20:Generated_Source\PSoC5/CapSense_CSHL.c **** /* Storage of filters data */
  21:Generated_Source\PSoC5/CapSense_CSHL.c **** #if ( (CapSense_RAW_FILTER_MASK & CapSense_MEDIAN_FILTER) | \
  22:Generated_Source\PSoC5/CapSense_CSHL.c ****       (CapSense_RAW_FILTER_MASK & CapSense_AVERAGING_FILTER) )
  23:Generated_Source\PSoC5/CapSense_CSHL.c **** 
  24:Generated_Source\PSoC5/CapSense_CSHL.c ****     uint16 CapSense_rawFilterData1[CapSense_TOTAL_SENSOR_COUNT];
  25:Generated_Source\PSoC5/CapSense_CSHL.c ****     uint16 CapSense_rawFilterData2[CapSense_TOTAL_SENSOR_COUNT];
  26:Generated_Source\PSoC5/CapSense_CSHL.c **** 
  27:Generated_Source\PSoC5/CapSense_CSHL.c **** #elif ( (CapSense_RAW_FILTER_MASK & CapSense_IIR2_FILTER)   | \
  28:Generated_Source\PSoC5/CapSense_CSHL.c ****         (CapSense_RAW_FILTER_MASK & CapSense_IIR4_FILTER)   | \
  29:Generated_Source\PSoC5/CapSense_CSHL.c ****         (CapSense_RAW_FILTER_MASK & CapSense_JITTER_FILTER) | \
  30:Generated_Source\PSoC5/CapSense_CSHL.c ****         (CapSense_RAW_FILTER_MASK & CapSense_IIR8_FILTER)   | \
ARM GAS  C:\Users\HENRIC~1\AppData\Local\Temp\ccxfh9yc.s 			page 2


  31:Generated_Source\PSoC5/CapSense_CSHL.c ****         (CapSense_RAW_FILTER_MASK & CapSense_IIR16_FILTER) )
  32:Generated_Source\PSoC5/CapSense_CSHL.c ****         
  33:Generated_Source\PSoC5/CapSense_CSHL.c ****     uint16 CapSense_rawFilterData1[CapSense_TOTAL_SENSOR_COUNT];
  34:Generated_Source\PSoC5/CapSense_CSHL.c **** 
  35:Generated_Source\PSoC5/CapSense_CSHL.c **** #else
  36:Generated_Source\PSoC5/CapSense_CSHL.c ****     /* No Raw filters */
  37:Generated_Source\PSoC5/CapSense_CSHL.c **** #endif  /* ( (CapSense_RAW_FILTER_MASK & CapSense_MEDIAN_FILTER) || \
  38:Generated_Source\PSoC5/CapSense_CSHL.c ****         *    (CapSense_RAW_FILTER_MASK & CapSense_AVERAGING_FILTER) )
  39:Generated_Source\PSoC5/CapSense_CSHL.c ****         */
  40:Generated_Source\PSoC5/CapSense_CSHL.c **** 
  41:Generated_Source\PSoC5/CapSense_CSHL.c **** uint16 CapSense_sensorBaseline[CapSense_TOTAL_SENSOR_COUNT];
  42:Generated_Source\PSoC5/CapSense_CSHL.c **** uint8 CapSense_sensorBaselineLow[CapSense_TOTAL_SENSOR_COUNT];
  43:Generated_Source\PSoC5/CapSense_CSHL.c **** uint8 CapSense_sensorSignal[CapSense_TOTAL_SENSOR_COUNT];
  44:Generated_Source\PSoC5/CapSense_CSHL.c **** uint8 CapSense_sensorOnMask[(((CapSense_TOTAL_SENSOR_COUNT - 1u) / 8u) + 1u)];
  45:Generated_Source\PSoC5/CapSense_CSHL.c **** 
  46:Generated_Source\PSoC5/CapSense_CSHL.c **** uint8 CapSense_lowBaselineResetCnt[CapSense_TOTAL_SENSOR_COUNT];
  47:Generated_Source\PSoC5/CapSense_CSHL.c **** 
  48:Generated_Source\PSoC5/CapSense_CSHL.c **** uint8 CapSense_fingerThreshold[] = {
  49:Generated_Source\PSoC5/CapSense_CSHL.c ****     100u, 100u, 100u, 
  50:Generated_Source\PSoC5/CapSense_CSHL.c **** };
  51:Generated_Source\PSoC5/CapSense_CSHL.c **** 
  52:Generated_Source\PSoC5/CapSense_CSHL.c **** uint8 CapSense_noiseThreshold[] = {
  53:Generated_Source\PSoC5/CapSense_CSHL.c ****     20u, 20u, 20u, 
  54:Generated_Source\PSoC5/CapSense_CSHL.c **** };
  55:Generated_Source\PSoC5/CapSense_CSHL.c **** 
  56:Generated_Source\PSoC5/CapSense_CSHL.c **** uint8 CapSense_hysteresis[] = {
  57:Generated_Source\PSoC5/CapSense_CSHL.c ****     0u, 10u, 10u, 
  58:Generated_Source\PSoC5/CapSense_CSHL.c **** };
  59:Generated_Source\PSoC5/CapSense_CSHL.c **** 
  60:Generated_Source\PSoC5/CapSense_CSHL.c **** uint8 CapSense_debounce[] = {
  61:Generated_Source\PSoC5/CapSense_CSHL.c ****     1u, 1u, 1u, 
  62:Generated_Source\PSoC5/CapSense_CSHL.c **** };
  63:Generated_Source\PSoC5/CapSense_CSHL.c **** 
  64:Generated_Source\PSoC5/CapSense_CSHL.c **** uint8 CapSense_debounceCounter[] = {
  65:Generated_Source\PSoC5/CapSense_CSHL.c ****     0u, 0u, 0u, 
  66:Generated_Source\PSoC5/CapSense_CSHL.c **** };
  67:Generated_Source\PSoC5/CapSense_CSHL.c **** 
  68:Generated_Source\PSoC5/CapSense_CSHL.c **** const uint8 CYCODE CapSense_rawDataIndex[] = {
  69:Generated_Source\PSoC5/CapSense_CSHL.c ****     2u, /* Slider__LS */
  70:Generated_Source\PSoC5/CapSense_CSHL.c ****     0u, /* Right__BTN */
  71:Generated_Source\PSoC5/CapSense_CSHL.c ****     1u, /* Left__BTN */
  72:Generated_Source\PSoC5/CapSense_CSHL.c **** 
  73:Generated_Source\PSoC5/CapSense_CSHL.c **** };
  74:Generated_Source\PSoC5/CapSense_CSHL.c **** 
  75:Generated_Source\PSoC5/CapSense_CSHL.c **** const uint8 CYCODE CapSense_numberOfSensors[] = {
  76:Generated_Source\PSoC5/CapSense_CSHL.c ****     5u, /* Slider__LS */
  77:Generated_Source\PSoC5/CapSense_CSHL.c ****     1u, /* Right__BTN */
  78:Generated_Source\PSoC5/CapSense_CSHL.c ****     1u, /* Left__BTN */
  79:Generated_Source\PSoC5/CapSense_CSHL.c **** 
  80:Generated_Source\PSoC5/CapSense_CSHL.c **** };
  81:Generated_Source\PSoC5/CapSense_CSHL.c **** 
  82:Generated_Source\PSoC5/CapSense_CSHL.c **** const uint16 CYCODE CapSense_centroidMult[] = {
  83:Generated_Source\PSoC5/CapSense_CSHL.c ****     6400u, 
  84:Generated_Source\PSoC5/CapSense_CSHL.c **** };
  85:Generated_Source\PSoC5/CapSense_CSHL.c **** 
  86:Generated_Source\PSoC5/CapSense_CSHL.c **** const uint8 CYCODE CapSense_posFiltersMask[] = {
  87:Generated_Source\PSoC5/CapSense_CSHL.c ****     0x8u, 
ARM GAS  C:\Users\HENRIC~1\AppData\Local\Temp\ccxfh9yc.s 			page 3


  88:Generated_Source\PSoC5/CapSense_CSHL.c **** };
  89:Generated_Source\PSoC5/CapSense_CSHL.c **** 
  90:Generated_Source\PSoC5/CapSense_CSHL.c **** uint8 CapSense_posFiltersData[] = {
  91:Generated_Source\PSoC5/CapSense_CSHL.c ****     1u, 0u, 0u, 
  92:Generated_Source\PSoC5/CapSense_CSHL.c **** };
  93:Generated_Source\PSoC5/CapSense_CSHL.c **** 
  94:Generated_Source\PSoC5/CapSense_CSHL.c **** 
  95:Generated_Source\PSoC5/CapSense_CSHL.c **** 
  96:Generated_Source\PSoC5/CapSense_CSHL.c **** 
  97:Generated_Source\PSoC5/CapSense_CSHL.c **** /*******************************************************************************
  98:Generated_Source\PSoC5/CapSense_CSHL.c **** * Function Name: CapSense_BaseInit
  99:Generated_Source\PSoC5/CapSense_CSHL.c **** ********************************************************************************
 100:Generated_Source\PSoC5/CapSense_CSHL.c **** *
 101:Generated_Source\PSoC5/CapSense_CSHL.c **** * Summary:
 102:Generated_Source\PSoC5/CapSense_CSHL.c **** *  Loads the CapSense_sensorBaseline[sensor] array element with an 
 103:Generated_Source\PSoC5/CapSense_CSHL.c **** *  initial value which is equal to raw count value. 
 104:Generated_Source\PSoC5/CapSense_CSHL.c **** *  Resets to zero CapSense_sensorBaselineLow[sensor] and 
 105:Generated_Source\PSoC5/CapSense_CSHL.c **** *  CapSense_sensorSignal[sensor] array element.
 106:Generated_Source\PSoC5/CapSense_CSHL.c **** *  Loads CapSense_debounceCounter[sensor] array element with initial 
 107:Generated_Source\PSoC5/CapSense_CSHL.c **** *  value equal CapSense_debounce[].
 108:Generated_Source\PSoC5/CapSense_CSHL.c **** *  Loads the CapSense_rawFilterData2[sensor] and 
 109:Generated_Source\PSoC5/CapSense_CSHL.c **** *  CapSense_rawFilterData2[sensor] array element with an 
 110:Generated_Source\PSoC5/CapSense_CSHL.c **** *  initial value which is equal raw count value if raw data filter is enabled.
 111:Generated_Source\PSoC5/CapSense_CSHL.c **** *
 112:Generated_Source\PSoC5/CapSense_CSHL.c **** * Parameters:
 113:Generated_Source\PSoC5/CapSense_CSHL.c **** *  sensor:  Sensor number.
 114:Generated_Source\PSoC5/CapSense_CSHL.c **** *
 115:Generated_Source\PSoC5/CapSense_CSHL.c **** * Return:
 116:Generated_Source\PSoC5/CapSense_CSHL.c **** *  None
 117:Generated_Source\PSoC5/CapSense_CSHL.c **** *
 118:Generated_Source\PSoC5/CapSense_CSHL.c **** * Global Variables:
 119:Generated_Source\PSoC5/CapSense_CSHL.c **** *  CapSense_sensorBaseline[]    - used to store baseline value.
 120:Generated_Source\PSoC5/CapSense_CSHL.c **** *  CapSense_sensorBaselineLow[] - used to store fraction byte of 
 121:Generated_Source\PSoC5/CapSense_CSHL.c **** *  baseline value.
 122:Generated_Source\PSoC5/CapSense_CSHL.c **** *  CapSense_sensorSignal[]      - used to store diffence between 
 123:Generated_Source\PSoC5/CapSense_CSHL.c **** *  current value of raw data and previous value of baseline.
 124:Generated_Source\PSoC5/CapSense_CSHL.c **** *  CapSense_debounceCounter[]   - used to store current debounce 
 125:Generated_Source\PSoC5/CapSense_CSHL.c **** *  counter of sensor. Widget which has this parameter are buttons, matrix 
 126:Generated_Source\PSoC5/CapSense_CSHL.c **** *  buttons, proximity, guard. All other widgets haven't debounce parameter
 127:Generated_Source\PSoC5/CapSense_CSHL.c **** *  and use the last element of this array with value 0 (it means no debounce).
 128:Generated_Source\PSoC5/CapSense_CSHL.c **** *  CapSense_rawFilterData1[]    - used to store previous sample of 
 129:Generated_Source\PSoC5/CapSense_CSHL.c **** *  any enabled raw data filter.
 130:Generated_Source\PSoC5/CapSense_CSHL.c **** *  CapSense_rawFilterData2[]    - used to store before previous sample
 131:Generated_Source\PSoC5/CapSense_CSHL.c **** *  of enabled raw data filter. Only required for median or average filters.
 132:Generated_Source\PSoC5/CapSense_CSHL.c **** *
 133:Generated_Source\PSoC5/CapSense_CSHL.c **** * Reentrant:
 134:Generated_Source\PSoC5/CapSense_CSHL.c **** *  No
 135:Generated_Source\PSoC5/CapSense_CSHL.c **** *
 136:Generated_Source\PSoC5/CapSense_CSHL.c **** *******************************************************************************/
 137:Generated_Source\PSoC5/CapSense_CSHL.c **** void CapSense_BaseInit(uint8 sensor) 
 138:Generated_Source\PSoC5/CapSense_CSHL.c **** {
  28              		.loc 1 138 0
  29              		.cfi_startproc
  30              		@ args = 0, pretend = 0, frame = 0
  31              		@ frame_needed = 0, uses_anonymous_args = 0
  32              		@ link register save eliminated.
  33              	.LVL0:
ARM GAS  C:\Users\HENRIC~1\AppData\Local\Temp\ccxfh9yc.s 			page 4


  34 0000 10B4     		push	{r4}
  35              		.cfi_def_cfa_offset 4
  36              		.cfi_offset 4, -4
 139:Generated_Source\PSoC5/CapSense_CSHL.c ****     #if ((CapSense_TOTAL_BUTTONS_COUNT) || (CapSense_TOTAL_MATRIX_BUTTONS_COUNT) || \
 140:Generated_Source\PSoC5/CapSense_CSHL.c ****          (CapSense_TOTAL_GENERICS_COUNT))
 141:Generated_Source\PSoC5/CapSense_CSHL.c ****         uint8 widget = CapSense_widgetNumber[sensor];
  37              		.loc 1 141 0
  38 0002 0C4B     		ldr	r3, .L4
  39 0004 1B5C     		ldrb	r3, [r3, r0]	@ zero_extendqisi2
  40              	.LVL1:
 142:Generated_Source\PSoC5/CapSense_CSHL.c ****     #endif /* ((CapSense_TOTAL_MATRIX_BUTTONS_COUNT) || (CapSense_TOTAL_MATRIX_BUTTONS_COUNT)) */
 143:Generated_Source\PSoC5/CapSense_CSHL.c ****     
 144:Generated_Source\PSoC5/CapSense_CSHL.c ****     #if (CapSense_TOTAL_MATRIX_BUTTONS_COUNT)
 145:Generated_Source\PSoC5/CapSense_CSHL.c ****         uint8 debounceIndex;
 146:Generated_Source\PSoC5/CapSense_CSHL.c ****     #endif  /* (CapSense_TOTAL_MATRIX_BUTTONS_COUNT) */
 147:Generated_Source\PSoC5/CapSense_CSHL.c ****     
 148:Generated_Source\PSoC5/CapSense_CSHL.c ****     #if (CapSense_TOTAL_GENERICS_COUNT)
 149:Generated_Source\PSoC5/CapSense_CSHL.c ****         /* Exclude generic widget */
 150:Generated_Source\PSoC5/CapSense_CSHL.c ****         if(widget < CapSense_END_OF_WIDGETS_INDEX)
 151:Generated_Source\PSoC5/CapSense_CSHL.c ****         {
 152:Generated_Source\PSoC5/CapSense_CSHL.c ****     #endif  /* CapSense_TOTAL_GENERICS_COUNT */
 153:Generated_Source\PSoC5/CapSense_CSHL.c ****     
 154:Generated_Source\PSoC5/CapSense_CSHL.c ****     /* Initialize Baseline */
 155:Generated_Source\PSoC5/CapSense_CSHL.c ****     CapSense_sensorBaseline[sensor] = CapSense_sensorRaw[sensor];
  41              		.loc 1 155 0
  42 0006 0C4A     		ldr	r2, .L4+4
  43 0008 32F81020 		ldrh	r2, [r2, r0, lsl #1]
  44 000c 0B49     		ldr	r1, .L4+8
  45 000e 21F81020 		strh	r2, [r1, r0, lsl #1]	@ movhi
 156:Generated_Source\PSoC5/CapSense_CSHL.c ****     CapSense_sensorBaselineLow[sensor] = 0u;
  46              		.loc 1 156 0
  47 0012 0021     		movs	r1, #0
  48 0014 0A4C     		ldr	r4, .L4+12
  49 0016 2154     		strb	r1, [r4, r0]
 157:Generated_Source\PSoC5/CapSense_CSHL.c ****     CapSense_sensorSignal[sensor] = 0u;
  50              		.loc 1 157 0
  51 0018 0A4C     		ldr	r4, .L4+16
  52 001a 2154     		strb	r1, [r4, r0]
 158:Generated_Source\PSoC5/CapSense_CSHL.c ****         
 159:Generated_Source\PSoC5/CapSense_CSHL.c ****     if(widget > CapSense_END_OF_TOUCH_PAD_INDEX)
  53              		.loc 1 159 0
  54 001c 23B1     		cbz	r3, .L2
 160:Generated_Source\PSoC5/CapSense_CSHL.c ****     {
 161:Generated_Source\PSoC5/CapSense_CSHL.c ****         CapSense_debounceCounter[widget - (CapSense_END_OF_TOUCH_PAD_INDEX + 1)] =  CapSense_deboun
  55              		.loc 1 161 0
  56 001e 591E     		subs	r1, r3, #1
  57 0020 094C     		ldr	r4, .L4+20
  58 0022 E45C     		ldrb	r4, [r4, r3]	@ zero_extendqisi2
  59 0024 094B     		ldr	r3, .L4+24
  60              	.LVL2:
  61 0026 5C54     		strb	r4, [r3, r1]
  62              	.LVL3:
  63              	.L2:
 162:Generated_Source\PSoC5/CapSense_CSHL.c ****     }
 163:Generated_Source\PSoC5/CapSense_CSHL.c **** 
 164:Generated_Source\PSoC5/CapSense_CSHL.c ****     
 165:Generated_Source\PSoC5/CapSense_CSHL.c ****     #if ((CapSense_RAW_FILTER_MASK & CapSense_MEDIAN_FILTER) |\
ARM GAS  C:\Users\HENRIC~1\AppData\Local\Temp\ccxfh9yc.s 			page 5


 166:Generated_Source\PSoC5/CapSense_CSHL.c ****          (CapSense_RAW_FILTER_MASK & CapSense_AVERAGING_FILTER))
 167:Generated_Source\PSoC5/CapSense_CSHL.c **** 
 168:Generated_Source\PSoC5/CapSense_CSHL.c ****         CapSense_rawFilterData1[sensor] = CapSense_sensorRaw[sensor];
 169:Generated_Source\PSoC5/CapSense_CSHL.c ****         CapSense_rawFilterData2[sensor] = CapSense_sensorRaw[sensor];
 170:Generated_Source\PSoC5/CapSense_CSHL.c ****     
 171:Generated_Source\PSoC5/CapSense_CSHL.c ****     #elif ((CapSense_RAW_FILTER_MASK & CapSense_IIR2_FILTER) |\
 172:Generated_Source\PSoC5/CapSense_CSHL.c ****            (CapSense_RAW_FILTER_MASK & CapSense_IIR4_FILTER) |\
 173:Generated_Source\PSoC5/CapSense_CSHL.c ****            (CapSense_RAW_FILTER_MASK & CapSense_JITTER_FILTER) |\
 174:Generated_Source\PSoC5/CapSense_CSHL.c ****            (CapSense_RAW_FILTER_MASK & CapSense_IIR8_FILTER) |\
 175:Generated_Source\PSoC5/CapSense_CSHL.c ****            (CapSense_RAW_FILTER_MASK & CapSense_IIR16_FILTER))
 176:Generated_Source\PSoC5/CapSense_CSHL.c ****             
 177:Generated_Source\PSoC5/CapSense_CSHL.c ****         CapSense_rawFilterData1[sensor] = CapSense_sensorRaw[sensor];
  64              		.loc 1 177 0
  65 0028 094B     		ldr	r3, .L4+28
  66 002a 23F81020 		strh	r2, [r3, r0, lsl #1]	@ movhi
 178:Generated_Source\PSoC5/CapSense_CSHL.c ****     
 179:Generated_Source\PSoC5/CapSense_CSHL.c ****     #else
 180:Generated_Source\PSoC5/CapSense_CSHL.c ****         /* No Raw filters */
 181:Generated_Source\PSoC5/CapSense_CSHL.c ****     #endif  /* ((CapSense_RAW_FILTER_MASK & CapSense_MEDIAN_FILTER) | \
 182:Generated_Source\PSoC5/CapSense_CSHL.c ****             *   (CapSense_RAW_FILTER_MASK & CapSense_AVERAGING_FILTER))
 183:Generated_Source\PSoC5/CapSense_CSHL.c ****             */
 184:Generated_Source\PSoC5/CapSense_CSHL.c ****     
 185:Generated_Source\PSoC5/CapSense_CSHL.c ****     #if (CapSense_TOTAL_GENERICS_COUNT)
 186:Generated_Source\PSoC5/CapSense_CSHL.c ****         /* Exclude generic widget */
 187:Generated_Source\PSoC5/CapSense_CSHL.c ****         }
 188:Generated_Source\PSoC5/CapSense_CSHL.c ****     #endif  /* CapSense_TOTAL_GENERICS_COUNT */
 189:Generated_Source\PSoC5/CapSense_CSHL.c **** }
  67              		.loc 1 189 0
  68 002e 10BC     		pop	{r4}
  69              		.cfi_restore 4
  70              		.cfi_def_cfa_offset 0
  71 0030 7047     		bx	lr
  72              	.L5:
  73 0032 00BF     		.align	2
  74              	.L4:
  75 0034 00000000 		.word	CapSense_widgetNumber
  76 0038 00000000 		.word	CapSense_sensorRaw
  77 003c 00000000 		.word	CapSense_sensorBaseline
  78 0040 00000000 		.word	CapSense_sensorBaselineLow
  79 0044 00000000 		.word	CapSense_sensorSignal
  80 0048 00000000 		.word	.LANCHOR0
  81 004c 00000000 		.word	.LANCHOR1
  82 0050 00000000 		.word	CapSense_rawFilterData1
  83              		.cfi_endproc
  84              	.LFE0:
  85              		.size	CapSense_BaseInit, .-CapSense_BaseInit
  86              		.section	.text.CapSense_InitializeSensorBaseline,"ax",%progbits
  87              		.align	2
  88              		.global	CapSense_InitializeSensorBaseline
  89              		.thumb
  90              		.thumb_func
  91              		.type	CapSense_InitializeSensorBaseline, %function
  92              	CapSense_InitializeSensorBaseline:
  93              	.LFB1:
 190:Generated_Source\PSoC5/CapSense_CSHL.c **** 
 191:Generated_Source\PSoC5/CapSense_CSHL.c **** 
 192:Generated_Source\PSoC5/CapSense_CSHL.c **** /*******************************************************************************
ARM GAS  C:\Users\HENRIC~1\AppData\Local\Temp\ccxfh9yc.s 			page 6


 193:Generated_Source\PSoC5/CapSense_CSHL.c **** * Function Name: CapSense_InitializeSensorBaseline
 194:Generated_Source\PSoC5/CapSense_CSHL.c **** ********************************************************************************
 195:Generated_Source\PSoC5/CapSense_CSHL.c **** *
 196:Generated_Source\PSoC5/CapSense_CSHL.c **** * Summary:
 197:Generated_Source\PSoC5/CapSense_CSHL.c **** *  Loads the CapSense_sensorBaseline[sensor] array element with an 
 198:Generated_Source\PSoC5/CapSense_CSHL.c **** *  initial value by scanning the selected sensor (one channel design) or pair 
 199:Generated_Source\PSoC5/CapSense_CSHL.c **** *  of sensors (two channels designs). The raw count value is copied into the 
 200:Generated_Source\PSoC5/CapSense_CSHL.c **** *  baseline array for each sensor. The raw data filters are initialized if 
 201:Generated_Source\PSoC5/CapSense_CSHL.c **** *  enabled.
 202:Generated_Source\PSoC5/CapSense_CSHL.c **** *
 203:Generated_Source\PSoC5/CapSense_CSHL.c **** * Parameters:
 204:Generated_Source\PSoC5/CapSense_CSHL.c **** *  sensor:  Sensor number.
 205:Generated_Source\PSoC5/CapSense_CSHL.c **** *
 206:Generated_Source\PSoC5/CapSense_CSHL.c **** * Return:
 207:Generated_Source\PSoC5/CapSense_CSHL.c **** *  None
 208:Generated_Source\PSoC5/CapSense_CSHL.c **** *
 209:Generated_Source\PSoC5/CapSense_CSHL.c **** * Reentrant:
 210:Generated_Source\PSoC5/CapSense_CSHL.c **** *  No
 211:Generated_Source\PSoC5/CapSense_CSHL.c **** *
 212:Generated_Source\PSoC5/CapSense_CSHL.c **** *******************************************************************************/
 213:Generated_Source\PSoC5/CapSense_CSHL.c **** void CapSense_InitializeSensorBaseline(uint8 sensor)
 214:Generated_Source\PSoC5/CapSense_CSHL.c ****                           
 215:Generated_Source\PSoC5/CapSense_CSHL.c **** {
  94              		.loc 1 215 0
  95              		.cfi_startproc
  96              		@ args = 0, pretend = 0, frame = 0
  97              		@ frame_needed = 0, uses_anonymous_args = 0
  98              	.LVL4:
  99 0000 10B5     		push	{r4, lr}
 100              		.cfi_def_cfa_offset 8
 101              		.cfi_offset 4, -8
 102              		.cfi_offset 14, -4
 103 0002 0446     		mov	r4, r0
 216:Generated_Source\PSoC5/CapSense_CSHL.c ****     /* Scan sensor */
 217:Generated_Source\PSoC5/CapSense_CSHL.c ****     CapSense_ScanSensor(sensor);
 104              		.loc 1 217 0
 105 0004 FFF7FEFF 		bl	CapSense_ScanSensor
 106              	.LVL5:
 107              	.L7:
 218:Generated_Source\PSoC5/CapSense_CSHL.c ****     while(CapSense_IsBusy() != 0u)
 108              		.loc 1 218 0 discriminator 1
 109 0008 FFF7FEFF 		bl	CapSense_IsBusy
 110              	.LVL6:
 111 000c 0028     		cmp	r0, #0
 112 000e FBD1     		bne	.L7
 219:Generated_Source\PSoC5/CapSense_CSHL.c ****     {
 220:Generated_Source\PSoC5/CapSense_CSHL.c ****         /* Wait while busy */
 221:Generated_Source\PSoC5/CapSense_CSHL.c ****     }
 222:Generated_Source\PSoC5/CapSense_CSHL.c ****     
 223:Generated_Source\PSoC5/CapSense_CSHL.c ****     #if (CapSense_DESIGN_TYPE == CapSense_ONE_CHANNEL_DESIGN)
 224:Generated_Source\PSoC5/CapSense_CSHL.c ****         /* Initialize Baseline, Signal and debounce counters */       
 225:Generated_Source\PSoC5/CapSense_CSHL.c ****         CapSense_BaseInit(sensor);
 113              		.loc 1 225 0
 114 0010 2046     		mov	r0, r4
 115 0012 FFF7FEFF 		bl	CapSense_BaseInit
 116              	.LVL7:
 117 0016 10BD     		pop	{r4, pc}
ARM GAS  C:\Users\HENRIC~1\AppData\Local\Temp\ccxfh9yc.s 			page 7


 118              		.cfi_endproc
 119              	.LFE1:
 120              		.size	CapSense_InitializeSensorBaseline, .-CapSense_InitializeSensorBaseline
 121              		.section	.text.CapSense_InitializeAllBaselines,"ax",%progbits
 122              		.align	2
 123              		.global	CapSense_InitializeAllBaselines
 124              		.thumb
 125              		.thumb_func
 126              		.type	CapSense_InitializeAllBaselines, %function
 127              	CapSense_InitializeAllBaselines:
 128              	.LFB2:
 226:Generated_Source\PSoC5/CapSense_CSHL.c ****         
 227:Generated_Source\PSoC5/CapSense_CSHL.c ****     #else
 228:Generated_Source\PSoC5/CapSense_CSHL.c ****     
 229:Generated_Source\PSoC5/CapSense_CSHL.c ****         if(sensor < CapSense_TOTAL_SENSOR_COUNT__CH0)
 230:Generated_Source\PSoC5/CapSense_CSHL.c ****         {
 231:Generated_Source\PSoC5/CapSense_CSHL.c ****             /* Initialize Baseline, Signal and debounce counters */ 
 232:Generated_Source\PSoC5/CapSense_CSHL.c ****             CapSense_BaseInit(sensor);
 233:Generated_Source\PSoC5/CapSense_CSHL.c ****         }
 234:Generated_Source\PSoC5/CapSense_CSHL.c ****         
 235:Generated_Source\PSoC5/CapSense_CSHL.c ****         if(sensor < CapSense_TOTAL_SENSOR_COUNT__CH1)
 236:Generated_Source\PSoC5/CapSense_CSHL.c ****         {
 237:Generated_Source\PSoC5/CapSense_CSHL.c ****             /* Initialize Baseline, Signal and debounce counters */
 238:Generated_Source\PSoC5/CapSense_CSHL.c ****             CapSense_BaseInit(sensor + CapSense_TOTAL_SENSOR_COUNT__CH0);
 239:Generated_Source\PSoC5/CapSense_CSHL.c ****         }
 240:Generated_Source\PSoC5/CapSense_CSHL.c ****     
 241:Generated_Source\PSoC5/CapSense_CSHL.c ****     #endif  /* (CapSense_DESIGN_TYPE == CapSense_ONE_CHANNEL_DESIGN) */
 242:Generated_Source\PSoC5/CapSense_CSHL.c **** }
 243:Generated_Source\PSoC5/CapSense_CSHL.c **** 
 244:Generated_Source\PSoC5/CapSense_CSHL.c **** 
 245:Generated_Source\PSoC5/CapSense_CSHL.c **** /*******************************************************************************
 246:Generated_Source\PSoC5/CapSense_CSHL.c **** * Function Name: CapSense_InitializeAllBaselines
 247:Generated_Source\PSoC5/CapSense_CSHL.c **** ********************************************************************************
 248:Generated_Source\PSoC5/CapSense_CSHL.c **** *
 249:Generated_Source\PSoC5/CapSense_CSHL.c **** * Summary:
 250:Generated_Source\PSoC5/CapSense_CSHL.c **** *  Uses the CapSense_InitializeSensorBaseline function to loads the 
 251:Generated_Source\PSoC5/CapSense_CSHL.c **** *  CapSense_sensorBaseline[] array with an initial values by scanning 
 252:Generated_Source\PSoC5/CapSense_CSHL.c **** *  all sensors. The raw count values are copied into the baseline array for 
 253:Generated_Source\PSoC5/CapSense_CSHL.c **** *  all sensors. The raw data filters are initialized if enabled.
 254:Generated_Source\PSoC5/CapSense_CSHL.c **** *
 255:Generated_Source\PSoC5/CapSense_CSHL.c **** * Parameters:
 256:Generated_Source\PSoC5/CapSense_CSHL.c **** *  None
 257:Generated_Source\PSoC5/CapSense_CSHL.c **** *
 258:Generated_Source\PSoC5/CapSense_CSHL.c **** * Return:
 259:Generated_Source\PSoC5/CapSense_CSHL.c **** *  None
 260:Generated_Source\PSoC5/CapSense_CSHL.c **** *
 261:Generated_Source\PSoC5/CapSense_CSHL.c **** * Reentrant:
 262:Generated_Source\PSoC5/CapSense_CSHL.c **** *  No
 263:Generated_Source\PSoC5/CapSense_CSHL.c **** *
 264:Generated_Source\PSoC5/CapSense_CSHL.c **** *******************************************************************************/
 265:Generated_Source\PSoC5/CapSense_CSHL.c **** void CapSense_InitializeAllBaselines(void)
 266:Generated_Source\PSoC5/CapSense_CSHL.c ****                           
 267:Generated_Source\PSoC5/CapSense_CSHL.c **** {
 129              		.loc 1 267 0
 130              		.cfi_startproc
 131              		@ args = 0, pretend = 0, frame = 0
 132              		@ frame_needed = 0, uses_anonymous_args = 0
ARM GAS  C:\Users\HENRIC~1\AppData\Local\Temp\ccxfh9yc.s 			page 8


 133 0000 10B5     		push	{r4, lr}
 134              		.cfi_def_cfa_offset 8
 135              		.cfi_offset 4, -8
 136              		.cfi_offset 14, -4
 137              	.LVL8:
 268:Generated_Source\PSoC5/CapSense_CSHL.c ****     uint8 i;
 269:Generated_Source\PSoC5/CapSense_CSHL.c ****     
 270:Generated_Source\PSoC5/CapSense_CSHL.c ****     /* The baseline initialize by sensor of sensor pair */
 271:Generated_Source\PSoC5/CapSense_CSHL.c ****     for(i = 0u; i < CapSense_TOTAL_SCANSLOT_COUNT; i++)
 138              		.loc 1 271 0
 139 0002 0024     		movs	r4, #0
 140 0004 04E0     		b	.L10
 141              	.LVL9:
 142              	.L11:
 272:Generated_Source\PSoC5/CapSense_CSHL.c ****     {
 273:Generated_Source\PSoC5/CapSense_CSHL.c ****         CapSense_InitializeSensorBaseline(i);
 143              		.loc 1 273 0 discriminator 3
 144 0006 2046     		mov	r0, r4
 145 0008 FFF7FEFF 		bl	CapSense_InitializeSensorBaseline
 146              	.LVL10:
 271:Generated_Source\PSoC5/CapSense_CSHL.c ****     {
 147              		.loc 1 271 0 discriminator 3
 148 000c 0134     		adds	r4, r4, #1
 149              	.LVL11:
 150 000e E4B2     		uxtb	r4, r4
 151              	.LVL12:
 152              	.L10:
 271:Generated_Source\PSoC5/CapSense_CSHL.c ****     {
 153              		.loc 1 271 0 is_stmt 0 discriminator 1
 154 0010 062C     		cmp	r4, #6
 155 0012 F8D9     		bls	.L11
 274:Generated_Source\PSoC5/CapSense_CSHL.c ****     }
 275:Generated_Source\PSoC5/CapSense_CSHL.c **** }
 156              		.loc 1 275 0 is_stmt 1
 157 0014 10BD     		pop	{r4, pc}
 158              		.cfi_endproc
 159              	.LFE2:
 160              		.size	CapSense_InitializeAllBaselines, .-CapSense_InitializeAllBaselines
 161 0016 00BF     		.section	.text.CapSense_InitializeEnabledBaselines,"ax",%progbits
 162              		.align	2
 163              		.global	CapSense_InitializeEnabledBaselines
 164              		.thumb
 165              		.thumb_func
 166              		.type	CapSense_InitializeEnabledBaselines, %function
 167              	CapSense_InitializeEnabledBaselines:
 168              	.LFB3:
 276:Generated_Source\PSoC5/CapSense_CSHL.c **** 
 277:Generated_Source\PSoC5/CapSense_CSHL.c **** 
 278:Generated_Source\PSoC5/CapSense_CSHL.c **** /*******************************************************************************
 279:Generated_Source\PSoC5/CapSense_CSHL.c **** * Function Name: CapSense_InitializeEnabledBaselines
 280:Generated_Source\PSoC5/CapSense_CSHL.c **** ********************************************************************************
 281:Generated_Source\PSoC5/CapSense_CSHL.c **** *
 282:Generated_Source\PSoC5/CapSense_CSHL.c **** * Summary:
 283:Generated_Source\PSoC5/CapSense_CSHL.c **** *  Scans all enabled widgets and the raw count values are copied into the 
 284:Generated_Source\PSoC5/CapSense_CSHL.c **** *  baseline array for all sensors enabled in scanning process. Baselines 
 285:Generated_Source\PSoC5/CapSense_CSHL.c **** *  initialize with zero values for sensors disabled from scanning process. 
 286:Generated_Source\PSoC5/CapSense_CSHL.c **** *  The raw data filters are initialized if enabled.
ARM GAS  C:\Users\HENRIC~1\AppData\Local\Temp\ccxfh9yc.s 			page 9


 287:Generated_Source\PSoC5/CapSense_CSHL.c **** *
 288:Generated_Source\PSoC5/CapSense_CSHL.c **** * Parameters:
 289:Generated_Source\PSoC5/CapSense_CSHL.c **** *  None
 290:Generated_Source\PSoC5/CapSense_CSHL.c **** *
 291:Generated_Source\PSoC5/CapSense_CSHL.c **** * Return:
 292:Generated_Source\PSoC5/CapSense_CSHL.c **** *  None
 293:Generated_Source\PSoC5/CapSense_CSHL.c **** *
 294:Generated_Source\PSoC5/CapSense_CSHL.c **** * Reentrant:
 295:Generated_Source\PSoC5/CapSense_CSHL.c **** *  No
 296:Generated_Source\PSoC5/CapSense_CSHL.c **** *
 297:Generated_Source\PSoC5/CapSense_CSHL.c **** *******************************************************************************/
 298:Generated_Source\PSoC5/CapSense_CSHL.c **** void CapSense_InitializeEnabledBaselines(void)
 299:Generated_Source\PSoC5/CapSense_CSHL.c ****                              
 300:Generated_Source\PSoC5/CapSense_CSHL.c **** {
 169              		.loc 1 300 0
 170              		.cfi_startproc
 171              		@ args = 0, pretend = 0, frame = 0
 172              		@ frame_needed = 0, uses_anonymous_args = 0
 173 0000 10B5     		push	{r4, lr}
 174              		.cfi_def_cfa_offset 8
 175              		.cfi_offset 4, -8
 176              		.cfi_offset 14, -4
 301:Generated_Source\PSoC5/CapSense_CSHL.c ****     uint8 i;
 302:Generated_Source\PSoC5/CapSense_CSHL.c ****     uint8 pos;
 303:Generated_Source\PSoC5/CapSense_CSHL.c ****     uint8 enMask;
 304:Generated_Source\PSoC5/CapSense_CSHL.c ****     
 305:Generated_Source\PSoC5/CapSense_CSHL.c ****     CapSense_ScanEnabledWidgets();
 177              		.loc 1 305 0
 178 0002 FFF7FEFF 		bl	CapSense_ScanEnabledWidgets
 179              	.LVL13:
 180              	.L14:
 306:Generated_Source\PSoC5/CapSense_CSHL.c ****     while(CapSense_IsBusy() != 0u)
 181              		.loc 1 306 0 discriminator 1
 182 0006 FFF7FEFF 		bl	CapSense_IsBusy
 183              	.LVL14:
 184 000a 0028     		cmp	r0, #0
 185 000c FBD1     		bne	.L14
 186 000e 0024     		movs	r4, #0
 187 0010 11E0     		b	.L15
 188              	.LVL15:
 189              	.L17:
 307:Generated_Source\PSoC5/CapSense_CSHL.c ****     {
 308:Generated_Source\PSoC5/CapSense_CSHL.c ****         /* Wait while busy */
 309:Generated_Source\PSoC5/CapSense_CSHL.c ****     }
 310:Generated_Source\PSoC5/CapSense_CSHL.c ****     
 311:Generated_Source\PSoC5/CapSense_CSHL.c ****     for(i = 0u; i < CapSense_TOTAL_SENSOR_COUNT; i++)
 312:Generated_Source\PSoC5/CapSense_CSHL.c ****     {
 313:Generated_Source\PSoC5/CapSense_CSHL.c ****         pos = (i >> 3u);
 190              		.loc 1 313 0
 191 0012 E208     		lsrs	r2, r4, #3
 314:Generated_Source\PSoC5/CapSense_CSHL.c ****         enMask = 0x01u << (i & 0x07u);
 192              		.loc 1 314 0
 193 0014 04F00701 		and	r1, r4, #7
 194 0018 0123     		movs	r3, #1
 195 001a 8B40     		lsls	r3, r3, r1
 196              	.LVL16:
 315:Generated_Source\PSoC5/CapSense_CSHL.c ****         
ARM GAS  C:\Users\HENRIC~1\AppData\Local\Temp\ccxfh9yc.s 			page 10


 316:Generated_Source\PSoC5/CapSense_CSHL.c ****         /* Clear raw data if sensor is disabled from scanning process */
 317:Generated_Source\PSoC5/CapSense_CSHL.c ****         if((CapSense_sensorEnableMask[pos] & enMask) == 0u)
 197              		.loc 1 317 0
 198 001c 0749     		ldr	r1, .L19
 199 001e 8A5C     		ldrb	r2, [r1, r2]	@ zero_extendqisi2
 200 0020 1342     		tst	r3, r2
 201 0022 03D1     		bne	.L16
 318:Generated_Source\PSoC5/CapSense_CSHL.c ****         {
 319:Generated_Source\PSoC5/CapSense_CSHL.c ****             CapSense_sensorRaw[i] = 0u;
 202              		.loc 1 319 0
 203 0024 0022     		movs	r2, #0
 204 0026 064B     		ldr	r3, .L19+4
 205              	.LVL17:
 206 0028 23F81420 		strh	r2, [r3, r4, lsl #1]	@ movhi
 207              	.L16:
 320:Generated_Source\PSoC5/CapSense_CSHL.c ****         }
 321:Generated_Source\PSoC5/CapSense_CSHL.c ****         
 322:Generated_Source\PSoC5/CapSense_CSHL.c ****         /* Initialize baselines */
 323:Generated_Source\PSoC5/CapSense_CSHL.c ****         CapSense_BaseInit(i);
 208              		.loc 1 323 0 discriminator 2
 209 002c 2046     		mov	r0, r4
 210 002e FFF7FEFF 		bl	CapSense_BaseInit
 211              	.LVL18:
 311:Generated_Source\PSoC5/CapSense_CSHL.c ****     {
 212              		.loc 1 311 0 discriminator 2
 213 0032 0134     		adds	r4, r4, #1
 214              	.LVL19:
 215 0034 E4B2     		uxtb	r4, r4
 216              	.LVL20:
 217              	.L15:
 311:Generated_Source\PSoC5/CapSense_CSHL.c ****     {
 218              		.loc 1 311 0 is_stmt 0 discriminator 1
 219 0036 062C     		cmp	r4, #6
 220 0038 EBD9     		bls	.L17
 324:Generated_Source\PSoC5/CapSense_CSHL.c ****     }
 325:Generated_Source\PSoC5/CapSense_CSHL.c **** }  
 221              		.loc 1 325 0 is_stmt 1
 222 003a 10BD     		pop	{r4, pc}
 223              	.LVL21:
 224              	.L20:
 225              		.align	2
 226              	.L19:
 227 003c 00000000 		.word	CapSense_sensorEnableMask
 228 0040 00000000 		.word	CapSense_sensorRaw
 229              		.cfi_endproc
 230              	.LFE3:
 231              		.size	CapSense_InitializeEnabledBaselines, .-CapSense_InitializeEnabledBaselines
 232              		.section	.text.CapSense_CheckIsSensorActive,"ax",%progbits
 233              		.align	2
 234              		.global	CapSense_CheckIsSensorActive
 235              		.thumb
 236              		.thumb_func
 237              		.type	CapSense_CheckIsSensorActive, %function
 238              	CapSense_CheckIsSensorActive:
 239              	.LFB6:
 326:Generated_Source\PSoC5/CapSense_CSHL.c **** 
 327:Generated_Source\PSoC5/CapSense_CSHL.c **** 
ARM GAS  C:\Users\HENRIC~1\AppData\Local\Temp\ccxfh9yc.s 			page 11


 328:Generated_Source\PSoC5/CapSense_CSHL.c **** /*******************************************************************************
 329:Generated_Source\PSoC5/CapSense_CSHL.c **** * Function Name: CapSense_UpdateSensorBaseline
 330:Generated_Source\PSoC5/CapSense_CSHL.c **** ********************************************************************************
 331:Generated_Source\PSoC5/CapSense_CSHL.c **** *
 332:Generated_Source\PSoC5/CapSense_CSHL.c **** * Summary:
 333:Generated_Source\PSoC5/CapSense_CSHL.c **** *  Updates the CapSense_sensorBaseline[sensor] array element using the 
 334:Generated_Source\PSoC5/CapSense_CSHL.c **** *  LP filter with k = 256. The signal calculates the difference of count by 
 335:Generated_Source\PSoC5/CapSense_CSHL.c **** *  subtracting the previous baseline from the current raw count value and stores
 336:Generated_Source\PSoC5/CapSense_CSHL.c **** *  it in CapSense_SensorSignal[sensor]. 
 337:Generated_Source\PSoC5/CapSense_CSHL.c **** *  If auto reset option is enabled the baseline updated regards noise threshold. 
 338:Generated_Source\PSoC5/CapSense_CSHL.c **** *  If auto reset option is disabled the baseline stops updating if signal is 
 339:Generated_Source\PSoC5/CapSense_CSHL.c **** *  greater that zero and baseline loads with raw count value if signal is less 
 340:Generated_Source\PSoC5/CapSense_CSHL.c **** *  that noise threshold.
 341:Generated_Source\PSoC5/CapSense_CSHL.c **** *  Raw data filters are applied to the values if enabled before baseline 
 342:Generated_Source\PSoC5/CapSense_CSHL.c **** *  calculation.
 343:Generated_Source\PSoC5/CapSense_CSHL.c **** *
 344:Generated_Source\PSoC5/CapSense_CSHL.c **** * Parameters:
 345:Generated_Source\PSoC5/CapSense_CSHL.c **** *  sensor:  Sensor number.
 346:Generated_Source\PSoC5/CapSense_CSHL.c **** *
 347:Generated_Source\PSoC5/CapSense_CSHL.c **** * Return:
 348:Generated_Source\PSoC5/CapSense_CSHL.c **** *  None
 349:Generated_Source\PSoC5/CapSense_CSHL.c **** *
 350:Generated_Source\PSoC5/CapSense_CSHL.c **** * Global Variables:
 351:Generated_Source\PSoC5/CapSense_CSHL.c **** *  CapSense_sensorBaseline[]    - used to store baseline value.
 352:Generated_Source\PSoC5/CapSense_CSHL.c **** *  CapSense_sensorBaselineLow[] - used to store fraction byte of 
 353:Generated_Source\PSoC5/CapSense_CSHL.c **** *  baseline value.
 354:Generated_Source\PSoC5/CapSense_CSHL.c **** *  CapSense_sensorSignal[]      - used to store diffence between 
 355:Generated_Source\PSoC5/CapSense_CSHL.c **** *  current value of raw data and previous value of baseline.
 356:Generated_Source\PSoC5/CapSense_CSHL.c **** *  CapSense_rawFilterData1[]    - used to store previous sample of 
 357:Generated_Source\PSoC5/CapSense_CSHL.c **** *  any enabled raw data filter.
 358:Generated_Source\PSoC5/CapSense_CSHL.c **** *  CapSense_rawFilterData2[]    - used to store before previous sample
 359:Generated_Source\PSoC5/CapSense_CSHL.c **** *  of enabled raw data filter. Only required for median or average filters.
 360:Generated_Source\PSoC5/CapSense_CSHL.c **** *
 361:Generated_Source\PSoC5/CapSense_CSHL.c **** * Reentrant:
 362:Generated_Source\PSoC5/CapSense_CSHL.c **** *  No
 363:Generated_Source\PSoC5/CapSense_CSHL.c **** *
 364:Generated_Source\PSoC5/CapSense_CSHL.c **** *******************************************************************************/
 365:Generated_Source\PSoC5/CapSense_CSHL.c ****  void CapSense_UpdateSensorBaseline(uint8 sensor)
 366:Generated_Source\PSoC5/CapSense_CSHL.c ****                                  
 367:Generated_Source\PSoC5/CapSense_CSHL.c **** {
 368:Generated_Source\PSoC5/CapSense_CSHL.c ****     uint32 calc;
 369:Generated_Source\PSoC5/CapSense_CSHL.c ****     uint16 tempRaw;
 370:Generated_Source\PSoC5/CapSense_CSHL.c ****     uint16 filteredRawData;
 371:Generated_Source\PSoC5/CapSense_CSHL.c ****     uint8 widget = CapSense_widgetNumber[sensor];
 372:Generated_Source\PSoC5/CapSense_CSHL.c ****     uint8 noiseThreshold = CapSense_noiseThreshold[widget];
 373:Generated_Source\PSoC5/CapSense_CSHL.c ****     
 374:Generated_Source\PSoC5/CapSense_CSHL.c ****     #if (CapSense_TOTAL_GENERICS_COUNT)
 375:Generated_Source\PSoC5/CapSense_CSHL.c ****         /* Exclude generic widget */
 376:Generated_Source\PSoC5/CapSense_CSHL.c ****         if(widget < CapSense_END_OF_WIDGETS_INDEX)
 377:Generated_Source\PSoC5/CapSense_CSHL.c ****         {
 378:Generated_Source\PSoC5/CapSense_CSHL.c ****     #endif  /* CapSense_TOTAL_GENERICS_COUNT */
 379:Generated_Source\PSoC5/CapSense_CSHL.c ****     
 380:Generated_Source\PSoC5/CapSense_CSHL.c ****     filteredRawData = CapSense_sensorRaw[sensor];
 381:Generated_Source\PSoC5/CapSense_CSHL.c ****     
 382:Generated_Source\PSoC5/CapSense_CSHL.c ****     #if (CapSense_RAW_FILTER_MASK & CapSense_MEDIAN_FILTER)
 383:Generated_Source\PSoC5/CapSense_CSHL.c ****         tempRaw = filteredRawData;
 384:Generated_Source\PSoC5/CapSense_CSHL.c ****         filteredRawData = CapSense_MedianFilter(filteredRawData, CapSense_rawFilterData1[sensor], 
ARM GAS  C:\Users\HENRIC~1\AppData\Local\Temp\ccxfh9yc.s 			page 12


 385:Generated_Source\PSoC5/CapSense_CSHL.c ****                                                         CapSense_rawFilterData2[sensor]);
 386:Generated_Source\PSoC5/CapSense_CSHL.c ****         CapSense_rawFilterData2[sensor] = CapSense_rawFilterData1[sensor];
 387:Generated_Source\PSoC5/CapSense_CSHL.c ****         CapSense_rawFilterData1[sensor] = tempRaw;
 388:Generated_Source\PSoC5/CapSense_CSHL.c ****         
 389:Generated_Source\PSoC5/CapSense_CSHL.c ****     #elif (CapSense_RAW_FILTER_MASK & CapSense_AVERAGING_FILTER)
 390:Generated_Source\PSoC5/CapSense_CSHL.c ****         tempRaw = filteredRawData;
 391:Generated_Source\PSoC5/CapSense_CSHL.c ****         filteredRawData = CapSense_AveragingFilter(filteredRawData, CapSense_rawFilterData1[sensor]
 392:Generated_Source\PSoC5/CapSense_CSHL.c ****                                                            CapSense_rawFilterData2[sensor]);
 393:Generated_Source\PSoC5/CapSense_CSHL.c ****         CapSense_rawFilterData2[sensor] = CapSense_rawFilterData1[sensor];
 394:Generated_Source\PSoC5/CapSense_CSHL.c ****         CapSense_rawFilterData1[sensor] = tempRaw;
 395:Generated_Source\PSoC5/CapSense_CSHL.c ****         
 396:Generated_Source\PSoC5/CapSense_CSHL.c ****     #elif (CapSense_RAW_FILTER_MASK & CapSense_IIR2_FILTER)
 397:Generated_Source\PSoC5/CapSense_CSHL.c ****         filteredRawData = CapSense_IIR2Filter(filteredRawData, CapSense_rawFilterData1[sensor]);
 398:Generated_Source\PSoC5/CapSense_CSHL.c ****         CapSense_rawFilterData1[sensor] = filteredRawData;
 399:Generated_Source\PSoC5/CapSense_CSHL.c ****         
 400:Generated_Source\PSoC5/CapSense_CSHL.c ****     #elif (CapSense_RAW_FILTER_MASK & CapSense_IIR4_FILTER)
 401:Generated_Source\PSoC5/CapSense_CSHL.c ****         filteredRawData = CapSense_IIR4Filter(filteredRawData, CapSense_rawFilterData1[sensor]);
 402:Generated_Source\PSoC5/CapSense_CSHL.c ****         CapSense_rawFilterData1[sensor] = filteredRawData;
 403:Generated_Source\PSoC5/CapSense_CSHL.c ****             
 404:Generated_Source\PSoC5/CapSense_CSHL.c ****     #elif (CapSense_RAW_FILTER_MASK & CapSense_JITTER_FILTER)
 405:Generated_Source\PSoC5/CapSense_CSHL.c ****         filteredRawData = CapSense_JitterFilter(filteredRawData, CapSense_rawFilterData1[sensor]);
 406:Generated_Source\PSoC5/CapSense_CSHL.c ****         CapSense_rawFilterData1[sensor] = filteredRawData;
 407:Generated_Source\PSoC5/CapSense_CSHL.c ****         
 408:Generated_Source\PSoC5/CapSense_CSHL.c ****     #elif (CapSense_RAW_FILTER_MASK & CapSense_IIR8_FILTER)
 409:Generated_Source\PSoC5/CapSense_CSHL.c ****         filteredRawData = CapSense_IIR8Filter(filteredRawData, CapSense_rawFilterData1[sensor]);
 410:Generated_Source\PSoC5/CapSense_CSHL.c ****         CapSense_rawFilterData1[sensor] = filteredRawData;
 411:Generated_Source\PSoC5/CapSense_CSHL.c ****         
 412:Generated_Source\PSoC5/CapSense_CSHL.c ****     #elif (CapSense_RAW_FILTER_MASK & CapSense_IIR16_FILTER)
 413:Generated_Source\PSoC5/CapSense_CSHL.c ****         filteredRawData = CapSense_IIR16Filter(filteredRawData, CapSense_rawFilterData1[sensor]);
 414:Generated_Source\PSoC5/CapSense_CSHL.c ****         CapSense_rawFilterData1[sensor] = filteredRawData;
 415:Generated_Source\PSoC5/CapSense_CSHL.c ****         
 416:Generated_Source\PSoC5/CapSense_CSHL.c ****     #else
 417:Generated_Source\PSoC5/CapSense_CSHL.c ****         /* No Raw filters */
 418:Generated_Source\PSoC5/CapSense_CSHL.c ****     #endif  /* (CapSense_RAW_FILTER_MASK & CapSense_MEDIAN_FILTER) */
 419:Generated_Source\PSoC5/CapSense_CSHL.c ****     
 420:Generated_Source\PSoC5/CapSense_CSHL.c ****     #if (CapSense_TUNING_METHOD == CapSense_AUTO_TUNING)
 421:Generated_Source\PSoC5/CapSense_CSHL.c ****         CapSense_CalculateThresholds(sensor);
 422:Generated_Source\PSoC5/CapSense_CSHL.c ****     #endif /* (CapSense_TUNING_METHOD == CapSense_AUTO_TUNING) */
 423:Generated_Source\PSoC5/CapSense_CSHL.c **** 
 424:Generated_Source\PSoC5/CapSense_CSHL.c **** 
 425:Generated_Source\PSoC5/CapSense_CSHL.c ****     /* Baseline calculation */
 426:Generated_Source\PSoC5/CapSense_CSHL.c ****     /* Calculate difference RawData[cur] - Baseline[prev] */
 427:Generated_Source\PSoC5/CapSense_CSHL.c ****     if(filteredRawData >= CapSense_sensorBaseline[sensor])
 428:Generated_Source\PSoC5/CapSense_CSHL.c ****     {
 429:Generated_Source\PSoC5/CapSense_CSHL.c ****         tempRaw = filteredRawData - CapSense_sensorBaseline[sensor];
 430:Generated_Source\PSoC5/CapSense_CSHL.c ****         widget = 1u;    /* Positive difference - Calculate the Signal */
 431:Generated_Source\PSoC5/CapSense_CSHL.c ****     }
 432:Generated_Source\PSoC5/CapSense_CSHL.c ****     else
 433:Generated_Source\PSoC5/CapSense_CSHL.c ****     {
 434:Generated_Source\PSoC5/CapSense_CSHL.c ****         tempRaw = CapSense_sensorBaseline[sensor] - filteredRawData;
 435:Generated_Source\PSoC5/CapSense_CSHL.c ****         widget = 0u;    /* Negative difference - Do NOT calculate the Signal */
 436:Generated_Source\PSoC5/CapSense_CSHL.c ****     }
 437:Generated_Source\PSoC5/CapSense_CSHL.c **** 
 438:Generated_Source\PSoC5/CapSense_CSHL.c ****     if((widget == 0u) && (tempRaw > (uint16) CapSense_NEGATIVE_NOISE_THRESHOLD))
 439:Generated_Source\PSoC5/CapSense_CSHL.c ****     {
 440:Generated_Source\PSoC5/CapSense_CSHL.c ****         if(CapSense_lowBaselineResetCnt[sensor] >= CapSense_LOW_BASELINE_RESET)
 441:Generated_Source\PSoC5/CapSense_CSHL.c ****         {
ARM GAS  C:\Users\HENRIC~1\AppData\Local\Temp\ccxfh9yc.s 			page 13


 442:Generated_Source\PSoC5/CapSense_CSHL.c ****             CapSense_BaseInit(sensor);
 443:Generated_Source\PSoC5/CapSense_CSHL.c ****             CapSense_lowBaselineResetCnt[sensor] = 0u;
 444:Generated_Source\PSoC5/CapSense_CSHL.c ****         }
 445:Generated_Source\PSoC5/CapSense_CSHL.c ****         else
 446:Generated_Source\PSoC5/CapSense_CSHL.c ****         {
 447:Generated_Source\PSoC5/CapSense_CSHL.c ****             CapSense_lowBaselineResetCnt[sensor]++;
 448:Generated_Source\PSoC5/CapSense_CSHL.c ****         }
 449:Generated_Source\PSoC5/CapSense_CSHL.c ****     }
 450:Generated_Source\PSoC5/CapSense_CSHL.c ****     else
 451:Generated_Source\PSoC5/CapSense_CSHL.c ****     {
 452:Generated_Source\PSoC5/CapSense_CSHL.c ****         #if (CapSense_AUTO_RESET == CapSense_AUTO_RESET_DISABLE)
 453:Generated_Source\PSoC5/CapSense_CSHL.c ****             /* Update Baseline if lower that noiseThreshold */
 454:Generated_Source\PSoC5/CapSense_CSHL.c ****             if ( (tempRaw <= (uint16) noiseThreshold) || 
 455:Generated_Source\PSoC5/CapSense_CSHL.c ****                  ((tempRaw < (uint16) CapSense_NEGATIVE_NOISE_THRESHOLD)
 456:Generated_Source\PSoC5/CapSense_CSHL.c ****                    && (widget == 0u)))
 457:Generated_Source\PSoC5/CapSense_CSHL.c ****             {
 458:Generated_Source\PSoC5/CapSense_CSHL.c ****         #endif /* (CapSense_AUTO_RESET == CapSense_AUTO_RESET_DISABLE) */
 459:Generated_Source\PSoC5/CapSense_CSHL.c ****                 /* Make full Baseline 23 bits */
 460:Generated_Source\PSoC5/CapSense_CSHL.c ****                 calc = (uint32) CapSense_sensorBaseline[sensor] << 8u;
 461:Generated_Source\PSoC5/CapSense_CSHL.c ****                 calc |= (uint32) CapSense_sensorBaselineLow[sensor];
 462:Generated_Source\PSoC5/CapSense_CSHL.c **** 
 463:Generated_Source\PSoC5/CapSense_CSHL.c ****                 /* Add Raw Data to Baseline */
 464:Generated_Source\PSoC5/CapSense_CSHL.c ****                 calc += filteredRawData;
 465:Generated_Source\PSoC5/CapSense_CSHL.c **** 
 466:Generated_Source\PSoC5/CapSense_CSHL.c ****                 /* Sub the high Baseline */
 467:Generated_Source\PSoC5/CapSense_CSHL.c ****                 calc -= CapSense_sensorBaseline[sensor];
 468:Generated_Source\PSoC5/CapSense_CSHL.c **** 
 469:Generated_Source\PSoC5/CapSense_CSHL.c ****                 /* Put Baseline and BaselineLow */
 470:Generated_Source\PSoC5/CapSense_CSHL.c ****                 CapSense_sensorBaseline[sensor] = ((uint16) (calc >> 8u));
 471:Generated_Source\PSoC5/CapSense_CSHL.c ****                 CapSense_sensorBaselineLow[sensor] = ((uint8) calc);
 472:Generated_Source\PSoC5/CapSense_CSHL.c **** 
 473:Generated_Source\PSoC5/CapSense_CSHL.c ****                 CapSense_lowBaselineResetCnt[sensor] = 0u;
 474:Generated_Source\PSoC5/CapSense_CSHL.c ****         #if (CapSense_AUTO_RESET == CapSense_AUTO_RESET_DISABLE)
 475:Generated_Source\PSoC5/CapSense_CSHL.c ****             }
 476:Generated_Source\PSoC5/CapSense_CSHL.c ****         #endif /* (CapSense_AUTO_RESET == CapSense_AUTO_RESET_DISABLE) */
 477:Generated_Source\PSoC5/CapSense_CSHL.c ****     }
 478:Generated_Source\PSoC5/CapSense_CSHL.c **** 
 479:Generated_Source\PSoC5/CapSense_CSHL.c ****     /* Calculate Signal if possitive difference > noiseThreshold */
 480:Generated_Source\PSoC5/CapSense_CSHL.c ****     if((tempRaw > (uint16) noiseThreshold) && (widget != 0u))
 481:Generated_Source\PSoC5/CapSense_CSHL.c ****     {
 482:Generated_Source\PSoC5/CapSense_CSHL.c ****         #if (CapSense_SIGNAL_SIZE == CapSense_SIGNAL_SIZE_UINT8)
 483:Generated_Source\PSoC5/CapSense_CSHL.c ****             /* Over flow defence for uint8 */
 484:Generated_Source\PSoC5/CapSense_CSHL.c ****             if (tempRaw > 0xFFu)
 485:Generated_Source\PSoC5/CapSense_CSHL.c ****             {
 486:Generated_Source\PSoC5/CapSense_CSHL.c ****                 CapSense_sensorSignal[sensor] = 0xFFu;
 487:Generated_Source\PSoC5/CapSense_CSHL.c ****             }    
 488:Generated_Source\PSoC5/CapSense_CSHL.c ****             else 
 489:Generated_Source\PSoC5/CapSense_CSHL.c ****             {
 490:Generated_Source\PSoC5/CapSense_CSHL.c ****                 CapSense_sensorSignal[sensor] = ((uint8) tempRaw);
 491:Generated_Source\PSoC5/CapSense_CSHL.c ****             }
 492:Generated_Source\PSoC5/CapSense_CSHL.c ****         #else
 493:Generated_Source\PSoC5/CapSense_CSHL.c ****             CapSense_sensorSignal[sensor] = ((uint16) tempRaw);
 494:Generated_Source\PSoC5/CapSense_CSHL.c ****         #endif  /* (CapSense_SIGNAL_SIZE == CapSense_SIGNAL_SIZE_UINT8) */
 495:Generated_Source\PSoC5/CapSense_CSHL.c ****     }
 496:Generated_Source\PSoC5/CapSense_CSHL.c ****     else
 497:Generated_Source\PSoC5/CapSense_CSHL.c ****     {
 498:Generated_Source\PSoC5/CapSense_CSHL.c ****         /* Signal is zero */
ARM GAS  C:\Users\HENRIC~1\AppData\Local\Temp\ccxfh9yc.s 			page 14


 499:Generated_Source\PSoC5/CapSense_CSHL.c ****         CapSense_sensorSignal[sensor] = 0u;
 500:Generated_Source\PSoC5/CapSense_CSHL.c ****     }
 501:Generated_Source\PSoC5/CapSense_CSHL.c **** 
 502:Generated_Source\PSoC5/CapSense_CSHL.c ****     #if (CapSense_TOTAL_GENERICS_COUNT)
 503:Generated_Source\PSoC5/CapSense_CSHL.c ****         /* Exclude generic widget */
 504:Generated_Source\PSoC5/CapSense_CSHL.c ****         }
 505:Generated_Source\PSoC5/CapSense_CSHL.c ****     #endif  /* CapSense_TOTAL_GENERICS_COUNT */
 506:Generated_Source\PSoC5/CapSense_CSHL.c **** }
 507:Generated_Source\PSoC5/CapSense_CSHL.c **** 
 508:Generated_Source\PSoC5/CapSense_CSHL.c **** 
 509:Generated_Source\PSoC5/CapSense_CSHL.c **** /*******************************************************************************
 510:Generated_Source\PSoC5/CapSense_CSHL.c **** * Function Name: CapSense_UpdateEnabledBaselines
 511:Generated_Source\PSoC5/CapSense_CSHL.c **** ********************************************************************************
 512:Generated_Source\PSoC5/CapSense_CSHL.c **** *
 513:Generated_Source\PSoC5/CapSense_CSHL.c **** * Summary:
 514:Generated_Source\PSoC5/CapSense_CSHL.c **** *  Checks CapSense_sensorEnableMask[] array and calls the 
 515:Generated_Source\PSoC5/CapSense_CSHL.c **** *  CapSense_UpdateSensorBaseline function to update the baselines 
 516:Generated_Source\PSoC5/CapSense_CSHL.c **** *  for enabled sensors.
 517:Generated_Source\PSoC5/CapSense_CSHL.c **** *
 518:Generated_Source\PSoC5/CapSense_CSHL.c **** * Parameters:
 519:Generated_Source\PSoC5/CapSense_CSHL.c **** *  None
 520:Generated_Source\PSoC5/CapSense_CSHL.c **** *
 521:Generated_Source\PSoC5/CapSense_CSHL.c **** * Return:
 522:Generated_Source\PSoC5/CapSense_CSHL.c **** *  None
 523:Generated_Source\PSoC5/CapSense_CSHL.c **** *
 524:Generated_Source\PSoC5/CapSense_CSHL.c **** * Global Variables:
 525:Generated_Source\PSoC5/CapSense_CSHL.c **** *  CapSense_sensorEnableMask[] - used to store the sensor scanning 
 526:Generated_Source\PSoC5/CapSense_CSHL.c **** *  state.
 527:Generated_Source\PSoC5/CapSense_CSHL.c **** *  CapSense_sensorEnableMask[0] contains the masked bits for sensors 
 528:Generated_Source\PSoC5/CapSense_CSHL.c **** *   0 through 7 (sensor 0 is bit 0, sensor 1 is bit 1).
 529:Generated_Source\PSoC5/CapSense_CSHL.c **** *  CapSense_sensorEnableMask[1] contains the masked bits for 
 530:Generated_Source\PSoC5/CapSense_CSHL.c **** *  sensors 8 through 15 (if needed), and so on.
 531:Generated_Source\PSoC5/CapSense_CSHL.c **** *  0 - sensor doesn't scan by CapSense_ScanEnabledWidgets().
 532:Generated_Source\PSoC5/CapSense_CSHL.c **** *  1 - sensor scans by CapSense_ScanEnabledWidgets().
 533:Generated_Source\PSoC5/CapSense_CSHL.c **** *
 534:Generated_Source\PSoC5/CapSense_CSHL.c **** * Reentrant:
 535:Generated_Source\PSoC5/CapSense_CSHL.c **** *  No
 536:Generated_Source\PSoC5/CapSense_CSHL.c **** *
 537:Generated_Source\PSoC5/CapSense_CSHL.c **** *******************************************************************************/
 538:Generated_Source\PSoC5/CapSense_CSHL.c ****  void CapSense_UpdateEnabledBaselines(void)
 539:Generated_Source\PSoC5/CapSense_CSHL.c ****                                  
 540:Generated_Source\PSoC5/CapSense_CSHL.c **** {
 541:Generated_Source\PSoC5/CapSense_CSHL.c ****     uint8 i;
 542:Generated_Source\PSoC5/CapSense_CSHL.c ****     uint8 pos;
 543:Generated_Source\PSoC5/CapSense_CSHL.c ****     uint8 enMask;
 544:Generated_Source\PSoC5/CapSense_CSHL.c ****     
 545:Generated_Source\PSoC5/CapSense_CSHL.c ****     for(i = 0u; i < CapSense_TOTAL_SENSOR_COUNT; i++)
 546:Generated_Source\PSoC5/CapSense_CSHL.c ****     {
 547:Generated_Source\PSoC5/CapSense_CSHL.c ****         pos = (i >> 3u);
 548:Generated_Source\PSoC5/CapSense_CSHL.c ****         enMask = (uint8)(0x01u << (i & 0x07u));
 549:Generated_Source\PSoC5/CapSense_CSHL.c ****         if((CapSense_sensorEnableMask[pos] & enMask) != 0u)
 550:Generated_Source\PSoC5/CapSense_CSHL.c ****         {
 551:Generated_Source\PSoC5/CapSense_CSHL.c ****             CapSense_UpdateSensorBaseline(i);
 552:Generated_Source\PSoC5/CapSense_CSHL.c ****         }
 553:Generated_Source\PSoC5/CapSense_CSHL.c ****     }
 554:Generated_Source\PSoC5/CapSense_CSHL.c **** }
 555:Generated_Source\PSoC5/CapSense_CSHL.c **** 
ARM GAS  C:\Users\HENRIC~1\AppData\Local\Temp\ccxfh9yc.s 			page 15


 556:Generated_Source\PSoC5/CapSense_CSHL.c **** 
 557:Generated_Source\PSoC5/CapSense_CSHL.c **** /*******************************************************************************
 558:Generated_Source\PSoC5/CapSense_CSHL.c **** * Function Name: CapSense_CheckIsSensorActive
 559:Generated_Source\PSoC5/CapSense_CSHL.c **** ********************************************************************************
 560:Generated_Source\PSoC5/CapSense_CSHL.c **** *
 561:Generated_Source\PSoC5/CapSense_CSHL.c **** * Summary:
 562:Generated_Source\PSoC5/CapSense_CSHL.c **** *  Compares the CapSense_SensorSignal[sensor] array element to finger
 563:Generated_Source\PSoC5/CapSense_CSHL.c **** *  threshold of widget it belongs to. The hysteresis and debounce are taken into 
 564:Generated_Source\PSoC5/CapSense_CSHL.c **** *  account. The hysteresis is added or subtracted from the finger threshold 
 565:Generated_Source\PSoC5/CapSense_CSHL.c **** *  based on whether the sensor is currently active. 
 566:Generated_Source\PSoC5/CapSense_CSHL.c **** *  If the sensor is active, the threshold is lowered by the hysteresis amount.
 567:Generated_Source\PSoC5/CapSense_CSHL.c **** *  If the sensor is inactive, the threshold is raised by the hysteresis amount.
 568:Generated_Source\PSoC5/CapSense_CSHL.c **** *  The debounce counter added to the sensor active transition.
 569:Generated_Source\PSoC5/CapSense_CSHL.c **** *  This function updates CapSense_SensorOnMask[] array element.
 570:Generated_Source\PSoC5/CapSense_CSHL.c **** *
 571:Generated_Source\PSoC5/CapSense_CSHL.c **** * Parameters:
 572:Generated_Source\PSoC5/CapSense_CSHL.c **** *  sensor:  Sensor number.
 573:Generated_Source\PSoC5/CapSense_CSHL.c **** *
 574:Generated_Source\PSoC5/CapSense_CSHL.c **** * Return:
 575:Generated_Source\PSoC5/CapSense_CSHL.c **** *  Returns sensor state 1 if active, 0 if not active.
 576:Generated_Source\PSoC5/CapSense_CSHL.c **** *
 577:Generated_Source\PSoC5/CapSense_CSHL.c **** * Global Variables:
 578:Generated_Source\PSoC5/CapSense_CSHL.c **** *  CapSense_sensorSignal[]      - used to store diffence between 
 579:Generated_Source\PSoC5/CapSense_CSHL.c **** *  current value of raw data and previous value of baseline.
 580:Generated_Source\PSoC5/CapSense_CSHL.c **** *  CapSense_debounceCounter[]   - used to store current debounce 
 581:Generated_Source\PSoC5/CapSense_CSHL.c **** *  counter of sensor. Widget which has this parameter are buttons, matrix 
 582:Generated_Source\PSoC5/CapSense_CSHL.c **** *  buttons, proximity, guard. All other widgets haven't debounce parameter
 583:Generated_Source\PSoC5/CapSense_CSHL.c **** *  and use the last element of this array with value 0 (it means no debounce).
 584:Generated_Source\PSoC5/CapSense_CSHL.c **** *  CapSense_sensorOnMask[] - used to store sensors on/off state.
 585:Generated_Source\PSoC5/CapSense_CSHL.c **** *  CapSense_sensorOnMask[0] contains the masked bits for sensors 
 586:Generated_Source\PSoC5/CapSense_CSHL.c **** *   0 through 7 (sensor 0 is bit 0, sensor 1 is bit 1).
 587:Generated_Source\PSoC5/CapSense_CSHL.c **** *  CapSense_sensorEnableMask[1] contains the masked bits for 
 588:Generated_Source\PSoC5/CapSense_CSHL.c **** *  sensors 8 through 15 (if needed), and so on.
 589:Generated_Source\PSoC5/CapSense_CSHL.c **** *  0 - sensor is inactive.
 590:Generated_Source\PSoC5/CapSense_CSHL.c **** *  1 - sensor is active.
 591:Generated_Source\PSoC5/CapSense_CSHL.c **** *
 592:Generated_Source\PSoC5/CapSense_CSHL.c **** * Reentrant:
 593:Generated_Source\PSoC5/CapSense_CSHL.c **** *  No
 594:Generated_Source\PSoC5/CapSense_CSHL.c **** *
 595:Generated_Source\PSoC5/CapSense_CSHL.c **** *******************************************************************************/
 596:Generated_Source\PSoC5/CapSense_CSHL.c **** uint8 CapSense_CheckIsSensorActive(uint8 sensor)
 597:Generated_Source\PSoC5/CapSense_CSHL.c ****                                   
 598:Generated_Source\PSoC5/CapSense_CSHL.c **** {
 240              		.loc 1 598 0
 241              		.cfi_startproc
 242              		@ args = 0, pretend = 0, frame = 0
 243              		@ frame_needed = 0, uses_anonymous_args = 0
 244              	.LVL22:
 245 0000 F0B5     		push	{r4, r5, r6, r7, lr}
 246              		.cfi_def_cfa_offset 20
 247              		.cfi_offset 4, -20
 248              		.cfi_offset 5, -16
 249              		.cfi_offset 6, -12
 250              		.cfi_offset 7, -8
 251              		.cfi_offset 14, -4
 599:Generated_Source\PSoC5/CapSense_CSHL.c ****     uint8 debounceIndex;
 600:Generated_Source\PSoC5/CapSense_CSHL.c ****     /* Get On/Off mask */
ARM GAS  C:\Users\HENRIC~1\AppData\Local\Temp\ccxfh9yc.s 			page 16


 601:Generated_Source\PSoC5/CapSense_CSHL.c ****     uint8 pos = (sensor >> 3u);
 252              		.loc 1 601 0
 253 0002 C408     		lsrs	r4, r0, #3
 254              	.LVL23:
 602:Generated_Source\PSoC5/CapSense_CSHL.c ****     uint8 onMask = 0x01u << (sensor & 0x07u);
 255              		.loc 1 602 0
 256 0004 00F00702 		and	r2, r0, #7
 257 0008 0123     		movs	r3, #1
 258 000a 9340     		lsls	r3, r3, r2
 259 000c DBB2     		uxtb	r3, r3
 260              	.LVL24:
 603:Generated_Source\PSoC5/CapSense_CSHL.c ****     /* Prepare to find debounce counter index */
 604:Generated_Source\PSoC5/CapSense_CSHL.c ****     uint8 widget = CapSense_widgetNumber[sensor];
 261              		.loc 1 604 0
 262 000e 1E4A     		ldr	r2, .L30
 263 0010 125C     		ldrb	r2, [r2, r0]	@ zero_extendqisi2
 264              	.LVL25:
 605:Generated_Source\PSoC5/CapSense_CSHL.c ****     uint8 fingerThreshold = CapSense_fingerThreshold[widget];
 265              		.loc 1 605 0
 266 0012 1E4D     		ldr	r5, .L30+4
 267 0014 AE18     		adds	r6, r5, r2
 268 0016 3779     		ldrb	r7, [r6, #4]	@ zero_extendqisi2
 269              	.LVL26:
 606:Generated_Source\PSoC5/CapSense_CSHL.c ****     uint8 hysteresis = CapSense_hysteresis[widget];
 270              		.loc 1 606 0
 271 0018 317A     		ldrb	r1, [r6, #8]	@ zero_extendqisi2
 272              	.LVL27:
 607:Generated_Source\PSoC5/CapSense_CSHL.c ****     uint8 debounce = CapSense_debounce[widget];
 273              		.loc 1 607 0
 274 001a AE5C     		ldrb	r6, [r5, r2]	@ zero_extendqisi2
 275              	.LVL28:
 608:Generated_Source\PSoC5/CapSense_CSHL.c ****     
 609:Generated_Source\PSoC5/CapSense_CSHL.c ****     if (widget < CapSense_TOTAL_CENTROIDS_COUNT)
 276              		.loc 1 609 0
 277 001c 22B9     		cbnz	r2, .L22
 278              	.LVL29:
 610:Generated_Source\PSoC5/CapSense_CSHL.c ****     {
 611:Generated_Source\PSoC5/CapSense_CSHL.c ****         debounceIndex = CapSense_UNUSED_DEBOUNCE_COUNTER_INDEX;
 612:Generated_Source\PSoC5/CapSense_CSHL.c ****         CapSense_debounceCounter[debounceIndex] = 1u;
 279              		.loc 1 612 0
 280 001e 0125     		movs	r5, #1
 281 0020 1B4A     		ldr	r2, .L30+8
 282              	.LVL30:
 283 0022 9570     		strb	r5, [r2, #2]
 611:Generated_Source\PSoC5/CapSense_CSHL.c ****         CapSense_debounceCounter[debounceIndex] = 1u;
 284              		.loc 1 611 0
 285 0024 0222     		movs	r2, #2
 286 0026 01E0     		b	.L23
 287              	.LVL31:
 288              	.L22:
 613:Generated_Source\PSoC5/CapSense_CSHL.c ****     }
 614:Generated_Source\PSoC5/CapSense_CSHL.c ****     else
 615:Generated_Source\PSoC5/CapSense_CSHL.c ****     {
 616:Generated_Source\PSoC5/CapSense_CSHL.c ****         debounceIndex = widget - (CapSense_END_OF_TOUCH_PAD_INDEX + 1);
 289              		.loc 1 616 0
 290 0028 013A     		subs	r2, r2, #1
 291              	.LVL32:
ARM GAS  C:\Users\HENRIC~1\AppData\Local\Temp\ccxfh9yc.s 			page 17


 292 002a D2B2     		uxtb	r2, r2
 293              	.LVL33:
 294              	.L23:
 617:Generated_Source\PSoC5/CapSense_CSHL.c ****     }
 618:Generated_Source\PSoC5/CapSense_CSHL.c **** 
 619:Generated_Source\PSoC5/CapSense_CSHL.c ****     
 620:Generated_Source\PSoC5/CapSense_CSHL.c ****     /* Was on */
 621:Generated_Source\PSoC5/CapSense_CSHL.c ****     if (0u != (CapSense_sensorOnMask[pos] & onMask))
 295              		.loc 1 621 0
 296 002c 194D     		ldr	r5, .L30+12
 297 002e 2D5D     		ldrb	r5, [r5, r4]	@ zero_extendqisi2
 298 0030 2B42     		tst	r3, r5
 299 0032 0DD0     		beq	.L24
 622:Generated_Source\PSoC5/CapSense_CSHL.c ****     {
 623:Generated_Source\PSoC5/CapSense_CSHL.c ****         /* Hysteresis minus */
 624:Generated_Source\PSoC5/CapSense_CSHL.c ****         if (CapSense_sensorSignal[sensor] < (fingerThreshold - hysteresis))
 300              		.loc 1 624 0
 301 0034 DFF860E0 		ldr	lr, .L30+16
 302 0038 1EF80000 		ldrb	r0, [lr, r0]	@ zero_extendqisi2
 303              	.LVL34:
 304 003c 791A     		subs	r1, r7, r1
 305              	.LVL35:
 306 003e 8842     		cmp	r0, r1
 307 0040 1BDA     		bge	.L25
 625:Generated_Source\PSoC5/CapSense_CSHL.c ****         {
 626:Generated_Source\PSoC5/CapSense_CSHL.c ****             CapSense_sensorOnMask[pos] &= (uint8)~onMask;
 308              		.loc 1 626 0
 309 0042 25EA0305 		bic	r5, r5, r3
 310 0046 1349     		ldr	r1, .L30+12
 311 0048 0D55     		strb	r5, [r1, r4]
 627:Generated_Source\PSoC5/CapSense_CSHL.c ****             CapSense_debounceCounter[debounceIndex] = debounce; 
 312              		.loc 1 627 0
 313 004a 1149     		ldr	r1, .L30+8
 314 004c 8E54     		strb	r6, [r1, r2]
 315 004e 14E0     		b	.L25
 316              	.LVL36:
 317              	.L24:
 628:Generated_Source\PSoC5/CapSense_CSHL.c ****         }
 629:Generated_Source\PSoC5/CapSense_CSHL.c ****     }
 630:Generated_Source\PSoC5/CapSense_CSHL.c ****     else    /* Was off */
 631:Generated_Source\PSoC5/CapSense_CSHL.c ****     {
 632:Generated_Source\PSoC5/CapSense_CSHL.c ****         /* Hysteresis plus */
 633:Generated_Source\PSoC5/CapSense_CSHL.c ****         if (CapSense_sensorSignal[sensor] > (fingerThreshold + hysteresis))
 318              		.loc 1 633 0
 319 0050 DFF844E0 		ldr	lr, .L30+16
 320 0054 1EF80000 		ldrb	r0, [lr, r0]	@ zero_extendqisi2
 321              	.LVL37:
 322 0058 3944     		add	r1, r1, r7
 323              	.LVL38:
 324 005a 8842     		cmp	r0, r1
 325 005c 0BDD     		ble	.L26
 634:Generated_Source\PSoC5/CapSense_CSHL.c ****         {
 635:Generated_Source\PSoC5/CapSense_CSHL.c ****             /* Sensor active, decrement debounce counter */
 636:Generated_Source\PSoC5/CapSense_CSHL.c ****             if (CapSense_debounceCounter[debounceIndex] <= 1u)
 326              		.loc 1 636 0
 327 005e 1146     		mov	r1, r2
 328 0060 0B48     		ldr	r0, .L30+8
ARM GAS  C:\Users\HENRIC~1\AppData\Local\Temp\ccxfh9yc.s 			page 18


 329 0062 825C     		ldrb	r2, [r0, r2]	@ zero_extendqisi2
 330              	.LVL39:
 331 0064 012A     		cmp	r2, #1
 332 0066 02D8     		bhi	.L27
 637:Generated_Source\PSoC5/CapSense_CSHL.c ****             {
 638:Generated_Source\PSoC5/CapSense_CSHL.c ****                 CapSense_sensorOnMask[pos] |= onMask; 
 333              		.loc 1 638 0
 334 0068 1D43     		orrs	r5, r5, r3
 335 006a 0A48     		ldr	r0, .L30+12
 336 006c 0555     		strb	r5, [r0, r4]
 337              	.L27:
 639:Generated_Source\PSoC5/CapSense_CSHL.c ****             }
 640:Generated_Source\PSoC5/CapSense_CSHL.c ****             CapSense_debounceCounter[debounceIndex]--;
 338              		.loc 1 640 0
 339 006e 013A     		subs	r2, r2, #1
 340 0070 0748     		ldr	r0, .L30+8
 341 0072 4254     		strb	r2, [r0, r1]
 342 0074 01E0     		b	.L25
 343              	.LVL40:
 344              	.L26:
 641:Generated_Source\PSoC5/CapSense_CSHL.c ****         }
 642:Generated_Source\PSoC5/CapSense_CSHL.c ****         else
 643:Generated_Source\PSoC5/CapSense_CSHL.c ****         {
 644:Generated_Source\PSoC5/CapSense_CSHL.c ****             /* Sensor inactive - reset Debounce counter */
 645:Generated_Source\PSoC5/CapSense_CSHL.c ****             CapSense_debounceCounter[debounceIndex] = debounce;
 345              		.loc 1 645 0
 346 0076 0649     		ldr	r1, .L30+8
 347 0078 8E54     		strb	r6, [r1, r2]
 348              	.LVL41:
 349              	.L25:
 646:Generated_Source\PSoC5/CapSense_CSHL.c ****         }
 647:Generated_Source\PSoC5/CapSense_CSHL.c ****     }
 648:Generated_Source\PSoC5/CapSense_CSHL.c ****     
 649:Generated_Source\PSoC5/CapSense_CSHL.c ****     return (((CapSense_sensorOnMask[pos] & onMask) != 0u) ? 1u : 0u);
 350              		.loc 1 649 0
 351 007a 064A     		ldr	r2, .L30+12
 352 007c 105D     		ldrb	r0, [r2, r4]	@ zero_extendqisi2
 353 007e 1840     		ands	r0, r3, r0
 354 0080 00D0     		beq	.L28
 355 0082 0120     		movs	r0, #1
 356              	.L28:
 650:Generated_Source\PSoC5/CapSense_CSHL.c **** }
 357              		.loc 1 650 0 discriminator 4
 358 0084 F0BD     		pop	{r4, r5, r6, r7, pc}
 359              	.LVL42:
 360              	.L31:
 361 0086 00BF     		.align	2
 362              	.L30:
 363 0088 00000000 		.word	CapSense_widgetNumber
 364 008c 00000000 		.word	.LANCHOR0
 365 0090 00000000 		.word	.LANCHOR1
 366 0094 00000000 		.word	CapSense_sensorOnMask
 367 0098 00000000 		.word	CapSense_sensorSignal
 368              		.cfi_endproc
 369              	.LFE6:
 370              		.size	CapSense_CheckIsSensorActive, .-CapSense_CheckIsSensorActive
 371              		.section	.text.CapSense_CheckIsWidgetActive,"ax",%progbits
ARM GAS  C:\Users\HENRIC~1\AppData\Local\Temp\ccxfh9yc.s 			page 19


 372              		.align	2
 373              		.global	CapSense_CheckIsWidgetActive
 374              		.thumb
 375              		.thumb_func
 376              		.type	CapSense_CheckIsWidgetActive, %function
 377              	CapSense_CheckIsWidgetActive:
 378              	.LFB7:
 651:Generated_Source\PSoC5/CapSense_CSHL.c **** 
 652:Generated_Source\PSoC5/CapSense_CSHL.c **** 
 653:Generated_Source\PSoC5/CapSense_CSHL.c **** /*******************************************************************************
 654:Generated_Source\PSoC5/CapSense_CSHL.c **** * Function Name: CapSense_CheckIsWidgetActive
 655:Generated_Source\PSoC5/CapSense_CSHL.c **** ********************************************************************************
 656:Generated_Source\PSoC5/CapSense_CSHL.c **** *
 657:Generated_Source\PSoC5/CapSense_CSHL.c **** * Summary:
 658:Generated_Source\PSoC5/CapSense_CSHL.c **** *  Use function CapSense_CheckIsSensorActive() to update 
 659:Generated_Source\PSoC5/CapSense_CSHL.c **** *  CapSense_sensorOnMask[] for all sensors within the widget.
 660:Generated_Source\PSoC5/CapSense_CSHL.c **** *  If one of sensors within widget is active the function return that widget is 
 661:Generated_Source\PSoC5/CapSense_CSHL.c **** *  active.
 662:Generated_Source\PSoC5/CapSense_CSHL.c **** *  The touch pad and matrix buttons widgets need to have active sensor within 
 663:Generated_Source\PSoC5/CapSense_CSHL.c **** *  col and row to return widget active status.
 664:Generated_Source\PSoC5/CapSense_CSHL.c **** *
 665:Generated_Source\PSoC5/CapSense_CSHL.c **** * Parameters:
 666:Generated_Source\PSoC5/CapSense_CSHL.c **** *  widget:  widget number.
 667:Generated_Source\PSoC5/CapSense_CSHL.c **** *
 668:Generated_Source\PSoC5/CapSense_CSHL.c **** * Return:
 669:Generated_Source\PSoC5/CapSense_CSHL.c **** *  Returns widget sensor state 1 if one or more sensors within widget is/are 
 670:Generated_Source\PSoC5/CapSense_CSHL.c **** *  active, 0 if all sensors within widget are inactive.
 671:Generated_Source\PSoC5/CapSense_CSHL.c **** *
 672:Generated_Source\PSoC5/CapSense_CSHL.c **** * Reentrant:
 673:Generated_Source\PSoC5/CapSense_CSHL.c **** *  No
 674:Generated_Source\PSoC5/CapSense_CSHL.c **** *
 675:Generated_Source\PSoC5/CapSense_CSHL.c **** *******************************************************************************/
 676:Generated_Source\PSoC5/CapSense_CSHL.c **** uint8 CapSense_CheckIsWidgetActive(uint8 widget)
 677:Generated_Source\PSoC5/CapSense_CSHL.c ****                                  
 678:Generated_Source\PSoC5/CapSense_CSHL.c **** {
 379              		.loc 1 678 0
 380              		.cfi_startproc
 381              		@ args = 0, pretend = 0, frame = 0
 382              		@ frame_needed = 0, uses_anonymous_args = 0
 383              	.LVL43:
 384 0000 70B5     		push	{r4, r5, r6, lr}
 385              		.cfi_def_cfa_offset 16
 386              		.cfi_offset 4, -16
 387              		.cfi_offset 5, -12
 388              		.cfi_offset 6, -8
 389              		.cfi_offset 14, -4
 679:Generated_Source\PSoC5/CapSense_CSHL.c ****     uint8 rawIndex = CapSense_rawDataIndex[widget];
 390              		.loc 1 679 0
 391 0002 094B     		ldr	r3, .L37
 392 0004 1C5C     		ldrb	r4, [r3, r0]	@ zero_extendqisi2
 393              	.LVL44:
 680:Generated_Source\PSoC5/CapSense_CSHL.c ****     uint8 numberOfSensors = CapSense_numberOfSensors[widget] + rawIndex;
 394              		.loc 1 680 0
 395 0006 1844     		add	r0, r0, r3
 396              	.LVL45:
 397 0008 0579     		ldrb	r5, [r0, #4]	@ zero_extendqisi2
 398 000a 2544     		add	r5, r5, r4
ARM GAS  C:\Users\HENRIC~1\AppData\Local\Temp\ccxfh9yc.s 			page 20


 399 000c EDB2     		uxtb	r5, r5
 400              	.LVL46:
 681:Generated_Source\PSoC5/CapSense_CSHL.c ****     uint8 state = 0u;
 401              		.loc 1 681 0
 402 000e 0026     		movs	r6, #0
 403              	.LVL47:
 404              	.L34:
 682:Generated_Source\PSoC5/CapSense_CSHL.c **** 
 683:Generated_Source\PSoC5/CapSense_CSHL.c ****     /* Check all sensors of the widget */
 684:Generated_Source\PSoC5/CapSense_CSHL.c ****     do
 685:Generated_Source\PSoC5/CapSense_CSHL.c ****     {
 686:Generated_Source\PSoC5/CapSense_CSHL.c ****         if(CapSense_CheckIsSensorActive(rawIndex) != 0u)
 405              		.loc 1 686 0
 406 0010 2046     		mov	r0, r4
 407 0012 FFF7FEFF 		bl	CapSense_CheckIsSensorActive
 408              	.LVL48:
 409 0016 00B1     		cbz	r0, .L33
 687:Generated_Source\PSoC5/CapSense_CSHL.c ****         {
 688:Generated_Source\PSoC5/CapSense_CSHL.c ****             state = CapSense_SENSOR_1_IS_ACTIVE;
 410              		.loc 1 688 0
 411 0018 0126     		movs	r6, #1
 412              	.LVL49:
 413              	.L33:
 689:Generated_Source\PSoC5/CapSense_CSHL.c ****         }
 690:Generated_Source\PSoC5/CapSense_CSHL.c ****         rawIndex++;
 414              		.loc 1 690 0
 415 001a 0134     		adds	r4, r4, #1
 416              	.LVL50:
 417 001c E4B2     		uxtb	r4, r4
 418              	.LVL51:
 691:Generated_Source\PSoC5/CapSense_CSHL.c ****     }
 692:Generated_Source\PSoC5/CapSense_CSHL.c ****     while(rawIndex < numberOfSensors);
 419              		.loc 1 692 0
 420 001e A542     		cmp	r5, r4
 421 0020 F6D8     		bhi	.L34
 693:Generated_Source\PSoC5/CapSense_CSHL.c ****     
 694:Generated_Source\PSoC5/CapSense_CSHL.c **** 
 695:Generated_Source\PSoC5/CapSense_CSHL.c ****     
 696:Generated_Source\PSoC5/CapSense_CSHL.c ****     return (state);
 697:Generated_Source\PSoC5/CapSense_CSHL.c **** }
 422              		.loc 1 697 0
 423 0022 3046     		mov	r0, r6
 424 0024 70BD     		pop	{r4, r5, r6, pc}
 425              	.LVL52:
 426              	.L38:
 427 0026 00BF     		.align	2
 428              	.L37:
 429 0028 00000000 		.word	.LANCHOR2
 430              		.cfi_endproc
 431              	.LFE7:
 432              		.size	CapSense_CheckIsWidgetActive, .-CapSense_CheckIsWidgetActive
 433              		.section	.text.CapSense_CheckIsAnyWidgetActive,"ax",%progbits
 434              		.align	2
 435              		.global	CapSense_CheckIsAnyWidgetActive
 436              		.thumb
 437              		.thumb_func
 438              		.type	CapSense_CheckIsAnyWidgetActive, %function
ARM GAS  C:\Users\HENRIC~1\AppData\Local\Temp\ccxfh9yc.s 			page 21


 439              	CapSense_CheckIsAnyWidgetActive:
 440              	.LFB8:
 698:Generated_Source\PSoC5/CapSense_CSHL.c **** 
 699:Generated_Source\PSoC5/CapSense_CSHL.c **** 
 700:Generated_Source\PSoC5/CapSense_CSHL.c **** /*******************************************************************************
 701:Generated_Source\PSoC5/CapSense_CSHL.c **** * Function Name: CapSense_CheckIsAnyWidgetActive
 702:Generated_Source\PSoC5/CapSense_CSHL.c **** ********************************************************************************
 703:Generated_Source\PSoC5/CapSense_CSHL.c **** *
 704:Generated_Source\PSoC5/CapSense_CSHL.c **** * Summary:
 705:Generated_Source\PSoC5/CapSense_CSHL.c **** *  Compares all sensors of the CapSense_signal[] array to their finger 
 706:Generated_Source\PSoC5/CapSense_CSHL.c **** *  threshold. Calls CapSense_CheckIsWidgetActive() for each widget so 
 707:Generated_Source\PSoC5/CapSense_CSHL.c **** *  the CapSense_SensorOnMask[] array is up to date after calling this 
 708:Generated_Source\PSoC5/CapSense_CSHL.c **** *  function.
 709:Generated_Source\PSoC5/CapSense_CSHL.c **** *
 710:Generated_Source\PSoC5/CapSense_CSHL.c **** * Parameters:
 711:Generated_Source\PSoC5/CapSense_CSHL.c **** *  widget:  widget number.
 712:Generated_Source\PSoC5/CapSense_CSHL.c **** *
 713:Generated_Source\PSoC5/CapSense_CSHL.c **** * Return:
 714:Generated_Source\PSoC5/CapSense_CSHL.c **** *  Returns 1 if any widget is active, 0 none of widgets are active.
 715:Generated_Source\PSoC5/CapSense_CSHL.c **** *
 716:Generated_Source\PSoC5/CapSense_CSHL.c **** * Reentrant:
 717:Generated_Source\PSoC5/CapSense_CSHL.c **** *  No
 718:Generated_Source\PSoC5/CapSense_CSHL.c **** *
 719:Generated_Source\PSoC5/CapSense_CSHL.c **** *******************************************************************************/
 720:Generated_Source\PSoC5/CapSense_CSHL.c **** uint8 CapSense_CheckIsAnyWidgetActive(void)
 721:Generated_Source\PSoC5/CapSense_CSHL.c ****                                  
 722:Generated_Source\PSoC5/CapSense_CSHL.c **** {
 441              		.loc 1 722 0
 442              		.cfi_startproc
 443              		@ args = 0, pretend = 0, frame = 0
 444              		@ frame_needed = 0, uses_anonymous_args = 0
 445 0000 38B5     		push	{r3, r4, r5, lr}
 446              		.cfi_def_cfa_offset 16
 447              		.cfi_offset 3, -16
 448              		.cfi_offset 4, -12
 449              		.cfi_offset 5, -8
 450              		.cfi_offset 14, -4
 451              	.LVL53:
 723:Generated_Source\PSoC5/CapSense_CSHL.c ****     uint8 i;
 724:Generated_Source\PSoC5/CapSense_CSHL.c ****     uint8 state = 0u;
 452              		.loc 1 724 0
 453 0002 0025     		movs	r5, #0
 725:Generated_Source\PSoC5/CapSense_CSHL.c ****     
 726:Generated_Source\PSoC5/CapSense_CSHL.c ****     for(i = 0u; i < CapSense_TOTAL_WIDGET_COUNT; i++)
 454              		.loc 1 726 0
 455 0004 2C46     		mov	r4, r5
 456 0006 06E0     		b	.L40
 457              	.LVL54:
 458              	.L42:
 727:Generated_Source\PSoC5/CapSense_CSHL.c ****     {
 728:Generated_Source\PSoC5/CapSense_CSHL.c ****         if (CapSense_CheckIsWidgetActive(i) != 0u)
 459              		.loc 1 728 0
 460 0008 2046     		mov	r0, r4
 461 000a FFF7FEFF 		bl	CapSense_CheckIsWidgetActive
 462              	.LVL55:
 463 000e 00B1     		cbz	r0, .L41
 729:Generated_Source\PSoC5/CapSense_CSHL.c ****         {
ARM GAS  C:\Users\HENRIC~1\AppData\Local\Temp\ccxfh9yc.s 			page 22


 730:Generated_Source\PSoC5/CapSense_CSHL.c ****             state = CapSense_WIDGET_IS_ACTIVE;
 464              		.loc 1 730 0
 465 0010 0125     		movs	r5, #1
 466              	.LVL56:
 467              	.L41:
 726:Generated_Source\PSoC5/CapSense_CSHL.c ****     {
 468              		.loc 1 726 0 discriminator 2
 469 0012 0134     		adds	r4, r4, #1
 470              	.LVL57:
 471 0014 E4B2     		uxtb	r4, r4
 472              	.LVL58:
 473              	.L40:
 726:Generated_Source\PSoC5/CapSense_CSHL.c ****     {
 474              		.loc 1 726 0 is_stmt 0 discriminator 1
 475 0016 022C     		cmp	r4, #2
 476 0018 F6D9     		bls	.L42
 731:Generated_Source\PSoC5/CapSense_CSHL.c ****         }
 732:Generated_Source\PSoC5/CapSense_CSHL.c ****     }
 733:Generated_Source\PSoC5/CapSense_CSHL.c ****     
 734:Generated_Source\PSoC5/CapSense_CSHL.c **** 
 735:Generated_Source\PSoC5/CapSense_CSHL.c ****     return (state);
 736:Generated_Source\PSoC5/CapSense_CSHL.c **** }
 477              		.loc 1 736 0 is_stmt 1
 478 001a 2846     		mov	r0, r5
 479 001c 38BD     		pop	{r3, r4, r5, pc}
 480              		.cfi_endproc
 481              	.LFE8:
 482              		.size	CapSense_CheckIsAnyWidgetActive, .-CapSense_CheckIsAnyWidgetActive
 483 001e 00BF     		.section	.text.CapSense_EnableWidget,"ax",%progbits
 484              		.align	2
 485              		.global	CapSense_EnableWidget
 486              		.thumb
 487              		.thumb_func
 488              		.type	CapSense_EnableWidget, %function
 489              	CapSense_EnableWidget:
 490              	.LFB9:
 737:Generated_Source\PSoC5/CapSense_CSHL.c **** 
 738:Generated_Source\PSoC5/CapSense_CSHL.c **** 
 739:Generated_Source\PSoC5/CapSense_CSHL.c **** /*******************************************************************************
 740:Generated_Source\PSoC5/CapSense_CSHL.c **** * Function Name: CapSense_EnableWidget
 741:Generated_Source\PSoC5/CapSense_CSHL.c **** ********************************************************************************
 742:Generated_Source\PSoC5/CapSense_CSHL.c **** *
 743:Generated_Source\PSoC5/CapSense_CSHL.c **** * Summary:
 744:Generated_Source\PSoC5/CapSense_CSHL.c **** *  Enable all widget elements (sensors) to scanning process.
 745:Generated_Source\PSoC5/CapSense_CSHL.c **** *
 746:Generated_Source\PSoC5/CapSense_CSHL.c **** * Parameters:
 747:Generated_Source\PSoC5/CapSense_CSHL.c **** *  widget:  widget number.
 748:Generated_Source\PSoC5/CapSense_CSHL.c **** *
 749:Generated_Source\PSoC5/CapSense_CSHL.c **** * Return:
 750:Generated_Source\PSoC5/CapSense_CSHL.c **** *  None
 751:Generated_Source\PSoC5/CapSense_CSHL.c **** *
 752:Generated_Source\PSoC5/CapSense_CSHL.c **** * Global Variables:
 753:Generated_Source\PSoC5/CapSense_CSHL.c **** *  CapSense_sensorEnableMask[] - used to store the sensor scanning 
 754:Generated_Source\PSoC5/CapSense_CSHL.c **** *  state.
 755:Generated_Source\PSoC5/CapSense_CSHL.c **** *  CapSense_sensorEnableMask[0] contains the masked bits for sensors 
 756:Generated_Source\PSoC5/CapSense_CSHL.c **** *  0 through 7 (sensor 0 is bit 0, sensor 1 is bit 1).
 757:Generated_Source\PSoC5/CapSense_CSHL.c **** *  CapSense_sensorEnableMask[1] contains the masked bits for 
ARM GAS  C:\Users\HENRIC~1\AppData\Local\Temp\ccxfh9yc.s 			page 23


 758:Generated_Source\PSoC5/CapSense_CSHL.c **** *  sensors 8 through 15 (if needed), and so on.
 759:Generated_Source\PSoC5/CapSense_CSHL.c **** *  0 - sensor doesn't scan by CapSense_ScanEnabledWidgets().
 760:Generated_Source\PSoC5/CapSense_CSHL.c **** *  1 - sensor scans by CapSense_ScanEnabledWidgets().
 761:Generated_Source\PSoC5/CapSense_CSHL.c **** *
 762:Generated_Source\PSoC5/CapSense_CSHL.c **** * Reentrant:
 763:Generated_Source\PSoC5/CapSense_CSHL.c **** *  No
 764:Generated_Source\PSoC5/CapSense_CSHL.c **** *
 765:Generated_Source\PSoC5/CapSense_CSHL.c **** *******************************************************************************/
 766:Generated_Source\PSoC5/CapSense_CSHL.c **** void CapSense_EnableWidget(uint8 widget)
 767:Generated_Source\PSoC5/CapSense_CSHL.c ****                                    
 768:Generated_Source\PSoC5/CapSense_CSHL.c **** {
 491              		.loc 1 768 0
 492              		.cfi_startproc
 493              		@ args = 0, pretend = 0, frame = 0
 494              		@ frame_needed = 0, uses_anonymous_args = 0
 495              		@ link register save eliminated.
 496              	.LVL59:
 497 0000 30B4     		push	{r4, r5}
 498              		.cfi_def_cfa_offset 8
 499              		.cfi_offset 4, -8
 500              		.cfi_offset 5, -4
 769:Generated_Source\PSoC5/CapSense_CSHL.c ****     uint8 pos;
 770:Generated_Source\PSoC5/CapSense_CSHL.c ****     uint8 enMask;
 771:Generated_Source\PSoC5/CapSense_CSHL.c ****     uint8 rawIndex = CapSense_rawDataIndex[widget];
 501              		.loc 1 771 0
 502 0002 0B4A     		ldr	r2, .L48
 503 0004 135C     		ldrb	r3, [r2, r0]	@ zero_extendqisi2
 504              	.LVL60:
 772:Generated_Source\PSoC5/CapSense_CSHL.c ****     uint8 numberOfSensors = CapSense_numberOfSensors[widget] + rawIndex;
 505              		.loc 1 772 0
 506 0006 1044     		add	r0, r0, r2
 507              	.LVL61:
 508 0008 0579     		ldrb	r5, [r0, #4]	@ zero_extendqisi2
 509 000a 1D44     		add	r5, r5, r3
 510 000c EDB2     		uxtb	r5, r5
 511              	.LVL62:
 512              	.L46:
 773:Generated_Source\PSoC5/CapSense_CSHL.c ****     
 774:Generated_Source\PSoC5/CapSense_CSHL.c ****     /* Enable all sensors of the widget */
 775:Generated_Source\PSoC5/CapSense_CSHL.c ****     do
 776:Generated_Source\PSoC5/CapSense_CSHL.c ****     {
 777:Generated_Source\PSoC5/CapSense_CSHL.c ****         pos = (rawIndex >> 3u);
 513              		.loc 1 777 0 discriminator 1
 514 000e D808     		lsrs	r0, r3, #3
 515              	.LVL63:
 778:Generated_Source\PSoC5/CapSense_CSHL.c ****         enMask = 0x01u << (rawIndex & 0x07u);
 516              		.loc 1 778 0 discriminator 1
 517 0010 03F00701 		and	r1, r3, #7
 518 0014 0122     		movs	r2, #1
 519 0016 8A40     		lsls	r2, r2, r1
 520 0018 D2B2     		uxtb	r2, r2
 521              	.LVL64:
 779:Generated_Source\PSoC5/CapSense_CSHL.c ****         
 780:Generated_Source\PSoC5/CapSense_CSHL.c ****         CapSense_sensorEnableMask[pos] |= enMask;
 522              		.loc 1 780 0 discriminator 1
 523 001a 064C     		ldr	r4, .L48+4
 524 001c 215C     		ldrb	r1, [r4, r0]	@ zero_extendqisi2
ARM GAS  C:\Users\HENRIC~1\AppData\Local\Temp\ccxfh9yc.s 			page 24


 525 001e 0A43     		orrs	r2, r2, r1
 526              	.LVL65:
 527 0020 2254     		strb	r2, [r4, r0]
 781:Generated_Source\PSoC5/CapSense_CSHL.c ****         rawIndex++;
 528              		.loc 1 781 0 discriminator 1
 529 0022 0133     		adds	r3, r3, #1
 530              	.LVL66:
 531 0024 DBB2     		uxtb	r3, r3
 532              	.LVL67:
 782:Generated_Source\PSoC5/CapSense_CSHL.c ****     }
 783:Generated_Source\PSoC5/CapSense_CSHL.c ****     while(rawIndex < numberOfSensors);
 533              		.loc 1 783 0 discriminator 1
 534 0026 9D42     		cmp	r5, r3
 535 0028 F1D8     		bhi	.L46
 784:Generated_Source\PSoC5/CapSense_CSHL.c ****     
 785:Generated_Source\PSoC5/CapSense_CSHL.c **** 
 786:Generated_Source\PSoC5/CapSense_CSHL.c **** }
 536              		.loc 1 786 0
 537 002a 30BC     		pop	{r4, r5}
 538              		.cfi_restore 5
 539              		.cfi_restore 4
 540              		.cfi_def_cfa_offset 0
 541              	.LVL68:
 542 002c 7047     		bx	lr
 543              	.L49:
 544 002e 00BF     		.align	2
 545              	.L48:
 546 0030 00000000 		.word	.LANCHOR2
 547 0034 00000000 		.word	CapSense_sensorEnableMask
 548              		.cfi_endproc
 549              	.LFE9:
 550              		.size	CapSense_EnableWidget, .-CapSense_EnableWidget
 551              		.section	.text.CapSense_DisableWidget,"ax",%progbits
 552              		.align	2
 553              		.global	CapSense_DisableWidget
 554              		.thumb
 555              		.thumb_func
 556              		.type	CapSense_DisableWidget, %function
 557              	CapSense_DisableWidget:
 558              	.LFB10:
 787:Generated_Source\PSoC5/CapSense_CSHL.c **** 
 788:Generated_Source\PSoC5/CapSense_CSHL.c **** 
 789:Generated_Source\PSoC5/CapSense_CSHL.c **** /*******************************************************************************
 790:Generated_Source\PSoC5/CapSense_CSHL.c **** * Function Name: CapSense_DisableWidget
 791:Generated_Source\PSoC5/CapSense_CSHL.c **** ********************************************************************************
 792:Generated_Source\PSoC5/CapSense_CSHL.c **** *
 793:Generated_Source\PSoC5/CapSense_CSHL.c **** * Summary:
 794:Generated_Source\PSoC5/CapSense_CSHL.c **** *  Disable all widget elements (sensors) from scanning process.
 795:Generated_Source\PSoC5/CapSense_CSHL.c **** *
 796:Generated_Source\PSoC5/CapSense_CSHL.c **** * Parameters:
 797:Generated_Source\PSoC5/CapSense_CSHL.c **** *  widget:  widget number.
 798:Generated_Source\PSoC5/CapSense_CSHL.c **** *
 799:Generated_Source\PSoC5/CapSense_CSHL.c **** * Return:
 800:Generated_Source\PSoC5/CapSense_CSHL.c **** *  None
 801:Generated_Source\PSoC5/CapSense_CSHL.c **** *
 802:Generated_Source\PSoC5/CapSense_CSHL.c **** * Global Variables:
 803:Generated_Source\PSoC5/CapSense_CSHL.c **** *  CapSense_sensorEnableMask[] - used to store the sensor scanning 
ARM GAS  C:\Users\HENRIC~1\AppData\Local\Temp\ccxfh9yc.s 			page 25


 804:Generated_Source\PSoC5/CapSense_CSHL.c **** *  state.
 805:Generated_Source\PSoC5/CapSense_CSHL.c **** *  CapSense_sensorEnableMask[0] contains the masked bits for sensors 
 806:Generated_Source\PSoC5/CapSense_CSHL.c **** *  0 through 7 (sensor 0 is bit 0, sensor 1 is bit 1).
 807:Generated_Source\PSoC5/CapSense_CSHL.c **** *  CapSense_sensorEnableMask[1] contains the masked bits for 
 808:Generated_Source\PSoC5/CapSense_CSHL.c **** *  sensors 8 through 15 (if needed), and so on.
 809:Generated_Source\PSoC5/CapSense_CSHL.c **** *  0 - sensor doesn't scan by CapSense_ScanEnabledWidgets().
 810:Generated_Source\PSoC5/CapSense_CSHL.c **** *  1 - sensor scans by CapSense_ScanEnabledWidgets().
 811:Generated_Source\PSoC5/CapSense_CSHL.c **** *
 812:Generated_Source\PSoC5/CapSense_CSHL.c **** * Reentrant:
 813:Generated_Source\PSoC5/CapSense_CSHL.c **** *  No
 814:Generated_Source\PSoC5/CapSense_CSHL.c **** *
 815:Generated_Source\PSoC5/CapSense_CSHL.c **** *******************************************************************************/
 816:Generated_Source\PSoC5/CapSense_CSHL.c **** void CapSense_DisableWidget(uint8 widget)
 817:Generated_Source\PSoC5/CapSense_CSHL.c ****                                     
 818:Generated_Source\PSoC5/CapSense_CSHL.c **** {
 559              		.loc 1 818 0
 560              		.cfi_startproc
 561              		@ args = 0, pretend = 0, frame = 0
 562              		@ frame_needed = 0, uses_anonymous_args = 0
 563              		@ link register save eliminated.
 564              	.LVL69:
 565 0000 30B4     		push	{r4, r5}
 566              		.cfi_def_cfa_offset 8
 567              		.cfi_offset 4, -8
 568              		.cfi_offset 5, -4
 819:Generated_Source\PSoC5/CapSense_CSHL.c ****     uint8 pos;
 820:Generated_Source\PSoC5/CapSense_CSHL.c ****     uint8 enMask;
 821:Generated_Source\PSoC5/CapSense_CSHL.c ****     uint8 rawIndex = CapSense_rawDataIndex[widget];
 569              		.loc 1 821 0
 570 0002 0B4A     		ldr	r2, .L53
 571 0004 135C     		ldrb	r3, [r2, r0]	@ zero_extendqisi2
 572              	.LVL70:
 822:Generated_Source\PSoC5/CapSense_CSHL.c ****     uint8 numberOfSensors = CapSense_numberOfSensors[widget] + rawIndex;
 573              		.loc 1 822 0
 574 0006 1044     		add	r0, r0, r2
 575              	.LVL71:
 576 0008 0579     		ldrb	r5, [r0, #4]	@ zero_extendqisi2
 577 000a 1D44     		add	r5, r5, r3
 578 000c EDB2     		uxtb	r5, r5
 579              	.LVL72:
 580              	.L51:
 823:Generated_Source\PSoC5/CapSense_CSHL.c ****    
 824:Generated_Source\PSoC5/CapSense_CSHL.c ****     /* Disable all sensors of the widget */
 825:Generated_Source\PSoC5/CapSense_CSHL.c ****     do
 826:Generated_Source\PSoC5/CapSense_CSHL.c ****     {
 827:Generated_Source\PSoC5/CapSense_CSHL.c ****         pos = (rawIndex >> 3u);
 581              		.loc 1 827 0 discriminator 1
 582 000e D808     		lsrs	r0, r3, #3
 583              	.LVL73:
 828:Generated_Source\PSoC5/CapSense_CSHL.c ****         enMask = 0x01u << (rawIndex & 0x07u);
 584              		.loc 1 828 0 discriminator 1
 585 0010 03F00701 		and	r1, r3, #7
 586 0014 0122     		movs	r2, #1
 587 0016 8A40     		lsls	r2, r2, r1
 588 0018 D2B2     		uxtb	r2, r2
 589              	.LVL74:
 829:Generated_Source\PSoC5/CapSense_CSHL.c ****         
ARM GAS  C:\Users\HENRIC~1\AppData\Local\Temp\ccxfh9yc.s 			page 26


 830:Generated_Source\PSoC5/CapSense_CSHL.c ****         CapSense_sensorEnableMask[pos] &= (uint8)~enMask;
 590              		.loc 1 830 0 discriminator 1
 591 001a 064C     		ldr	r4, .L53+4
 592 001c 215C     		ldrb	r1, [r4, r0]	@ zero_extendqisi2
 593 001e 21EA0202 		bic	r2, r1, r2
 594              	.LVL75:
 595 0022 2254     		strb	r2, [r4, r0]
 831:Generated_Source\PSoC5/CapSense_CSHL.c ****         rawIndex++;
 596              		.loc 1 831 0 discriminator 1
 597 0024 0133     		adds	r3, r3, #1
 598              	.LVL76:
 599 0026 DBB2     		uxtb	r3, r3
 600              	.LVL77:
 832:Generated_Source\PSoC5/CapSense_CSHL.c ****     }
 833:Generated_Source\PSoC5/CapSense_CSHL.c ****     while(rawIndex < numberOfSensors);
 601              		.loc 1 833 0 discriminator 1
 602 0028 9D42     		cmp	r5, r3
 603 002a F0D8     		bhi	.L51
 834:Generated_Source\PSoC5/CapSense_CSHL.c ****     
 835:Generated_Source\PSoC5/CapSense_CSHL.c **** 
 836:Generated_Source\PSoC5/CapSense_CSHL.c **** }
 604              		.loc 1 836 0
 605 002c 30BC     		pop	{r4, r5}
 606              		.cfi_restore 5
 607              		.cfi_restore 4
 608              		.cfi_def_cfa_offset 0
 609              	.LVL78:
 610 002e 7047     		bx	lr
 611              	.L54:
 612              		.align	2
 613              	.L53:
 614 0030 00000000 		.word	.LANCHOR2
 615 0034 00000000 		.word	CapSense_sensorEnableMask
 616              		.cfi_endproc
 617              	.LFE10:
 618              		.size	CapSense_DisableWidget, .-CapSense_DisableWidget
 619              		.section	.text.CapSense_FindMaximum,"ax",%progbits
 620              		.align	2
 621              		.global	CapSense_FindMaximum
 622              		.thumb
 623              		.thumb_func
 624              		.type	CapSense_FindMaximum, %function
 625              	CapSense_FindMaximum:
 626              	.LFB11:
 837:Generated_Source\PSoC5/CapSense_CSHL.c **** #if(CapSense_TOTAL_CENTROIDS_COUNT)
 838:Generated_Source\PSoC5/CapSense_CSHL.c ****     /*******************************************************************************
 839:Generated_Source\PSoC5/CapSense_CSHL.c ****     * Function Name: CapSense_FindMaximum
 840:Generated_Source\PSoC5/CapSense_CSHL.c ****     ********************************************************************************
 841:Generated_Source\PSoC5/CapSense_CSHL.c ****     *
 842:Generated_Source\PSoC5/CapSense_CSHL.c ****     * Summary:
 843:Generated_Source\PSoC5/CapSense_CSHL.c ****     *  Finds index of maximum element within defined centroid. Checks 
 844:Generated_Source\PSoC5/CapSense_CSHL.c ****     *  CapSense_SensorSignal[] within defined cenrtoid and 
 845:Generated_Source\PSoC5/CapSense_CSHL.c ****     *  returns index of maximum element. The values below finger threshold are 
 846:Generated_Source\PSoC5/CapSense_CSHL.c ****     *  ignored.
 847:Generated_Source\PSoC5/CapSense_CSHL.c ****     *  The centrod defines by offset of first element and number of elements - count.
 848:Generated_Source\PSoC5/CapSense_CSHL.c ****     *  The diplexed centroid requires at least consecutive two elements above
 849:Generated_Source\PSoC5/CapSense_CSHL.c ****     *  FingerThreshold to find index of maximum element.
ARM GAS  C:\Users\HENRIC~1\AppData\Local\Temp\ccxfh9yc.s 			page 27


 850:Generated_Source\PSoC5/CapSense_CSHL.c ****     * 
 851:Generated_Source\PSoC5/CapSense_CSHL.c ****     * Parameters:
 852:Generated_Source\PSoC5/CapSense_CSHL.c ****     *  offset:  Start index of cetroid in CapSense_sensorSignal[] array.
 853:Generated_Source\PSoC5/CapSense_CSHL.c ****     *  count:   number of elements within centroid.
 854:Generated_Source\PSoC5/CapSense_CSHL.c ****     *  fingerThreshold:  Finger threshould.
 855:Generated_Source\PSoC5/CapSense_CSHL.c ****     *  diplex:   pointer to diplex table.
 856:Generated_Source\PSoC5/CapSense_CSHL.c ****     * 
 857:Generated_Source\PSoC5/CapSense_CSHL.c ****     * Return:
 858:Generated_Source\PSoC5/CapSense_CSHL.c ****     *  Returns index of maximum element within defined centroid.
 859:Generated_Source\PSoC5/CapSense_CSHL.c ****     *  If index of maximum element doesn't find the 0xFF returns.
 860:Generated_Source\PSoC5/CapSense_CSHL.c ****     * 
 861:Generated_Source\PSoC5/CapSense_CSHL.c ****     *******************************************************************************/
 862:Generated_Source\PSoC5/CapSense_CSHL.c ****     #if (CapSense_IS_DIPLEX_SLIDER)
 863:Generated_Source\PSoC5/CapSense_CSHL.c ****         uint8 CapSense_FindMaximum(uint8 offset, uint8 count, uint8 fingerThreshold, const uint8 CY
 864:Generated_Source\PSoC5/CapSense_CSHL.c **** 	                                       
 865:Generated_Source\PSoC5/CapSense_CSHL.c ****     #else 
 866:Generated_Source\PSoC5/CapSense_CSHL.c ****         uint8 CapSense_FindMaximum(uint8 offset, uint8 count, uint8 fingerThreshold)
 867:Generated_Source\PSoC5/CapSense_CSHL.c **** 	                                       
 868:Generated_Source\PSoC5/CapSense_CSHL.c ****     #endif /* (CapSense_IS_DIPLEX_SLIDER) */
 869:Generated_Source\PSoC5/CapSense_CSHL.c ****     {
 627              		.loc 1 869 0
 628              		.cfi_startproc
 629              		@ args = 0, pretend = 0, frame = 0
 630              		@ frame_needed = 0, uses_anonymous_args = 0
 631              		@ link register save eliminated.
 632              	.LVL79:
 633 0000 70B4     		push	{r4, r5, r6}
 634              		.cfi_def_cfa_offset 12
 635              		.cfi_offset 4, -12
 636              		.cfi_offset 5, -8
 637              		.cfi_offset 6, -4
 638              	.LVL80:
 870:Generated_Source\PSoC5/CapSense_CSHL.c ****         uint8 i;
 871:Generated_Source\PSoC5/CapSense_CSHL.c ****         #if (CapSense_IS_DIPLEX_SLIDER)        
 872:Generated_Source\PSoC5/CapSense_CSHL.c ****             uint8 curPos = 0u;
 873:Generated_Source\PSoC5/CapSense_CSHL.c ****             /* No centroid at the Start */
 874:Generated_Source\PSoC5/CapSense_CSHL.c ****             uint8 curCntrdSize = 0u;
 875:Generated_Source\PSoC5/CapSense_CSHL.c ****             uint8 curCtrdStartPos = 0xFFu;
 876:Generated_Source\PSoC5/CapSense_CSHL.c ****             /* The biggset centroid is zero */
 877:Generated_Source\PSoC5/CapSense_CSHL.c ****             uint8 biggestCtrdSize = 0u;
 878:Generated_Source\PSoC5/CapSense_CSHL.c ****             uint8 biggestCtrdStartPos = 0u;
 879:Generated_Source\PSoC5/CapSense_CSHL.c ****         #endif /* (CapSense_IS_DIPLEX_SLIDER) */
 880:Generated_Source\PSoC5/CapSense_CSHL.c ****         uint8 maximum = 0xFFu;
 881:Generated_Source\PSoC5/CapSense_CSHL.c ****         uint8 temp = 0u;
 882:Generated_Source\PSoC5/CapSense_CSHL.c ****         uint8 *startOfSlider = &CapSense_sensorSignal[offset]; 
 639              		.loc 1 882 0
 640 0002 094D     		ldr	r5, .L61
 641 0004 0544     		add	r5, r5, r0
 642              	.LVL81:
 881:Generated_Source\PSoC5/CapSense_CSHL.c ****         uint8 *startOfSlider = &CapSense_sensorSignal[offset]; 
 643              		.loc 1 881 0
 644 0006 0026     		movs	r6, #0
 880:Generated_Source\PSoC5/CapSense_CSHL.c ****         uint8 temp = 0u;
 645              		.loc 1 880 0
 646 0008 FF20     		movs	r0, #255
 647              	.LVL82:
 883:Generated_Source\PSoC5/CapSense_CSHL.c **** 
ARM GAS  C:\Users\HENRIC~1\AppData\Local\Temp\ccxfh9yc.s 			page 28


 884:Generated_Source\PSoC5/CapSense_CSHL.c ****         #if (CapSense_IS_DIPLEX_SLIDER)        
 885:Generated_Source\PSoC5/CapSense_CSHL.c ****             if(diplex != 0u)
 886:Generated_Source\PSoC5/CapSense_CSHL.c ****             {
 887:Generated_Source\PSoC5/CapSense_CSHL.c ****                 /* Initialize */
 888:Generated_Source\PSoC5/CapSense_CSHL.c ****                 i = 0u;
 889:Generated_Source\PSoC5/CapSense_CSHL.c ****                 
 890:Generated_Source\PSoC5/CapSense_CSHL.c ****                 /* Make slider x2 as Diplexed */
 891:Generated_Source\PSoC5/CapSense_CSHL.c ****                 count <<= 1u;
 892:Generated_Source\PSoC5/CapSense_CSHL.c ****                 while(1u)
 893:Generated_Source\PSoC5/CapSense_CSHL.c ****                 { 
 894:Generated_Source\PSoC5/CapSense_CSHL.c ****                     if (startOfSlider[curPos] > 0u)    /* Looking for centroids */
 895:Generated_Source\PSoC5/CapSense_CSHL.c ****                     {
 896:Generated_Source\PSoC5/CapSense_CSHL.c ****                         if (curCtrdStartPos == 0xFFu)
 897:Generated_Source\PSoC5/CapSense_CSHL.c ****                         {
 898:Generated_Source\PSoC5/CapSense_CSHL.c ****                             /* Start of centroid */
 899:Generated_Source\PSoC5/CapSense_CSHL.c ****                             curCtrdStartPos = i;
 900:Generated_Source\PSoC5/CapSense_CSHL.c ****                             curCntrdSize++;
 901:Generated_Source\PSoC5/CapSense_CSHL.c ****                         }
 902:Generated_Source\PSoC5/CapSense_CSHL.c ****                         else
 903:Generated_Source\PSoC5/CapSense_CSHL.c ****                         {
 904:Generated_Source\PSoC5/CapSense_CSHL.c ****                             curCntrdSize++;
 905:Generated_Source\PSoC5/CapSense_CSHL.c ****                         }
 906:Generated_Source\PSoC5/CapSense_CSHL.c ****                     }
 907:Generated_Source\PSoC5/CapSense_CSHL.c ****                     else   /* Select the bigest and indicate zero start */
 908:Generated_Source\PSoC5/CapSense_CSHL.c ****                     {          
 909:Generated_Source\PSoC5/CapSense_CSHL.c ****                         if(curCntrdSize > 0u)
 910:Generated_Source\PSoC5/CapSense_CSHL.c ****                         {
 911:Generated_Source\PSoC5/CapSense_CSHL.c ****                             /* We are in the end of current */
 912:Generated_Source\PSoC5/CapSense_CSHL.c ****                             if(curCntrdSize > biggestCtrdSize)
 913:Generated_Source\PSoC5/CapSense_CSHL.c ****                             {
 914:Generated_Source\PSoC5/CapSense_CSHL.c ****                                 biggestCtrdSize = curCntrdSize;
 915:Generated_Source\PSoC5/CapSense_CSHL.c ****                                 biggestCtrdStartPos = curCtrdStartPos;
 916:Generated_Source\PSoC5/CapSense_CSHL.c ****                             }
 917:Generated_Source\PSoC5/CapSense_CSHL.c ****                             
 918:Generated_Source\PSoC5/CapSense_CSHL.c ****                             curCntrdSize = 0u;
 919:Generated_Source\PSoC5/CapSense_CSHL.c ****                             curCtrdStartPos = 0xFFu;
 920:Generated_Source\PSoC5/CapSense_CSHL.c ****                         }
 921:Generated_Source\PSoC5/CapSense_CSHL.c ****                     }
 922:Generated_Source\PSoC5/CapSense_CSHL.c ****                     
 923:Generated_Source\PSoC5/CapSense_CSHL.c ****                     i++; 
 924:Generated_Source\PSoC5/CapSense_CSHL.c ****                     curPos = diplex[i];
 925:Generated_Source\PSoC5/CapSense_CSHL.c ****                     if(i == count)
 926:Generated_Source\PSoC5/CapSense_CSHL.c ****                     {
 927:Generated_Source\PSoC5/CapSense_CSHL.c ****                         break;
 928:Generated_Source\PSoC5/CapSense_CSHL.c ****                     }            
 929:Generated_Source\PSoC5/CapSense_CSHL.c ****                 }
 930:Generated_Source\PSoC5/CapSense_CSHL.c ****                     
 931:Generated_Source\PSoC5/CapSense_CSHL.c ****                     /* Find the biggest centroid if two are the same size, last one wins
 932:Generated_Source\PSoC5/CapSense_CSHL.c ****                        We are in the end of current */
 933:Generated_Source\PSoC5/CapSense_CSHL.c ****                 if (curCntrdSize >= biggestCtrdSize) 
 934:Generated_Source\PSoC5/CapSense_CSHL.c ****                 {
 935:Generated_Source\PSoC5/CapSense_CSHL.c ****                     biggestCtrdSize = curCntrdSize;
 936:Generated_Source\PSoC5/CapSense_CSHL.c ****                     biggestCtrdStartPos = curCtrdStartPos;
 937:Generated_Source\PSoC5/CapSense_CSHL.c ****                 }
 938:Generated_Source\PSoC5/CapSense_CSHL.c ****             }
 939:Generated_Source\PSoC5/CapSense_CSHL.c ****             else
 940:Generated_Source\PSoC5/CapSense_CSHL.c ****             {
ARM GAS  C:\Users\HENRIC~1\AppData\Local\Temp\ccxfh9yc.s 			page 29


 941:Generated_Source\PSoC5/CapSense_CSHL.c ****                 /* Without diplexing */ 
 942:Generated_Source\PSoC5/CapSense_CSHL.c ****                 biggestCtrdSize = count;
 943:Generated_Source\PSoC5/CapSense_CSHL.c ****             }
 944:Generated_Source\PSoC5/CapSense_CSHL.c ****                         
 945:Generated_Source\PSoC5/CapSense_CSHL.c **** 
 946:Generated_Source\PSoC5/CapSense_CSHL.c ****             /* Check centroid size */
 947:Generated_Source\PSoC5/CapSense_CSHL.c ****             #if (CapSense_IS_NON_DIPLEX_SLIDER)
 948:Generated_Source\PSoC5/CapSense_CSHL.c ****                 if((biggestCtrdSize >= 2u) || ((biggestCtrdSize == 1u) && (diplex == 0u)))
 949:Generated_Source\PSoC5/CapSense_CSHL.c ****             #else                    
 950:Generated_Source\PSoC5/CapSense_CSHL.c ****                 if(biggestCtrdSize >= 2u)
 951:Generated_Source\PSoC5/CapSense_CSHL.c ****             #endif /* (CapSense_IS_NON_DIPLEX_SLIDER) */
 952:Generated_Source\PSoC5/CapSense_CSHL.c ****                 {
 953:Generated_Source\PSoC5/CapSense_CSHL.c ****                     for (i = biggestCtrdStartPos; i < (biggestCtrdStartPos + biggestCtrdSize); i++)
 954:Generated_Source\PSoC5/CapSense_CSHL.c ****                     {
 955:Generated_Source\PSoC5/CapSense_CSHL.c ****                         #if (CapSense_IS_DIPLEX_SLIDER && CapSense_IS_NON_DIPLEX_SLIDER)
 956:Generated_Source\PSoC5/CapSense_CSHL.c ****                             if (diplex == 0u)
 957:Generated_Source\PSoC5/CapSense_CSHL.c ****                             {
 958:Generated_Source\PSoC5/CapSense_CSHL.c ****                                 curPos = i;
 959:Generated_Source\PSoC5/CapSense_CSHL.c ****                             }
 960:Generated_Source\PSoC5/CapSense_CSHL.c ****                             else
 961:Generated_Source\PSoC5/CapSense_CSHL.c ****                             {
 962:Generated_Source\PSoC5/CapSense_CSHL.c ****                                 curPos = diplex[i];
 963:Generated_Source\PSoC5/CapSense_CSHL.c ****                             }                    
 964:Generated_Source\PSoC5/CapSense_CSHL.c ****                         #elif (CapSense_IS_DIPLEX_SLIDER)                    
 965:Generated_Source\PSoC5/CapSense_CSHL.c ****                             curPos = diplex[i];                    
 966:Generated_Source\PSoC5/CapSense_CSHL.c ****                         #endif /* (CapSense_IS_DIPLEX_SLIDER && CapSense_IS_NON_DIPLEX_SLIDER) */
 967:Generated_Source\PSoC5/CapSense_CSHL.c ****                         /* Looking for the grater element within centroid */
 968:Generated_Source\PSoC5/CapSense_CSHL.c ****                         if(startOfSlider[curPos] > fingerThreshold)
 969:Generated_Source\PSoC5/CapSense_CSHL.c ****                         {
 970:Generated_Source\PSoC5/CapSense_CSHL.c ****                             if(startOfSlider[curPos] > temp)
 971:Generated_Source\PSoC5/CapSense_CSHL.c ****                             {
 972:Generated_Source\PSoC5/CapSense_CSHL.c ****                                 maximum = i;
 973:Generated_Source\PSoC5/CapSense_CSHL.c ****                                 temp = startOfSlider[curPos];
 974:Generated_Source\PSoC5/CapSense_CSHL.c ****                             }
 975:Generated_Source\PSoC5/CapSense_CSHL.c ****                         }
 976:Generated_Source\PSoC5/CapSense_CSHL.c ****                     }
 977:Generated_Source\PSoC5/CapSense_CSHL.c ****                 } 
 978:Generated_Source\PSoC5/CapSense_CSHL.c ****         #else
 979:Generated_Source\PSoC5/CapSense_CSHL.c ****             for (i = 0u; i < count; i++)
 648              		.loc 1 979 0
 649 000a 3346     		mov	r3, r6
 650 000c 08E0     		b	.L56
 651              	.LVL83:
 652              	.L58:
 980:Generated_Source\PSoC5/CapSense_CSHL.c ****             {                      
 981:Generated_Source\PSoC5/CapSense_CSHL.c ****                 /* Looking for the grater element within centroid */
 982:Generated_Source\PSoC5/CapSense_CSHL.c ****                 if(startOfSlider[i] > fingerThreshold)
 653              		.loc 1 982 0
 654 000e EC5C     		ldrb	r4, [r5, r3]	@ zero_extendqisi2
 655 0010 9442     		cmp	r4, r2
 656 0012 03D9     		bls	.L57
 983:Generated_Source\PSoC5/CapSense_CSHL.c ****                 {
 984:Generated_Source\PSoC5/CapSense_CSHL.c ****                     if(startOfSlider[i] > temp)
 657              		.loc 1 984 0
 658 0014 A642     		cmp	r6, r4
 659 0016 01D2     		bcs	.L57
 985:Generated_Source\PSoC5/CapSense_CSHL.c ****                     {
ARM GAS  C:\Users\HENRIC~1\AppData\Local\Temp\ccxfh9yc.s 			page 30


 986:Generated_Source\PSoC5/CapSense_CSHL.c ****                         maximum = i;
 987:Generated_Source\PSoC5/CapSense_CSHL.c ****                         temp = startOfSlider[i];
 660              		.loc 1 987 0
 661 0018 2646     		mov	r6, r4
 662              	.LVL84:
 986:Generated_Source\PSoC5/CapSense_CSHL.c ****                         temp = startOfSlider[i];
 663              		.loc 1 986 0
 664 001a 1846     		mov	r0, r3
 665              	.LVL85:
 666              	.L57:
 979:Generated_Source\PSoC5/CapSense_CSHL.c ****             {                      
 667              		.loc 1 979 0 discriminator 2
 668 001c 0133     		adds	r3, r3, #1
 669              	.LVL86:
 670 001e DBB2     		uxtb	r3, r3
 671              	.LVL87:
 672              	.L56:
 979:Generated_Source\PSoC5/CapSense_CSHL.c ****             {                      
 673              		.loc 1 979 0 is_stmt 0 discriminator 1
 674 0020 8B42     		cmp	r3, r1
 675 0022 F4D3     		bcc	.L58
 988:Generated_Source\PSoC5/CapSense_CSHL.c ****                     }
 989:Generated_Source\PSoC5/CapSense_CSHL.c ****                 }
 990:Generated_Source\PSoC5/CapSense_CSHL.c ****             }    
 991:Generated_Source\PSoC5/CapSense_CSHL.c ****         #endif /* (CapSense_IS_DIPLEX_SLIDER) */
 992:Generated_Source\PSoC5/CapSense_CSHL.c ****         return (maximum);
 993:Generated_Source\PSoC5/CapSense_CSHL.c ****     }
 676              		.loc 1 993 0 is_stmt 1
 677 0024 70BC     		pop	{r4, r5, r6}
 678              		.cfi_restore 6
 679              		.cfi_restore 5
 680              		.cfi_restore 4
 681              		.cfi_def_cfa_offset 0
 682              	.LVL88:
 683 0026 7047     		bx	lr
 684              	.L62:
 685              		.align	2
 686              	.L61:
 687 0028 00000000 		.word	CapSense_sensorSignal
 688              		.cfi_endproc
 689              	.LFE11:
 690              		.size	CapSense_FindMaximum, .-CapSense_FindMaximum
 691              		.section	.text.CapSense_CalcCentroid,"ax",%progbits
 692              		.align	2
 693              		.global	CapSense_CalcCentroid
 694              		.thumb
 695              		.thumb_func
 696              		.type	CapSense_CalcCentroid, %function
 697              	CapSense_CalcCentroid:
 698              	.LFB12:
 994:Generated_Source\PSoC5/CapSense_CSHL.c ****     
 995:Generated_Source\PSoC5/CapSense_CSHL.c ****     
 996:Generated_Source\PSoC5/CapSense_CSHL.c ****     /*******************************************************************************
 997:Generated_Source\PSoC5/CapSense_CSHL.c ****     * Function Name: CapSense_CalcCentroid
 998:Generated_Source\PSoC5/CapSense_CSHL.c ****     ********************************************************************************
 999:Generated_Source\PSoC5/CapSense_CSHL.c ****     *
1000:Generated_Source\PSoC5/CapSense_CSHL.c ****     * Summary:
ARM GAS  C:\Users\HENRIC~1\AppData\Local\Temp\ccxfh9yc.s 			page 31


1001:Generated_Source\PSoC5/CapSense_CSHL.c ****     *  Returns position value calculated accoring index of maximum element and API
1002:Generated_Source\PSoC5/CapSense_CSHL.c ****     *  resolution.
1003:Generated_Source\PSoC5/CapSense_CSHL.c ****     *
1004:Generated_Source\PSoC5/CapSense_CSHL.c ****     * Parameters:
1005:Generated_Source\PSoC5/CapSense_CSHL.c ****     *  type:  widget type.
1006:Generated_Source\PSoC5/CapSense_CSHL.c ****     *  diplex:  pointer to diplex table.
1007:Generated_Source\PSoC5/CapSense_CSHL.c ****     *  maximum:  Index of maximum element within centroid.
1008:Generated_Source\PSoC5/CapSense_CSHL.c ****     *  offset:   Start index of cetroid in CapSense_SensorSignal[] array.
1009:Generated_Source\PSoC5/CapSense_CSHL.c ****     *  count:    Number of elements within centroid.
1010:Generated_Source\PSoC5/CapSense_CSHL.c ****     *  resolution:  multiplicator calculated according to centroid type and
1011:Generated_Source\PSoC5/CapSense_CSHL.c ****     *  API resolution.
1012:Generated_Source\PSoC5/CapSense_CSHL.c ****     *  noiseThreshold:  Noise threshould.
1013:Generated_Source\PSoC5/CapSense_CSHL.c ****     * 
1014:Generated_Source\PSoC5/CapSense_CSHL.c ****     * Return:
1015:Generated_Source\PSoC5/CapSense_CSHL.c ****     *  Returns position value of the slider.
1016:Generated_Source\PSoC5/CapSense_CSHL.c ****     * 
1017:Generated_Source\PSoC5/CapSense_CSHL.c ****     *
1018:Generated_Source\PSoC5/CapSense_CSHL.c ****     * Reentrant:
1019:Generated_Source\PSoC5/CapSense_CSHL.c ****     *  No.
1020:Generated_Source\PSoC5/CapSense_CSHL.c ****     *
1021:Generated_Source\PSoC5/CapSense_CSHL.c ****     *******************************************************************************/
1022:Generated_Source\PSoC5/CapSense_CSHL.c ****     uint8 CapSense_CalcCentroid(uint8 maximum, uint8 offset, 
1023:Generated_Source\PSoC5/CapSense_CSHL.c ****                                         uint8 count, uint16 resolution, uint8 noiseThreshold)
1024:Generated_Source\PSoC5/CapSense_CSHL.c **** 	                                    
1025:Generated_Source\PSoC5/CapSense_CSHL.c ****     {
 699              		.loc 1 1025 0
 700              		.cfi_startproc
 701              		@ args = 4, pretend = 0, frame = 0
 702              		@ frame_needed = 0, uses_anonymous_args = 0
 703              	.LVL89:
 704 0000 F0B5     		push	{r4, r5, r6, r7, lr}
 705              		.cfi_def_cfa_offset 20
 706              		.cfi_offset 4, -20
 707              		.cfi_offset 5, -16
 708              		.cfi_offset 6, -12
 709              		.cfi_offset 7, -8
 710              		.cfi_offset 14, -4
 711 0002 9DF81450 		ldrb	r5, [sp, #20]	@ zero_extendqisi2
 712              	.LVL90:
1026:Generated_Source\PSoC5/CapSense_CSHL.c ****         #if ((CapSense_TOTAL_LINEAR_SLIDERS_COUNT > 0u) || (CapSense_TOTAL_TOUCH_PADS_COUNT > 0u))
1027:Generated_Source\PSoC5/CapSense_CSHL.c ****             uint8 posPrev = 0u;
1028:Generated_Source\PSoC5/CapSense_CSHL.c ****             uint8 posNext = 0u;
1029:Generated_Source\PSoC5/CapSense_CSHL.c ****         #endif /* ((CapSense_TOTAL_LINEAR_SLIDERS_COUNT>0u) || (CapSense_TOTAL_TOUCH_PADS_COUNT>0u)
1030:Generated_Source\PSoC5/CapSense_CSHL.c ****                
1031:Generated_Source\PSoC5/CapSense_CSHL.c ****         #if (CapSense_IS_DIPLEX_SLIDER)                
1032:Generated_Source\PSoC5/CapSense_CSHL.c ****             uint8 pos;
1033:Generated_Source\PSoC5/CapSense_CSHL.c ****         #endif /* (CapSense_IS_DIPLEX_SLIDER) */
1034:Generated_Source\PSoC5/CapSense_CSHL.c ****         
1035:Generated_Source\PSoC5/CapSense_CSHL.c ****         /* Helps while centroid calulation */
1036:Generated_Source\PSoC5/CapSense_CSHL.c ****         static uint8 CapSense_centroid[3u];
1037:Generated_Source\PSoC5/CapSense_CSHL.c **** 
1038:Generated_Source\PSoC5/CapSense_CSHL.c ****         uint8 position;
1039:Generated_Source\PSoC5/CapSense_CSHL.c ****         uint32 numerator;
1040:Generated_Source\PSoC5/CapSense_CSHL.c ****         int32 denominator;
1041:Generated_Source\PSoC5/CapSense_CSHL.c ****         uint8 *startOfSlider = &CapSense_sensorSignal[offset];
 713              		.loc 1 1041 0
 714 0006 284C     		ldr	r4, .L74
ARM GAS  C:\Users\HENRIC~1\AppData\Local\Temp\ccxfh9yc.s 			page 32


 715 0008 2144     		add	r1, r1, r4
 716              	.LVL91:
1042:Generated_Source\PSoC5/CapSense_CSHL.c ****                     
1043:Generated_Source\PSoC5/CapSense_CSHL.c ****         #if (CapSense_ADD_SLIDER_TYPE)
1044:Generated_Source\PSoC5/CapSense_CSHL.c ****             if(type == CapSense_TYPE_RADIAL_SLIDER)
1045:Generated_Source\PSoC5/CapSense_CSHL.c ****             {
1046:Generated_Source\PSoC5/CapSense_CSHL.c ****         #endif /* (CapSense_ADD_SLIDER_TYPE) */
1047:Generated_Source\PSoC5/CapSense_CSHL.c **** 
1048:Generated_Source\PSoC5/CapSense_CSHL.c ****             #if (CapSense_TOTAL_RADIAL_SLIDERS_COUNT > 0u)                
1049:Generated_Source\PSoC5/CapSense_CSHL.c ****                 /* Copy Signal for found centriod */
1050:Generated_Source\PSoC5/CapSense_CSHL.c ****                 CapSense_centroid[CapSense_POS] = startOfSlider[maximum];
1051:Generated_Source\PSoC5/CapSense_CSHL.c ****                  
1052:Generated_Source\PSoC5/CapSense_CSHL.c ****                 /* Check borders for ROTARY Slider */
1053:Generated_Source\PSoC5/CapSense_CSHL.c ****                 if (maximum == 0u)                   /* Start of centroid */
1054:Generated_Source\PSoC5/CapSense_CSHL.c ****                 { 
1055:Generated_Source\PSoC5/CapSense_CSHL.c ****                     CapSense_centroid[CapSense_POS_PREV] = startOfSlider[count - 1u];
1056:Generated_Source\PSoC5/CapSense_CSHL.c ****                     CapSense_centroid[CapSense_POS_NEXT] = startOfSlider[1u];
1057:Generated_Source\PSoC5/CapSense_CSHL.c ****                 }
1058:Generated_Source\PSoC5/CapSense_CSHL.c ****                 else if (maximum == (count - 1u))    /* End of centroid */
1059:Generated_Source\PSoC5/CapSense_CSHL.c ****                 {
1060:Generated_Source\PSoC5/CapSense_CSHL.c ****                     CapSense_centroid[CapSense_POS_PREV] = startOfSlider[maximum - 1u];
1061:Generated_Source\PSoC5/CapSense_CSHL.c ****                     CapSense_centroid[CapSense_POS_NEXT] = startOfSlider[0u];
1062:Generated_Source\PSoC5/CapSense_CSHL.c ****                 }
1063:Generated_Source\PSoC5/CapSense_CSHL.c ****                 else                                /* Not first Not last */
1064:Generated_Source\PSoC5/CapSense_CSHL.c ****                 {
1065:Generated_Source\PSoC5/CapSense_CSHL.c ****                     CapSense_centroid[CapSense_POS_PREV] = startOfSlider[maximum - 1u];
1066:Generated_Source\PSoC5/CapSense_CSHL.c ****                     CapSense_centroid[CapSense_POS_NEXT] = startOfSlider[maximum + 1u];
1067:Generated_Source\PSoC5/CapSense_CSHL.c ****                 }
1068:Generated_Source\PSoC5/CapSense_CSHL.c ****             #endif /* (CapSense_TOTAL_RADIAL_SLIDERS_COUNT > 0u) */
1069:Generated_Source\PSoC5/CapSense_CSHL.c **** 
1070:Generated_Source\PSoC5/CapSense_CSHL.c ****         #if (CapSense_ADD_SLIDER_TYPE)
1071:Generated_Source\PSoC5/CapSense_CSHL.c ****             }
1072:Generated_Source\PSoC5/CapSense_CSHL.c ****             else
1073:Generated_Source\PSoC5/CapSense_CSHL.c ****             {
1074:Generated_Source\PSoC5/CapSense_CSHL.c ****         #endif /* (CapSense_ADD_SLIDER_TYPE) */
1075:Generated_Source\PSoC5/CapSense_CSHL.c **** 
1076:Generated_Source\PSoC5/CapSense_CSHL.c ****             #if ((CapSense_TOTAL_LINEAR_SLIDERS_COUNT > 0u) || (CapSense_TOTAL_TOUCH_PADS_COUNT > 0
1077:Generated_Source\PSoC5/CapSense_CSHL.c ****                 #if (CapSense_IS_DIPLEX_SLIDER && CapSense_IS_NON_DIPLEX_SLIDER)                   
1078:Generated_Source\PSoC5/CapSense_CSHL.c ****                     /* Calculate next and previous near to maximum */
1079:Generated_Source\PSoC5/CapSense_CSHL.c ****                     if(diplex == 0u)
1080:Generated_Source\PSoC5/CapSense_CSHL.c ****                     {
1081:Generated_Source\PSoC5/CapSense_CSHL.c ****                         pos     = maximum;
1082:Generated_Source\PSoC5/CapSense_CSHL.c ****                         posPrev = maximum - 1u;
1083:Generated_Source\PSoC5/CapSense_CSHL.c ****                         posNext = maximum + 1u; 
1084:Generated_Source\PSoC5/CapSense_CSHL.c ****                     }
1085:Generated_Source\PSoC5/CapSense_CSHL.c ****                     else
1086:Generated_Source\PSoC5/CapSense_CSHL.c ****                     {
1087:Generated_Source\PSoC5/CapSense_CSHL.c ****                         pos     = diplex[maximum];
1088:Generated_Source\PSoC5/CapSense_CSHL.c ****                         posPrev = diplex[maximum - 1u];
1089:Generated_Source\PSoC5/CapSense_CSHL.c ****                         posNext = diplex[maximum + 1u];
1090:Generated_Source\PSoC5/CapSense_CSHL.c ****                         count <<= 1u;
1091:Generated_Source\PSoC5/CapSense_CSHL.c ****                     }                    
1092:Generated_Source\PSoC5/CapSense_CSHL.c ****                 #elif (CapSense_IS_DIPLEX_SLIDER)
1093:Generated_Source\PSoC5/CapSense_CSHL.c ****                     /* Calculate next and previous near to maximum */
1094:Generated_Source\PSoC5/CapSense_CSHL.c ****                     pos     = diplex[maximum];
1095:Generated_Source\PSoC5/CapSense_CSHL.c ****                     posPrev = diplex[maximum - 1u];
1096:Generated_Source\PSoC5/CapSense_CSHL.c ****                     posNext = diplex[maximum + 1u];
ARM GAS  C:\Users\HENRIC~1\AppData\Local\Temp\ccxfh9yc.s 			page 33


1097:Generated_Source\PSoC5/CapSense_CSHL.c ****                     count <<= 1u;                    
1098:Generated_Source\PSoC5/CapSense_CSHL.c ****                 #else                    
1099:Generated_Source\PSoC5/CapSense_CSHL.c ****                     /* Calculate next and previous near to maximum */
1100:Generated_Source\PSoC5/CapSense_CSHL.c ****                     if (maximum >= 1u)
 717              		.loc 1 1100 0
 718 000a 0446     		mov	r4, r0
 719 000c 10B1     		cbz	r0, .L72
1101:Generated_Source\PSoC5/CapSense_CSHL.c ****                     {
1102:Generated_Source\PSoC5/CapSense_CSHL.c ****                         posPrev = maximum - 1u;
 720              		.loc 1 1102 0
 721 000e 461E     		subs	r6, r0, #1
 722 0010 F6B2     		uxtb	r6, r6
 723              	.LVL92:
 724 0012 00E0     		b	.L64
 725              	.LVL93:
 726              	.L72:
1027:Generated_Source\PSoC5/CapSense_CSHL.c ****             uint8 posNext = 0u;
 727              		.loc 1 1027 0
 728 0014 0026     		movs	r6, #0
 729              	.LVL94:
 730              	.L64:
1103:Generated_Source\PSoC5/CapSense_CSHL.c ****                     }
1104:Generated_Source\PSoC5/CapSense_CSHL.c ****                     posNext = maximum + 1u; 
 731              		.loc 1 1104 0
 732 0016 601C     		adds	r0, r4, #1
 733              	.LVL95:
 734 0018 C0B2     		uxtb	r0, r0
 735              	.LVL96:
1105:Generated_Source\PSoC5/CapSense_CSHL.c ****                 #endif /* (CapSense_IS_DIPLEX_SLIDER && CapSense_IS_NON_DIPLEX_SLIDER) */
1106:Generated_Source\PSoC5/CapSense_CSHL.c ****                         
1107:Generated_Source\PSoC5/CapSense_CSHL.c ****                 /* Copy Signal for found centriod */
1108:Generated_Source\PSoC5/CapSense_CSHL.c ****                 #if (CapSense_IS_DIPLEX_SLIDER)
1109:Generated_Source\PSoC5/CapSense_CSHL.c ****                     CapSense_centroid[CapSense_POS] = startOfSlider[pos];
1110:Generated_Source\PSoC5/CapSense_CSHL.c ****                 #else
1111:Generated_Source\PSoC5/CapSense_CSHL.c ****                     CapSense_centroid[CapSense_POS] = startOfSlider[maximum];
 736              		.loc 1 1111 0
 737 001a 11F804E0 		ldrb	lr, [r1, r4]	@ zero_extendqisi2
 738 001e 234F     		ldr	r7, .L74+4
 739 0020 87F805E0 		strb	lr, [r7, #5]
1112:Generated_Source\PSoC5/CapSense_CSHL.c ****                 #endif /* (CapSense_IS_DIPLEX_SLIDER) */
1113:Generated_Source\PSoC5/CapSense_CSHL.c ****                     
1114:Generated_Source\PSoC5/CapSense_CSHL.c ****                 /* Check borders for LINEAR Slider */
1115:Generated_Source\PSoC5/CapSense_CSHL.c ****                 if (maximum == 0u)                   /* Start of centroid */
 740              		.loc 1 1115 0
 741 0024 24B9     		cbnz	r4, .L65
1116:Generated_Source\PSoC5/CapSense_CSHL.c ****                 { 
1117:Generated_Source\PSoC5/CapSense_CSHL.c ****                     CapSense_centroid[CapSense_POS_PREV] = 0u;
 742              		.loc 1 1117 0
 743 0026 0026     		movs	r6, #0
 744              	.LVL97:
 745 0028 3E71     		strb	r6, [r7, #4]
1118:Generated_Source\PSoC5/CapSense_CSHL.c ****                     CapSense_centroid[CapSense_POS_NEXT] = startOfSlider[posNext];
 746              		.loc 1 1118 0
 747 002a 095C     		ldrb	r1, [r1, r0]	@ zero_extendqisi2
 748              	.LVL98:
 749 002c B971     		strb	r1, [r7, #6]
 750 002e 0DE0     		b	.L66
ARM GAS  C:\Users\HENRIC~1\AppData\Local\Temp\ccxfh9yc.s 			page 34


 751              	.LVL99:
 752              	.L65:
1119:Generated_Source\PSoC5/CapSense_CSHL.c ****                 }
1120:Generated_Source\PSoC5/CapSense_CSHL.c ****                 else if (maximum == ((count) - 1u)) /* End of centroid */
 753              		.loc 1 1120 0
 754 0030 013A     		subs	r2, r2, #1
 755              	.LVL100:
 756 0032 9442     		cmp	r4, r2
 757 0034 05D1     		bne	.L67
1121:Generated_Source\PSoC5/CapSense_CSHL.c ****                 {
1122:Generated_Source\PSoC5/CapSense_CSHL.c ****                     CapSense_centroid[CapSense_POS_PREV] = startOfSlider[posPrev];
 758              		.loc 1 1122 0
 759 0036 895D     		ldrb	r1, [r1, r6]	@ zero_extendqisi2
 760              	.LVL101:
 761 0038 1C4A     		ldr	r2, .L74+4
 762 003a 1171     		strb	r1, [r2, #4]
1123:Generated_Source\PSoC5/CapSense_CSHL.c ****                     CapSense_centroid[CapSense_POS_NEXT] = 0u;
 763              		.loc 1 1123 0
 764 003c 0021     		movs	r1, #0
 765 003e 9171     		strb	r1, [r2, #6]
 766 0040 04E0     		b	.L66
 767              	.LVL102:
 768              	.L67:
1124:Generated_Source\PSoC5/CapSense_CSHL.c ****                 }
1125:Generated_Source\PSoC5/CapSense_CSHL.c ****                 else                                /* Not first Not last */
1126:Generated_Source\PSoC5/CapSense_CSHL.c ****                 {
1127:Generated_Source\PSoC5/CapSense_CSHL.c ****                     CapSense_centroid[CapSense_POS_PREV] = startOfSlider[posPrev];
 769              		.loc 1 1127 0
 770 0042 8E5D     		ldrb	r6, [r1, r6]	@ zero_extendqisi2
 771              	.LVL103:
 772 0044 194A     		ldr	r2, .L74+4
 773 0046 1671     		strb	r6, [r2, #4]
1128:Generated_Source\PSoC5/CapSense_CSHL.c ****                     CapSense_centroid[CapSense_POS_NEXT] = startOfSlider[posNext];
 774              		.loc 1 1128 0
 775 0048 095C     		ldrb	r1, [r1, r0]	@ zero_extendqisi2
 776              	.LVL104:
 777 004a 9171     		strb	r1, [r2, #6]
 778              	.L66:
1129:Generated_Source\PSoC5/CapSense_CSHL.c ****                 }
1130:Generated_Source\PSoC5/CapSense_CSHL.c ****             #endif /* ((CapSense_TOTAL_LINEAR_SLIDERS_COUNT>0u)||(CapSense_TOTAL_TOUCH_PADS_COUNT>0
1131:Generated_Source\PSoC5/CapSense_CSHL.c **** 
1132:Generated_Source\PSoC5/CapSense_CSHL.c ****         #if (CapSense_ADD_SLIDER_TYPE)
1133:Generated_Source\PSoC5/CapSense_CSHL.c ****             }
1134:Generated_Source\PSoC5/CapSense_CSHL.c ****         #endif /* (CapSense_ADD_SLIDER_TYPE) */
1135:Generated_Source\PSoC5/CapSense_CSHL.c ****     
1136:Generated_Source\PSoC5/CapSense_CSHL.c ****         /* Subtract noiseThreshold */
1137:Generated_Source\PSoC5/CapSense_CSHL.c ****         if(CapSense_centroid[CapSense_POS_PREV] > noiseThreshold)
 779              		.loc 1 1137 0
 780 004c 174A     		ldr	r2, .L74+4
 781 004e 1279     		ldrb	r2, [r2, #4]	@ zero_extendqisi2
 782 0050 AA42     		cmp	r2, r5
 783 0052 03D9     		bls	.L68
1138:Generated_Source\PSoC5/CapSense_CSHL.c ****         {
1139:Generated_Source\PSoC5/CapSense_CSHL.c ****             CapSense_centroid[CapSense_POS_PREV] -= noiseThreshold;
 784              		.loc 1 1139 0
 785 0054 521B     		subs	r2, r2, r5
 786 0056 1549     		ldr	r1, .L74+4
ARM GAS  C:\Users\HENRIC~1\AppData\Local\Temp\ccxfh9yc.s 			page 35


 787 0058 0A71     		strb	r2, [r1, #4]
 788 005a 02E0     		b	.L69
 789              	.L68:
1140:Generated_Source\PSoC5/CapSense_CSHL.c ****         }
1141:Generated_Source\PSoC5/CapSense_CSHL.c ****         else
1142:Generated_Source\PSoC5/CapSense_CSHL.c ****         {
1143:Generated_Source\PSoC5/CapSense_CSHL.c ****             CapSense_centroid[CapSense_POS_PREV] = 0u;
 790              		.loc 1 1143 0
 791 005c 0021     		movs	r1, #0
 792 005e 134A     		ldr	r2, .L74+4
 793 0060 1171     		strb	r1, [r2, #4]
 794              	.L69:
1144:Generated_Source\PSoC5/CapSense_CSHL.c ****         }
1145:Generated_Source\PSoC5/CapSense_CSHL.c ****         
1146:Generated_Source\PSoC5/CapSense_CSHL.c ****         /* Maximum always grater than fingerThreshold, so grate than noiseThreshold */
1147:Generated_Source\PSoC5/CapSense_CSHL.c ****         CapSense_centroid[CapSense_POS] -= noiseThreshold;
 795              		.loc 1 1147 0
 796 0062 124A     		ldr	r2, .L74+4
 797 0064 5179     		ldrb	r1, [r2, #5]	@ zero_extendqisi2
 798 0066 491B     		subs	r1, r1, r5
 799 0068 C9B2     		uxtb	r1, r1
 800 006a 5171     		strb	r1, [r2, #5]
1148:Generated_Source\PSoC5/CapSense_CSHL.c ****         
1149:Generated_Source\PSoC5/CapSense_CSHL.c ****         /* Subtract noiseThreshold */
1150:Generated_Source\PSoC5/CapSense_CSHL.c ****         if(CapSense_centroid[CapSense_POS_NEXT] > noiseThreshold)
 801              		.loc 1 1150 0
 802 006c 9279     		ldrb	r2, [r2, #6]	@ zero_extendqisi2
 803 006e 9542     		cmp	r5, r2
 804 0070 03D2     		bcs	.L70
1151:Generated_Source\PSoC5/CapSense_CSHL.c ****         {
1152:Generated_Source\PSoC5/CapSense_CSHL.c ****             CapSense_centroid[CapSense_POS_NEXT] -= noiseThreshold;
 805              		.loc 1 1152 0
 806 0072 551B     		subs	r5, r2, r5
 807 0074 0D4A     		ldr	r2, .L74+4
 808 0076 9571     		strb	r5, [r2, #6]
 809 0078 02E0     		b	.L71
 810              	.L70:
1153:Generated_Source\PSoC5/CapSense_CSHL.c ****         }
1154:Generated_Source\PSoC5/CapSense_CSHL.c ****         else
1155:Generated_Source\PSoC5/CapSense_CSHL.c ****         {
1156:Generated_Source\PSoC5/CapSense_CSHL.c ****             CapSense_centroid[CapSense_POS_NEXT] = 0u;
 811              		.loc 1 1156 0
 812 007a 0020     		movs	r0, #0
 813              	.LVL105:
 814 007c 0B4A     		ldr	r2, .L74+4
 815 007e 9071     		strb	r0, [r2, #6]
 816              	.L71:
1157:Generated_Source\PSoC5/CapSense_CSHL.c ****         }
1158:Generated_Source\PSoC5/CapSense_CSHL.c ****         
1159:Generated_Source\PSoC5/CapSense_CSHL.c ****         
1160:Generated_Source\PSoC5/CapSense_CSHL.c ****         /* Si+1 - Si-1 */
1161:Generated_Source\PSoC5/CapSense_CSHL.c ****         numerator = (uint32) CapSense_centroid[CapSense_POS_NEXT] -
 817              		.loc 1 1161 0
 818 0080 0A4A     		ldr	r2, .L74+4
 819 0082 9079     		ldrb	r0, [r2, #6]	@ zero_extendqisi2
1162:Generated_Source\PSoC5/CapSense_CSHL.c ****                     (uint32) CapSense_centroid[CapSense_POS_PREV];
 820              		.loc 1 1162 0
ARM GAS  C:\Users\HENRIC~1\AppData\Local\Temp\ccxfh9yc.s 			page 36


 821 0084 1579     		ldrb	r5, [r2, #4]	@ zero_extendqisi2
1161:Generated_Source\PSoC5/CapSense_CSHL.c ****                     (uint32) CapSense_centroid[CapSense_POS_PREV];
 822              		.loc 1 1161 0
 823 0086 421B     		subs	r2, r0, r5
 824              	.LVL106:
1163:Generated_Source\PSoC5/CapSense_CSHL.c **** 
1164:Generated_Source\PSoC5/CapSense_CSHL.c ****         /* Si+1 + Si + Si-1 */
1165:Generated_Source\PSoC5/CapSense_CSHL.c ****         denominator = (int32) CapSense_centroid[CapSense_POS_PREV] + 
 825              		.loc 1 1165 0
 826 0088 2944     		add	r1, r1, r5
 827 008a 0844     		add	r0, r0, r1
 828              	.LVL107:
1166:Generated_Source\PSoC5/CapSense_CSHL.c ****                       (int32) CapSense_centroid[CapSense_POS] + 
1167:Generated_Source\PSoC5/CapSense_CSHL.c ****                       (int32) CapSense_centroid[CapSense_POS_NEXT];
1168:Generated_Source\PSoC5/CapSense_CSHL.c ****         
1169:Generated_Source\PSoC5/CapSense_CSHL.c ****         /* (numerator/denominator) + maximum */
1170:Generated_Source\PSoC5/CapSense_CSHL.c ****         denominator = (((int32)(uint32)((uint32)numerator << 8u)/denominator) + (int32)(uint32)((ui
 829              		.loc 1 1170 0
 830 008c 1202     		lsls	r2, r2, #8
 831              	.LVL108:
 832 008e 92FBF0F0 		sdiv	r0, r2, r0
 833              	.LVL109:
 834 0092 00EB0420 		add	r0, r0, r4, lsl #8
 835              	.LVL110:
1171:Generated_Source\PSoC5/CapSense_CSHL.c **** 
1172:Generated_Source\PSoC5/CapSense_CSHL.c ****         #if(CapSense_TOTAL_RADIAL_SLIDERS_COUNT > 0u)
1173:Generated_Source\PSoC5/CapSense_CSHL.c ****             /* Only required for RADIAL Slider */
1174:Generated_Source\PSoC5/CapSense_CSHL.c ****             if(denominator < 0)
1175:Generated_Source\PSoC5/CapSense_CSHL.c ****             {
1176:Generated_Source\PSoC5/CapSense_CSHL.c ****                 denominator += (int32)((uint16)((uint16) count << 8u));
1177:Generated_Source\PSoC5/CapSense_CSHL.c ****             }
1178:Generated_Source\PSoC5/CapSense_CSHL.c ****         #endif /* (CapSense_TOTAL_RADIAL_SLIDERS_COUNT > 0u) */
1179:Generated_Source\PSoC5/CapSense_CSHL.c **** 
1180:Generated_Source\PSoC5/CapSense_CSHL.c ****         denominator *= (int16)resolution;
 836              		.loc 1 1180 0
 837 0096 1BB2     		sxth	r3, r3
 838 0098 00FB03F0 		mul	r0, r0, r3
 839              	.LVL111:
1181:Generated_Source\PSoC5/CapSense_CSHL.c **** 
1182:Generated_Source\PSoC5/CapSense_CSHL.c ****         /* Round the relust and put it to uint8 */
1183:Generated_Source\PSoC5/CapSense_CSHL.c ****         position = ((uint8) HI16((uint32)denominator + CapSense_CENTROID_ROUND_VALUE));
 840              		.loc 1 1183 0
 841 009c 00F5FE40 		add	r0, r0, #32512
 842              	.LVL112:
1184:Generated_Source\PSoC5/CapSense_CSHL.c **** 
1185:Generated_Source\PSoC5/CapSense_CSHL.c ****         return (position);
1186:Generated_Source\PSoC5/CapSense_CSHL.c ****     }    
 843              		.loc 1 1186 0
 844 00a0 C0F30740 		ubfx	r0, r0, #16, #8
 845              	.LVL113:
 846 00a4 F0BD     		pop	{r4, r5, r6, r7, pc}
 847              	.LVL114:
 848              	.L75:
 849 00a6 00BF     		.align	2
 850              	.L74:
 851 00a8 00000000 		.word	CapSense_sensorSignal
 852 00ac 00000000 		.word	.LANCHOR1
ARM GAS  C:\Users\HENRIC~1\AppData\Local\Temp\ccxfh9yc.s 			page 37


 853              		.cfi_endproc
 854              	.LFE12:
 855              		.size	CapSense_CalcCentroid, .-CapSense_CalcCentroid
 856              		.section	.text.CapSense_IIR4Filter,"ax",%progbits
 857              		.align	2
 858              		.global	CapSense_IIR4Filter
 859              		.thumb
 860              		.thumb_func
 861              		.type	CapSense_IIR4Filter, %function
 862              	CapSense_IIR4Filter:
 863              	.LFB14:
1187:Generated_Source\PSoC5/CapSense_CSHL.c **** #endif /* (CapSense_TOTAL_CENTROIDS_COUNT) */
1188:Generated_Source\PSoC5/CapSense_CSHL.c **** 
1189:Generated_Source\PSoC5/CapSense_CSHL.c **** 
1190:Generated_Source\PSoC5/CapSense_CSHL.c **** #if(CapSense_TOTAL_LINEAR_SLIDERS_COUNT > 0u)
1191:Generated_Source\PSoC5/CapSense_CSHL.c ****     /*******************************************************************************
1192:Generated_Source\PSoC5/CapSense_CSHL.c ****     * Function Name: CapSense_GetCentroidPos
1193:Generated_Source\PSoC5/CapSense_CSHL.c ****     ********************************************************************************
1194:Generated_Source\PSoC5/CapSense_CSHL.c ****     *
1195:Generated_Source\PSoC5/CapSense_CSHL.c ****     * Summary:
1196:Generated_Source\PSoC5/CapSense_CSHL.c ****     *  Checks the CapSense_Signal[ ] array for a centroid within
1197:Generated_Source\PSoC5/CapSense_CSHL.c ****     *  slider specified range. The centroid position is calculated to the resolution
1198:Generated_Source\PSoC5/CapSense_CSHL.c ****     *  specified in the CapSense customizer. The position filters are applied to the
1199:Generated_Source\PSoC5/CapSense_CSHL.c ****     *  result if enabled.
1200:Generated_Source\PSoC5/CapSense_CSHL.c ****     *
1201:Generated_Source\PSoC5/CapSense_CSHL.c ****     * Parameters:
1202:Generated_Source\PSoC5/CapSense_CSHL.c ****     *  widget:  Widget number.
1203:Generated_Source\PSoC5/CapSense_CSHL.c ****     *  For every linear slider widget there are defines in this format:
1204:Generated_Source\PSoC5/CapSense_CSHL.c ****     *  #define CapSense_LS__"widget_name"            5
1205:Generated_Source\PSoC5/CapSense_CSHL.c ****     * 
1206:Generated_Source\PSoC5/CapSense_CSHL.c ****     * Return:
1207:Generated_Source\PSoC5/CapSense_CSHL.c ****     *  Returns position value of the linear slider.
1208:Generated_Source\PSoC5/CapSense_CSHL.c ****     *
1209:Generated_Source\PSoC5/CapSense_CSHL.c ****     * Side Effects:
1210:Generated_Source\PSoC5/CapSense_CSHL.c ****     *  If any sensor within the slider widget is active, the function returns values
1211:Generated_Source\PSoC5/CapSense_CSHL.c ****     *  from zero to the API resolution value set in the CapSense customizer. If no
1212:Generated_Source\PSoC5/CapSense_CSHL.c ****     *  sensors are active, the function returns 0xFFFF. If an error occurs during
1213:Generated_Source\PSoC5/CapSense_CSHL.c ****     *  execution of the centroid/diplexing algorithm, the function returns 0xFFFF.
1214:Generated_Source\PSoC5/CapSense_CSHL.c ****     *  There are no checks of widget type argument provided to this function.
1215:Generated_Source\PSoC5/CapSense_CSHL.c ****     *  The unproper widget type provided will cause unexpected position calculations.
1216:Generated_Source\PSoC5/CapSense_CSHL.c ****     *
1217:Generated_Source\PSoC5/CapSense_CSHL.c ****     * Note:
1218:Generated_Source\PSoC5/CapSense_CSHL.c ****     *  If noise counts on the slider segments are greater than the noise
1219:Generated_Source\PSoC5/CapSense_CSHL.c ****     *  threshold, this subroutine may generate a false centroid result. The noise
1220:Generated_Source\PSoC5/CapSense_CSHL.c ****     *  threshold should be set carefully (high enough above the noise level) so
1221:Generated_Source\PSoC5/CapSense_CSHL.c ****     *  that noise will not generate a false centroid.
1222:Generated_Source\PSoC5/CapSense_CSHL.c ****     *
1223:Generated_Source\PSoC5/CapSense_CSHL.c ****     * Reentrant:
1224:Generated_Source\PSoC5/CapSense_CSHL.c ****     *  No.
1225:Generated_Source\PSoC5/CapSense_CSHL.c ****     *
1226:Generated_Source\PSoC5/CapSense_CSHL.c ****     *******************************************************************************/
1227:Generated_Source\PSoC5/CapSense_CSHL.c ****     uint16 CapSense_GetCentroidPos(uint8 widget) 
1228:Generated_Source\PSoC5/CapSense_CSHL.c ****     {
1229:Generated_Source\PSoC5/CapSense_CSHL.c ****         #if (CapSense_IS_DIPLEX_SLIDER)
1230:Generated_Source\PSoC5/CapSense_CSHL.c ****             const uint8 CYCODE *diplex;
1231:Generated_Source\PSoC5/CapSense_CSHL.c ****         #endif /* (CapSense_IS_DIPLEX_SLIDER) */
1232:Generated_Source\PSoC5/CapSense_CSHL.c ****                 
ARM GAS  C:\Users\HENRIC~1\AppData\Local\Temp\ccxfh9yc.s 			page 38


1233:Generated_Source\PSoC5/CapSense_CSHL.c ****         #if (0u != CapSense_LINEAR_SLIDERS_POS_FILTERS_MASK)
1234:Generated_Source\PSoC5/CapSense_CSHL.c ****             uint8 posIndex;
1235:Generated_Source\PSoC5/CapSense_CSHL.c ****             uint8 firstTimeIndex = CapSense_posFiltersData[widget];
1236:Generated_Source\PSoC5/CapSense_CSHL.c ****             uint8 posFiltersMask = CapSense_posFiltersMask[widget];  
1237:Generated_Source\PSoC5/CapSense_CSHL.c ****         #endif /* (0u != CapSense_LINEAR_SLIDERS_POS_FILTERS_MASK) */
1238:Generated_Source\PSoC5/CapSense_CSHL.c **** 
1239:Generated_Source\PSoC5/CapSense_CSHL.c ****         #if ((0u != (CapSense_MEDIAN_FILTER & CapSense_LINEAR_SLIDERS_POS_FILTERS_MASK)) || \
1240:Generated_Source\PSoC5/CapSense_CSHL.c ****              (0u != (CapSense_AVERAGING_FILTER & CapSense_LINEAR_SLIDERS_POS_FILTERS_MASK)))
1241:Generated_Source\PSoC5/CapSense_CSHL.c ****             uint8 tempPos;
1242:Generated_Source\PSoC5/CapSense_CSHL.c ****         #endif /* ((0u != (CapSense_MEDIAN_FILTER & CapSense_LINEAR_SLIDERS_POS_FILTERS_MASK)) || \
1243:Generated_Source\PSoC5/CapSense_CSHL.c ****                *   (0u != (CapSense_AVERAGING_FILTER & CapSense_LINEAR_SLIDERS_POS_FILTERS_MASK)))
1244:Generated_Source\PSoC5/CapSense_CSHL.c ****                */
1245:Generated_Source\PSoC5/CapSense_CSHL.c **** 
1246:Generated_Source\PSoC5/CapSense_CSHL.c ****         uint8 maximum;
1247:Generated_Source\PSoC5/CapSense_CSHL.c ****         uint16 position;
1248:Generated_Source\PSoC5/CapSense_CSHL.c ****         uint8 offset = CapSense_rawDataIndex[widget];
1249:Generated_Source\PSoC5/CapSense_CSHL.c ****         uint8 count = CapSense_numberOfSensors[widget];
1250:Generated_Source\PSoC5/CapSense_CSHL.c ****                         
1251:Generated_Source\PSoC5/CapSense_CSHL.c ****         #if (CapSense_IS_DIPLEX_SLIDER)
1252:Generated_Source\PSoC5/CapSense_CSHL.c ****             if(widget < CapSense_TOTAL_DIPLEXED_SLIDERS_COUNT)
1253:Generated_Source\PSoC5/CapSense_CSHL.c ****             {
1254:Generated_Source\PSoC5/CapSense_CSHL.c ****                 maximum = CapSense_diplexTable[widget];
1255:Generated_Source\PSoC5/CapSense_CSHL.c ****                 diplex = &CapSense_diplexTable[maximum];
1256:Generated_Source\PSoC5/CapSense_CSHL.c ****             }
1257:Generated_Source\PSoC5/CapSense_CSHL.c ****             else
1258:Generated_Source\PSoC5/CapSense_CSHL.c ****             {
1259:Generated_Source\PSoC5/CapSense_CSHL.c ****                 diplex = 0u;
1260:Generated_Source\PSoC5/CapSense_CSHL.c ****             }
1261:Generated_Source\PSoC5/CapSense_CSHL.c ****         #endif /* (CapSense_IS_DIPLEX_SLIDER) */
1262:Generated_Source\PSoC5/CapSense_CSHL.c **** 
1263:Generated_Source\PSoC5/CapSense_CSHL.c ****         /* Find Maximum within centroid */      
1264:Generated_Source\PSoC5/CapSense_CSHL.c ****         #if (CapSense_IS_DIPLEX_SLIDER)        
1265:Generated_Source\PSoC5/CapSense_CSHL.c ****             maximum = CapSense_FindMaximum(offset, count, CapSense_fingerThreshold[widget], diplex)
1266:Generated_Source\PSoC5/CapSense_CSHL.c ****         #else
1267:Generated_Source\PSoC5/CapSense_CSHL.c ****             maximum = CapSense_FindMaximum(offset, count, CapSense_fingerThreshold[widget]);
1268:Generated_Source\PSoC5/CapSense_CSHL.c ****         #endif /* (CapSense_IS_DIPLEX_SLIDER) */
1269:Generated_Source\PSoC5/CapSense_CSHL.c **** 
1270:Generated_Source\PSoC5/CapSense_CSHL.c ****         if (maximum != 0xFFu)
1271:Generated_Source\PSoC5/CapSense_CSHL.c ****         {
1272:Generated_Source\PSoC5/CapSense_CSHL.c ****             /* Calculate centroid */
1273:Generated_Source\PSoC5/CapSense_CSHL.c ****             position = (uint16) CapSense_CalcCentroid(maximum, 
1274:Generated_Source\PSoC5/CapSense_CSHL.c ****                          offset, count, CapSense_centroidMult[widget], CapSense_noiseThreshold[widg
1275:Generated_Source\PSoC5/CapSense_CSHL.c **** 
1276:Generated_Source\PSoC5/CapSense_CSHL.c ****             #if (0u != CapSense_LINEAR_SLIDERS_POS_FILTERS_MASK)
1277:Generated_Source\PSoC5/CapSense_CSHL.c ****                 /* Check if this linear slider has enabled filters */
1278:Generated_Source\PSoC5/CapSense_CSHL.c ****                 if (0u != (posFiltersMask & CapSense_ANY_POS_FILTER))
1279:Generated_Source\PSoC5/CapSense_CSHL.c ****                 {
1280:Generated_Source\PSoC5/CapSense_CSHL.c ****                     /* Caluclate position to store filters data */
1281:Generated_Source\PSoC5/CapSense_CSHL.c ****                     posIndex  = firstTimeIndex + 1u;
1282:Generated_Source\PSoC5/CapSense_CSHL.c ****                     
1283:Generated_Source\PSoC5/CapSense_CSHL.c ****                     if (0u == CapSense_posFiltersData[firstTimeIndex])
1284:Generated_Source\PSoC5/CapSense_CSHL.c ****                     {
1285:Generated_Source\PSoC5/CapSense_CSHL.c ****                         /* Init filters */
1286:Generated_Source\PSoC5/CapSense_CSHL.c ****                         CapSense_posFiltersData[posIndex] = (uint8) position;
1287:Generated_Source\PSoC5/CapSense_CSHL.c ****                         #if ((0u != (CapSense_MEDIAN_FILTER & \
1288:Generated_Source\PSoC5/CapSense_CSHL.c ****                                      CapSense_LINEAR_SLIDERS_POS_FILTERS_MASK)) || \
1289:Generated_Source\PSoC5/CapSense_CSHL.c ****                              (0u != (CapSense_AVERAGING_FILTER & \
ARM GAS  C:\Users\HENRIC~1\AppData\Local\Temp\ccxfh9yc.s 			page 39


1290:Generated_Source\PSoC5/CapSense_CSHL.c ****                                      CapSense_LINEAR_SLIDERS_POS_FILTERS_MASK)))
1291:Generated_Source\PSoC5/CapSense_CSHL.c **** 
1292:Generated_Source\PSoC5/CapSense_CSHL.c ****                             if ( (0u != (posFiltersMask & CapSense_MEDIAN_FILTER)) || 
1293:Generated_Source\PSoC5/CapSense_CSHL.c ****                                  (0u != (posFiltersMask & CapSense_AVERAGING_FILTER)) )
1294:Generated_Source\PSoC5/CapSense_CSHL.c ****                             {
1295:Generated_Source\PSoC5/CapSense_CSHL.c ****                                 CapSense_posFiltersData[posIndex + 1u] = (uint8) position;
1296:Generated_Source\PSoC5/CapSense_CSHL.c ****                             }
1297:Generated_Source\PSoC5/CapSense_CSHL.c ****                         #endif /* ((0u != (CapSense_MEDIAN_FILTER & \
1298:Generated_Source\PSoC5/CapSense_CSHL.c ****                                *           CapSense_LINEAR_SLIDERS_POS_FILTERS_MASK)) || \
1299:Generated_Source\PSoC5/CapSense_CSHL.c ****                                *   (0u != (CapSense_AVERAGING_FILTER & \
1300:Generated_Source\PSoC5/CapSense_CSHL.c ****                                *           CapSense_LINEAR_SLIDERS_POS_FILTERS_MASK)))
1301:Generated_Source\PSoC5/CapSense_CSHL.c ****                                */
1302:Generated_Source\PSoC5/CapSense_CSHL.c ****                         
1303:Generated_Source\PSoC5/CapSense_CSHL.c ****                         CapSense_posFiltersData[firstTimeIndex] = 1u;
1304:Generated_Source\PSoC5/CapSense_CSHL.c ****                     }
1305:Generated_Source\PSoC5/CapSense_CSHL.c ****                     else
1306:Generated_Source\PSoC5/CapSense_CSHL.c ****                     {
1307:Generated_Source\PSoC5/CapSense_CSHL.c ****                         /* Do filtering */
1308:Generated_Source\PSoC5/CapSense_CSHL.c ****                         #if (0u != (CapSense_MEDIAN_FILTER & CapSense_LINEAR_SLIDERS_POS_FILTERS_MA
1309:Generated_Source\PSoC5/CapSense_CSHL.c ****                             if (0u != (posFiltersMask & CapSense_MEDIAN_FILTER))
1310:Generated_Source\PSoC5/CapSense_CSHL.c ****                             {
1311:Generated_Source\PSoC5/CapSense_CSHL.c ****                                 tempPos = (uint8) position;
1312:Generated_Source\PSoC5/CapSense_CSHL.c ****                                 position = CapSense_MedianFilter(position,
1313:Generated_Source\PSoC5/CapSense_CSHL.c ****                                                                 (uint16)CapSense_posFiltersData[pos
1314:Generated_Source\PSoC5/CapSense_CSHL.c ****                                                                 (uint16)CapSense_posFiltersData[pos
1315:Generated_Source\PSoC5/CapSense_CSHL.c ****                                 CapSense_posFiltersData[posIndex + 1u] =
1316:Generated_Source\PSoC5/CapSense_CSHL.c ****                                                                              CapSense_posFiltersDat
1317:Generated_Source\PSoC5/CapSense_CSHL.c ****                                 CapSense_posFiltersData[posIndex] = tempPos;
1318:Generated_Source\PSoC5/CapSense_CSHL.c ****                             }
1319:Generated_Source\PSoC5/CapSense_CSHL.c ****                         #endif /*(0u != (CapSense_MEDIAN_FILTER &
1320:Generated_Source\PSoC5/CapSense_CSHL.c ****                                *         CapSense_LINEAR_SLIDERS_POS_FILTERS_MASK))
1321:Generated_Source\PSoC5/CapSense_CSHL.c ****                                */
1322:Generated_Source\PSoC5/CapSense_CSHL.c **** 
1323:Generated_Source\PSoC5/CapSense_CSHL.c ****                         #if(0u!=(CapSense_AVERAGING_FILTER & CapSense_LINEAR_SLIDERS_POS_FILTERS_MA
1324:Generated_Source\PSoC5/CapSense_CSHL.c ****                             if (0u != (posFiltersMask & CapSense_AVERAGING_FILTER)) 
1325:Generated_Source\PSoC5/CapSense_CSHL.c ****                             {
1326:Generated_Source\PSoC5/CapSense_CSHL.c ****                                 tempPos = (uint8) position;
1327:Generated_Source\PSoC5/CapSense_CSHL.c ****                                 position = CapSense_AveragingFilter(position,
1328:Generated_Source\PSoC5/CapSense_CSHL.c ****                                                                 (uint16)CapSense_posFiltersData[pos
1329:Generated_Source\PSoC5/CapSense_CSHL.c ****                                                                 (uint16)CapSense_posFiltersData[pos
1330:Generated_Source\PSoC5/CapSense_CSHL.c ****                                 CapSense_posFiltersData[posIndex+1u]=CapSense_posFiltersData[posInd
1331:Generated_Source\PSoC5/CapSense_CSHL.c ****                                 CapSense_posFiltersData[posIndex] = tempPos;
1332:Generated_Source\PSoC5/CapSense_CSHL.c ****                             }
1333:Generated_Source\PSoC5/CapSense_CSHL.c ****                         #endif /* (0u != (CapSense_AVERAGING_FILTER & \
1334:Generated_Source\PSoC5/CapSense_CSHL.c ****                                *           CapSense_LINEAR_SLIDERS_POS_FILTERS_MASK))
1335:Generated_Source\PSoC5/CapSense_CSHL.c ****                                */
1336:Generated_Source\PSoC5/CapSense_CSHL.c **** 
1337:Generated_Source\PSoC5/CapSense_CSHL.c ****                         #if (0u != (CapSense_IIR2_FILTER & CapSense_LINEAR_SLIDERS_POS_FILTERS_MASK
1338:Generated_Source\PSoC5/CapSense_CSHL.c ****                             if (0u != (posFiltersMask & CapSense_IIR2_FILTER)) 
1339:Generated_Source\PSoC5/CapSense_CSHL.c ****                             {
1340:Generated_Source\PSoC5/CapSense_CSHL.c ****                                 position = CapSense_IIR2Filter(position,
1341:Generated_Source\PSoC5/CapSense_CSHL.c ****                                                                     (uint16)CapSense_posFiltersData
1342:Generated_Source\PSoC5/CapSense_CSHL.c ****                                 CapSense_posFiltersData[posIndex] = (uint8) position;
1343:Generated_Source\PSoC5/CapSense_CSHL.c ****                             }
1344:Generated_Source\PSoC5/CapSense_CSHL.c ****                         #endif /* (0u != (CapSense_IIR2_FILTER & \
1345:Generated_Source\PSoC5/CapSense_CSHL.c ****                                *          CapSense_LINEAR_SLIDERS_POS_FILTERS_MASK))
1346:Generated_Source\PSoC5/CapSense_CSHL.c ****                                */
ARM GAS  C:\Users\HENRIC~1\AppData\Local\Temp\ccxfh9yc.s 			page 40


1347:Generated_Source\PSoC5/CapSense_CSHL.c **** 
1348:Generated_Source\PSoC5/CapSense_CSHL.c ****                         #if (0u != (CapSense_IIR4_FILTER & CapSense_LINEAR_SLIDERS_POS_FILTERS_MASK
1349:Generated_Source\PSoC5/CapSense_CSHL.c ****                             if (0u != (posFiltersMask & CapSense_IIR4_FILTER))
1350:Generated_Source\PSoC5/CapSense_CSHL.c ****                             {
1351:Generated_Source\PSoC5/CapSense_CSHL.c ****                                 position = CapSense_IIR4Filter(position,
1352:Generated_Source\PSoC5/CapSense_CSHL.c ****                                                                     (uint16)CapSense_posFiltersData
1353:Generated_Source\PSoC5/CapSense_CSHL.c ****                                 CapSense_posFiltersData[posIndex] = (uint8) position;
1354:Generated_Source\PSoC5/CapSense_CSHL.c ****                             }                                
1355:Generated_Source\PSoC5/CapSense_CSHL.c ****                         #endif /* (0u != (CapSense_IIR4_FILTER & \
1356:Generated_Source\PSoC5/CapSense_CSHL.c ****                                *          CapSense_LINEAR_SLIDERS_POS_FILTERS_MASK))
1357:Generated_Source\PSoC5/CapSense_CSHL.c ****                                */
1358:Generated_Source\PSoC5/CapSense_CSHL.c **** 
1359:Generated_Source\PSoC5/CapSense_CSHL.c ****                         #if (0u != (CapSense_JITTER_FILTER & CapSense_LINEAR_SLIDERS_POS_FILTERS_MA
1360:Generated_Source\PSoC5/CapSense_CSHL.c ****                             if (0u != (posFiltersMask & CapSense_JITTER_FILTER))
1361:Generated_Source\PSoC5/CapSense_CSHL.c ****                             {
1362:Generated_Source\PSoC5/CapSense_CSHL.c ****                                 position = CapSense_JitterFilter(position,
1363:Generated_Source\PSoC5/CapSense_CSHL.c ****                                                                     (uint16)CapSense_posFiltersData
1364:Generated_Source\PSoC5/CapSense_CSHL.c ****                                 CapSense_posFiltersData[posIndex] = (uint8) position;
1365:Generated_Source\PSoC5/CapSense_CSHL.c ****                             }
1366:Generated_Source\PSoC5/CapSense_CSHL.c ****                         #endif /* (0u != (CapSense_JITTER_FILTER & \
1367:Generated_Source\PSoC5/CapSense_CSHL.c ****                                *           CapSense_LINEAR_SLIDERS_POS_FILTERS_MASK))
1368:Generated_Source\PSoC5/CapSense_CSHL.c ****                                */
1369:Generated_Source\PSoC5/CapSense_CSHL.c ****                     }
1370:Generated_Source\PSoC5/CapSense_CSHL.c ****                 }
1371:Generated_Source\PSoC5/CapSense_CSHL.c ****             #endif /* (0u != CapSense_LINEAR_SLIDERS_POS_FILTERS_MASK) */
1372:Generated_Source\PSoC5/CapSense_CSHL.c **** 
1373:Generated_Source\PSoC5/CapSense_CSHL.c ****         }
1374:Generated_Source\PSoC5/CapSense_CSHL.c ****         else
1375:Generated_Source\PSoC5/CapSense_CSHL.c ****         {
1376:Generated_Source\PSoC5/CapSense_CSHL.c ****             /* The maximum wasn't found */
1377:Generated_Source\PSoC5/CapSense_CSHL.c ****             position = 0xFFFFu;
1378:Generated_Source\PSoC5/CapSense_CSHL.c **** 
1379:Generated_Source\PSoC5/CapSense_CSHL.c ****             #if(0u != CapSense_LINEAR_SLIDERS_POS_FILTERS_MASK)
1380:Generated_Source\PSoC5/CapSense_CSHL.c ****                 /* Reset the filters */
1381:Generated_Source\PSoC5/CapSense_CSHL.c ****                 if(0u != (posFiltersMask & CapSense_ANY_POS_FILTER))
1382:Generated_Source\PSoC5/CapSense_CSHL.c ****                 {
1383:Generated_Source\PSoC5/CapSense_CSHL.c ****                     CapSense_posFiltersData[firstTimeIndex] = 0u;
1384:Generated_Source\PSoC5/CapSense_CSHL.c ****                 }
1385:Generated_Source\PSoC5/CapSense_CSHL.c ****             #endif /* (0u != CapSense_LINEAR_SLIDERS_POS_FILTERS_MASK) */
1386:Generated_Source\PSoC5/CapSense_CSHL.c ****         }
1387:Generated_Source\PSoC5/CapSense_CSHL.c **** 
1388:Generated_Source\PSoC5/CapSense_CSHL.c ****         
1389:Generated_Source\PSoC5/CapSense_CSHL.c ****         return (position);
1390:Generated_Source\PSoC5/CapSense_CSHL.c ****     }
1391:Generated_Source\PSoC5/CapSense_CSHL.c **** #endif /* (CapSense_TOTAL_LINEAR_SLIDERS_COUNT > 0u) */
1392:Generated_Source\PSoC5/CapSense_CSHL.c **** 
1393:Generated_Source\PSoC5/CapSense_CSHL.c **** 
1394:Generated_Source\PSoC5/CapSense_CSHL.c **** #if(CapSense_TOTAL_RADIAL_SLIDERS_COUNT > 0u)
1395:Generated_Source\PSoC5/CapSense_CSHL.c ****     /*******************************************************************************
1396:Generated_Source\PSoC5/CapSense_CSHL.c ****     * Function Name: CapSense_GetRadialCentroidPos
1397:Generated_Source\PSoC5/CapSense_CSHL.c ****     ********************************************************************************
1398:Generated_Source\PSoC5/CapSense_CSHL.c ****     *
1399:Generated_Source\PSoC5/CapSense_CSHL.c ****     * Summary:
1400:Generated_Source\PSoC5/CapSense_CSHL.c ****     *  Checks the CapSense_Signal[ ] array for a centroid within
1401:Generated_Source\PSoC5/CapSense_CSHL.c ****     *  slider specified range. The centroid position is calculated to the resolution
1402:Generated_Source\PSoC5/CapSense_CSHL.c ****     *  specified in the CapSense customizer. The position filters are applied to the
1403:Generated_Source\PSoC5/CapSense_CSHL.c ****     *  result if enabled.
ARM GAS  C:\Users\HENRIC~1\AppData\Local\Temp\ccxfh9yc.s 			page 41


1404:Generated_Source\PSoC5/CapSense_CSHL.c ****     *
1405:Generated_Source\PSoC5/CapSense_CSHL.c ****     * Parameters:
1406:Generated_Source\PSoC5/CapSense_CSHL.c ****     *  widget:  Widget number.
1407:Generated_Source\PSoC5/CapSense_CSHL.c ****     *  For every radial slider widget there are defines in this format:
1408:Generated_Source\PSoC5/CapSense_CSHL.c ****     *  #define CapSense_RS_"widget_name"            5
1409:Generated_Source\PSoC5/CapSense_CSHL.c ****     * 
1410:Generated_Source\PSoC5/CapSense_CSHL.c ****     * Return:
1411:Generated_Source\PSoC5/CapSense_CSHL.c ****     *  Returns position value of the radial slider.
1412:Generated_Source\PSoC5/CapSense_CSHL.c ****     *
1413:Generated_Source\PSoC5/CapSense_CSHL.c ****     * Side Effects:
1414:Generated_Source\PSoC5/CapSense_CSHL.c ****     *  If any sensor within the slider widget is active, the function returns values
1415:Generated_Source\PSoC5/CapSense_CSHL.c ****     *  from zero to the API resolution value set in the CapSense customizer. If no
1416:Generated_Source\PSoC5/CapSense_CSHL.c ****     *  sensors are active, the function returns 0xFFFF.
1417:Generated_Source\PSoC5/CapSense_CSHL.c ****     *  There are no checks of widget type argument provided to this function.
1418:Generated_Source\PSoC5/CapSense_CSHL.c ****     *  The unproper widget type provided will cause unexpected position calculations.
1419:Generated_Source\PSoC5/CapSense_CSHL.c ****     *
1420:Generated_Source\PSoC5/CapSense_CSHL.c ****     * Note:
1421:Generated_Source\PSoC5/CapSense_CSHL.c ****     *  If noise counts on the slider segments are greater than the noise
1422:Generated_Source\PSoC5/CapSense_CSHL.c ****     *  threshold, this subroutine may generate a false centroid result. The noise
1423:Generated_Source\PSoC5/CapSense_CSHL.c ****     *  threshold should be set carefully (high enough above the noise level) so 
1424:Generated_Source\PSoC5/CapSense_CSHL.c ****     *  that noise will not generate a false centroid.
1425:Generated_Source\PSoC5/CapSense_CSHL.c ****     *
1426:Generated_Source\PSoC5/CapSense_CSHL.c ****     *
1427:Generated_Source\PSoC5/CapSense_CSHL.c ****     * Reentrant:
1428:Generated_Source\PSoC5/CapSense_CSHL.c ****     *  No.
1429:Generated_Source\PSoC5/CapSense_CSHL.c ****     *
1430:Generated_Source\PSoC5/CapSense_CSHL.c ****     *******************************************************************************/
1431:Generated_Source\PSoC5/CapSense_CSHL.c ****      uint16 CapSense_GetRadialCentroidPos(uint8 widget)
1432:Generated_Source\PSoC5/CapSense_CSHL.c **** 	                                       
1433:Generated_Source\PSoC5/CapSense_CSHL.c ****     {
1434:Generated_Source\PSoC5/CapSense_CSHL.c ****         #if (0u != CapSense_RADIAL_SLIDERS_POS_FILTERS_MASK)
1435:Generated_Source\PSoC5/CapSense_CSHL.c ****             uint8 posIndex;
1436:Generated_Source\PSoC5/CapSense_CSHL.c ****             uint8 firstTimeIndex = CapSense_posFiltersData[widget];
1437:Generated_Source\PSoC5/CapSense_CSHL.c ****             uint8 posFiltersMask = CapSense_posFiltersMask[widget]; 
1438:Generated_Source\PSoC5/CapSense_CSHL.c ****         #endif /* (0u != CapSense_RADIAL_SLIDERS_POS_FILTERS_MASK) */
1439:Generated_Source\PSoC5/CapSense_CSHL.c **** 
1440:Generated_Source\PSoC5/CapSense_CSHL.c ****         #if ((0u != (CapSense_MEDIAN_FILTER & CapSense_RADIAL_SLIDERS_POS_FILTERS_MASK)) || \
1441:Generated_Source\PSoC5/CapSense_CSHL.c ****              (0u != (CapSense_AVERAGING_FILTER & CapSense_RADIAL_SLIDERS_POS_FILTERS_MASK)))
1442:Generated_Source\PSoC5/CapSense_CSHL.c ****             uint8 tempPos;
1443:Generated_Source\PSoC5/CapSense_CSHL.c ****         #endif /* ((0u != (CapSense_MEDIAN_FILTER & CapSense_RADIAL_SLIDERS_POS_FILTERS_MASK)) || \
1444:Generated_Source\PSoC5/CapSense_CSHL.c ****                *   (0u != (CapSense_AVERAGING_FILTER & CapSense_RADIAL_SLIDERS_POS_FILTERS_MASK)))
1445:Generated_Source\PSoC5/CapSense_CSHL.c ****                */
1446:Generated_Source\PSoC5/CapSense_CSHL.c **** 
1447:Generated_Source\PSoC5/CapSense_CSHL.c ****         uint8 maximum;
1448:Generated_Source\PSoC5/CapSense_CSHL.c ****         uint16 position;
1449:Generated_Source\PSoC5/CapSense_CSHL.c ****         uint8 offset = CapSense_rawDataIndex[widget];
1450:Generated_Source\PSoC5/CapSense_CSHL.c ****         uint8 count = CapSense_numberOfSensors[widget];
1451:Generated_Source\PSoC5/CapSense_CSHL.c ****         
1452:Generated_Source\PSoC5/CapSense_CSHL.c ****         /* Find Maximum within centroid */        
1453:Generated_Source\PSoC5/CapSense_CSHL.c ****         #if (CapSense_IS_DIPLEX_SLIDER)
1454:Generated_Source\PSoC5/CapSense_CSHL.c ****             maximum = CapSense_FindMaximum(offset, count, CapSense_fingerThreshold[widget], 0u);
1455:Generated_Source\PSoC5/CapSense_CSHL.c ****         #else
1456:Generated_Source\PSoC5/CapSense_CSHL.c ****             maximum = CapSense_FindMaximum(offset, count, CapSense_fingerThreshold[widget]);
1457:Generated_Source\PSoC5/CapSense_CSHL.c ****         #endif /* (CapSense_IS_DIPLEX_SLIDER) */
1458:Generated_Source\PSoC5/CapSense_CSHL.c ****         
1459:Generated_Source\PSoC5/CapSense_CSHL.c ****         if (maximum != 0xFFu)
1460:Generated_Source\PSoC5/CapSense_CSHL.c ****         {
ARM GAS  C:\Users\HENRIC~1\AppData\Local\Temp\ccxfh9yc.s 			page 42


1461:Generated_Source\PSoC5/CapSense_CSHL.c ****             /* Calculate centroid */
1462:Generated_Source\PSoC5/CapSense_CSHL.c ****             position = (uint16) CapSense_CalcCentroid(maximum, 
1463:Generated_Source\PSoC5/CapSense_CSHL.c ****                          offset, count, CapSense_centroidMult[widget], CapSense_noiseThreshold[widg
1464:Generated_Source\PSoC5/CapSense_CSHL.c **** 
1465:Generated_Source\PSoC5/CapSense_CSHL.c ****             #if (0u != CapSense_RADIAL_SLIDERS_POS_FILTERS_MASK)
1466:Generated_Source\PSoC5/CapSense_CSHL.c ****                 /* Check if this Radial slider has enabled filters */
1467:Generated_Source\PSoC5/CapSense_CSHL.c ****                 if (0u != (posFiltersMask & CapSense_ANY_POS_FILTER))
1468:Generated_Source\PSoC5/CapSense_CSHL.c ****                 {
1469:Generated_Source\PSoC5/CapSense_CSHL.c ****                     /* Caluclate position to store filters data */
1470:Generated_Source\PSoC5/CapSense_CSHL.c ****                     posIndex  = firstTimeIndex + 1u;
1471:Generated_Source\PSoC5/CapSense_CSHL.c ****                     
1472:Generated_Source\PSoC5/CapSense_CSHL.c ****                     if (0u == CapSense_posFiltersData[firstTimeIndex])
1473:Generated_Source\PSoC5/CapSense_CSHL.c ****                     {
1474:Generated_Source\PSoC5/CapSense_CSHL.c ****                         /* Init filters */
1475:Generated_Source\PSoC5/CapSense_CSHL.c ****                         CapSense_posFiltersData[posIndex] = (uint8) position;
1476:Generated_Source\PSoC5/CapSense_CSHL.c ****                         #if ((0u != (CapSense_MEDIAN_FILTER & \
1477:Generated_Source\PSoC5/CapSense_CSHL.c ****                                      CapSense_RADIAL_SLIDERS_POS_FILTERS_MASK)) || \
1478:Generated_Source\PSoC5/CapSense_CSHL.c ****                              (0u != (CapSense_AVERAGING_FILTER & \
1479:Generated_Source\PSoC5/CapSense_CSHL.c ****                                      CapSense_RADIAL_SLIDERS_POS_FILTERS_MASK)))
1480:Generated_Source\PSoC5/CapSense_CSHL.c **** 
1481:Generated_Source\PSoC5/CapSense_CSHL.c ****                             if ( (0u != (posFiltersMask & CapSense_MEDIAN_FILTER))  || 
1482:Generated_Source\PSoC5/CapSense_CSHL.c ****                                  (0u != (posFiltersMask & CapSense_AVERAGING_FILTER)) )
1483:Generated_Source\PSoC5/CapSense_CSHL.c ****                             {
1484:Generated_Source\PSoC5/CapSense_CSHL.c ****                                 CapSense_posFiltersData[posIndex + 1u] = (uint8) position;
1485:Generated_Source\PSoC5/CapSense_CSHL.c ****                             }
1486:Generated_Source\PSoC5/CapSense_CSHL.c ****                         #endif /* ((0u != (CapSense_MEDIAN_FILTER & \
1487:Generated_Source\PSoC5/CapSense_CSHL.c ****                                *           CapSense_RADIAL_SLIDERS_POS_FILTERS_MASK)) || \
1488:Generated_Source\PSoC5/CapSense_CSHL.c ****                                *   (0u != (CapSense_AVERAGING_FILTER & \
1489:Generated_Source\PSoC5/CapSense_CSHL.c ****                                *           CapSense_RADIAL_SLIDERS_POS_FILTERS_MASK)))
1490:Generated_Source\PSoC5/CapSense_CSHL.c ****                                */
1491:Generated_Source\PSoC5/CapSense_CSHL.c ****                         
1492:Generated_Source\PSoC5/CapSense_CSHL.c ****                         CapSense_posFiltersData[firstTimeIndex] = 1u;
1493:Generated_Source\PSoC5/CapSense_CSHL.c ****                     }
1494:Generated_Source\PSoC5/CapSense_CSHL.c ****                     else
1495:Generated_Source\PSoC5/CapSense_CSHL.c ****                     {
1496:Generated_Source\PSoC5/CapSense_CSHL.c ****                         /* Do filtering */
1497:Generated_Source\PSoC5/CapSense_CSHL.c ****                         #if (0u != (CapSense_MEDIAN_FILTER & CapSense_RADIAL_SLIDERS_POS_FILTERS_MA
1498:Generated_Source\PSoC5/CapSense_CSHL.c ****                             if (0u != (posFiltersMask & CapSense_MEDIAN_FILTER))
1499:Generated_Source\PSoC5/CapSense_CSHL.c ****                             {
1500:Generated_Source\PSoC5/CapSense_CSHL.c ****                                 tempPos = (uint8) position;
1501:Generated_Source\PSoC5/CapSense_CSHL.c ****                                 position = CapSense_MedianFilter(position,
1502:Generated_Source\PSoC5/CapSense_CSHL.c ****                                                                         CapSense_posFiltersData[pos
1503:Generated_Source\PSoC5/CapSense_CSHL.c ****                                                                         CapSense_posFiltersData[pos
1504:Generated_Source\PSoC5/CapSense_CSHL.c ****                                 CapSense_posFiltersData[posIndex + 1u] = 
1505:Generated_Source\PSoC5/CapSense_CSHL.c ****                                                                               CapSense_posFiltersDa
1506:Generated_Source\PSoC5/CapSense_CSHL.c ****                                 CapSense_posFiltersData[posIndex] = tempPos;
1507:Generated_Source\PSoC5/CapSense_CSHL.c ****                             }
1508:Generated_Source\PSoC5/CapSense_CSHL.c ****                         #endif /* (0u != (CapSense_MEDIAN_FILTER & 
1509:Generated_Source\PSoC5/CapSense_CSHL.c ****                                *          CapSense_RADIAL_SLIDERS_POS_FILTERS_MASK))
1510:Generated_Source\PSoC5/CapSense_CSHL.c ****                                */
1511:Generated_Source\PSoC5/CapSense_CSHL.c **** 
1512:Generated_Source\PSoC5/CapSense_CSHL.c ****                         #if (0u != (CapSense_AVERAGING_FILTER & \
1513:Generated_Source\PSoC5/CapSense_CSHL.c ****                                     CapSense_RADIAL_SLIDERS_POS_FILTERS_MASK))
1514:Generated_Source\PSoC5/CapSense_CSHL.c ****                             if (0u != (posFiltersMask & CapSense_AVERAGING_FILTER))
1515:Generated_Source\PSoC5/CapSense_CSHL.c ****                             {
1516:Generated_Source\PSoC5/CapSense_CSHL.c ****                                 tempPos = (uint8) position;
1517:Generated_Source\PSoC5/CapSense_CSHL.c ****                                 position = CapSense_AveragingFilter(position, 
ARM GAS  C:\Users\HENRIC~1\AppData\Local\Temp\ccxfh9yc.s 			page 43


1518:Generated_Source\PSoC5/CapSense_CSHL.c ****                                                                        CapSense_posFiltersData[posI
1519:Generated_Source\PSoC5/CapSense_CSHL.c ****                                                                        CapSense_posFiltersData[posI
1520:Generated_Source\PSoC5/CapSense_CSHL.c ****                                 CapSense_posFiltersData[posIndex+1u]= CapSense_posFiltersData[posIn
1521:Generated_Source\PSoC5/CapSense_CSHL.c ****                                 CapSense_posFiltersData[posIndex] = tempPos;
1522:Generated_Source\PSoC5/CapSense_CSHL.c ****                             }
1523:Generated_Source\PSoC5/CapSense_CSHL.c ****                         #endif /* (0u != (CapSense_AVERAGING_FILTER & \
1524:Generated_Source\PSoC5/CapSense_CSHL.c ****                                *          CapSense_RADIAL_SLIDERS_POS_FILTERS_MASK))
1525:Generated_Source\PSoC5/CapSense_CSHL.c ****                                */
1526:Generated_Source\PSoC5/CapSense_CSHL.c **** 
1527:Generated_Source\PSoC5/CapSense_CSHL.c ****                         #if (0u != (CapSense_IIR2_FILTER & CapSense_RADIAL_SLIDERS_POS_FILTERS_MASK
1528:Generated_Source\PSoC5/CapSense_CSHL.c ****                             if (0u != (posFiltersMask & CapSense_IIR2_FILTER))
1529:Generated_Source\PSoC5/CapSense_CSHL.c ****                             {
1530:Generated_Source\PSoC5/CapSense_CSHL.c ****                                 position = CapSense_IIR2Filter(position,
1531:Generated_Source\PSoC5/CapSense_CSHL.c ****                                                                     (uint16)CapSense_posFiltersData
1532:Generated_Source\PSoC5/CapSense_CSHL.c ****                                 CapSense_posFiltersData[posIndex] = (uint8) position;
1533:Generated_Source\PSoC5/CapSense_CSHL.c ****                             }
1534:Generated_Source\PSoC5/CapSense_CSHL.c ****                         #endif /* (0u != (CapSense_IIR2_FILTER & 
1535:Generated_Source\PSoC5/CapSense_CSHL.c ****                                *          CapSense_RADIAL_SLIDERS_POS_FILTERS_MASK))
1536:Generated_Source\PSoC5/CapSense_CSHL.c ****                                */
1537:Generated_Source\PSoC5/CapSense_CSHL.c **** 
1538:Generated_Source\PSoC5/CapSense_CSHL.c ****                         #if (0u != (CapSense_IIR4_FILTER & CapSense_RADIAL_SLIDERS_POS_FILTERS_MASK
1539:Generated_Source\PSoC5/CapSense_CSHL.c ****                             if (0u != (posFiltersMask & CapSense_IIR4_FILTER))
1540:Generated_Source\PSoC5/CapSense_CSHL.c ****                             {
1541:Generated_Source\PSoC5/CapSense_CSHL.c ****                                 position = CapSense_IIR4Filter(position,
1542:Generated_Source\PSoC5/CapSense_CSHL.c ****                                                                     (uint16)CapSense_posFiltersData
1543:Generated_Source\PSoC5/CapSense_CSHL.c ****                                 CapSense_posFiltersData[posIndex] = (uint8) position;
1544:Generated_Source\PSoC5/CapSense_CSHL.c ****                             }
1545:Generated_Source\PSoC5/CapSense_CSHL.c ****                         #endif /* (0u != (CapSense_IIR4_FILTER & 
1546:Generated_Source\PSoC5/CapSense_CSHL.c ****                                *          CapSense_RADIAL_SLIDERS_POS_FILTERS_MASK))
1547:Generated_Source\PSoC5/CapSense_CSHL.c ****                                */
1548:Generated_Source\PSoC5/CapSense_CSHL.c **** 
1549:Generated_Source\PSoC5/CapSense_CSHL.c ****                         #if (0u != (CapSense_JITTER_FILTER & CapSense_RADIAL_SLIDERS_POS_FILTERS_MA
1550:Generated_Source\PSoC5/CapSense_CSHL.c ****                             if (0u != (posFiltersMask & CapSense_JITTER_FILTER))
1551:Generated_Source\PSoC5/CapSense_CSHL.c ****                             {
1552:Generated_Source\PSoC5/CapSense_CSHL.c ****                                 position = CapSense_JitterFilter(position, 
1553:Generated_Source\PSoC5/CapSense_CSHL.c ****                                                                          CapSense_posFiltersData[po
1554:Generated_Source\PSoC5/CapSense_CSHL.c ****                                 CapSense_posFiltersData[posIndex] = (uint8) position;
1555:Generated_Source\PSoC5/CapSense_CSHL.c ****                             }
1556:Generated_Source\PSoC5/CapSense_CSHL.c ****                         #endif /* (0u != (CapSense_JITTER_FILTER &
1557:Generated_Source\PSoC5/CapSense_CSHL.c ****                                *           CapSense_RADIAL_SLIDERS_POS_FILTERS_MASK))
1558:Generated_Source\PSoC5/CapSense_CSHL.c ****                                */
1559:Generated_Source\PSoC5/CapSense_CSHL.c ****                     }
1560:Generated_Source\PSoC5/CapSense_CSHL.c ****                 }
1561:Generated_Source\PSoC5/CapSense_CSHL.c ****             #endif /* (0u != CapSense_RADIAL_SLIDERS_POS_FILTERS_MASK) */
1562:Generated_Source\PSoC5/CapSense_CSHL.c **** 
1563:Generated_Source\PSoC5/CapSense_CSHL.c ****         }
1564:Generated_Source\PSoC5/CapSense_CSHL.c ****         else
1565:Generated_Source\PSoC5/CapSense_CSHL.c ****         {
1566:Generated_Source\PSoC5/CapSense_CSHL.c ****             /* The maximum didn't find */
1567:Generated_Source\PSoC5/CapSense_CSHL.c ****             position = 0xFFFFu;
1568:Generated_Source\PSoC5/CapSense_CSHL.c **** 
1569:Generated_Source\PSoC5/CapSense_CSHL.c ****             #if (0u != CapSense_RADIAL_SLIDERS_POS_FILTERS_MASK)
1570:Generated_Source\PSoC5/CapSense_CSHL.c ****                 /* Reset the filters */
1571:Generated_Source\PSoC5/CapSense_CSHL.c ****                 if((posFiltersMask & CapSense_ANY_POS_FILTER) != 0u)
1572:Generated_Source\PSoC5/CapSense_CSHL.c ****                 {
1573:Generated_Source\PSoC5/CapSense_CSHL.c ****                     CapSense_posFiltersData[firstTimeIndex] = 0u;
1574:Generated_Source\PSoC5/CapSense_CSHL.c ****                 }
ARM GAS  C:\Users\HENRIC~1\AppData\Local\Temp\ccxfh9yc.s 			page 44


1575:Generated_Source\PSoC5/CapSense_CSHL.c ****             #endif /* (0u != CapSense_RADIAL_SLIDERS_POS_FILTERS_MASK) */
1576:Generated_Source\PSoC5/CapSense_CSHL.c ****         }
1577:Generated_Source\PSoC5/CapSense_CSHL.c ****         
1578:Generated_Source\PSoC5/CapSense_CSHL.c ****         return (position);
1579:Generated_Source\PSoC5/CapSense_CSHL.c ****     }
1580:Generated_Source\PSoC5/CapSense_CSHL.c **** #endif
1581:Generated_Source\PSoC5/CapSense_CSHL.c **** 
1582:Generated_Source\PSoC5/CapSense_CSHL.c **** 
1583:Generated_Source\PSoC5/CapSense_CSHL.c **** #if(CapSense_TOTAL_TOUCH_PADS_COUNT > 0u)
1584:Generated_Source\PSoC5/CapSense_CSHL.c ****     /*******************************************************************************
1585:Generated_Source\PSoC5/CapSense_CSHL.c ****     * Function Name: CapSense_GetTouchCentroidPos
1586:Generated_Source\PSoC5/CapSense_CSHL.c ****     ********************************************************************************
1587:Generated_Source\PSoC5/CapSense_CSHL.c ****     *
1588:Generated_Source\PSoC5/CapSense_CSHL.c ****     * Summary:
1589:Generated_Source\PSoC5/CapSense_CSHL.c ****     *  If a finger is present on touch pad, this function calculates the X and Y
1590:Generated_Source\PSoC5/CapSense_CSHL.c ****     *  position of the finger by calculating the centroids within touch pad specified
1591:Generated_Source\PSoC5/CapSense_CSHL.c ****     *  range. The X and Y positions are calculated to the API resolutions set in the
1592:Generated_Source\PSoC5/CapSense_CSHL.c ****     *  CapSense customizer. Returns a 1 if a finger is on the touchpad.
1593:Generated_Source\PSoC5/CapSense_CSHL.c ****     *  The position filter is applied to the result if enabled.
1594:Generated_Source\PSoC5/CapSense_CSHL.c ****     *  This function is available only if a touch pad is defined by the CapSense
1595:Generated_Source\PSoC5/CapSense_CSHL.c ****     *  customizer.
1596:Generated_Source\PSoC5/CapSense_CSHL.c ****     *
1597:Generated_Source\PSoC5/CapSense_CSHL.c ****     * Parameters:
1598:Generated_Source\PSoC5/CapSense_CSHL.c ****     *  widget:  Widget number. 
1599:Generated_Source\PSoC5/CapSense_CSHL.c ****     *  For every touchpad widget there are defines in this format:
1600:Generated_Source\PSoC5/CapSense_CSHL.c ****     *  #define CapSense_TP_"widget_name"            5
1601:Generated_Source\PSoC5/CapSense_CSHL.c ****     *
1602:Generated_Source\PSoC5/CapSense_CSHL.c ****     *  pos:     Pointer to the array of two uint16 elements, where result
1603:Generated_Source\PSoC5/CapSense_CSHL.c ****     *  result of calculation of X and Y position are stored.
1604:Generated_Source\PSoC5/CapSense_CSHL.c ****     *  pos[0u]  - position of X
1605:Generated_Source\PSoC5/CapSense_CSHL.c ****     *  pos[1u]  - position of Y
1606:Generated_Source\PSoC5/CapSense_CSHL.c ****     *
1607:Generated_Source\PSoC5/CapSense_CSHL.c ****     * Return:
1608:Generated_Source\PSoC5/CapSense_CSHL.c ****     *  Returns a 1 if a finger is on the touch pad, 0 - if not.
1609:Generated_Source\PSoC5/CapSense_CSHL.c ****     *
1610:Generated_Source\PSoC5/CapSense_CSHL.c ****     * Side Effects:
1611:Generated_Source\PSoC5/CapSense_CSHL.c ****     *   There are no checks of widget type argument provided to this function.
1612:Generated_Source\PSoC5/CapSense_CSHL.c ****     *   The unproper widget type provided will cause unexpected position
1613:Generated_Source\PSoC5/CapSense_CSHL.c ****     *   calculations.
1614:Generated_Source\PSoC5/CapSense_CSHL.c ****     *
1615:Generated_Source\PSoC5/CapSense_CSHL.c ****     * Reentrant:
1616:Generated_Source\PSoC5/CapSense_CSHL.c ****     *  No.
1617:Generated_Source\PSoC5/CapSense_CSHL.c ****     *
1618:Generated_Source\PSoC5/CapSense_CSHL.c ****     *******************************************************************************/
1619:Generated_Source\PSoC5/CapSense_CSHL.c ****     uint8 CapSense_GetTouchCentroidPos(uint8 widget, uint16* pos)
1620:Generated_Source\PSoC5/CapSense_CSHL.c **** 	                                    
1621:Generated_Source\PSoC5/CapSense_CSHL.c ****     {
1622:Generated_Source\PSoC5/CapSense_CSHL.c ****         #if (0u != CapSense_TOUCH_PADS_POS_FILTERS_MASK)
1623:Generated_Source\PSoC5/CapSense_CSHL.c ****             uint8 posXIndex;
1624:Generated_Source\PSoC5/CapSense_CSHL.c ****             uint8 posYIndex;
1625:Generated_Source\PSoC5/CapSense_CSHL.c ****             uint8 firstTimeIndex = CapSense_posFiltersData[widget];
1626:Generated_Source\PSoC5/CapSense_CSHL.c ****             uint8 posFiltersMask = CapSense_posFiltersMask[widget];
1627:Generated_Source\PSoC5/CapSense_CSHL.c ****         #endif /* (0u != CapSense_TOUCH_PADS_POS_FILTERS_MASK) */
1628:Generated_Source\PSoC5/CapSense_CSHL.c **** 
1629:Generated_Source\PSoC5/CapSense_CSHL.c ****         #if ((0u != (CapSense_MEDIAN_FILTER & CapSense_TOUCH_PADS_POS_FILTERS_MASK)) || \
1630:Generated_Source\PSoC5/CapSense_CSHL.c ****              (0u != (CapSense_AVERAGING_FILTER & CapSense_TOUCH_PADS_POS_FILTERS_MASK)))
1631:Generated_Source\PSoC5/CapSense_CSHL.c ****             uint16 tempPos;
ARM GAS  C:\Users\HENRIC~1\AppData\Local\Temp\ccxfh9yc.s 			page 45


1632:Generated_Source\PSoC5/CapSense_CSHL.c ****         #endif /* ((0u != (CapSense_MEDIAN_FILTER & CapSense_TOUCH_PADS_POS_FILTERS_MASK)) || \
1633:Generated_Source\PSoC5/CapSense_CSHL.c ****                *   (0u != (CapSense_AVERAGING_FILTER & CapSense_TOUCH_PADS_POS_FILTERS_MASK)))
1634:Generated_Source\PSoC5/CapSense_CSHL.c ****                */
1635:Generated_Source\PSoC5/CapSense_CSHL.c **** 
1636:Generated_Source\PSoC5/CapSense_CSHL.c ****         uint8 maxX;
1637:Generated_Source\PSoC5/CapSense_CSHL.c ****         uint8 maxY;
1638:Generated_Source\PSoC5/CapSense_CSHL.c ****         uint8 posX;
1639:Generated_Source\PSoC5/CapSense_CSHL.c ****         uint8 posY;
1640:Generated_Source\PSoC5/CapSense_CSHL.c ****         uint8 touch = 0u;
1641:Generated_Source\PSoC5/CapSense_CSHL.c ****         uint8 offset = CapSense_rawDataIndex[widget];
1642:Generated_Source\PSoC5/CapSense_CSHL.c ****         uint8 count = CapSense_numberOfSensors[widget];
1643:Generated_Source\PSoC5/CapSense_CSHL.c ****         
1644:Generated_Source\PSoC5/CapSense_CSHL.c ****         /* Find Maximum within X centroid */
1645:Generated_Source\PSoC5/CapSense_CSHL.c ****         #if (CapSense_IS_DIPLEX_SLIDER)
1646:Generated_Source\PSoC5/CapSense_CSHL.c ****             maxX = CapSense_FindMaximum(offset, count, CapSense_fingerThreshold[widget], 0u);
1647:Generated_Source\PSoC5/CapSense_CSHL.c ****         #else
1648:Generated_Source\PSoC5/CapSense_CSHL.c ****             maxX = CapSense_FindMaximum(offset, count, CapSense_fingerThreshold[widget]);
1649:Generated_Source\PSoC5/CapSense_CSHL.c ****         #endif /* (CapSense_IS_DIPLEX_SLIDER) */
1650:Generated_Source\PSoC5/CapSense_CSHL.c **** 
1651:Generated_Source\PSoC5/CapSense_CSHL.c ****         if (maxX != 0xFFu)
1652:Generated_Source\PSoC5/CapSense_CSHL.c ****         {
1653:Generated_Source\PSoC5/CapSense_CSHL.c ****             offset = CapSense_rawDataIndex[widget + 1u];
1654:Generated_Source\PSoC5/CapSense_CSHL.c ****             count = CapSense_numberOfSensors[widget + 1u];
1655:Generated_Source\PSoC5/CapSense_CSHL.c **** 
1656:Generated_Source\PSoC5/CapSense_CSHL.c ****             /* Find Maximum within Y centroid */
1657:Generated_Source\PSoC5/CapSense_CSHL.c ****             #if (CapSense_IS_DIPLEX_SLIDER)
1658:Generated_Source\PSoC5/CapSense_CSHL.c ****                 maxY = CapSense_FindMaximum(offset, count, CapSense_fingerThreshold[widget + 1u], 0
1659:Generated_Source\PSoC5/CapSense_CSHL.c ****             #else
1660:Generated_Source\PSoC5/CapSense_CSHL.c ****                 maxY = CapSense_FindMaximum(offset, count, CapSense_fingerThreshold[widget + 1u]);
1661:Generated_Source\PSoC5/CapSense_CSHL.c ****             #endif /* (CapSense_IS_DIPLEX_SLIDER) */
1662:Generated_Source\PSoC5/CapSense_CSHL.c **** 
1663:Generated_Source\PSoC5/CapSense_CSHL.c ****             if (maxY != 0xFFu)
1664:Generated_Source\PSoC5/CapSense_CSHL.c ****             {
1665:Generated_Source\PSoC5/CapSense_CSHL.c ****                 /* X and Y maximums are found = true touch */
1666:Generated_Source\PSoC5/CapSense_CSHL.c ****                 touch = 1u;
1667:Generated_Source\PSoC5/CapSense_CSHL.c ****                 
1668:Generated_Source\PSoC5/CapSense_CSHL.c ****                 /* Calculate Y centroid */
1669:Generated_Source\PSoC5/CapSense_CSHL.c ****                 posY = CapSense_CalcCentroid(maxY, offset, count, 
1670:Generated_Source\PSoC5/CapSense_CSHL.c ****                             CapSense_centroidMult[widget + 1u], CapSense_noiseThreshold[widget + 1u
1671:Generated_Source\PSoC5/CapSense_CSHL.c ****                 
1672:Generated_Source\PSoC5/CapSense_CSHL.c ****                 /* Calculate X centroid */
1673:Generated_Source\PSoC5/CapSense_CSHL.c ****                 offset = CapSense_rawDataIndex[widget];
1674:Generated_Source\PSoC5/CapSense_CSHL.c ****                 count = CapSense_numberOfSensors[widget];
1675:Generated_Source\PSoC5/CapSense_CSHL.c ****                 
1676:Generated_Source\PSoC5/CapSense_CSHL.c ****                 posX = CapSense_CalcCentroid(maxX, offset, count, 
1677:Generated_Source\PSoC5/CapSense_CSHL.c ****                             CapSense_centroidMult[widget],CapSense_noiseThreshold[widget]);
1678:Generated_Source\PSoC5/CapSense_CSHL.c ****     
1679:Generated_Source\PSoC5/CapSense_CSHL.c ****                 #if (0u != CapSense_TOUCH_PADS_POS_FILTERS_MASK)
1680:Generated_Source\PSoC5/CapSense_CSHL.c ****                     /* Check if this TP has enabled filters */
1681:Generated_Source\PSoC5/CapSense_CSHL.c ****                     if (0u != (posFiltersMask & CapSense_ANY_POS_FILTER))
1682:Generated_Source\PSoC5/CapSense_CSHL.c ****                     {
1683:Generated_Source\PSoC5/CapSense_CSHL.c ****                         /* Caluclate position to store filters data */
1684:Generated_Source\PSoC5/CapSense_CSHL.c ****                         posXIndex  = firstTimeIndex + 1u;
1685:Generated_Source\PSoC5/CapSense_CSHL.c ****                         posYIndex  = CapSense_posFiltersData[widget + 1u];
1686:Generated_Source\PSoC5/CapSense_CSHL.c ****                         
1687:Generated_Source\PSoC5/CapSense_CSHL.c ****                         if (0u == CapSense_posFiltersData[firstTimeIndex])
1688:Generated_Source\PSoC5/CapSense_CSHL.c ****                         {
ARM GAS  C:\Users\HENRIC~1\AppData\Local\Temp\ccxfh9yc.s 			page 46


1689:Generated_Source\PSoC5/CapSense_CSHL.c ****                             /* Init filters */
1690:Generated_Source\PSoC5/CapSense_CSHL.c ****                             CapSense_posFiltersData[posXIndex] = posX;
1691:Generated_Source\PSoC5/CapSense_CSHL.c ****                             CapSense_posFiltersData[posYIndex] = posY;
1692:Generated_Source\PSoC5/CapSense_CSHL.c **** 
1693:Generated_Source\PSoC5/CapSense_CSHL.c ****                             #if((0u != (CapSense_MEDIAN_FILTER & \
1694:Generated_Source\PSoC5/CapSense_CSHL.c ****                                         CapSense_TOUCH_PADS_POS_FILTERS_MASK))|| \
1695:Generated_Source\PSoC5/CapSense_CSHL.c ****                                 (0u != (CapSense_AVERAGING_FILTER & \
1696:Generated_Source\PSoC5/CapSense_CSHL.c ****                                         CapSense_TOUCH_PADS_POS_FILTERS_MASK)))
1697:Generated_Source\PSoC5/CapSense_CSHL.c **** 
1698:Generated_Source\PSoC5/CapSense_CSHL.c ****                                 if ( (0u != (posFiltersMask & CapSense_MEDIAN_FILTER)) || 
1699:Generated_Source\PSoC5/CapSense_CSHL.c ****                                      (0u != (posFiltersMask & CapSense_AVERAGING_FILTER)) )
1700:Generated_Source\PSoC5/CapSense_CSHL.c ****                                 {
1701:Generated_Source\PSoC5/CapSense_CSHL.c ****                                     CapSense_posFiltersData[posXIndex + 1u] = posX;
1702:Generated_Source\PSoC5/CapSense_CSHL.c ****                                     CapSense_posFiltersData[posYIndex + 1u] = posY;
1703:Generated_Source\PSoC5/CapSense_CSHL.c ****                                 }
1704:Generated_Source\PSoC5/CapSense_CSHL.c ****                             #endif /* ((0u != (CapSense_MEDIAN_FILTER & \
1705:Generated_Source\PSoC5/CapSense_CSHL.c ****                                    *           CapSense_TOUCH_PADS_POS_FILTERS_MASK)) || \
1706:Generated_Source\PSoC5/CapSense_CSHL.c ****                                    *    (0u != (CapSense_AVERAGING_FILTER & \
1707:Generated_Source\PSoC5/CapSense_CSHL.c ****                                    *            CapSense_TOUCH_PADS_POS_FILTERS_MASK)))
1708:Generated_Source\PSoC5/CapSense_CSHL.c ****                                    */
1709:Generated_Source\PSoC5/CapSense_CSHL.c ****                             
1710:Generated_Source\PSoC5/CapSense_CSHL.c ****                             CapSense_posFiltersData[firstTimeIndex] = 1u;
1711:Generated_Source\PSoC5/CapSense_CSHL.c ****                         }
1712:Generated_Source\PSoC5/CapSense_CSHL.c ****                         else
1713:Generated_Source\PSoC5/CapSense_CSHL.c ****                         {
1714:Generated_Source\PSoC5/CapSense_CSHL.c ****                             /* Do filtering */
1715:Generated_Source\PSoC5/CapSense_CSHL.c ****                             #if (0u != (CapSense_MEDIAN_FILTER & CapSense_TOUCH_PADS_POS_FILTERS_MA
1716:Generated_Source\PSoC5/CapSense_CSHL.c ****                                 if (0u != (posFiltersMask & CapSense_MEDIAN_FILTER))
1717:Generated_Source\PSoC5/CapSense_CSHL.c ****                                 {
1718:Generated_Source\PSoC5/CapSense_CSHL.c ****                                     tempPos = posX;
1719:Generated_Source\PSoC5/CapSense_CSHL.c ****                                     posX = (uint8) CapSense_MedianFilter(posX,
1720:Generated_Source\PSoC5/CapSense_CSHL.c ****                                                                       CapSense_posFiltersData[posXI
1721:Generated_Source\PSoC5/CapSense_CSHL.c ****                                                                       CapSense_posFiltersData[posXI
1722:Generated_Source\PSoC5/CapSense_CSHL.c ****                                     CapSense_posFiltersData[posXIndex + 1u] = 
1723:Generated_Source\PSoC5/CapSense_CSHL.c ****                                                                              CapSense_posFiltersDat
1724:Generated_Source\PSoC5/CapSense_CSHL.c ****                                     CapSense_posFiltersData[posXIndex] = tempPos;
1725:Generated_Source\PSoC5/CapSense_CSHL.c ****                                     
1726:Generated_Source\PSoC5/CapSense_CSHL.c ****                                     tempPos = posY;
1727:Generated_Source\PSoC5/CapSense_CSHL.c ****                                     posY = (uint8) CapSense_MedianFilter(posY,
1728:Generated_Source\PSoC5/CapSense_CSHL.c ****                                                                        CapSense_posFiltersData[posY
1729:Generated_Source\PSoC5/CapSense_CSHL.c ****                                                                        CapSense_posFiltersData[posY
1730:Generated_Source\PSoC5/CapSense_CSHL.c ****                                     CapSense_posFiltersData[posYIndex + 1u] = 
1731:Generated_Source\PSoC5/CapSense_CSHL.c ****                                                                              CapSense_posFiltersDat
1732:Generated_Source\PSoC5/CapSense_CSHL.c ****                                     CapSense_posFiltersData[posYIndex] = tempPos;
1733:Generated_Source\PSoC5/CapSense_CSHL.c ****                                 }
1734:Generated_Source\PSoC5/CapSense_CSHL.c ****                                 
1735:Generated_Source\PSoC5/CapSense_CSHL.c ****                             #endif /* (0u != (CapSense_MEDIAN_FILTER & \
1736:Generated_Source\PSoC5/CapSense_CSHL.c ****                                    *          CapSense_TOUCH_PADS_POS_FILTERS_MASK))
1737:Generated_Source\PSoC5/CapSense_CSHL.c ****                                    */
1738:Generated_Source\PSoC5/CapSense_CSHL.c **** 
1739:Generated_Source\PSoC5/CapSense_CSHL.c ****                             #if(0u !=(CapSense_AVERAGING_FILTER & CapSense_TOUCH_PADS_POS_FILTERS_M
1740:Generated_Source\PSoC5/CapSense_CSHL.c ****                                 if (0u != (posFiltersMask & CapSense_AVERAGING_FILTER))
1741:Generated_Source\PSoC5/CapSense_CSHL.c ****                                 {
1742:Generated_Source\PSoC5/CapSense_CSHL.c ****                                     tempPos = posX;
1743:Generated_Source\PSoC5/CapSense_CSHL.c ****                                     posX = (uint8) CapSense_AveragingFilter(posX,
1744:Generated_Source\PSoC5/CapSense_CSHL.c ****                                                                        CapSense_posFiltersData[posX
1745:Generated_Source\PSoC5/CapSense_CSHL.c ****                                                                        CapSense_posFiltersData[posX
ARM GAS  C:\Users\HENRIC~1\AppData\Local\Temp\ccxfh9yc.s 			page 47


1746:Generated_Source\PSoC5/CapSense_CSHL.c ****                                     CapSense_posFiltersData[posXIndex + 1u] = 
1747:Generated_Source\PSoC5/CapSense_CSHL.c ****                                                                              CapSense_posFiltersDat
1748:Generated_Source\PSoC5/CapSense_CSHL.c ****                                     CapSense_posFiltersData[posXIndex] = tempPos;
1749:Generated_Source\PSoC5/CapSense_CSHL.c ****                                     
1750:Generated_Source\PSoC5/CapSense_CSHL.c ****                                     tempPos = posY;
1751:Generated_Source\PSoC5/CapSense_CSHL.c ****                                     posY = (uint8) CapSense_AveragingFilter(posY, 
1752:Generated_Source\PSoC5/CapSense_CSHL.c ****                                                                       CapSense_posFiltersData[posYI
1753:Generated_Source\PSoC5/CapSense_CSHL.c ****                                                                       CapSense_posFiltersData[posYI
1754:Generated_Source\PSoC5/CapSense_CSHL.c ****                                     CapSense_posFiltersData[posYIndex + 1u] = 
1755:Generated_Source\PSoC5/CapSense_CSHL.c ****                                                                             CapSense_posFiltersData
1756:Generated_Source\PSoC5/CapSense_CSHL.c ****                                     CapSense_posFiltersData[posYIndex] = tempPos;
1757:Generated_Source\PSoC5/CapSense_CSHL.c ****                                 }
1758:Generated_Source\PSoC5/CapSense_CSHL.c **** 
1759:Generated_Source\PSoC5/CapSense_CSHL.c ****                             #endif /* (0u != (CapSense_AVERAGING_FILTER & \
1760:Generated_Source\PSoC5/CapSense_CSHL.c ****                                    *           CapSense_TOUCH_PADS_POS_FILTERS_MASK))
1761:Generated_Source\PSoC5/CapSense_CSHL.c ****                                    */
1762:Generated_Source\PSoC5/CapSense_CSHL.c **** 
1763:Generated_Source\PSoC5/CapSense_CSHL.c ****                             #if (0u != (CapSense_IIR2_FILTER & CapSense_TOUCH_PADS_POS_FILTERS_MASK
1764:Generated_Source\PSoC5/CapSense_CSHL.c ****                                 if (0u != (posFiltersMask & CapSense_IIR2_FILTER))
1765:Generated_Source\PSoC5/CapSense_CSHL.c ****                                 {
1766:Generated_Source\PSoC5/CapSense_CSHL.c ****                                     posX = (uint8) CapSense_IIR2Filter(posX, 
1767:Generated_Source\PSoC5/CapSense_CSHL.c ****                                                                            CapSense_posFiltersData[
1768:Generated_Source\PSoC5/CapSense_CSHL.c ****                                     CapSense_posFiltersData[posXIndex] = posX;
1769:Generated_Source\PSoC5/CapSense_CSHL.c ****                                     
1770:Generated_Source\PSoC5/CapSense_CSHL.c ****                                     posY = (uint8) CapSense_IIR2Filter(posY, 
1771:Generated_Source\PSoC5/CapSense_CSHL.c ****                                                                             CapSense_posFiltersData
1772:Generated_Source\PSoC5/CapSense_CSHL.c ****                                     CapSense_posFiltersData[posYIndex] = posY;
1773:Generated_Source\PSoC5/CapSense_CSHL.c ****                                 }
1774:Generated_Source\PSoC5/CapSense_CSHL.c ****                                 
1775:Generated_Source\PSoC5/CapSense_CSHL.c ****                             #endif /* (0u != (CapSense_IIR2_FILTER & \
1776:Generated_Source\PSoC5/CapSense_CSHL.c ****                                    *          CapSense_TOUCH_PADS_POS_FILTERS_MASK))
1777:Generated_Source\PSoC5/CapSense_CSHL.c ****                                    */
1778:Generated_Source\PSoC5/CapSense_CSHL.c **** 
1779:Generated_Source\PSoC5/CapSense_CSHL.c ****                             #if (0u != (CapSense_IIR4_FILTER & CapSense_TOUCH_PADS_POS_FILTERS_MASK
1780:Generated_Source\PSoC5/CapSense_CSHL.c ****                                 if (0u != (posFiltersMask & CapSense_IIR4_FILTER))
1781:Generated_Source\PSoC5/CapSense_CSHL.c ****                                 {
1782:Generated_Source\PSoC5/CapSense_CSHL.c ****                                     posX = (uint8) CapSense_IIR4Filter((uint16)posX,
1783:Generated_Source\PSoC5/CapSense_CSHL.c ****                                                                     (uint16)CapSense_posFiltersData
1784:Generated_Source\PSoC5/CapSense_CSHL.c ****                                     CapSense_posFiltersData[posXIndex] = posX;
1785:Generated_Source\PSoC5/CapSense_CSHL.c **** 
1786:Generated_Source\PSoC5/CapSense_CSHL.c ****                                     posY = (uint8) CapSense_IIR4Filter((uint16)posY,
1787:Generated_Source\PSoC5/CapSense_CSHL.c ****                                                                     (uint16)CapSense_posFiltersData
1788:Generated_Source\PSoC5/CapSense_CSHL.c ****                                     CapSense_posFiltersData[posYIndex] = posY;
1789:Generated_Source\PSoC5/CapSense_CSHL.c ****                                 }
1790:Generated_Source\PSoC5/CapSense_CSHL.c ****                                 
1791:Generated_Source\PSoC5/CapSense_CSHL.c ****                             #endif /* (0u != (CapSense_IIR4_FILTER & \
1792:Generated_Source\PSoC5/CapSense_CSHL.c ****                                    *           CapSense_TOUCH_PADS_POS_FILTERS_MASK))
1793:Generated_Source\PSoC5/CapSense_CSHL.c ****                                    */
1794:Generated_Source\PSoC5/CapSense_CSHL.c **** 
1795:Generated_Source\PSoC5/CapSense_CSHL.c ****                             #if (0u != (CapSense_JITTER_FILTER & CapSense_TOUCH_PADS_POS_FILTERS_MA
1796:Generated_Source\PSoC5/CapSense_CSHL.c ****                                 if (0u != (posFiltersMask & CapSense_JITTER_FILTER))
1797:Generated_Source\PSoC5/CapSense_CSHL.c ****                                     {
1798:Generated_Source\PSoC5/CapSense_CSHL.c ****                                         posX = (uint8) CapSense_JitterFilter(posX, 
1799:Generated_Source\PSoC5/CapSense_CSHL.c ****                                                                             CapSense_posFiltersData
1800:Generated_Source\PSoC5/CapSense_CSHL.c ****                                         CapSense_posFiltersData[posXIndex] = posX;
1801:Generated_Source\PSoC5/CapSense_CSHL.c ****                                         
1802:Generated_Source\PSoC5/CapSense_CSHL.c ****                                         posY = (uint8) CapSense_JitterFilter(posY, 
ARM GAS  C:\Users\HENRIC~1\AppData\Local\Temp\ccxfh9yc.s 			page 48


1803:Generated_Source\PSoC5/CapSense_CSHL.c ****                                                                             CapSense_posFiltersData
1804:Generated_Source\PSoC5/CapSense_CSHL.c ****                                         CapSense_posFiltersData[posYIndex] = posY;
1805:Generated_Source\PSoC5/CapSense_CSHL.c ****                                     }
1806:Generated_Source\PSoC5/CapSense_CSHL.c ****                             #endif /* (0u != (CapSense_JITTER_FILTER & \
1807:Generated_Source\PSoC5/CapSense_CSHL.c ****                                    *           CapSense_TOUCH_PADS_POS_FILTERS_MASK))
1808:Generated_Source\PSoC5/CapSense_CSHL.c ****                                    */
1809:Generated_Source\PSoC5/CapSense_CSHL.c ****                         }
1810:Generated_Source\PSoC5/CapSense_CSHL.c ****                     }
1811:Generated_Source\PSoC5/CapSense_CSHL.c ****                 #endif /* (0u != CapSense_TOUCH_PADS_POS_FILTERS_MASK) */
1812:Generated_Source\PSoC5/CapSense_CSHL.c **** 
1813:Generated_Source\PSoC5/CapSense_CSHL.c ****                 /* Save positions */
1814:Generated_Source\PSoC5/CapSense_CSHL.c ****                 pos[0u] = posX;
1815:Generated_Source\PSoC5/CapSense_CSHL.c ****                 pos[1u] = posY;
1816:Generated_Source\PSoC5/CapSense_CSHL.c ****             }
1817:Generated_Source\PSoC5/CapSense_CSHL.c ****         }
1818:Generated_Source\PSoC5/CapSense_CSHL.c **** 
1819:Generated_Source\PSoC5/CapSense_CSHL.c ****         #if (0u != CapSense_TOUCH_PADS_POS_FILTERS_MASK)
1820:Generated_Source\PSoC5/CapSense_CSHL.c ****             if(touch == 0u)
1821:Generated_Source\PSoC5/CapSense_CSHL.c ****             {
1822:Generated_Source\PSoC5/CapSense_CSHL.c ****                 /* Reset the filters */
1823:Generated_Source\PSoC5/CapSense_CSHL.c ****                 if ((posFiltersMask & CapSense_ANY_POS_FILTER) != 0u)
1824:Generated_Source\PSoC5/CapSense_CSHL.c ****                 {
1825:Generated_Source\PSoC5/CapSense_CSHL.c ****                     CapSense_posFiltersData[firstTimeIndex] = 0u;
1826:Generated_Source\PSoC5/CapSense_CSHL.c ****                 }
1827:Generated_Source\PSoC5/CapSense_CSHL.c ****             }
1828:Generated_Source\PSoC5/CapSense_CSHL.c ****         #endif /* (0u != CapSense_TOUCH_PADS_POS_FILTERS_MASK) */
1829:Generated_Source\PSoC5/CapSense_CSHL.c ****         
1830:Generated_Source\PSoC5/CapSense_CSHL.c ****         return (touch);
1831:Generated_Source\PSoC5/CapSense_CSHL.c ****     }
1832:Generated_Source\PSoC5/CapSense_CSHL.c **** #endif /* (CapSense_TOTAL_TOUCH_PADS_COUNT > 0u) */
1833:Generated_Source\PSoC5/CapSense_CSHL.c **** 
1834:Generated_Source\PSoC5/CapSense_CSHL.c **** 
1835:Generated_Source\PSoC5/CapSense_CSHL.c **** #if ( (CapSense_RAW_FILTER_MASK & CapSense_MEDIAN_FILTER) | \
1836:Generated_Source\PSoC5/CapSense_CSHL.c ****       (CapSense_POS_FILTERS_MASK & CapSense_MEDIAN_FILTER) )
1837:Generated_Source\PSoC5/CapSense_CSHL.c ****     /*******************************************************************************
1838:Generated_Source\PSoC5/CapSense_CSHL.c ****     * Function Name: CapSense_MedianFilter
1839:Generated_Source\PSoC5/CapSense_CSHL.c ****     ********************************************************************************
1840:Generated_Source\PSoC5/CapSense_CSHL.c ****     *
1841:Generated_Source\PSoC5/CapSense_CSHL.c ****     * Summary:
1842:Generated_Source\PSoC5/CapSense_CSHL.c ****     *  Median filter function. 
1843:Generated_Source\PSoC5/CapSense_CSHL.c ****     *  The median filter looks at the three most recent samples and reports the 
1844:Generated_Source\PSoC5/CapSense_CSHL.c ****     *  median value.
1845:Generated_Source\PSoC5/CapSense_CSHL.c ****     *
1846:Generated_Source\PSoC5/CapSense_CSHL.c ****     * Parameters:
1847:Generated_Source\PSoC5/CapSense_CSHL.c ****     *  x1:  Current value.
1848:Generated_Source\PSoC5/CapSense_CSHL.c ****     *  x2:  Previous value.
1849:Generated_Source\PSoC5/CapSense_CSHL.c ****     *  x3:  Before previous value.
1850:Generated_Source\PSoC5/CapSense_CSHL.c ****     *
1851:Generated_Source\PSoC5/CapSense_CSHL.c ****     * Return:
1852:Generated_Source\PSoC5/CapSense_CSHL.c ****     *  Returns filtered value.
1853:Generated_Source\PSoC5/CapSense_CSHL.c ****     *
1854:Generated_Source\PSoC5/CapSense_CSHL.c ****     *******************************************************************************/
1855:Generated_Source\PSoC5/CapSense_CSHL.c ****     uint16 CapSense_MedianFilter(uint16 x1, uint16 x2, uint16 x3)
1856:Generated_Source\PSoC5/CapSense_CSHL.c ****                                          
1857:Generated_Source\PSoC5/CapSense_CSHL.c ****     {
1858:Generated_Source\PSoC5/CapSense_CSHL.c ****         uint16 tmp;
1859:Generated_Source\PSoC5/CapSense_CSHL.c ****         
ARM GAS  C:\Users\HENRIC~1\AppData\Local\Temp\ccxfh9yc.s 			page 49


1860:Generated_Source\PSoC5/CapSense_CSHL.c ****         if (x1 > x2)
1861:Generated_Source\PSoC5/CapSense_CSHL.c ****         {
1862:Generated_Source\PSoC5/CapSense_CSHL.c ****             tmp = x2;
1863:Generated_Source\PSoC5/CapSense_CSHL.c ****             x2 = x1;
1864:Generated_Source\PSoC5/CapSense_CSHL.c ****             x1 = tmp;
1865:Generated_Source\PSoC5/CapSense_CSHL.c ****         }
1866:Generated_Source\PSoC5/CapSense_CSHL.c ****         
1867:Generated_Source\PSoC5/CapSense_CSHL.c ****         if (x2 > x3)
1868:Generated_Source\PSoC5/CapSense_CSHL.c ****         {
1869:Generated_Source\PSoC5/CapSense_CSHL.c ****             x2 = x3;
1870:Generated_Source\PSoC5/CapSense_CSHL.c ****         }
1871:Generated_Source\PSoC5/CapSense_CSHL.c ****         
1872:Generated_Source\PSoC5/CapSense_CSHL.c ****         return ((x1 > x2) ? x1 : x2);
1873:Generated_Source\PSoC5/CapSense_CSHL.c ****     }
1874:Generated_Source\PSoC5/CapSense_CSHL.c **** #endif /* ( (CapSense_RAW_FILTER_MASK & CapSense_MEDIAN_FILTER) | \
1875:Generated_Source\PSoC5/CapSense_CSHL.c ****        *    (CapSense_POS_FILTERS_MASK & CapSense_MEDIAN_FILTER) )
1876:Generated_Source\PSoC5/CapSense_CSHL.c ****        */
1877:Generated_Source\PSoC5/CapSense_CSHL.c **** 
1878:Generated_Source\PSoC5/CapSense_CSHL.c **** 
1879:Generated_Source\PSoC5/CapSense_CSHL.c **** #if ( (CapSense_RAW_FILTER_MASK & CapSense_AVERAGING_FILTER) | \
1880:Generated_Source\PSoC5/CapSense_CSHL.c ****       (CapSense_POS_FILTERS_MASK & CapSense_AVERAGING_FILTER) )
1881:Generated_Source\PSoC5/CapSense_CSHL.c ****     /*******************************************************************************
1882:Generated_Source\PSoC5/CapSense_CSHL.c ****     * Function Name: CapSense_AveragingFilter
1883:Generated_Source\PSoC5/CapSense_CSHL.c ****     ********************************************************************************
1884:Generated_Source\PSoC5/CapSense_CSHL.c ****     *
1885:Generated_Source\PSoC5/CapSense_CSHL.c ****     * Summary:
1886:Generated_Source\PSoC5/CapSense_CSHL.c ****     *  Averaging filter function.
1887:Generated_Source\PSoC5/CapSense_CSHL.c ****     *  The averaging filter looks at the three most recent samples of position and
1888:Generated_Source\PSoC5/CapSense_CSHL.c ****     *  reports the averaging value.
1889:Generated_Source\PSoC5/CapSense_CSHL.c ****     *
1890:Generated_Source\PSoC5/CapSense_CSHL.c ****     * Parameters:
1891:Generated_Source\PSoC5/CapSense_CSHL.c ****     *  x1:  Current value.
1892:Generated_Source\PSoC5/CapSense_CSHL.c ****     *  x2:  Previous value.
1893:Generated_Source\PSoC5/CapSense_CSHL.c ****     *  x3:  Before previous value.
1894:Generated_Source\PSoC5/CapSense_CSHL.c ****     *
1895:Generated_Source\PSoC5/CapSense_CSHL.c ****     * Return:
1896:Generated_Source\PSoC5/CapSense_CSHL.c ****     *  Returns filtered value.
1897:Generated_Source\PSoC5/CapSense_CSHL.c ****     *
1898:Generated_Source\PSoC5/CapSense_CSHL.c ****     *******************************************************************************/
1899:Generated_Source\PSoC5/CapSense_CSHL.c ****     uint16 CapSense_AveragingFilter(uint16 x1, uint16 x2, uint16 x3)
1900:Generated_Source\PSoC5/CapSense_CSHL.c ****                                             
1901:Generated_Source\PSoC5/CapSense_CSHL.c ****     {
1902:Generated_Source\PSoC5/CapSense_CSHL.c ****         uint32 tmp = ((uint32)x1 + (uint32)x2 + (uint32)x3) / 3u;
1903:Generated_Source\PSoC5/CapSense_CSHL.c ****         
1904:Generated_Source\PSoC5/CapSense_CSHL.c ****         return ((uint16) tmp);
1905:Generated_Source\PSoC5/CapSense_CSHL.c ****     }
1906:Generated_Source\PSoC5/CapSense_CSHL.c **** #endif /* ( (CapSense_RAW_FILTER_MASK & CapSense_AVERAGING_FILTER) | \
1907:Generated_Source\PSoC5/CapSense_CSHL.c ****        *    (CapSense_POS_FILTERS_MASK & CapSense_AVERAGING_FILTER) )
1908:Generated_Source\PSoC5/CapSense_CSHL.c ****        */
1909:Generated_Source\PSoC5/CapSense_CSHL.c **** 
1910:Generated_Source\PSoC5/CapSense_CSHL.c **** 
1911:Generated_Source\PSoC5/CapSense_CSHL.c **** #if ( (CapSense_RAW_FILTER_MASK & CapSense_IIR2_FILTER) | \
1912:Generated_Source\PSoC5/CapSense_CSHL.c ****       (CapSense_POS_FILTERS_MASK & CapSense_IIR2_FILTER) )
1913:Generated_Source\PSoC5/CapSense_CSHL.c ****     /*******************************************************************************
1914:Generated_Source\PSoC5/CapSense_CSHL.c ****     * Function Name: CapSense_IIR2Filter
1915:Generated_Source\PSoC5/CapSense_CSHL.c ****     ********************************************************************************
1916:Generated_Source\PSoC5/CapSense_CSHL.c ****     *
ARM GAS  C:\Users\HENRIC~1\AppData\Local\Temp\ccxfh9yc.s 			page 50


1917:Generated_Source\PSoC5/CapSense_CSHL.c ****     * Summary:
1918:Generated_Source\PSoC5/CapSense_CSHL.c ****     *  IIR1/2 filter function. IIR1/2 = 1/2current + 1/2previous.
1919:Generated_Source\PSoC5/CapSense_CSHL.c ****     *
1920:Generated_Source\PSoC5/CapSense_CSHL.c ****     * Parameters:
1921:Generated_Source\PSoC5/CapSense_CSHL.c ****     *  x1:  Current value.
1922:Generated_Source\PSoC5/CapSense_CSHL.c ****     *  x2:  Previous value.
1923:Generated_Source\PSoC5/CapSense_CSHL.c ****     *
1924:Generated_Source\PSoC5/CapSense_CSHL.c ****     * Return:
1925:Generated_Source\PSoC5/CapSense_CSHL.c ****     *  Returns filtered value.
1926:Generated_Source\PSoC5/CapSense_CSHL.c ****     *
1927:Generated_Source\PSoC5/CapSense_CSHL.c ****     *******************************************************************************/
1928:Generated_Source\PSoC5/CapSense_CSHL.c ****     uint16 CapSense_IIR2Filter(uint16 x1, uint16 x2)
1929:Generated_Source\PSoC5/CapSense_CSHL.c ****                                        
1930:Generated_Source\PSoC5/CapSense_CSHL.c ****     {
1931:Generated_Source\PSoC5/CapSense_CSHL.c ****         uint32 tmp;
1932:Generated_Source\PSoC5/CapSense_CSHL.c ****         
1933:Generated_Source\PSoC5/CapSense_CSHL.c ****         /* IIR = 1/2 Current Value+ 1/2 Previous Value */
1934:Generated_Source\PSoC5/CapSense_CSHL.c ****         tmp = (uint32)x1 + (uint32)x2;
1935:Generated_Source\PSoC5/CapSense_CSHL.c ****         tmp >>= 1u;
1936:Generated_Source\PSoC5/CapSense_CSHL.c ****     
1937:Generated_Source\PSoC5/CapSense_CSHL.c ****         return ((uint16) tmp);
1938:Generated_Source\PSoC5/CapSense_CSHL.c ****     }
1939:Generated_Source\PSoC5/CapSense_CSHL.c **** #endif /* ( (CapSense_RAW_FILTER_MASK & CapSense_IIR2_FILTER) | \
1940:Generated_Source\PSoC5/CapSense_CSHL.c ****        *    (CapSense_POS_FILTERS_MASK & CapSense_IIR2_FILTER) )
1941:Generated_Source\PSoC5/CapSense_CSHL.c ****        */
1942:Generated_Source\PSoC5/CapSense_CSHL.c **** 
1943:Generated_Source\PSoC5/CapSense_CSHL.c **** 
1944:Generated_Source\PSoC5/CapSense_CSHL.c **** #if ( (CapSense_RAW_FILTER_MASK & CapSense_IIR4_FILTER) | \
1945:Generated_Source\PSoC5/CapSense_CSHL.c ****       (CapSense_POS_FILTERS_MASK & CapSense_IIR4_FILTER) )
1946:Generated_Source\PSoC5/CapSense_CSHL.c ****     /*******************************************************************************
1947:Generated_Source\PSoC5/CapSense_CSHL.c ****     * Function Name: CapSense_IIR4Filter
1948:Generated_Source\PSoC5/CapSense_CSHL.c ****     ********************************************************************************
1949:Generated_Source\PSoC5/CapSense_CSHL.c ****     *
1950:Generated_Source\PSoC5/CapSense_CSHL.c ****     * Summary:
1951:Generated_Source\PSoC5/CapSense_CSHL.c ****     *  IIR1/4 filter function. IIR1/4 = 1/4current + 3/4previous.
1952:Generated_Source\PSoC5/CapSense_CSHL.c ****     *
1953:Generated_Source\PSoC5/CapSense_CSHL.c ****     * Parameters:
1954:Generated_Source\PSoC5/CapSense_CSHL.c ****     *  x1:  Current value.
1955:Generated_Source\PSoC5/CapSense_CSHL.c ****     *  x2:  Previous value.
1956:Generated_Source\PSoC5/CapSense_CSHL.c ****     *
1957:Generated_Source\PSoC5/CapSense_CSHL.c ****     * Return:
1958:Generated_Source\PSoC5/CapSense_CSHL.c ****     *  Returns filtered value.
1959:Generated_Source\PSoC5/CapSense_CSHL.c ****     *
1960:Generated_Source\PSoC5/CapSense_CSHL.c ****     *******************************************************************************/
1961:Generated_Source\PSoC5/CapSense_CSHL.c ****     uint16 CapSense_IIR4Filter(uint16 x1, uint16 x2)
1962:Generated_Source\PSoC5/CapSense_CSHL.c ****                                        
1963:Generated_Source\PSoC5/CapSense_CSHL.c ****     {
 864              		.loc 1 1963 0
 865              		.cfi_startproc
 866              		@ args = 0, pretend = 0, frame = 0
 867              		@ frame_needed = 0, uses_anonymous_args = 0
 868              		@ link register save eliminated.
 869              	.LVL115:
1964:Generated_Source\PSoC5/CapSense_CSHL.c ****         uint32 tmp;
1965:Generated_Source\PSoC5/CapSense_CSHL.c ****         
1966:Generated_Source\PSoC5/CapSense_CSHL.c ****         /* IIR = 1/4 Current Value + 3/4 Previous Value */
1967:Generated_Source\PSoC5/CapSense_CSHL.c ****         tmp = (uint32)x1 + (uint32)x2;
ARM GAS  C:\Users\HENRIC~1\AppData\Local\Temp\ccxfh9yc.s 			page 51


 870              		.loc 1 1967 0
 871 0000 0844     		add	r0, r0, r1
 872              	.LVL116:
1968:Generated_Source\PSoC5/CapSense_CSHL.c ****         tmp += ((uint32)x2 << 1u);
 873              		.loc 1 1968 0
 874 0002 00EB4100 		add	r0, r0, r1, lsl #1
 875              	.LVL117:
1969:Generated_Source\PSoC5/CapSense_CSHL.c ****         tmp >>= 2u;
1970:Generated_Source\PSoC5/CapSense_CSHL.c ****         
1971:Generated_Source\PSoC5/CapSense_CSHL.c ****         return ((uint16) tmp);
1972:Generated_Source\PSoC5/CapSense_CSHL.c ****     }
 876              		.loc 1 1972 0
 877 0006 C0F38F00 		ubfx	r0, r0, #2, #16
 878              	.LVL118:
 879 000a 7047     		bx	lr
 880              		.cfi_endproc
 881              	.LFE14:
 882              		.size	CapSense_IIR4Filter, .-CapSense_IIR4Filter
 883              		.section	.text.CapSense_UpdateSensorBaseline,"ax",%progbits
 884              		.align	2
 885              		.global	CapSense_UpdateSensorBaseline
 886              		.thumb
 887              		.thumb_func
 888              		.type	CapSense_UpdateSensorBaseline, %function
 889              	CapSense_UpdateSensorBaseline:
 890              	.LFB4:
 367:Generated_Source\PSoC5/CapSense_CSHL.c ****     uint32 calc;
 891              		.loc 1 367 0
 892              		.cfi_startproc
 893              		@ args = 0, pretend = 0, frame = 0
 894              		@ frame_needed = 0, uses_anonymous_args = 0
 895              	.LVL119:
 896 0000 2DE9F041 		push	{r4, r5, r6, r7, r8, lr}
 897              		.cfi_def_cfa_offset 24
 898              		.cfi_offset 4, -24
 899              		.cfi_offset 5, -20
 900              		.cfi_offset 6, -16
 901              		.cfi_offset 7, -12
 902              		.cfi_offset 8, -8
 903              		.cfi_offset 14, -4
 904 0004 0446     		mov	r4, r0
 371:Generated_Source\PSoC5/CapSense_CSHL.c ****     uint8 noiseThreshold = CapSense_noiseThreshold[widget];
 905              		.loc 1 371 0
 906 0006 314B     		ldr	r3, .L88
 907 0008 1B5C     		ldrb	r3, [r3, r0]	@ zero_extendqisi2
 908              	.LVL120:
 372:Generated_Source\PSoC5/CapSense_CSHL.c ****     
 909              		.loc 1 372 0
 910 000a 314A     		ldr	r2, .L88+4
 911 000c 1344     		add	r3, r3, r2
 912              	.LVL121:
 913 000e 1E7B     		ldrb	r6, [r3, #12]	@ zero_extendqisi2
 914              	.LVL122:
 401:Generated_Source\PSoC5/CapSense_CSHL.c ****         CapSense_rawFilterData1[sensor] = filteredRawData;
 915              		.loc 1 401 0
 916 0010 304D     		ldr	r5, .L88+8
 917 0012 35F81010 		ldrh	r1, [r5, r0, lsl #1]
ARM GAS  C:\Users\HENRIC~1\AppData\Local\Temp\ccxfh9yc.s 			page 52


 918 0016 304B     		ldr	r3, .L88+12
 919              	.LVL123:
 920 0018 33F81000 		ldrh	r0, [r3, r0, lsl #1]
 921              	.LVL124:
 922 001c FFF7FEFF 		bl	CapSense_IIR4Filter
 923              	.LVL125:
 924 0020 0746     		mov	r7, r0
 925              	.LVL126:
 402:Generated_Source\PSoC5/CapSense_CSHL.c ****             
 926              		.loc 1 402 0
 927 0022 25F81400 		strh	r0, [r5, r4, lsl #1]	@ movhi
 421:Generated_Source\PSoC5/CapSense_CSHL.c ****     #endif /* (CapSense_TUNING_METHOD == CapSense_AUTO_TUNING) */
 928              		.loc 1 421 0
 929 0026 2046     		mov	r0, r4
 930              	.LVL127:
 931 0028 FFF7FEFF 		bl	CapSense_CalculateThresholds
 932              	.LVL128:
 427:Generated_Source\PSoC5/CapSense_CSHL.c ****     {
 933              		.loc 1 427 0
 934 002c 2B4B     		ldr	r3, .L88+16
 935 002e 33F81420 		ldrh	r2, [r3, r4, lsl #1]
 936 0032 9742     		cmp	r7, r2
 937 0034 04D3     		bcc	.L78
 429:Generated_Source\PSoC5/CapSense_CSHL.c ****         widget = 1u;    /* Positive difference - Calculate the Signal */
 938              		.loc 1 429 0
 939 0036 BD1A     		subs	r5, r7, r2
 940 0038 ADB2     		uxth	r5, r5
 941              	.LVL129:
 430:Generated_Source\PSoC5/CapSense_CSHL.c ****     }
 942              		.loc 1 430 0
 943 003a 4FF00108 		mov	r8, #1
 944 003e 03E0     		b	.L79
 945              	.LVL130:
 946              	.L78:
 434:Generated_Source\PSoC5/CapSense_CSHL.c ****         widget = 0u;    /* Negative difference - Do NOT calculate the Signal */
 947              		.loc 1 434 0
 948 0040 D51B     		subs	r5, r2, r7
 949 0042 ADB2     		uxth	r5, r5
 950              	.LVL131:
 435:Generated_Source\PSoC5/CapSense_CSHL.c ****     }
 951              		.loc 1 435 0
 952 0044 4FF00008 		mov	r8, #0
 953              	.LVL132:
 954              	.L79:
 438:Generated_Source\PSoC5/CapSense_CSHL.c ****     {
 955              		.loc 1 438 0
 956 0048 B8F1000F 		cmp	r8, #0
 957 004c 10D1     		bne	.L80
 438:Generated_Source\PSoC5/CapSense_CSHL.c ****     {
 958              		.loc 1 438 0 is_stmt 0 discriminator 1
 959 004e 142D     		cmp	r5, #20
 960 0050 0ED9     		bls	.L80
 440:Generated_Source\PSoC5/CapSense_CSHL.c ****         {
 961              		.loc 1 440 0 is_stmt 1
 962 0052 234B     		ldr	r3, .L88+20
 963 0054 1B5D     		ldrb	r3, [r3, r4]	@ zero_extendqisi2
 964 0056 042B     		cmp	r3, #4
ARM GAS  C:\Users\HENRIC~1\AppData\Local\Temp\ccxfh9yc.s 			page 53


 965 0058 06D9     		bls	.L81
 442:Generated_Source\PSoC5/CapSense_CSHL.c ****             CapSense_lowBaselineResetCnt[sensor] = 0u;
 966              		.loc 1 442 0
 967 005a 2046     		mov	r0, r4
 968 005c FFF7FEFF 		bl	CapSense_BaseInit
 969              	.LVL133:
 443:Generated_Source\PSoC5/CapSense_CSHL.c ****         }
 970              		.loc 1 443 0
 971 0060 0022     		movs	r2, #0
 972 0062 1F4B     		ldr	r3, .L88+20
 973 0064 1A55     		strb	r2, [r3, r4]
 974 0066 1AE0     		b	.L82
 975              	.L81:
 447:Generated_Source\PSoC5/CapSense_CSHL.c ****         }
 976              		.loc 1 447 0
 977 0068 0133     		adds	r3, r3, #1
 978 006a 1D4A     		ldr	r2, .L88+20
 979 006c 1355     		strb	r3, [r2, r4]
 980 006e 16E0     		b	.L82
 981              	.L80:
 454:Generated_Source\PSoC5/CapSense_CSHL.c ****                  ((tempRaw < (uint16) CapSense_NEGATIVE_NOISE_THRESHOLD)
 982              		.loc 1 454 0
 983 0070 B3B2     		uxth	r3, r6
 984 0072 9D42     		cmp	r5, r3
 985 0074 04D9     		bls	.L83
 454:Generated_Source\PSoC5/CapSense_CSHL.c ****                  ((tempRaw < (uint16) CapSense_NEGATIVE_NOISE_THRESHOLD)
 986              		.loc 1 454 0 is_stmt 0 discriminator 1
 987 0076 132D     		cmp	r5, #19
 988 0078 11D8     		bhi	.L82
 456:Generated_Source\PSoC5/CapSense_CSHL.c ****             {
 989              		.loc 1 456 0 is_stmt 1
 990 007a B8F1000F 		cmp	r8, #0
 991 007e 0ED1     		bne	.L82
 992              	.L83:
 993              	.LVL134:
 461:Generated_Source\PSoC5/CapSense_CSHL.c **** 
 994              		.loc 1 461 0
 995 0080 1849     		ldr	r1, .L88+24
 996 0082 0B5D     		ldrb	r3, [r1, r4]	@ zero_extendqisi2
 997 0084 43EA0223 		orr	r3, r3, r2, lsl #8
 998              	.LVL135:
 464:Generated_Source\PSoC5/CapSense_CSHL.c **** 
 999              		.loc 1 464 0
 1000 0088 1F44     		add	r7, r7, r3
 1001              	.LVL136:
 467:Generated_Source\PSoC5/CapSense_CSHL.c **** 
 1002              		.loc 1 467 0
 1003 008a BF1A     		subs	r7, r7, r2
 1004              	.LVL137:
 470:Generated_Source\PSoC5/CapSense_CSHL.c ****                 CapSense_sensorBaselineLow[sensor] = ((uint8) calc);
 1005              		.loc 1 470 0
 1006 008c C7F30F22 		ubfx	r2, r7, #8, #16
 1007 0090 124B     		ldr	r3, .L88+16
 1008 0092 23F81420 		strh	r2, [r3, r4, lsl #1]	@ movhi
 471:Generated_Source\PSoC5/CapSense_CSHL.c **** 
 1009              		.loc 1 471 0
 1010 0096 0F55     		strb	r7, [r1, r4]
ARM GAS  C:\Users\HENRIC~1\AppData\Local\Temp\ccxfh9yc.s 			page 54


 473:Generated_Source\PSoC5/CapSense_CSHL.c ****         #if (CapSense_AUTO_RESET == CapSense_AUTO_RESET_DISABLE)
 1011              		.loc 1 473 0
 1012 0098 0022     		movs	r2, #0
 1013 009a 114B     		ldr	r3, .L88+20
 1014 009c 1A55     		strb	r2, [r3, r4]
 1015              	.LVL138:
 1016              	.L82:
 480:Generated_Source\PSoC5/CapSense_CSHL.c ****     {
 1017              		.loc 1 480 0
 1018 009e B6B2     		uxth	r6, r6
 1019              	.LVL139:
 1020 00a0 B542     		cmp	r5, r6
 1021 00a2 0DD9     		bls	.L84
 480:Generated_Source\PSoC5/CapSense_CSHL.c ****     {
 1022              		.loc 1 480 0 is_stmt 0 discriminator 1
 1023 00a4 B8F1000F 		cmp	r8, #0
 1024 00a8 0AD0     		beq	.L84
 484:Generated_Source\PSoC5/CapSense_CSHL.c ****             {
 1025              		.loc 1 484 0 is_stmt 1
 1026 00aa FF2D     		cmp	r5, #255
 1027 00ac 04D9     		bls	.L85
 486:Generated_Source\PSoC5/CapSense_CSHL.c ****             }    
 1028              		.loc 1 486 0
 1029 00ae FF22     		movs	r2, #255
 1030 00b0 0D4B     		ldr	r3, .L88+28
 1031 00b2 1A55     		strb	r2, [r3, r4]
 1032 00b4 BDE8F081 		pop	{r4, r5, r6, r7, r8, pc}
 1033              	.LVL140:
 1034              	.L85:
 490:Generated_Source\PSoC5/CapSense_CSHL.c ****             }
 1035              		.loc 1 490 0
 1036 00b8 0B4B     		ldr	r3, .L88+28
 1037 00ba 1D55     		strb	r5, [r3, r4]
 1038 00bc BDE8F081 		pop	{r4, r5, r6, r7, r8, pc}
 1039              	.LVL141:
 1040              	.L84:
 499:Generated_Source\PSoC5/CapSense_CSHL.c ****     }
 1041              		.loc 1 499 0
 1042 00c0 0022     		movs	r2, #0
 1043 00c2 094B     		ldr	r3, .L88+28
 1044 00c4 1A55     		strb	r2, [r3, r4]
 1045 00c6 BDE8F081 		pop	{r4, r5, r6, r7, r8, pc}
 1046              	.LVL142:
 1047              	.L89:
 1048 00ca 00BF     		.align	2
 1049              	.L88:
 1050 00cc 00000000 		.word	CapSense_widgetNumber
 1051 00d0 00000000 		.word	.LANCHOR0
 1052 00d4 00000000 		.word	CapSense_rawFilterData1
 1053 00d8 00000000 		.word	CapSense_sensorRaw
 1054 00dc 00000000 		.word	CapSense_sensorBaseline
 1055 00e0 00000000 		.word	CapSense_lowBaselineResetCnt
 1056 00e4 00000000 		.word	CapSense_sensorBaselineLow
 1057 00e8 00000000 		.word	CapSense_sensorSignal
 1058              		.cfi_endproc
 1059              	.LFE4:
 1060              		.size	CapSense_UpdateSensorBaseline, .-CapSense_UpdateSensorBaseline
ARM GAS  C:\Users\HENRIC~1\AppData\Local\Temp\ccxfh9yc.s 			page 55


 1061              		.section	.text.CapSense_UpdateEnabledBaselines,"ax",%progbits
 1062              		.align	2
 1063              		.global	CapSense_UpdateEnabledBaselines
 1064              		.thumb
 1065              		.thumb_func
 1066              		.type	CapSense_UpdateEnabledBaselines, %function
 1067              	CapSense_UpdateEnabledBaselines:
 1068              	.LFB5:
 540:Generated_Source\PSoC5/CapSense_CSHL.c ****     uint8 i;
 1069              		.loc 1 540 0
 1070              		.cfi_startproc
 1071              		@ args = 0, pretend = 0, frame = 0
 1072              		@ frame_needed = 0, uses_anonymous_args = 0
 1073 0000 10B5     		push	{r4, lr}
 1074              		.cfi_def_cfa_offset 8
 1075              		.cfi_offset 4, -8
 1076              		.cfi_offset 14, -4
 1077              	.LVL143:
 545:Generated_Source\PSoC5/CapSense_CSHL.c ****     {
 1078              		.loc 1 545 0
 1079 0002 0024     		movs	r4, #0
 1080 0004 0DE0     		b	.L91
 1081              	.LVL144:
 1082              	.L93:
 547:Generated_Source\PSoC5/CapSense_CSHL.c ****         enMask = (uint8)(0x01u << (i & 0x07u));
 1083              		.loc 1 547 0
 1084 0006 E208     		lsrs	r2, r4, #3
 548:Generated_Source\PSoC5/CapSense_CSHL.c ****         if((CapSense_sensorEnableMask[pos] & enMask) != 0u)
 1085              		.loc 1 548 0
 1086 0008 04F00701 		and	r1, r4, #7
 1087 000c 0123     		movs	r3, #1
 1088 000e 8B40     		lsls	r3, r3, r1
 1089              	.LVL145:
 549:Generated_Source\PSoC5/CapSense_CSHL.c ****         {
 1090              		.loc 1 549 0
 1091 0010 0549     		ldr	r1, .L95
 1092 0012 8A5C     		ldrb	r2, [r1, r2]	@ zero_extendqisi2
 1093 0014 1342     		tst	r3, r2
 1094 0016 02D0     		beq	.L92
 551:Generated_Source\PSoC5/CapSense_CSHL.c ****         }
 1095              		.loc 1 551 0
 1096 0018 2046     		mov	r0, r4
 1097 001a FFF7FEFF 		bl	CapSense_UpdateSensorBaseline
 1098              	.LVL146:
 1099              	.L92:
 545:Generated_Source\PSoC5/CapSense_CSHL.c ****     {
 1100              		.loc 1 545 0 discriminator 2
 1101 001e 0134     		adds	r4, r4, #1
 1102              	.LVL147:
 1103 0020 E4B2     		uxtb	r4, r4
 1104              	.LVL148:
 1105              	.L91:
 545:Generated_Source\PSoC5/CapSense_CSHL.c ****     {
 1106              		.loc 1 545 0 is_stmt 0 discriminator 1
 1107 0022 062C     		cmp	r4, #6
 1108 0024 EFD9     		bls	.L93
 554:Generated_Source\PSoC5/CapSense_CSHL.c **** 
ARM GAS  C:\Users\HENRIC~1\AppData\Local\Temp\ccxfh9yc.s 			page 56


 1109              		.loc 1 554 0 is_stmt 1
 1110 0026 10BD     		pop	{r4, pc}
 1111              	.LVL149:
 1112              	.L96:
 1113              		.align	2
 1114              	.L95:
 1115 0028 00000000 		.word	CapSense_sensorEnableMask
 1116              		.cfi_endproc
 1117              	.LFE5:
 1118              		.size	CapSense_UpdateEnabledBaselines, .-CapSense_UpdateEnabledBaselines
 1119              		.section	.text.CapSense_GetCentroidPos,"ax",%progbits
 1120              		.align	2
 1121              		.global	CapSense_GetCentroidPos
 1122              		.thumb
 1123              		.thumb_func
 1124              		.type	CapSense_GetCentroidPos, %function
 1125              	CapSense_GetCentroidPos:
 1126              	.LFB13:
1228:Generated_Source\PSoC5/CapSense_CSHL.c ****         #if (CapSense_IS_DIPLEX_SLIDER)
 1127              		.loc 1 1228 0
 1128              		.cfi_startproc
 1129              		@ args = 0, pretend = 0, frame = 0
 1130              		@ frame_needed = 0, uses_anonymous_args = 0
 1131              	.LVL150:
 1132 0000 2DE9F041 		push	{r4, r5, r6, r7, r8, lr}
 1133              		.cfi_def_cfa_offset 24
 1134              		.cfi_offset 4, -24
 1135              		.cfi_offset 5, -20
 1136              		.cfi_offset 6, -16
 1137              		.cfi_offset 7, -12
 1138              		.cfi_offset 8, -8
 1139              		.cfi_offset 14, -4
 1140 0004 82B0     		sub	sp, sp, #8
 1141              		.cfi_def_cfa_offset 32
 1142 0006 0446     		mov	r4, r0
1235:Generated_Source\PSoC5/CapSense_CSHL.c ****             uint8 posFiltersMask = CapSense_posFiltersMask[widget];  
 1143              		.loc 1 1235 0
 1144 0008 1B4B     		ldr	r3, .L102
 1145 000a 0344     		add	r3, r3, r0
 1146 000c 1D7C     		ldrb	r5, [r3, #16]	@ zero_extendqisi2
 1147              	.LVL151:
1248:Generated_Source\PSoC5/CapSense_CSHL.c ****         uint8 count = CapSense_numberOfSensors[widget];
 1148              		.loc 1 1248 0
 1149 000e 1B4A     		ldr	r2, .L102+4
 1150 0010 165C     		ldrb	r6, [r2, r0]	@ zero_extendqisi2
 1151              	.LVL152:
1249:Generated_Source\PSoC5/CapSense_CSHL.c ****                         
 1152              		.loc 1 1249 0
 1153 0012 0244     		add	r2, r2, r0
 1154 0014 1779     		ldrb	r7, [r2, #4]	@ zero_extendqisi2
 1155              	.LVL153:
1267:Generated_Source\PSoC5/CapSense_CSHL.c ****         #endif /* (CapSense_IS_DIPLEX_SLIDER) */
 1156              		.loc 1 1267 0
 1157 0016 1A79     		ldrb	r2, [r3, #4]	@ zero_extendqisi2
 1158 0018 3946     		mov	r1, r7
 1159 001a 3046     		mov	r0, r6
 1160              	.LVL154:
ARM GAS  C:\Users\HENRIC~1\AppData\Local\Temp\ccxfh9yc.s 			page 57


 1161 001c FFF7FEFF 		bl	CapSense_FindMaximum
 1162              	.LVL155:
1270:Generated_Source\PSoC5/CapSense_CSHL.c ****         {
 1163              		.loc 1 1270 0
 1164 0020 FF28     		cmp	r0, #255
 1165 0022 20D0     		beq	.L98
1273:Generated_Source\PSoC5/CapSense_CSHL.c ****                          offset, count, CapSense_centroidMult[widget], CapSense_noiseThreshold[widg
 1166              		.loc 1 1273 0
 1167 0024 DFF85080 		ldr	r8, .L102
 1168 0028 4444     		add	r4, r4, r8
 1169 002a 237B     		ldrb	r3, [r4, #12]	@ zero_extendqisi2
 1170 002c 0093     		str	r3, [sp]
 1171 002e 4FF4C853 		mov	r3, #6400
 1172 0032 3A46     		mov	r2, r7
 1173 0034 3146     		mov	r1, r6
 1174 0036 FFF7FEFF 		bl	CapSense_CalcCentroid
 1175              	.LVL156:
 1176 003a 0246     		mov	r2, r0
 1177 003c 80B2     		uxth	r0, r0
 1178              	.LVL157:
1281:Generated_Source\PSoC5/CapSense_CSHL.c ****                     
 1179              		.loc 1 1281 0
 1180 003e 6B1C     		adds	r3, r5, #1
 1181 0040 DBB2     		uxtb	r3, r3
 1182              	.LVL158:
1283:Generated_Source\PSoC5/CapSense_CSHL.c ****                     {
 1183              		.loc 1 1283 0
 1184 0042 A844     		add	r8, r8, r5
 1185 0044 98F81010 		ldrb	r1, [r8, #16]	@ zero_extendqisi2
 1186 0048 31B9     		cbnz	r1, .L99
1286:Generated_Source\PSoC5/CapSense_CSHL.c ****                         #if ((0u != (CapSense_MEDIAN_FILTER & \
 1187              		.loc 1 1286 0
 1188 004a 0B49     		ldr	r1, .L102
 1189 004c 0B44     		add	r3, r3, r1
 1190              	.LVL159:
 1191 004e 1A74     		strb	r2, [r3, #16]
1303:Generated_Source\PSoC5/CapSense_CSHL.c ****                     }
 1192              		.loc 1 1303 0
 1193 0050 0123     		movs	r3, #1
 1194              	.LVL160:
 1195 0052 88F81030 		strb	r3, [r8, #16]
 1196 0056 0CE0     		b	.L100
 1197              	.LVL161:
 1198              	.L99:
1352:Generated_Source\PSoC5/CapSense_CSHL.c ****                                 CapSense_posFiltersData[posIndex] = (uint8) position;
 1199              		.loc 1 1352 0
 1200 0058 074C     		ldr	r4, .L102
 1201 005a 1C44     		add	r4, r4, r3
1351:Generated_Source\PSoC5/CapSense_CSHL.c ****                                                                     (uint16)CapSense_posFiltersData
 1202              		.loc 1 1351 0
 1203 005c 217C     		ldrb	r1, [r4, #16]	@ zero_extendqisi2
 1204 005e FFF7FEFF 		bl	CapSense_IIR4Filter
 1205              	.LVL162:
1353:Generated_Source\PSoC5/CapSense_CSHL.c ****                             }                                
 1206              		.loc 1 1353 0
 1207 0062 2074     		strb	r0, [r4, #16]
 1208 0064 05E0     		b	.L100
ARM GAS  C:\Users\HENRIC~1\AppData\Local\Temp\ccxfh9yc.s 			page 58


 1209              	.LVL163:
 1210              	.L98:
1383:Generated_Source\PSoC5/CapSense_CSHL.c ****                 }
 1211              		.loc 1 1383 0
 1212 0066 044B     		ldr	r3, .L102
 1213 0068 1D44     		add	r5, r5, r3
 1214              	.LVL164:
 1215 006a 0023     		movs	r3, #0
 1216 006c 2B74     		strb	r3, [r5, #16]
1377:Generated_Source\PSoC5/CapSense_CSHL.c **** 
 1217              		.loc 1 1377 0
 1218 006e 4FF6FF70 		movw	r0, #65535
 1219              	.LVL165:
 1220              	.L100:
1390:Generated_Source\PSoC5/CapSense_CSHL.c **** #endif /* (CapSense_TOTAL_LINEAR_SLIDERS_COUNT > 0u) */
 1221              		.loc 1 1390 0
 1222 0072 02B0     		add	sp, sp, #8
 1223              		.cfi_def_cfa_offset 24
 1224              		@ sp needed
 1225 0074 BDE8F081 		pop	{r4, r5, r6, r7, r8, pc}
 1226              	.LVL166:
 1227              	.L103:
 1228              		.align	2
 1229              	.L102:
 1230 0078 00000000 		.word	.LANCHOR0
 1231 007c 00000000 		.word	.LANCHOR2
 1232              		.cfi_endproc
 1233              	.LFE13:
 1234              		.size	CapSense_GetCentroidPos, .-CapSense_GetCentroidPos
 1235              		.global	CapSense_posFiltersData
 1236              		.global	CapSense_posFiltersMask
 1237              		.global	CapSense_centroidMult
 1238              		.global	CapSense_numberOfSensors
 1239              		.global	CapSense_rawDataIndex
 1240              		.global	CapSense_debounceCounter
 1241              		.global	CapSense_debounce
 1242              		.global	CapSense_hysteresis
 1243              		.global	CapSense_noiseThreshold
 1244              		.global	CapSense_fingerThreshold
 1245              		.comm	CapSense_lowBaselineResetCnt,7,4
 1246              		.comm	CapSense_sensorOnMask,1,4
 1247              		.comm	CapSense_sensorSignal,7,4
 1248              		.comm	CapSense_sensorBaselineLow,7,4
 1249              		.comm	CapSense_sensorBaseline,14,4
 1250              		.comm	CapSense_rawFilterData1,14,4
 1251              		.section	.rodata
 1252              		.align	2
 1253              		.set	.LANCHOR2,. + 0
 1254              		.type	CapSense_rawDataIndex, %object
 1255              		.size	CapSense_rawDataIndex, 3
 1256              	CapSense_rawDataIndex:
 1257 0000 02       		.byte	2
 1258 0001 00       		.byte	0
 1259 0002 01       		.byte	1
 1260 0003 00       		.space	1
 1261              		.type	CapSense_numberOfSensors, %object
 1262              		.size	CapSense_numberOfSensors, 3
ARM GAS  C:\Users\HENRIC~1\AppData\Local\Temp\ccxfh9yc.s 			page 59


 1263              	CapSense_numberOfSensors:
 1264 0004 05       		.byte	5
 1265 0005 01       		.byte	1
 1266 0006 01       		.byte	1
 1267 0007 00       		.space	1
 1268              		.type	CapSense_posFiltersMask, %object
 1269              		.size	CapSense_posFiltersMask, 1
 1270              	CapSense_posFiltersMask:
 1271 0008 08       		.byte	8
 1272 0009 000000   		.space	3
 1273              		.type	CapSense_centroidMult, %object
 1274              		.size	CapSense_centroidMult, 2
 1275              	CapSense_centroidMult:
 1276 000c 0019     		.short	6400
 1277              		.data
 1278              		.align	2
 1279              		.set	.LANCHOR0,. + 0
 1280              		.type	CapSense_debounce, %object
 1281              		.size	CapSense_debounce, 3
 1282              	CapSense_debounce:
 1283 0000 01       		.byte	1
 1284 0001 01       		.byte	1
 1285 0002 01       		.byte	1
 1286 0003 00       		.space	1
 1287              		.type	CapSense_fingerThreshold, %object
 1288              		.size	CapSense_fingerThreshold, 3
 1289              	CapSense_fingerThreshold:
 1290 0004 64       		.byte	100
 1291 0005 64       		.byte	100
 1292 0006 64       		.byte	100
 1293 0007 00       		.space	1
 1294              		.type	CapSense_hysteresis, %object
 1295              		.size	CapSense_hysteresis, 3
 1296              	CapSense_hysteresis:
 1297 0008 00       		.byte	0
 1298 0009 0A       		.byte	10
 1299 000a 0A       		.byte	10
 1300 000b 00       		.space	1
 1301              		.type	CapSense_noiseThreshold, %object
 1302              		.size	CapSense_noiseThreshold, 3
 1303              	CapSense_noiseThreshold:
 1304 000c 14       		.byte	20
 1305 000d 14       		.byte	20
 1306 000e 14       		.byte	20
 1307 000f 00       		.space	1
 1308              		.type	CapSense_posFiltersData, %object
 1309              		.size	CapSense_posFiltersData, 3
 1310              	CapSense_posFiltersData:
 1311 0010 01       		.byte	1
 1312 0011 00       		.byte	0
 1313 0012 00       		.byte	0
 1314              		.bss
 1315              		.align	2
 1316              		.set	.LANCHOR1,. + 0
 1317              		.type	CapSense_debounceCounter, %object
 1318              		.size	CapSense_debounceCounter, 3
 1319              	CapSense_debounceCounter:
ARM GAS  C:\Users\HENRIC~1\AppData\Local\Temp\ccxfh9yc.s 			page 60


 1320 0000 000000   		.space	3
 1321 0003 00       		.space	1
 1322              		.type	CapSense_centroid.5261, %object
 1323              		.size	CapSense_centroid.5261, 3
 1324              	CapSense_centroid.5261:
 1325 0004 000000   		.space	3
 1326              		.text
 1327              	.Letext0:
 1328              		.file 2 "Generated_Source\\PSoC5\\cytypes.h"
 1329              		.file 3 "Generated_Source\\PSoC5\\CapSense.h"
 1330              		.file 4 "Generated_Source\\PSoC5\\CapSense_CSHL.h"